TMS320C2000 Assembler PC v22.6.1 Wed May 21 09:51:55 2025

Copyright (c) 1996-2018 Texas Instruments Incorporated
C:\Users\Daniel\AppData\Local\Temp\{78ED34F4-3C3B-4D89-8F5D-B64BD43A86E6} PAGE    1

       1              ;***************************************************************
       2              ;* TMS320C2000 G3 C/C++ Codegen                               PC v22.6.1.LTS *
       3              ;* Date/Time created: Wed May 21 09:51:55 2025                 *
       4              ;***************************************************************
       5                      .compiler_opts --abi=coffabi --cla_support=cla2 --diag_wrap=off --float_support=fpu32 --hll_source=on
       6                      .asg    XAR2, FP
       7              
       8              $C$DW$CU        .dwtag  DW_TAG_compile_unit
       9                      .dwattr $C$DW$CU, DW_AT_name("../DeviceSupport/source/f28003x_sysctrl.c")
      10                      .dwattr $C$DW$CU, DW_AT_producer("TI TMS320C2000 G3 C/C++ Codegen PC v22.6.1.LTS Copyright (c) 1996-2
      11                      .dwattr $C$DW$CU, DW_AT_TI_version(0x01)
      12                      .dwattr $C$DW$CU, DW_AT_comp_dir("C:\Users\Daniel\CodeComposer\UPS_MUCI\CPU1_FLASH")
      13              
      14              $C$DW$1 .dwtag  DW_TAG_subprogram
      15                      .dwattr $C$DW$1, DW_AT_name("F28x_usDelay")
      16                      .dwattr $C$DW$1, DW_AT_TI_symbol_name("_F28x_usDelay")
      17                      .dwattr $C$DW$1, DW_AT_declaration
      18                      .dwattr $C$DW$1, DW_AT_external
      19              $C$DW$2 .dwtag  DW_TAG_formal_parameter
      20                      .dwattr $C$DW$2, DW_AT_type(*$C$DW$T$12)
      21              
      22                      .dwendtag $C$DW$1
      23              
      24              $C$DW$3 .dwtag  DW_TAG_variable
      25                      .dwattr $C$DW$3, DW_AT_name("RamfuncsLoadStart")
      26                      .dwattr $C$DW$3, DW_AT_TI_symbol_name("_RamfuncsLoadStart")
      27                      .dwattr $C$DW$3, DW_AT_type(*$C$DW$T$19)
      28                      .dwattr $C$DW$3, DW_AT_declaration
      29                      .dwattr $C$DW$3, DW_AT_external
      30              
      31              $C$DW$4 .dwtag  DW_TAG_variable
      32                      .dwattr $C$DW$4, DW_AT_name("RamfuncsLoadSize")
      33                      .dwattr $C$DW$4, DW_AT_TI_symbol_name("_RamfuncsLoadSize")
      34                      .dwattr $C$DW$4, DW_AT_type(*$C$DW$T$19)
      35                      .dwattr $C$DW$4, DW_AT_declaration
      36                      .dwattr $C$DW$4, DW_AT_external
      37              
      38              $C$DW$5 .dwtag  DW_TAG_variable
      39                      .dwattr $C$DW$5, DW_AT_name("RamfuncsRunStart")
      40                      .dwattr $C$DW$5, DW_AT_TI_symbol_name("_RamfuncsRunStart")
      41                      .dwattr $C$DW$5, DW_AT_type(*$C$DW$T$19)
      42                      .dwattr $C$DW$5, DW_AT_declaration
      43                      .dwattr $C$DW$5, DW_AT_external
      44              
      45              
      46              $C$DW$6 .dwtag  DW_TAG_subprogram
      47                      .dwattr $C$DW$6, DW_AT_name("__eallow")
      48                      .dwattr $C$DW$6, DW_AT_TI_symbol_name("___eallow")
      49                      .dwattr $C$DW$6, DW_AT_declaration
      50                      .dwattr $C$DW$6, DW_AT_external
      51                      .dwendtag $C$DW$6
      52              
      53              
      54              $C$DW$7 .dwtag  DW_TAG_subprogram
      55                      .dwattr $C$DW$7, DW_AT_name("__edis")
TMS320C2000 Assembler PC v22.6.1 Wed May 21 09:51:55 2025

Copyright (c) 1996-2018 Texas Instruments Incorporated
C:\Users\Daniel\AppData\Local\Temp\{78ED34F4-3C3B-4D89-8F5D-B64BD43A86E6} PAGE    2

      56                      .dwattr $C$DW$7, DW_AT_TI_symbol_name("___edis")
      57                      .dwattr $C$DW$7, DW_AT_declaration
      58                      .dwattr $C$DW$7, DW_AT_external
      59                      .dwendtag $C$DW$7
      60              
      61              $C$DW$8 .dwtag  DW_TAG_variable
      62                      .dwattr $C$DW$8, DW_AT_name("Flash0EccRegs")
      63                      .dwattr $C$DW$8, DW_AT_TI_symbol_name("_Flash0EccRegs")
      64                      .dwattr $C$DW$8, DW_AT_type(*$C$DW$T$233)
      65                      .dwattr $C$DW$8, DW_AT_declaration
      66                      .dwattr $C$DW$8, DW_AT_external
      67              
      68              $C$DW$9 .dwtag  DW_TAG_variable
      69                      .dwattr $C$DW$9, DW_AT_name("WdRegs")
      70                      .dwattr $C$DW$9, DW_AT_TI_symbol_name("_WdRegs")
      71                      .dwattr $C$DW$9, DW_AT_type(*$C$DW$T$315)
      72                      .dwattr $C$DW$9, DW_AT_declaration
      73                      .dwattr $C$DW$9, DW_AT_external
      74              
      75              $C$DW$10        .dwtag  DW_TAG_variable
      76                      .dwattr $C$DW$10, DW_AT_name("Dcc0Regs")
      77                      .dwattr $C$DW$10, DW_AT_TI_symbol_name("_Dcc0Regs")
      78                      .dwattr $C$DW$10, DW_AT_type(*$C$DW$T$227)
      79                      .dwattr $C$DW$10, DW_AT_declaration
      80                      .dwattr $C$DW$10, DW_AT_external
      81              
      82              $C$DW$11        .dwtag  DW_TAG_variable
      83                      .dwattr $C$DW$11, DW_AT_name("Dcc1Regs")
      84                      .dwattr $C$DW$11, DW_AT_TI_symbol_name("_Dcc1Regs")
      85                      .dwattr $C$DW$11, DW_AT_type(*$C$DW$T$227)
      86                      .dwattr $C$DW$11, DW_AT_declaration
      87                      .dwattr $C$DW$11, DW_AT_external
      88              
      89              $C$DW$12        .dwtag  DW_TAG_variable
      90                      .dwattr $C$DW$12, DW_AT_name("ClkCfgRegs")
      91                      .dwattr $C$DW$12, DW_AT_TI_symbol_name("_ClkCfgRegs")
      92                      .dwattr $C$DW$12, DW_AT_type(*$C$DW$T$215)
      93                      .dwattr $C$DW$12, DW_AT_declaration
      94                      .dwattr $C$DW$12, DW_AT_external
      95              
      96              $C$DW$13        .dwtag  DW_TAG_variable
      97                      .dwattr $C$DW$13, DW_AT_name("CpuSysRegs")
      98                      .dwattr $C$DW$13, DW_AT_TI_symbol_name("_CpuSysRegs")
      99                      .dwattr $C$DW$13, DW_AT_type(*$C$DW$T$217)
     100                      .dwattr $C$DW$13, DW_AT_declaration
     101                      .dwattr $C$DW$13, DW_AT_external
     102              
     103              $C$DW$14        .dwtag  DW_TAG_variable
     104                      .dwattr $C$DW$14, DW_AT_name("Flash0CtrlRegs")
     105                      .dwattr $C$DW$14, DW_AT_TI_symbol_name("_Flash0CtrlRegs")
     106                      .dwattr $C$DW$14, DW_AT_type(*$C$DW$T$231)
     107                      .dwattr $C$DW$14, DW_AT_declaration
     108                      .dwattr $C$DW$14, DW_AT_external
     109              
     110              ;       D:\Programs\TI\ccs1281\ccs\tools\compiler\ti-cgt-c2000_22.6.1.LTS\bin\opt2000.exe C:\\Users\\Daniel\\
TMS320C2000 Assembler PC v22.6.1 Wed May 21 09:51:55 2025

Copyright (c) 1996-2018 Texas Instruments Incorporated
C:\Users\Daniel\AppData\Local\Temp\{78ED34F4-3C3B-4D89-8F5D-B64BD43A86E6} PAGE    3

     111              ;       D:\Programs\TI\ccs1281\ccs\tools\compiler\ti-cgt-c2000_22.6.1.LTS\bin\ac2000.exe -@C:\\Users\\Daniel\
     112 00000000               .sect   ".text:_PollX1Counter"
     113                      .clink
     114              
     115              $C$DW$15        .dwtag  DW_TAG_subprogram
     116                      .dwattr $C$DW$15, DW_AT_name("PollX1Counter")
     117                      .dwattr $C$DW$15, DW_AT_low_pc(_PollX1Counter)
     118                      .dwattr $C$DW$15, DW_AT_high_pc(0x00)
     119                      .dwattr $C$DW$15, DW_AT_TI_symbol_name("_PollX1Counter")
     120                      .dwattr $C$DW$15, DW_AT_TI_begin_file("../DeviceSupport/source/f28003x_sysctrl.c")
     121                      .dwattr $C$DW$15, DW_AT_TI_begin_line(0x24b)
     122                      .dwattr $C$DW$15, DW_AT_TI_begin_column(0x01)
     123                      .dwattr $C$DW$15, DW_AT_TI_max_frame_size(-2)
     124                      .dwpsn  file "../DeviceSupport/source/f28003x_sysctrl.c",line 588,column 1,is_stmt,address _PollX1Cou
     125              
     126                      .dwfde $C$DW$CIE, _PollX1Counter
     127              
     128              ;***************************************************************
     129              ;* FNAME: _PollX1Counter                FR SIZE:   0           *
     130              ;*                                                             *
     131              ;* FUNCTION ENVIRONMENT                                        *
     132              ;*                                                             *
     133              ;* FUNCTION PROPERTIES                                         *
     134              ;*                            0 Parameter,  0 Auto,  0 SOE     *
     135              ;***************************************************************
     136              
     137 00000000       _PollX1Counter:
     138                      .dwcfi  cfa_offset, -2
     139                      .dwcfi  save_reg_to_mem, 26, 0
     140                      .dwpsn  file "../DeviceSupport/source/f28003x_sysctrl.c",line 596,column 5,is_stmt,isa 0
     141 00000000 FF20          MOV       ACC,#2000             ; [CPU_ALU] |596| 
         00000001 07D0 
     142              $C$DW$16        .dwtag  DW_TAG_TI_branch
     143                      .dwattr $C$DW$16, DW_AT_low_pc(0x00)
     144                      .dwattr $C$DW$16, DW_AT_name("_F28x_usDelay")
     145                      .dwattr $C$DW$16, DW_AT_TI_call
     146              
     147 00000002 7640!         LCR       #_F28x_usDelay        ; [CPU_ALU] |596| 
         00000003 0000 
     148                      ; call occurs [#_F28x_usDelay] ; [] |596| 
     149 00000004 BE03          MOVB      XAR6,#3               ; [CPU_ALU] 
     150 00000005       $C$L1:    
     151                      .dwpsn  file "../DeviceSupport/source/f28003x_sysctrl.c",line 606,column 15,is_stmt,isa 0
     152 00000005 FF20          MOV       ACC,#511              ; [CPU_ALU] |606| 
         00000006 01FF 
     153 00000007 761F!         MOVW      DP,#_ClkCfgRegs+48    ; [CPU_ARAU] 
         00000008 0000 
     154 00000009 0F30!         CMPL      ACC,@$BLOCKED(_ClkCfgRegs)+48 ; [CPU_ALU] |606| 
     155 0000000a 6707          B         $C$L3,HIS             ; [CPU_ALU] |606| 
     156                      ; branchcc occurs ; [] |606| 
     157 0000000b       $C$L2:    
     158                      .dwpsn  file "../DeviceSupport/source/f28003x_sysctrl.c",line 608,column 13,is_stmt,isa 0
     159 0000000b 1A31!         OR        @$BLOCKED(_ClkCfgRegs)+49,#0x0001 ; [CPU_ALU] |608| 
         0000000c 0001 
     160                      .dwpsn  file "../DeviceSupport/source/f28003x_sysctrl.c",line 609,column 13,is_stmt,isa 0
TMS320C2000 Assembler PC v22.6.1 Wed May 21 09:51:55 2025

Copyright (c) 1996-2018 Texas Instruments Incorporated
C:\Users\Daniel\AppData\Local\Temp\{78ED34F4-3C3B-4D89-8F5D-B64BD43A86E6} PAGE    4

     161 0000000d 1831!         AND       @$BLOCKED(_ClkCfgRegs)+49,#0xfffe ; [CPU_ALU] |609| 
         0000000e FFFE 
     162 0000000f 0F30!         CMPL      ACC,@$BLOCKED(_ClkCfgRegs)+48 ; [CPU_ALU] |609| 
     163 00000010 68FB          B         $C$L2,LO              ; [CPU_ALU] |609| 
     164                      ; branchcc occurs ; [] |609| 
     165 00000011       $C$L3:    
     166                      .dwpsn  file "../DeviceSupport/source/f28003x_sysctrl.c",line 615,column 15,is_stmt,isa 0
     167 00000011 FF20          MOV       ACC,#2047             ; [CPU_ALU] |615| 
         00000012 07FF 
     168 00000013 0F30!         CMPL      ACC,@$BLOCKED(_ClkCfgRegs)+48 ; [CPU_ALU] |615| 
     169 00000014 60FD          B         $C$L3,NEQ             ; [CPU_ALU] |615| 
     170                      ; branchcc occurs ; [] |615| 
     171                      .dwpsn  file "../DeviceSupport/source/f28003x_sysctrl.c",line 624,column 12,is_stmt,isa 0
     172 00000015 000E          BANZ      $C$L1,AR6--           ; [CPU_ALU] |624| 
         00000016 FFF0 
     173                      ; branchcc occurs ; [] |624| 
     174              $C$DW$17        .dwtag  DW_TAG_TI_branch
     175                      .dwattr $C$DW$17, DW_AT_low_pc(0x00)
     176                      .dwattr $C$DW$17, DW_AT_TI_return
     177              
     178 00000017 0006          LRETR     ; [CPU_ALU] 
     179                      ; return occurs ; [] 
     180                      .dwattr $C$DW$15, DW_AT_TI_end_file("../DeviceSupport/source/f28003x_sysctrl.c")
     181                      .dwattr $C$DW$15, DW_AT_TI_end_line(0x271)
     182                      .dwattr $C$DW$15, DW_AT_TI_end_column(0x01)
     183                      .dwendentry
     184                      .dwendtag $C$DW$15
     185              
     186 00000000               .sect   ".text:_SysXtalOscSel"
     187                      .clink
     188                      .global _SysXtalOscSel
     189              
     190              $C$DW$18        .dwtag  DW_TAG_subprogram
     191                      .dwattr $C$DW$18, DW_AT_name("SysXtalOscSel")
     192                      .dwattr $C$DW$18, DW_AT_low_pc(_SysXtalOscSel)
     193                      .dwattr $C$DW$18, DW_AT_high_pc(0x00)
     194                      .dwattr $C$DW$18, DW_AT_TI_symbol_name("_SysXtalOscSel")
     195                      .dwattr $C$DW$18, DW_AT_external
     196                      .dwattr $C$DW$18, DW_AT_TI_begin_file("../DeviceSupport/source/f28003x_sysctrl.c")
     197                      .dwattr $C$DW$18, DW_AT_TI_begin_line(0x274)
     198                      .dwattr $C$DW$18, DW_AT_TI_begin_column(0x06)
     199                      .dwattr $C$DW$18, DW_AT_TI_max_frame_size(-4)
     200                      .dwpsn  file "../DeviceSupport/source/f28003x_sysctrl.c",line 629,column 1,is_stmt,address _SysXtalOs
     201              
     202                      .dwfde $C$DW$CIE, _SysXtalOscSel
     203              
     204              ;***************************************************************
     205              ;* FNAME: _SysXtalOscSel                FR SIZE:   2           *
     206              ;*                                                             *
     207              ;* FUNCTION ENVIRONMENT                                        *
     208              ;*                                                             *
     209              ;* FUNCTION PROPERTIES                                         *
     210              ;*                            0 Parameter,  0 Auto,  2 SOE     *
     211              ;***************************************************************
     212              
TMS320C2000 Assembler PC v22.6.1 Wed May 21 09:51:55 2025

Copyright (c) 1996-2018 Texas Instruments Incorporated
C:\Users\Daniel\AppData\Local\Temp\{78ED34F4-3C3B-4D89-8F5D-B64BD43A86E6} PAGE    5

     213 00000000       _SysXtalOscSel:
     214              ;* AR1   assigned to $O$C1
     215              ;* AR1   assigned to $O$C2
     216                      .dwcfi  cfa_offset, -2
     217                      .dwcfi  save_reg_to_mem, 26, 0
     218 00000000 B2BD          MOVL      *SP++,XAR1            ; [CPU_ALU] 
     219                      .dwcfi  save_reg_to_mem, 7, 2
     220                      .dwcfi  cfa_offset, -4
     221                      .dwpsn  file "../DeviceSupport/source/f28003x_sysctrl.c",line 630,column 5,is_stmt,isa 0
     222 00000001 7622          EALLOW    ; [CPU_ALU] |630| 
     223                      .dwpsn  file "../DeviceSupport/source/f28003x_sysctrl.c",line 631,column 5,is_stmt,isa 0
     224 00000002 8D40!         MOVL      XAR1,#_ClkCfgRegs     ; [CPU_ARAU] |631| 
         00000003 0000 
     225 00000004 8AA1          MOVL      XAR4,XAR1             ; [CPU_ALU] |631| 
     226 00000005 761F!         MOVW      DP,#_ClkCfgRegs+50    ; [CPU_ARAU] 
         00000006 0000 
     227 00000007 DC32          ADDB      XAR4,#50              ; [CPU_ALU] |631| 
     228 00000008 18C4          AND       *+XAR4[0],#0xfffe     ; [CPU_ALU] |631| 
         00000009 FFFE 
     229                      .dwpsn  file "../DeviceSupport/source/f28003x_sysctrl.c",line 632,column 5,is_stmt,isa 0
     230 0000000a 1832!         AND       @$BLOCKED(_ClkCfgRegs)+50,#0xfffd ; [CPU_ALU] |632| 
         0000000b FFFD 
     231                      .dwpsn  file "../DeviceSupport/source/f28003x_sysctrl.c",line 633,column 5,is_stmt,isa 0
     232 0000000c 761A          EDIS      ; [CPU_ALU] |633| 
     233                      .dwpsn  file "../DeviceSupport/source/f28003x_sysctrl.c",line 638,column 5,is_stmt,isa 0
     234              $C$DW$19        .dwtag  DW_TAG_TI_branch
     235                      .dwattr $C$DW$19, DW_AT_low_pc(0x00)
     236                      .dwattr $C$DW$19, DW_AT_name("_PollX1Counter")
     237                      .dwattr $C$DW$19, DW_AT_TI_call
     238              
     239 0000000d 7640+         LCR       #_PollX1Counter       ; [CPU_ALU] |638| 
         0000000e 0000 
     240                      ; call occurs [#_PollX1Counter] ; [] |638| 
     241                      .dwpsn  file "../DeviceSupport/source/f28003x_sysctrl.c",line 643,column 5,is_stmt,isa 0
     242 0000000f 7622          EALLOW    ; [CPU_ALU] |643| 
     243                      .dwpsn  file "../DeviceSupport/source/f28003x_sysctrl.c",line 644,column 5,is_stmt,isa 0
     244 00000010 D008          MOVB      XAR0,#8               ; [CPU_ALU] |644| 
     245 00000011 CC91          AND       AL,*+XAR1[AR0],#0xfffc ; [CPU_ALU] |644| 
         00000012 FFFC 
     246 00000013 5001          ORB       AL,#0x01              ; [CPU_ALU] |644| 
     247 00000014 9608!         MOV       @$BLOCKED(_ClkCfgRegs)+8,AL ; [CPU_ALU] |644| 
     248                      .dwpsn  file "../DeviceSupport/source/f28003x_sysctrl.c",line 645,column 5,is_stmt,isa 0
     249 00000015 761A          EDIS      ; [CPU_ALU] |645| 
     250                      .dwpsn  file "../DeviceSupport/source/f28003x_sysctrl.c",line 651,column 5,is_stmt,isa 0
     251 00000016 6F0E          B         $C$L5,UNC             ; [CPU_ALU] |651| 
     252                      ; branch occurs ; [] |651| 
     253 00000017       $C$L4:    
     254                      .dwpsn  file "../DeviceSupport/source/f28003x_sysctrl.c",line 653,column 9,is_stmt,isa 0
     255 00000017 7622          EALLOW    ; [CPU_ALU] |653| 
     256                      .dwpsn  file "../DeviceSupport/source/f28003x_sysctrl.c",line 654,column 9,is_stmt,isa 0
     257 00000018 1A2E!         OR        @$BLOCKED(_ClkCfgRegs)+46,#0x0002 ; [CPU_ALU] |654| 
         00000019 0002 
     258                      .dwpsn  file "../DeviceSupport/source/f28003x_sysctrl.c",line 655,column 9,is_stmt,isa 0
     259 0000001a 761A          EDIS      ; [CPU_ALU] |655| 
     260                      .dwpsn  file "../DeviceSupport/source/f28003x_sysctrl.c",line 660,column 9,is_stmt,isa 0
TMS320C2000 Assembler PC v22.6.1 Wed May 21 09:51:55 2025

Copyright (c) 1996-2018 Texas Instruments Incorporated
C:\Users\Daniel\AppData\Local\Temp\{78ED34F4-3C3B-4D89-8F5D-B64BD43A86E6} PAGE    6

     261              $C$DW$20        .dwtag  DW_TAG_TI_branch
     262                      .dwattr $C$DW$20, DW_AT_low_pc(0x00)
     263                      .dwattr $C$DW$20, DW_AT_name("_PollX1Counter")
     264                      .dwattr $C$DW$20, DW_AT_TI_call
     265              
     266 0000001b 7640+         LCR       #_PollX1Counter       ; [CPU_ALU] |660| 
         0000001c 0000 
     267                      ; call occurs [#_PollX1Counter] ; [] |660| 
     268                      .dwpsn  file "../DeviceSupport/source/f28003x_sysctrl.c",line 665,column 9,is_stmt,isa 0
     269 0000001d 7622          EALLOW    ; [CPU_ALU] |665| 
     270                      .dwpsn  file "../DeviceSupport/source/f28003x_sysctrl.c",line 666,column 9,is_stmt,isa 0
     271 0000001e D008          MOVB      XAR0,#8               ; [CPU_ALU] |666| 
     272 0000001f CC91          AND       AL,*+XAR1[AR0],#0xfffc ; [CPU_ALU] |666| 
         00000020 FFFC 
     273 00000021 5001          ORB       AL,#0x01              ; [CPU_ALU] |666| 
     274 00000022 9608!         MOV       @$BLOCKED(_ClkCfgRegs)+8,AL ; [CPU_ALU] |666| 
     275                      .dwpsn  file "../DeviceSupport/source/f28003x_sysctrl.c",line 667,column 9,is_stmt,isa 0
     276 00000023 761A          EDIS      ; [CPU_ALU] |667| 
     277 00000024       $C$L5:    
     278                      .dwpsn  file "../DeviceSupport/source/f28003x_sysctrl.c",line 651,column 11,is_stmt,isa 0
     279 00000024 D02E          MOVB      XAR0,#46              ; [CPU_ALU] |651| 
     280 00000025 4091          TBIT      *+XAR1[AR0],#0        ; [CPU_ALU] |651| 
     281 00000026 6DF1          B         $C$L4,TC              ; [CPU_ALU] |651| 
     282                      ; branchcc occurs ; [] |651| 
     283 00000027 8BBE          MOVL      XAR1,*--SP            ; [CPU_ALU] 
     284                      .dwcfi  cfa_offset, -2
     285                      .dwcfi  restore_reg, 7
     286              $C$DW$21        .dwtag  DW_TAG_TI_branch
     287                      .dwattr $C$DW$21, DW_AT_low_pc(0x00)
     288                      .dwattr $C$DW$21, DW_AT_TI_return
     289              
     290 00000028 0006          LRETR     ; [CPU_ALU] 
     291                      ; return occurs ; [] 
     292                      .dwattr $C$DW$18, DW_AT_TI_end_file("../DeviceSupport/source/f28003x_sysctrl.c")
     293                      .dwattr $C$DW$18, DW_AT_TI_end_line(0x29d)
     294                      .dwattr $C$DW$18, DW_AT_TI_end_column(0x01)
     295                      .dwendentry
     296                      .dwendtag $C$DW$18
     297              
     298 00000000               .sect   ".text:_SysXtalOscSESel"
     299                      .clink
     300                      .global _SysXtalOscSESel
     301              
     302              $C$DW$22        .dwtag  DW_TAG_subprogram
     303                      .dwattr $C$DW$22, DW_AT_name("SysXtalOscSESel")
     304                      .dwattr $C$DW$22, DW_AT_low_pc(_SysXtalOscSESel)
     305                      .dwattr $C$DW$22, DW_AT_high_pc(0x00)
     306                      .dwattr $C$DW$22, DW_AT_TI_symbol_name("_SysXtalOscSESel")
     307                      .dwattr $C$DW$22, DW_AT_external
     308                      .dwattr $C$DW$22, DW_AT_TI_begin_file("../DeviceSupport/source/f28003x_sysctrl.c")
     309                      .dwattr $C$DW$22, DW_AT_TI_begin_line(0x2a5)
     310                      .dwattr $C$DW$22, DW_AT_TI_begin_column(0x01)
     311                      .dwattr $C$DW$22, DW_AT_TI_max_frame_size(-4)
     312                      .dwpsn  file "../DeviceSupport/source/f28003x_sysctrl.c",line 678,column 1,is_stmt,address _SysXtalOs
     313              
TMS320C2000 Assembler PC v22.6.1 Wed May 21 09:51:55 2025

Copyright (c) 1996-2018 Texas Instruments Incorporated
C:\Users\Daniel\AppData\Local\Temp\{78ED34F4-3C3B-4D89-8F5D-B64BD43A86E6} PAGE    7

     314                      .dwfde $C$DW$CIE, _SysXtalOscSESel
     315              
     316              ;***************************************************************
     317              ;* FNAME: _SysXtalOscSESel              FR SIZE:   2           *
     318              ;*                                                             *
     319              ;* FUNCTION ENVIRONMENT                                        *
     320              ;*                                                             *
     321              ;* FUNCTION PROPERTIES                                         *
     322              ;*                            0 Parameter,  0 Auto,  2 SOE     *
     323              ;***************************************************************
     324              
     325 00000000       _SysXtalOscSESel:
     326              ;* AR1   assigned to $O$C1
     327                      .dwcfi  cfa_offset, -2
     328                      .dwcfi  save_reg_to_mem, 26, 0
     329 00000000 B2BD          MOVL      *SP++,XAR1            ; [CPU_ALU] 
     330                      .dwcfi  save_reg_to_mem, 7, 2
     331                      .dwcfi  cfa_offset, -4
     332                      .dwpsn  file "../DeviceSupport/source/f28003x_sysctrl.c",line 679,column 5,is_stmt,isa 0
     333 00000001 7622          EALLOW    ; [CPU_ALU] |679| 
     334                      .dwpsn  file "../DeviceSupport/source/f28003x_sysctrl.c",line 680,column 5,is_stmt,isa 0
     335 00000002 8D40!         MOVL      XAR1,#_ClkCfgRegs     ; [CPU_ARAU] |680| 
         00000003 0000 
     336 00000004 8AA1          MOVL      XAR4,XAR1             ; [CPU_ALU] |680| 
     337 00000005 761F!         MOVW      DP,#_ClkCfgRegs+50    ; [CPU_ARAU] 
         00000006 0000 
     338 00000007 DC32          ADDB      XAR4,#50              ; [CPU_ALU] |680| 
     339 00000008 18C4          AND       *+XAR4[0],#0xfffe     ; [CPU_ALU] |680| 
         00000009 FFFE 
     340                      .dwpsn  file "../DeviceSupport/source/f28003x_sysctrl.c",line 681,column 5,is_stmt,isa 0
     341 0000000a 1A32!         OR        @$BLOCKED(_ClkCfgRegs)+50,#0x0002 ; [CPU_ALU] |681| 
         0000000b 0002 
     342                      .dwpsn  file "../DeviceSupport/source/f28003x_sysctrl.c",line 682,column 5,is_stmt,isa 0
     343 0000000c 761A          EDIS      ; [CPU_ALU] |682| 
     344                      .dwpsn  file "../DeviceSupport/source/f28003x_sysctrl.c",line 687,column 5,is_stmt,isa 0
     345              $C$DW$23        .dwtag  DW_TAG_TI_branch
     346                      .dwattr $C$DW$23, DW_AT_low_pc(0x00)
     347                      .dwattr $C$DW$23, DW_AT_name("_PollX1Counter")
     348                      .dwattr $C$DW$23, DW_AT_TI_call
     349              
     350 0000000d 7640+         LCR       #_PollX1Counter       ; [CPU_ALU] |687| 
         0000000e 0000 
     351                      ; call occurs [#_PollX1Counter] ; [] |687| 
     352                      .dwpsn  file "../DeviceSupport/source/f28003x_sysctrl.c",line 692,column 5,is_stmt,isa 0
     353 0000000f 7622          EALLOW    ; [CPU_ALU] |692| 
     354                      .dwpsn  file "../DeviceSupport/source/f28003x_sysctrl.c",line 693,column 5,is_stmt,isa 0
     355 00000010 D008          MOVB      XAR0,#8               ; [CPU_ALU] |693| 
     356 00000011 CC91          AND       AL,*+XAR1[AR0],#0xfffc ; [CPU_ALU] |693| 
         00000012 FFFC 
     357 00000013 5001          ORB       AL,#0x01              ; [CPU_ALU] |693| 
     358 00000014 9608!         MOV       @$BLOCKED(_ClkCfgRegs)+8,AL ; [CPU_ALU] |693| 
     359                      .dwpsn  file "../DeviceSupport/source/f28003x_sysctrl.c",line 694,column 5,is_stmt,isa 0
     360 00000015 761A          EDIS      ; [CPU_ALU] |694| 
     361                      .dwpsn  file "../DeviceSupport/source/f28003x_sysctrl.c",line 700,column 5,is_stmt,isa 0
     362 00000016 D02E          MOVB      XAR0,#46              ; [CPU_ALU] |700| 
TMS320C2000 Assembler PC v22.6.1 Wed May 21 09:51:55 2025

Copyright (c) 1996-2018 Texas Instruments Incorporated
C:\Users\Daniel\AppData\Local\Temp\{78ED34F4-3C3B-4D89-8F5D-B64BD43A86E6} PAGE    8

     363 00000017 4091          TBIT      *+XAR1[AR0],#0        ; [CPU_ALU] |700| 
     364 00000018 6C02          B         $C$L6,NTC             ; [CPU_ALU] |700| 
     365                      ; branchcc occurs ; [] |700| 
     366 00000019 7625   ESTOP0
     367 0000001a       $C$L6:    
     368 0000001a 8BBE          MOVL      XAR1,*--SP            ; [CPU_ALU] 
     369                      .dwcfi  cfa_offset, -2
     370                      .dwcfi  restore_reg, 7
     371 0000001b FF69          SPM       #0                    ; [CPU_ALU] 
     372              $C$DW$24        .dwtag  DW_TAG_TI_branch
     373                      .dwattr $C$DW$24, DW_AT_low_pc(0x00)
     374                      .dwattr $C$DW$24, DW_AT_TI_return
     375              
     376 0000001c 0006          LRETR     ; [CPU_ALU] 
     377                      ; return occurs ; [] 
     378                      .dwattr $C$DW$22, DW_AT_TI_end_file("../DeviceSupport/source/f28003x_sysctrl.c")
     379                      .dwattr $C$DW$22, DW_AT_TI_end_line(0x2c0)
     380                      .dwattr $C$DW$22, DW_AT_TI_end_column(0x01)
     381                      .dwendentry
     382                      .dwendtag $C$DW$22
     383              
     384 00000000               .sect   ".text:_SysIntOsc2Sel"
     385                      .clink
     386                      .global _SysIntOsc2Sel
     387              
     388              $C$DW$25        .dwtag  DW_TAG_subprogram
     389                      .dwattr $C$DW$25, DW_AT_name("SysIntOsc2Sel")
     390                      .dwattr $C$DW$25, DW_AT_low_pc(_SysIntOsc2Sel)
     391                      .dwattr $C$DW$25, DW_AT_high_pc(0x00)
     392                      .dwattr $C$DW$25, DW_AT_TI_symbol_name("_SysIntOsc2Sel")
     393                      .dwattr $C$DW$25, DW_AT_external
     394                      .dwattr $C$DW$25, DW_AT_TI_begin_file("../DeviceSupport/source/f28003x_sysctrl.c")
     395                      .dwattr $C$DW$25, DW_AT_TI_begin_line(0x23f)
     396                      .dwattr $C$DW$25, DW_AT_TI_begin_column(0x06)
     397                      .dwattr $C$DW$25, DW_AT_TI_max_frame_size(-2)
     398                      .dwpsn  file "../DeviceSupport/source/f28003x_sysctrl.c",line 576,column 1,is_stmt,address _SysIntOsc
     399              
     400                      .dwfde $C$DW$CIE, _SysIntOsc2Sel
     401              
     402              ;***************************************************************
     403              ;* FNAME: _SysIntOsc2Sel                FR SIZE:   0           *
     404              ;*                                                             *
     405              ;* FUNCTION ENVIRONMENT                                        *
     406              ;*                                                             *
     407              ;* FUNCTION PROPERTIES                                         *
     408              ;*                            0 Parameter,  0 Auto,  0 SOE     *
     409              ;***************************************************************
     410              
     411 00000000       _SysIntOsc2Sel:
     412                      .dwcfi  cfa_offset, -2
     413                      .dwcfi  save_reg_to_mem, 26, 0
     414                      .dwpsn  file "../DeviceSupport/source/f28003x_sysctrl.c",line 577,column 5,is_stmt,isa 0
     415 00000000 7622          EALLOW    ; [CPU_ALU] |577| 
     416 00000001 761F!         MOVW      DP,#_ClkCfgRegs+8     ; [CPU_ARAU] 
         00000002 0000 
TMS320C2000 Assembler PC v22.6.1 Wed May 21 09:51:55 2025

Copyright (c) 1996-2018 Texas Instruments Incorporated
C:\Users\Daniel\AppData\Local\Temp\{78ED34F4-3C3B-4D89-8F5D-B64BD43A86E6} PAGE    9

     417                      .dwpsn  file "../DeviceSupport/source/f28003x_sysctrl.c",line 578,column 5,is_stmt,isa 0
     418 00000003 1808!         AND       @$BLOCKED(_ClkCfgRegs)+8,#0xfffc ; [CPU_ALU] |578| 
         00000004 FFFC 
     419                      .dwpsn  file "../DeviceSupport/source/f28003x_sysctrl.c",line 579,column 5,is_stmt,isa 0
     420 00000005 761A          EDIS      ; [CPU_ALU] |579| 
     421              $C$DW$26        .dwtag  DW_TAG_TI_branch
     422                      .dwattr $C$DW$26, DW_AT_low_pc(0x00)
     423                      .dwattr $C$DW$26, DW_AT_TI_return
     424              
     425 00000006 0006          LRETR     ; [CPU_ALU] 
     426                      ; return occurs ; [] 
     427                      .dwattr $C$DW$25, DW_AT_TI_end_file("../DeviceSupport/source/f28003x_sysctrl.c")
     428                      .dwattr $C$DW$25, DW_AT_TI_end_line(0x244)
     429                      .dwattr $C$DW$25, DW_AT_TI_end_column(0x01)
     430                      .dwendentry
     431                      .dwendtag $C$DW$25
     432              
     433 00000000               .sect   ".text:_SysIntOsc1Sel"
     434                      .clink
     435                      .global _SysIntOsc1Sel
     436              
     437              $C$DW$27        .dwtag  DW_TAG_subprogram
     438                      .dwattr $C$DW$27, DW_AT_name("SysIntOsc1Sel")
     439                      .dwattr $C$DW$27, DW_AT_low_pc(_SysIntOsc1Sel)
     440                      .dwattr $C$DW$27, DW_AT_high_pc(0x00)
     441                      .dwattr $C$DW$27, DW_AT_TI_symbol_name("_SysIntOsc1Sel")
     442                      .dwattr $C$DW$27, DW_AT_external
     443                      .dwattr $C$DW$27, DW_AT_TI_begin_file("../DeviceSupport/source/f28003x_sysctrl.c")
     444                      .dwattr $C$DW$27, DW_AT_TI_begin_line(0x235)
     445                      .dwattr $C$DW$27, DW_AT_TI_begin_column(0x06)
     446                      .dwattr $C$DW$27, DW_AT_TI_max_frame_size(-2)
     447                      .dwpsn  file "../DeviceSupport/source/f28003x_sysctrl.c",line 566,column 1,is_stmt,address _SysIntOsc
     448              
     449                      .dwfde $C$DW$CIE, _SysIntOsc1Sel
     450              
     451              ;***************************************************************
     452              ;* FNAME: _SysIntOsc1Sel                FR SIZE:   0           *
     453              ;*                                                             *
     454              ;* FUNCTION ENVIRONMENT                                        *
     455              ;*                                                             *
     456              ;* FUNCTION PROPERTIES                                         *
     457              ;*                            0 Parameter,  0 Auto,  0 SOE     *
     458              ;***************************************************************
     459              
     460 00000000       _SysIntOsc1Sel:
     461                      .dwcfi  cfa_offset, -2
     462                      .dwcfi  save_reg_to_mem, 26, 0
     463                      .dwpsn  file "../DeviceSupport/source/f28003x_sysctrl.c",line 567,column 5,is_stmt,isa 0
     464 00000000 7622          EALLOW    ; [CPU_ALU] |567| 
     465 00000001 761F!         MOVW      DP,#_ClkCfgRegs+8     ; [CPU_ARAU] 
         00000002 0000 
     466                      .dwpsn  file "../DeviceSupport/source/f28003x_sysctrl.c",line 568,column 5,is_stmt,isa 0
     467 00000003 CC08!         AND       AL,@$BLOCKED(_ClkCfgRegs)+8,#0xfffe ; [CPU_ALU] |568| 
         00000004 FFFE 
     468 00000005 5002          ORB       AL,#0x02              ; [CPU_ALU] |568| 
TMS320C2000 Assembler PC v22.6.1 Wed May 21 09:51:55 2025

Copyright (c) 1996-2018 Texas Instruments Incorporated
C:\Users\Daniel\AppData\Local\Temp\{78ED34F4-3C3B-4D89-8F5D-B64BD43A86E6} PAGE   10

     469 00000006 9608!         MOV       @$BLOCKED(_ClkCfgRegs)+8,AL ; [CPU_ALU] |568| 
     470                      .dwpsn  file "../DeviceSupport/source/f28003x_sysctrl.c",line 569,column 5,is_stmt,isa 0
     471 00000007 761A          EDIS      ; [CPU_ALU] |569| 
     472              $C$DW$28        .dwtag  DW_TAG_TI_branch
     473                      .dwattr $C$DW$28, DW_AT_low_pc(0x00)
     474                      .dwattr $C$DW$28, DW_AT_TI_return
     475              
     476 00000008 0006          LRETR     ; [CPU_ALU] 
     477                      ; return occurs ; [] 
     478                      .dwattr $C$DW$27, DW_AT_TI_end_file("../DeviceSupport/source/f28003x_sysctrl.c")
     479                      .dwattr $C$DW$27, DW_AT_TI_end_line(0x23a)
     480                      .dwattr $C$DW$27, DW_AT_TI_end_column(0x01)
     481                      .dwendentry
     482                      .dwendtag $C$DW$27
     483              
     484 00000000               .sect   ".text:_ServiceDog"
     485                      .clink
     486                      .global _ServiceDog
     487              
     488              $C$DW$29        .dwtag  DW_TAG_subprogram
     489                      .dwattr $C$DW$29, DW_AT_name("ServiceDog")
     490                      .dwattr $C$DW$29, DW_AT_low_pc(_ServiceDog)
     491                      .dwattr $C$DW$29, DW_AT_high_pc(0x00)
     492                      .dwattr $C$DW$29, DW_AT_TI_symbol_name("_ServiceDog")
     493                      .dwattr $C$DW$29, DW_AT_external
     494                      .dwattr $C$DW$29, DW_AT_TI_begin_file("../DeviceSupport/source/f28003x_sysctrl.c")
     495                      .dwattr $C$DW$29, DW_AT_TI_begin_line(0x16a)
     496                      .dwattr $C$DW$29, DW_AT_TI_begin_column(0x06)
     497                      .dwattr $C$DW$29, DW_AT_TI_max_frame_size(-2)
     498                      .dwpsn  file "../DeviceSupport/source/f28003x_sysctrl.c",line 363,column 1,is_stmt,address _ServiceDo
     499              
     500                      .dwfde $C$DW$CIE, _ServiceDog
     501              
     502              ;***************************************************************
     503              ;* FNAME: _ServiceDog                   FR SIZE:   0           *
     504              ;*                                                             *
     505              ;* FUNCTION ENVIRONMENT                                        *
     506              ;*                                                             *
     507              ;* FUNCTION PROPERTIES                                         *
     508              ;*                            0 Parameter,  0 Auto,  0 SOE     *
     509              ;***************************************************************
     510              
     511 00000000       _ServiceDog:
     512                      .dwcfi  cfa_offset, -2
     513                      .dwcfi  save_reg_to_mem, 26, 0
     514                      .dwpsn  file "../DeviceSupport/source/f28003x_sysctrl.c",line 364,column 5,is_stmt,isa 0
     515 00000000 7622          EALLOW    ; [CPU_ALU] |364| 
     516 00000001 761F!         MOVW      DP,#_WdRegs+37        ; [CPU_ARAU] 
         00000002 0000 
     517                      .dwpsn  file "../DeviceSupport/source/f28003x_sysctrl.c",line 365,column 5,is_stmt,isa 0
     518 00000003 CC25!         AND       AL,@$BLOCKED(_WdRegs)+37,#0xff00 ; [CPU_ALU] |365| 
         00000004 FF00 
     519 00000005 5055          ORB       AL,#0x55              ; [CPU_ALU] |365| 
     520 00000006 9625!         MOV       @$BLOCKED(_WdRegs)+37,AL ; [CPU_ALU] |365| 
     521                      .dwpsn  file "../DeviceSupport/source/f28003x_sysctrl.c",line 366,column 5,is_stmt,isa 0
TMS320C2000 Assembler PC v22.6.1 Wed May 21 09:51:55 2025

Copyright (c) 1996-2018 Texas Instruments Incorporated
C:\Users\Daniel\AppData\Local\Temp\{78ED34F4-3C3B-4D89-8F5D-B64BD43A86E6} PAGE   11

     522 00000007 CC25!         AND       AL,@$BLOCKED(_WdRegs)+37,#0xff80 ; [CPU_ALU] |366| 
         00000008 FF80 
     523 00000009 50AA          ORB       AL,#0xaa              ; [CPU_ALU] |366| 
     524 0000000a 9625!         MOV       @$BLOCKED(_WdRegs)+37,AL ; [CPU_ALU] |366| 
     525                      .dwpsn  file "../DeviceSupport/source/f28003x_sysctrl.c",line 367,column 5,is_stmt,isa 0
     526 0000000b 761A          EDIS      ; [CPU_ALU] |367| 
     527              $C$DW$30        .dwtag  DW_TAG_TI_branch
     528                      .dwattr $C$DW$30, DW_AT_low_pc(0x00)
     529                      .dwattr $C$DW$30, DW_AT_TI_return
     530              
     531 0000000c 0006          LRETR     ; [CPU_ALU] 
     532                      ; return occurs ; [] 
     533                      .dwattr $C$DW$29, DW_AT_TI_end_file("../DeviceSupport/source/f28003x_sysctrl.c")
     534                      .dwattr $C$DW$29, DW_AT_TI_end_line(0x170)
     535                      .dwattr $C$DW$29, DW_AT_TI_end_column(0x01)
     536                      .dwendentry
     537                      .dwendtag $C$DW$29
     538              
     539 00000000               .sect   ".text:_ComputeCntrSeedValue"
     540                      .clink
     541                      .global _ComputeCntrSeedValue
     542              
     543              $C$DW$31        .dwtag  DW_TAG_subprogram
     544                      .dwattr $C$DW$31, DW_AT_name("ComputeCntrSeedValue")
     545                      .dwattr $C$DW$31, DW_AT_low_pc(_ComputeCntrSeedValue)
     546                      .dwattr $C$DW$31, DW_AT_high_pc(0x00)
     547                      .dwattr $C$DW$31, DW_AT_TI_symbol_name("_ComputeCntrSeedValue")
     548                      .dwattr $C$DW$31, DW_AT_external
     549                      .dwattr $C$DW$31, DW_AT_TI_begin_file("../DeviceSupport/source/f28003x_sysctrl.c")
     550                      .dwattr $C$DW$31, DW_AT_TI_begin_line(0x368)
     551                      .dwattr $C$DW$31, DW_AT_TI_begin_column(0x06)
     552                      .dwattr $C$DW$31, DW_AT_TI_max_frame_size(-10)
     553                      .dwpsn  file "../DeviceSupport/source/f28003x_sysctrl.c",line 873,column 1,is_stmt,address _ComputeCn
     554              
     555                      .dwfde $C$DW$CIE, _ComputeCntrSeedValue
     556              $C$DW$32        .dwtag  DW_TAG_formal_parameter
     557                      .dwattr $C$DW$32, DW_AT_name("base")
     558                      .dwattr $C$DW$32, DW_AT_TI_symbol_name("_base")
     559                      .dwattr $C$DW$32, DW_AT_type(*$C$DW$T$21)
     560                      .dwattr $C$DW$32, DW_AT_location[DW_OP_reg0]
     561              
     562              $C$DW$33        .dwtag  DW_TAG_formal_parameter
     563                      .dwattr $C$DW$33, DW_AT_name("fclk1_0ratio")
     564                      .dwattr $C$DW$33, DW_AT_TI_symbol_name("_fclk1_0ratio")
     565                      .dwattr $C$DW$33, DW_AT_type(*$C$DW$T$16)
     566                      .dwattr $C$DW$33, DW_AT_location[DW_OP_regx 0x2b]
     567              
     568              $C$DW$34        .dwtag  DW_TAG_formal_parameter
     569                      .dwattr $C$DW$34, DW_AT_name("tolerance")
     570                      .dwattr $C$DW$34, DW_AT_TI_symbol_name("_tolerance")
     571                      .dwattr $C$DW$34, DW_AT_type(*$C$DW$T$21)
     572                      .dwattr $C$DW$34, DW_AT_location[DW_OP_breg20 -12]
     573              
     574              
     575              ;***************************************************************
TMS320C2000 Assembler PC v22.6.1 Wed May 21 09:51:55 2025

Copyright (c) 1996-2018 Texas Instruments Incorporated
C:\Users\Daniel\AppData\Local\Temp\{78ED34F4-3C3B-4D89-8F5D-B64BD43A86E6} PAGE   12

     576              ;* FNAME: _ComputeCntrSeedValue         FR SIZE:   8           *
     577              ;*                                                             *
     578              ;* FUNCTION ENVIRONMENT                                        *
     579              ;*                                                             *
     580              ;* FUNCTION PROPERTIES                                         *
     581              ;*                            2 Parameter,  0 Auto,  6 SOE     *
     582              ;***************************************************************
     583              
     584              _ComputeCntrSeedValue:
     585              ;* AR7   assigned to $O$C1
     586              ;* AR2   assigned to _base
     587              $C$DW$35        .dwtag  DW_TAG_variable
     588                      .dwattr $C$DW$35, DW_AT_name("base")
     589                      .dwattr $C$DW$35, DW_AT_TI_symbol_name("_base")
     590                      .dwattr $C$DW$35, DW_AT_type(*$C$DW$T$340)
     591                      .dwattr $C$DW$35, DW_AT_location[DW_OP_reg8]
     592              
     593              ;* R4    assigned to _fclk1_0ratio
     594              $C$DW$36        .dwtag  DW_TAG_variable
     595                      .dwattr $C$DW$36, DW_AT_name("fclk1_0ratio")
     596                      .dwattr $C$DW$36, DW_AT_TI_symbol_name("_fclk1_0ratio")
     597                      .dwattr $C$DW$36, DW_AT_type(*$C$DW$T$344)
     598                      .dwattr $C$DW$36, DW_AT_location[DW_OP_regx 0x3b]
     599              
     600              ;* AR1   assigned to _tolerance
     601              $C$DW$37        .dwtag  DW_TAG_variable
     602                      .dwattr $C$DW$37, DW_AT_name("tolerance")
     603                      .dwattr $C$DW$37, DW_AT_TI_symbol_name("_tolerance")
     604                      .dwattr $C$DW$37, DW_AT_type(*$C$DW$T$340)
     605                      .dwattr $C$DW$37, DW_AT_location[DW_OP_reg6]
     606              
     607              ;* PL    assigned to _window
     608              $C$DW$38        .dwtag  DW_TAG_variable
     609                      .dwattr $C$DW$38, DW_AT_name("window")
     610                      .dwattr $C$DW$38, DW_AT_TI_symbol_name("_window")
     611                      .dwattr $C$DW$38, DW_AT_type(*$C$DW$T$21)
     612                      .dwattr $C$DW$38, DW_AT_location[DW_OP_reg2]
     613              
     614              ;* AR6   assigned to _dccCounterSeed0
     615              $C$DW$39        .dwtag  DW_TAG_variable
     616                      .dwattr $C$DW$39, DW_AT_name("dccCounterSeed0")
     617                      .dwattr $C$DW$39, DW_AT_TI_symbol_name("_dccCounterSeed0")
     618                      .dwattr $C$DW$39, DW_AT_type(*$C$DW$T$21)
     619                      .dwattr $C$DW$39, DW_AT_location[DW_OP_reg16]
     620              
     621              ;* AR7   assigned to _dccValidSeed0
     622              $C$DW$40        .dwtag  DW_TAG_variable
     623                      .dwattr $C$DW$40, DW_AT_name("dccValidSeed0")
     624                      .dwattr $C$DW$40, DW_AT_TI_symbol_name("_dccValidSeed0")
     625                      .dwattr $C$DW$40, DW_AT_type(*$C$DW$T$21)
     626                      .dwattr $C$DW$40, DW_AT_location[DW_OP_reg18]
     627              
     628              ;* XT    assigned to _dccCounterSeed1
     629              $C$DW$41        .dwtag  DW_TAG_variable
     630                      .dwattr $C$DW$41, DW_AT_name("dccCounterSeed1")
TMS320C2000 Assembler PC v22.6.1 Wed May 21 09:51:55 2025

Copyright (c) 1996-2018 Texas Instruments Incorporated
C:\Users\Daniel\AppData\Local\Temp\{78ED34F4-3C3B-4D89-8F5D-B64BD43A86E6} PAGE   13

     631                      .dwattr $C$DW$41, DW_AT_TI_symbol_name("_dccCounterSeed1")
     632                      .dwattr $C$DW$41, DW_AT_type(*$C$DW$T$21)
     633                      .dwattr $C$DW$41, DW_AT_location[DW_OP_reg21]
     634              
     635              ;* AR4   assigned to _DccRegs
     636              $C$DW$42        .dwtag  DW_TAG_variable
     637                      .dwattr $C$DW$42, DW_AT_name("DccRegs")
     638                      .dwattr $C$DW$42, DW_AT_TI_symbol_name("_DccRegs")
     639                      .dwattr $C$DW$42, DW_AT_type(*$C$DW$T$228)
     640                      .dwattr $C$DW$42, DW_AT_location[DW_OP_reg12]
     641              
     642                      .dwcfi  cfa_offset, -2
     643                      .dwcfi  save_reg_to_mem, 26, 0
     644 00000000 B2BD          MOVL      *SP++,XAR1            ; [CPU_ALU] 
     645                      .dwcfi  save_reg_to_mem, 7, 2
     646                      .dwcfi  cfa_offset, -4
     647 00000001 AABD          MOVL      *SP++,XAR2            ; [CPU_ALU] 
     648                      .dwcfi  save_reg_to_mem, 9, 4
     649                      .dwcfi  cfa_offset, -6
     650 00000002 E203          MOV32     *SP++,R4H             ; [CPU_FPU] 
         00000003 04BD 
     651                      .dwcfi  save_reg_to_mem, 59, 6
     652                      .dwcfi  cfa_offset, -8
     653 00000004 FE02          ADDB      SP,#2                 ; [CPU_ARAU] 
     654                      .dwcfi  cfa_offset, -10
     655 00000005 E6CF          MOV32     R4H,R0H               ; [CPU_FPU] |873| 
         00000006 0004 
     656 00000007 86A9          MOVL      XAR2,ACC              ; [CPU_ALU] |873| 
     657                      .dwpsn  file "../DeviceSupport/source/f28003x_sysctrl.c",line 877,column 5,is_stmt,isa 0
     658 00000008 E811          CMPF32    R4H,#16256            ; [CPU_FPU] |877| 
         00000009 FC04 
     659                      .dwpsn  file "../DeviceSupport/source/f28003x_sysctrl.c",line 873,column 1,is_stmt,isa 0
     660 0000000a 8B4C          MOVL      XAR1,*-SP[12]         ; [CPU_ALU] |873| 
     661                      .dwpsn  file "../DeviceSupport/source/f28003x_sysctrl.c",line 877,column 5,is_stmt,isa 0
     662 0000000b AD14          MOVST0    ZF, NF                ; [CPU_FPU] |877| 
     663 0000000c 631F          B         $C$L7,GEQ             ; [CPU_ALU] |877| 
     664                      ; branchcc occurs ; [] |877| 
     665                      .dwpsn  file "../DeviceSupport/source/f28003x_sysctrl.c",line 892,column 9,is_stmt,isa 0
     666 0000000d E802          MOVIZ     R0H,#16384            ; [CPU_FPU] |892| 
         0000000e 0000 
     667 0000000f E6CF          MOV32     R1H,R4H               ; [CPU_FPU] |892| 
         00000010 0021 
     668              $C$DW$43        .dwtag  DW_TAG_TI_branch
     669                      .dwattr $C$DW$43, DW_AT_low_pc(0x00)
     670                      .dwattr $C$DW$43, DW_AT_name("FS$$DIV")
     671                      .dwattr $C$DW$43, DW_AT_TI_call
     672              
     673 00000011 7640!         LCR       #FS$$DIV              ; [CPU_ALU] |892| 
         00000012 0000 
     674                      ; call occurs [#FS$$DIV] ; [] |892| 
     675 00000013 E890          ADDF32    R0H,R0H,#16672        ; [CPU_FPU] |892| 
         00000014 4800 
     676 00000015 7700          NOP       ; [CPU_ALU] 
     677 00000016 E68A          F32TOUI32 R0H,R0H               ; [CPU_FPU] |892| 
         00000017 0000 
TMS320C2000 Assembler PC v22.6.1 Wed May 21 09:51:55 2025

Copyright (c) 1996-2018 Texas Instruments Incorporated
C:\Users\Daniel\AppData\Local\Temp\{78ED34F4-3C3B-4D89-8F5D-B64BD43A86E6} PAGE   14

     678 00000018 7700          NOP       ; [CPU_ALU] 
     679 00000019 7700          NOP       ; [CPU_ALU] 
     680 0000001a BFA7          MOV32     XAR7,R0H              ; [CPU_FPU] |892| 
         0000001b 0F12 
     681 0000001c 0264          MOVB      ACC,#100              ; [CPU_ALU] |892| 
     682 0000001d 1EAC          MOVL      XT,ACC                ; [CPU_ALU] |892| 
     683 0000001e 0200          MOVB      ACC,#0                ; [CPU_ALU] |892| 
     684 0000001f 5665          IMPYXUL   P,XT,XAR7             ; [CPU_ALU] |892| 
         00000020 00A7 
     685 00000021 F61F          RPT       #31
     686 00000022 5617  ||     SUBCUL    ACC,XAR1              ; [CPU_ALU] |892| 
         00000023 00A1 
     687                      .dwpsn  file "../DeviceSupport/source/f28003x_sysctrl.c",line 897,column 9,is_stmt,isa 0
     688 00000024 A9A9          MOVL      ACC,P                 ; [CPU_ALU] |897| 
     689 00000025 03A7          SUBL      ACC,XAR7              ; [CPU_ALU] |897| 
     690 00000026 1EA6          MOVL      XAR6,ACC              ; [CPU_ALU] |897| 
     691                      .dwpsn  file "../DeviceSupport/source/f28003x_sysctrl.c",line 898,column 9,is_stmt,isa 0
     692 00000027 06A7          MOVL      ACC,XAR7              ; [CPU_ALU] |898| 
     693 00000028 FF30          LSL       ACC,1                 ; [CPU_ALU] |898| 
     694 00000029 1EA7          MOVL      XAR7,ACC              ; [CPU_ALU] |898| 
     695 0000002a 6F0B          B         $C$L8,UNC             ; [CPU_ALU] |898| 
     696                      ; branch occurs ; [] |898| 
     697 0000002b       $C$L7:    
     698                      .dwpsn  file "../DeviceSupport/source/f28003x_sysctrl.c",line 883,column 9,is_stmt,isa 0
     699 0000002b 8F00          MOVL      XAR4,#1200            ; [CPU_ARAU] |883| 
         0000002c 04B0 
     700 0000002d 0200          MOVB      ACC,#0                ; [CPU_ALU] |883| 
     701 0000002e A8AB          MOVL      P,XAR4                ; [CPU_ALU] |883| 
     702 0000002f F61F          RPT       #31
     703 00000030 5617  ||     SUBCUL    ACC,XAR1              ; [CPU_ALU] |883| 
         00000031 00A1 
     704                      .dwpsn  file "../DeviceSupport/source/f28003x_sysctrl.c",line 884,column 9,is_stmt,isa 0
     705 00000032 A9A6          MOVL      XAR6,P                ; [CPU_ALU] |884| 
     706                      .dwpsn  file "../DeviceSupport/source/f28003x_sysctrl.c",line 885,column 9,is_stmt,isa 0
     707 00000033 B618          MOVB      XAR7,#24              ; [CPU_ALU] |885| 
     708                      .dwpsn  file "../DeviceSupport/source/f28003x_sysctrl.c",line 884,column 9,is_stmt,isa 0
     709 00000034 DE8C          SUBB      XAR6,#12              ; [CPU_ALU] |884| 
     710 00000035       $C$L8:    
     711                      .dwpsn  file "../DeviceSupport/source/f28003x_sysctrl.c",line 905,column 5,is_stmt,isa 0
     712 00000035 BDAB          MOV32     R0H,P                 ; [CPU_FPU] |905| 
         00000036 0F12 
     713 00000037 7700          NOP       ; [CPU_ALU] 
     714 00000038 7700          NOP       ; [CPU_ALU] 
     715 00000039 7700          NOP       ; [CPU_ALU] 
     716 0000003a 7700          NOP       ; [CPU_ALU] 
     717 0000003b E68B          UI32TOF32 R0H,R0H               ; [CPU_FPU] |905| 
         0000003c 0000 
     718 0000003d 7700          NOP       ; [CPU_ALU] 
     719 0000003e E700          MPYF32    R0H,R4H,R0H           ; [CPU_FPU] |905| 
         0000003f 0020 
     720 00000040 7700          NOP       ; [CPU_ALU] 
     721 00000041 E68A          F32TOUI32 R0H,R0H               ; [CPU_FPU] |905| 
         00000042 0000 
     722 00000043 7700          NOP       ; [CPU_ALU] 
     723 00000044 AAA9          MOVL      ACC,XAR2              ; [CPU_ALU] |905| 
TMS320C2000 Assembler PC v22.6.1 Wed May 21 09:51:55 2025

Copyright (c) 1996-2018 Texas Instruments Incorporated
C:\Users\Daniel\AppData\Local\Temp\{78ED34F4-3C3B-4D89-8F5D-B64BD43A86E6} PAGE   15

     724 00000045 BFAC          MOV32     XT,R0H                ; [CPU_FPU] |905| 
         00000046 0F12 
     725                      .dwpsn  file "../DeviceSupport/source/f28003x_sysctrl.c",line 910,column 5,is_stmt,isa 0
     726 00000047 6109          B         $C$L10,EQ             ; [CPU_ALU] |910| 
     727                      ; branchcc occurs ; [] |910| 
     728                      .dwpsn  file "../DeviceSupport/source/f28003x_sysctrl.c",line 912,column 10,is_stmt,isa 0
     729 00000048 0201          MOVB      ACC,#1                ; [CPU_ALU] |912| 
     730 00000049 0FA2          CMPL      ACC,XAR2              ; [CPU_ALU] |912| 
     731 0000004a 6103          B         $C$L9,EQ              ; [CPU_ALU] |912| 
     732                      ; branchcc occurs ; [] |912| 
     733 0000004b 7625   ESTOP0
     734                      .dwpsn  file "../DeviceSupport/source/f28003x_sysctrl.c",line 915,column 9,is_stmt,isa 0
     735 0000004c 6F06          B         $C$L11,UNC            ; [CPU_ALU] |915| 
     736                      ; branch occurs ; [] |915| 
     737 0000004d       $C$L9:    
     738                      .dwpsn  file "../DeviceSupport/source/f28003x_sysctrl.c",line 913,column 9,is_stmt,isa 0
     739 0000004d 8F00!         MOVL      XAR4,#_Dcc1Regs       ; [CPU_ARAU] |913| 
         0000004e 0000 
     740 0000004f 6F03          B         $C$L11,UNC            ; [CPU_ALU] 
     741                      ; branch occurs ; [] 
     742 00000050       $C$L10:    
     743                      .dwpsn  file "../DeviceSupport/source/f28003x_sysctrl.c",line 911,column 9,is_stmt,isa 0
     744 00000050 8F00!         MOVL      XAR4,#_Dcc0Regs       ; [CPU_ARAU] |911| 
         00000051 0000 
     745 00000052       $C$L11:    
     746                      .dwpsn  file "../DeviceSupport/source/f28003x_sysctrl.c",line 920,column 5,is_stmt,isa 0
     747 00000052 06A6          MOVL      ACC,XAR6              ; [CPU_ALU] |920| 
     748 00000053 83A4          MOVL      XAR5,XAR4             ; [CPU_ALU] |920| 
     749 00000054 C4A4          MOVL      XAR6,XAR4             ; [CPU_ALU] |920| 
     750                      .dwpsn  file "../DeviceSupport/source/f28003x_sysctrl.c",line 921,column 5,is_stmt,isa 0
     751 00000055 D00C          MOVB      XAR0,#12              ; [CPU_ALU] |921| 
     752                      .dwpsn  file "../DeviceSupport/source/f28003x_sysctrl.c",line 920,column 5,is_stmt,isa 0
     753 00000056 910F          ANDB      AH,#15                ; [CPU_ALU] |920| 
     754 00000057 DD08          ADDB      XAR5,#8               ; [CPU_ALU] |920| 
     755 00000058 FF69          SPM       #0                    ; [CPU_ALU] 
     756 00000059 A3C5          MOVL      P,*+XAR5[0]           ; [CPU_ALU] |920| 
     757 0000005a DE08          ADDB      XAR6,#8               ; [CPU_ALU] |920| 
     758 0000005b 18AB          AND       PL,#0                 ; [CPU_ALU] |920| 
         0000005c 0000 
     759 0000005d 18AA          AND       PH,#65520             ; [CPU_ALU] |920| 
         0000005e FFF0 
     760                      .dwpsn  file "../DeviceSupport/source/f28003x_sysctrl.c",line 922,column 5,is_stmt,isa 0
     761 0000005f 83A4          MOVL      XAR5,XAR4             ; [CPU_ALU] |922| 
     762                      .dwpsn  file "../DeviceSupport/source/f28003x_sysctrl.c",line 920,column 5,is_stmt,isa 0
     763 00000060 CAAB          OR        AL,PL                 ; [CPU_ALU] |920| 
     764 00000061 CBAA          OR        AH,PH                 ; [CPU_ALU] |920| 
     765 00000062 1EC6          MOVL      *+XAR6[0],ACC         ; [CPU_ALU] |920| 
     766                      .dwpsn  file "../DeviceSupport/source/f28003x_sysctrl.c",line 921,column 5,is_stmt,isa 0
     767 00000063 7F94          MOV       *+XAR4[AR0],AR7       ; [CPU_ALU] |921| 
     768                      .dwpsn  file "../DeviceSupport/source/f28003x_sysctrl.c",line 922,column 5,is_stmt,isa 0
     769 00000064 ABA9          MOVL      ACC,XT                ; [CPU_ALU] |922| 
     770 00000065 DD10          ADDB      XAR5,#16              ; [CPU_ALU] |922| 
     771 00000066 910F          ANDB      AH,#15                ; [CPU_ALU] |922| 
     772 00000067 DC10          ADDB      XAR4,#16              ; [CPU_ALU] |922| 
     773 00000068 A3C5          MOVL      P,*+XAR5[0]           ; [CPU_ALU] |922| 
TMS320C2000 Assembler PC v22.6.1 Wed May 21 09:51:55 2025

Copyright (c) 1996-2018 Texas Instruments Incorporated
C:\Users\Daniel\AppData\Local\Temp\{78ED34F4-3C3B-4D89-8F5D-B64BD43A86E6} PAGE   16

     774 00000069 18AB          AND       PL,#0                 ; [CPU_ALU] |922| 
         0000006a 0000 
     775 0000006b 18AA          AND       PH,#65520             ; [CPU_ALU] |922| 
         0000006c FFF0 
     776 0000006d FE82          SUBB      SP,#2                 ; [CPU_ARAU] 
     777                      .dwcfi  cfa_offset, -8
     778 0000006e CAAB          OR        AL,PL                 ; [CPU_ALU] |922| 
     779 0000006f CBAA          OR        AH,PH                 ; [CPU_ALU] |922| 
     780 00000070 1EC4          MOVL      *+XAR4[0],ACC         ; [CPU_ALU] |922| 
     781 00000071 E2AF          MOV32     R4H,*--SP             ; [CPU_FPU] 
         00000072 04BE 
     782                      .dwcfi  cfa_offset, -6
     783                      .dwcfi  restore_reg, 59
     784 00000073 86BE          MOVL      XAR2,*--SP            ; [CPU_ALU] 
     785                      .dwcfi  cfa_offset, -4
     786                      .dwcfi  restore_reg, 9
     787 00000074 8BBE          MOVL      XAR1,*--SP            ; [CPU_ALU] 
     788                      .dwcfi  cfa_offset, -2
     789                      .dwcfi  restore_reg, 7
     790              $C$DW$44        .dwtag  DW_TAG_TI_branch
     791                      .dwattr $C$DW$44, DW_AT_low_pc(0x00)
     792                      .dwattr $C$DW$44, DW_AT_TI_return
     793              
     794 00000075 0006          LRETR     ; [CPU_ALU] 
     795                      ; return occurs ; [] 
     796                      .dwattr $C$DW$31, DW_AT_TI_end_file("../DeviceSupport/source/f28003x_sysctrl.c")
     797                      .dwattr $C$DW$31, DW_AT_TI_end_line(0x39b)
     798                      .dwattr $C$DW$31, DW_AT_TI_end_column(0x01)
     799                      .dwendentry
     800                      .dwendtag $C$DW$31
     801              
     802 00000000               .sect   ".text:_IsPLLValid"
     803                      .clink
     804                      .global _IsPLLValid
     805              
     806              $C$DW$45        .dwtag  DW_TAG_subprogram
     807                      .dwattr $C$DW$45, DW_AT_name("IsPLLValid")
     808                      .dwattr $C$DW$45, DW_AT_low_pc(_IsPLLValid)
     809                      .dwattr $C$DW$45, DW_AT_high_pc(0x00)
     810                      .dwattr $C$DW$45, DW_AT_TI_symbol_name("_IsPLLValid")
     811                      .dwattr $C$DW$45, DW_AT_external
     812                      .dwattr $C$DW$45, DW_AT_type(*$C$DW$T$345)
     813                      .dwattr $C$DW$45, DW_AT_TI_begin_file("../DeviceSupport/source/f28003x_sysctrl.c")
     814                      .dwattr $C$DW$45, DW_AT_TI_begin_line(0x2e2)
     815                      .dwattr $C$DW$45, DW_AT_TI_begin_column(0x01)
     816                      .dwattr $C$DW$45, DW_AT_TI_max_frame_size(-8)
     817                      .dwpsn  file "../DeviceSupport/source/f28003x_sysctrl.c",line 740,column 1,is_stmt,address _IsPLLVali
     818              
     819                      .dwfde $C$DW$CIE, _IsPLLValid
     820              $C$DW$46        .dwtag  DW_TAG_formal_parameter
     821                      .dwattr $C$DW$46, DW_AT_name("base")
     822                      .dwattr $C$DW$46, DW_AT_TI_symbol_name("_base")
     823                      .dwattr $C$DW$46, DW_AT_type(*$C$DW$T$21)
     824                      .dwattr $C$DW$46, DW_AT_location[DW_OP_reg0]
     825              
TMS320C2000 Assembler PC v22.6.1 Wed May 21 09:51:55 2025

Copyright (c) 1996-2018 Texas Instruments Incorporated
C:\Users\Daniel\AppData\Local\Temp\{78ED34F4-3C3B-4D89-8F5D-B64BD43A86E6} PAGE   17

     826              $C$DW$47        .dwtag  DW_TAG_formal_parameter
     827                      .dwattr $C$DW$47, DW_AT_name("oscSource")
     828                      .dwattr $C$DW$47, DW_AT_TI_symbol_name("_oscSource")
     829                      .dwattr $C$DW$47, DW_AT_type(*$C$DW$T$19)
     830                      .dwattr $C$DW$47, DW_AT_location[DW_OP_reg12]
     831              
     832              $C$DW$48        .dwtag  DW_TAG_formal_parameter
     833                      .dwattr $C$DW$48, DW_AT_name("pllclk")
     834                      .dwattr $C$DW$48, DW_AT_TI_symbol_name("_pllclk")
     835                      .dwattr $C$DW$48, DW_AT_type(*$C$DW$T$19)
     836                      .dwattr $C$DW$48, DW_AT_location[DW_OP_reg14]
     837              
     838              $C$DW$49        .dwtag  DW_TAG_formal_parameter
     839                      .dwattr $C$DW$49, DW_AT_name("imult")
     840                      .dwattr $C$DW$49, DW_AT_TI_symbol_name("_imult")
     841                      .dwattr $C$DW$49, DW_AT_type(*$C$DW$T$19)
     842                      .dwattr $C$DW$49, DW_AT_location[DW_OP_breg20 -9]
     843              
     844              $C$DW$50        .dwtag  DW_TAG_formal_parameter
     845                      .dwattr $C$DW$50, DW_AT_name("odiv")
     846                      .dwattr $C$DW$50, DW_AT_TI_symbol_name("_odiv")
     847                      .dwattr $C$DW$50, DW_AT_type(*$C$DW$T$19)
     848                      .dwattr $C$DW$50, DW_AT_location[DW_OP_breg20 -10]
     849              
     850              $C$DW$51        .dwtag  DW_TAG_formal_parameter
     851                      .dwattr $C$DW$51, DW_AT_name("refdiv")
     852                      .dwattr $C$DW$51, DW_AT_TI_symbol_name("_refdiv")
     853                      .dwattr $C$DW$51, DW_AT_type(*$C$DW$T$19)
     854                      .dwattr $C$DW$51, DW_AT_location[DW_OP_breg20 -11]
     855              
     856              
     857              ;***************************************************************
     858              ;* FNAME: _IsPLLValid                   FR SIZE:   6           *
     859              ;*                                                             *
     860              ;* FUNCTION ENVIRONMENT                                        *
     861              ;*                                                             *
     862              ;* FUNCTION PROPERTIES                                         *
     863              ;*                            2 Parameter,  0 Auto,  4 SOE     *
     864              ;***************************************************************
     865              
     866              _IsPLLValid:
     867              ;* AR1   assigned to $O$U57
     868              ;* AR3   assigned to _base
     869              $C$DW$52        .dwtag  DW_TAG_variable
     870                      .dwattr $C$DW$52, DW_AT_name("base")
     871                      .dwattr $C$DW$52, DW_AT_TI_symbol_name("_base")
     872                      .dwattr $C$DW$52, DW_AT_type(*$C$DW$T$340)
     873                      .dwattr $C$DW$52, DW_AT_location[DW_OP_reg10]
     874              
     875              ;* AR4   assigned to _oscSource
     876              $C$DW$53        .dwtag  DW_TAG_variable
     877                      .dwattr $C$DW$53, DW_AT_name("oscSource")
     878                      .dwattr $C$DW$53, DW_AT_TI_symbol_name("_oscSource")
     879                      .dwattr $C$DW$53, DW_AT_type(*$C$DW$T$334)
     880                      .dwattr $C$DW$53, DW_AT_location[DW_OP_reg12]
TMS320C2000 Assembler PC v22.6.1 Wed May 21 09:51:55 2025

Copyright (c) 1996-2018 Texas Instruments Incorporated
C:\Users\Daniel\AppData\Local\Temp\{78ED34F4-3C3B-4D89-8F5D-B64BD43A86E6} PAGE   18

     881              
     882              ;* AR5   assigned to _pllclk
     883              $C$DW$54        .dwtag  DW_TAG_variable
     884                      .dwattr $C$DW$54, DW_AT_name("pllclk")
     885                      .dwattr $C$DW$54, DW_AT_TI_symbol_name("_pllclk")
     886                      .dwattr $C$DW$54, DW_AT_type(*$C$DW$T$334)
     887                      .dwattr $C$DW$54, DW_AT_location[DW_OP_reg14]
     888              
     889              ;* AR0   assigned to _imult
     890              $C$DW$55        .dwtag  DW_TAG_variable
     891                      .dwattr $C$DW$55, DW_AT_name("imult")
     892                      .dwattr $C$DW$55, DW_AT_TI_symbol_name("_imult")
     893                      .dwattr $C$DW$55, DW_AT_type(*$C$DW$T$334)
     894                      .dwattr $C$DW$55, DW_AT_location[DW_OP_reg4]
     895              
     896              ;* PH    assigned to _odiv
     897              $C$DW$56        .dwtag  DW_TAG_variable
     898                      .dwattr $C$DW$56, DW_AT_name("odiv")
     899                      .dwattr $C$DW$56, DW_AT_TI_symbol_name("_odiv")
     900                      .dwattr $C$DW$56, DW_AT_type(*$C$DW$T$334)
     901                      .dwattr $C$DW$56, DW_AT_location[DW_OP_reg3]
     902              
     903              ;* PL    assigned to _refdiv
     904              $C$DW$57        .dwtag  DW_TAG_variable
     905                      .dwattr $C$DW$57, DW_AT_name("refdiv")
     906                      .dwattr $C$DW$57, DW_AT_TI_symbol_name("_refdiv")
     907                      .dwattr $C$DW$57, DW_AT_type(*$C$DW$T$334)
     908                      .dwattr $C$DW$57, DW_AT_location[DW_OP_reg2]
     909              
     910              ;* AR1   assigned to _DccRegs
     911              $C$DW$58        .dwtag  DW_TAG_variable
     912                      .dwattr $C$DW$58, DW_AT_name("DccRegs")
     913                      .dwattr $C$DW$58, DW_AT_TI_symbol_name("_DccRegs")
     914                      .dwattr $C$DW$58, DW_AT_type(*$C$DW$T$228)
     915                      .dwattr $C$DW$58, DW_AT_location[DW_OP_reg6]
     916              
     917                      .dwcfi  cfa_offset, -2
     918                      .dwcfi  save_reg_to_mem, 26, 0
     919 00000000 B2BD          MOVL      *SP++,XAR1            ; [CPU_ALU] 
     920                      .dwcfi  save_reg_to_mem, 7, 2
     921                      .dwcfi  cfa_offset, -4
     922 00000001 A2BD          MOVL      *SP++,XAR3            ; [CPU_ALU] 
     923                      .dwcfi  save_reg_to_mem, 11, 4
     924                      .dwcfi  cfa_offset, -6
     925 00000002 FE02          ADDB      SP,#2                 ; [CPU_ARAU] 
     926                      .dwcfi  cfa_offset, -8
     927 00000003 82A9          MOVL      XAR3,ACC              ; [CPU_ALU] |740| 
     928 00000004 8D7F          MOVL      XAR1,#-2              ; [CPU_ALU] |740| 
         00000005 FFFE 
     929 00000006 274B          MOV       PL,*-SP[11]           ; [CPU_ALU] |740| 
     930 00000007 2F4A          MOV       PH,*-SP[10]           ; [CPU_ALU] |740| 
     931 00000008 5849          MOVZ      AR0,*-SP[9]           ; [CPU_ALU] |740| 
     932                      .dwpsn  file "../DeviceSupport/source/f28003x_sysctrl.c",line 744,column 5,is_stmt,isa 0
     933 00000009 7622          EALLOW    ; [CPU_ALU] |744| 
     934                      .dwpsn  file "../DeviceSupport/source/f28003x_sysctrl.c",line 750,column 5,is_stmt,isa 0
TMS320C2000 Assembler PC v22.6.1 Wed May 21 09:51:55 2025

Copyright (c) 1996-2018 Texas Instruments Incorporated
C:\Users\Daniel\AppData\Local\Temp\{78ED34F4-3C3B-4D89-8F5D-B64BD43A86E6} PAGE   19

     935 0000000a FF58          TEST      ACC                   ; [CPU_ALU] |750| 
     936 0000000b 610D          B         $C$L13,EQ             ; [CPU_ALU] |750| 
     937                      ; branchcc occurs ; [] |750| 
     938                      .dwpsn  file "../DeviceSupport/source/f28003x_sysctrl.c",line 755,column 10,is_stmt,isa 0
     939 0000000c 0201          MOVB      ACC,#1                ; [CPU_ALU] |755| 
     940 0000000d 0FA3          CMPL      ACC,XAR3              ; [CPU_ALU] |755| 
     941 0000000e 6103          B         $C$L12,EQ             ; [CPU_ALU] |755| 
     942                      ; branchcc occurs ; [] |755| 
     943 0000000f 7625   ESTOP0
     944                      .dwpsn  file "../DeviceSupport/source/f28003x_sysctrl.c",line 761,column 9,is_stmt,isa 0
     945 00000010 6F0E          B         $C$L14,UNC            ; [CPU_ALU] |761| 
     946                      ; branch occurs ; [] |761| 
     947 00000011       $C$L12:    
     948 00000011 761F!         MOVW      DP,#_CpuSysRegs+76    ; [CPU_ARAU] 
         00000012 0001 
     949                      .dwpsn  file "../DeviceSupport/source/f28003x_sysctrl.c",line 757,column 13,is_stmt,isa 0
     950 00000013 8D40!         MOVL      XAR1,#_Dcc1Regs       ; [CPU_ARAU] |757| 
         00000014 0000 
     951                      .dwpsn  file "../DeviceSupport/source/f28003x_sysctrl.c",line 758,column 13,is_stmt,isa 0
     952 00000015 1A0C!         OR        @$BLOCKED(_CpuSysRegs)+76,#0x0002 ; [CPU_ALU] |758| 
         00000016 0002 
     953 00000017 6F07          B         $C$L14,UNC            ; [CPU_ALU] 
     954                      ; branch occurs ; [] 
     955 00000018       $C$L13:    
     956 00000018 761F!         MOVW      DP,#_CpuSysRegs+76    ; [CPU_ARAU] 
         00000019 0001 
     957                      .dwpsn  file "../DeviceSupport/source/f28003x_sysctrl.c",line 752,column 13,is_stmt,isa 0
     958 0000001a 8D40!         MOVL      XAR1,#_Dcc0Regs       ; [CPU_ARAU] |752| 
         0000001b 0000 
     959                      .dwpsn  file "../DeviceSupport/source/f28003x_sysctrl.c",line 753,column 13,is_stmt,isa 0
     960 0000001c 1A0C!         OR        @$BLOCKED(_CpuSysRegs)+76,#0x0001 ; [CPU_ALU] |753| 
         0000001d 0001 
     961 0000001e       $C$L14:    
     962                      .dwpsn  file "../DeviceSupport/source/f28003x_sysctrl.c",line 766,column 5,is_stmt,isa 0
     963 0000001e C5A1          MOVL      XAR7,XAR1             ; [CPU_ALU] |766| 
     964                      .dwpsn  file "../DeviceSupport/source/f28003x_sysctrl.c",line 767,column 5,is_stmt,isa 0
     965 0000001f C4A1          MOVL      XAR6,XAR1             ; [CPU_ALU] |767| 
     966                      .dwpsn  file "../DeviceSupport/source/f28003x_sysctrl.c",line 766,column 5,is_stmt,isa 0
     967 00000020 DF14          ADDB      XAR7,#20              ; [CPU_ALU] |766| 
     968                      .dwpsn  file "../DeviceSupport/source/f28003x_sysctrl.c",line 767,column 5,is_stmt,isa 0
     969 00000021 DE14          ADDB      XAR6,#20              ; [CPU_ALU] |767| 
     970                      .dwpsn  file "../DeviceSupport/source/f28003x_sysctrl.c",line 766,column 5,is_stmt,isa 0
     971 00000022 1AC7          OR        *+XAR7[0],#0x0001     ; [CPU_FPU] |766| 
         00000023 0001 
     972                      .dwpsn  file "../DeviceSupport/source/f28003x_sysctrl.c",line 767,column 5,is_stmt,isa 0
     973 00000024 1AC6          OR        *+XAR6[0],#0x0002     ; [CPU_ALU] |767| 
         00000025 0002 
     974                      .dwpsn  file "../DeviceSupport/source/f28003x_sysctrl.c",line 772,column 5,is_stmt,isa 0
     975 00000026 CCC1          AND       AL,*+XAR1[0],#0xfff0  ; [CPU_ALU] |772| 
         00000027 FFF0 
     976 00000028 5005          ORB       AL,#0x05              ; [CPU_ALU] |772| 
     977 00000029 96C1          MOV       *+XAR1[0],AL          ; [CPU_ALU] |772| 
     978                      .dwpsn  file "../DeviceSupport/source/f28003x_sysctrl.c",line 777,column 5,is_stmt,isa 0
     979 0000002a CCC1          AND       AL,*+XAR1[0],#0xff1f  ; [CPU_ALU] |777| 
         0000002b FF1F 
TMS320C2000 Assembler PC v22.6.1 Wed May 21 09:51:55 2025

Copyright (c) 1996-2018 Texas Instruments Incorporated
C:\Users\Daniel\AppData\Local\Temp\{78ED34F4-3C3B-4D89-8F5D-B64BD43A86E6} PAGE   20

     980 0000002c 5050          ORB       AL,#0x50              ; [CPU_ALU] |777| 
     981 0000002d 96C1          MOV       *+XAR1[0],AL          ; [CPU_ALU] |777| 
     982                      .dwpsn  file "../DeviceSupport/source/f28003x_sysctrl.c",line 782,column 5,is_stmt,isa 0
     983 0000002e CCC1          AND       AL,*+XAR1[0],#0x0fff  ; [CPU_ALU] |782| 
         0000002f 0FFF 
     984 00000030 1AA9          OR        AL,#0x5000            ; [CPU_ALU] |782| 
         00000031 5000 
     985 00000032 96C1          MOV       *+XAR1[0],AL          ; [CPU_ALU] |782| 
     986 00000033 92A5          MOV       AL,AR5                ; [CPU_ALU] |782| 
     987                      .dwpsn  file "../DeviceSupport/source/f28003x_sysctrl.c",line 789,column 5,is_stmt,isa 0
     988 00000034 6006          B         $C$L15,NEQ            ; [CPU_ALU] |789| 
     989                      ; branchcc occurs ; [] |789| 
     990                      .dwpsn  file "../DeviceSupport/source/f28003x_sysctrl.c",line 792,column 13,is_stmt,isa 0
     991 00000035 83A1          MOVL      XAR5,XAR1             ; [CPU_ALU] |792| 
     992 00000036 7680          MOVL      XAR6,#40960           ; [CPU_ARAU] |792| 
         00000037 A000 
     993 00000038 DD24          ADDB      XAR5,#36              ; [CPU_ALU] |792| 
     994 00000039 C2C5          MOVL      *+XAR5[0],XAR6        ; [CPU_ALU] |792| 
     995 0000003a       $C$L15:    
     996                      .dwpsn  file "../DeviceSupport/source/f28003x_sysctrl.c",line 808,column 5,is_stmt,isa 0
     997 0000003a 92A4          MOV       AL,AR4                ; [CPU_ALU] |808| 
     998 0000003b 610D          B         $C$L18,EQ             ; [CPU_ALU] |808| 
     999                      ; branchcc occurs ; [] |808| 
    1000 0000003c 5201          CMPB      AL,#1                 ; [CPU_ALU] |808| 
    1001 0000003d 6105          B         $C$L16,EQ             ; [CPU_ALU] |808| 
    1002                      ; branchcc occurs ; [] |808| 
    1003 0000003e 5202          CMPB      AL,#2                 ; [CPU_ALU] |808| 
    1004 0000003f 6106          B         $C$L17,EQ             ; [CPU_ALU] |808| 
    1005                      ; branchcc occurs ; [] |808| 
    1006 00000040 5205          CMPB      AL,#5                 ; [CPU_ALU] |808| 
    1007 00000041 600C          B         $C$L20,NEQ            ; [CPU_ALU] |808| 
    1008                      ; branchcc occurs ; [] |808| 
    1009 00000042       $C$L16:    
    1010                      .dwpsn  file "../DeviceSupport/source/f28003x_sysctrl.c",line 820,column 13,is_stmt,isa 0
    1011 00000042 8F40          MOVL      XAR5,#40960           ; [CPU_ARAU] |820| 
         00000043 A000 
    1012                      .dwpsn  file "../DeviceSupport/source/f28003x_sysctrl.c",line 821,column 13,is_stmt,isa 0
    1013 00000044 6F06          B         $C$L19,UNC            ; [CPU_ALU] |821| 
    1014                      ; branch occurs ; [] |821| 
    1015 00000045       $C$L17:    
    1016                      .dwpsn  file "../DeviceSupport/source/f28003x_sysctrl.c",line 811,column 13,is_stmt,isa 0
    1017 00000045 8F40          MOVL      XAR5,#40961           ; [CPU_ARAU] |811| 
         00000046 A001 
    1018                      .dwpsn  file "../DeviceSupport/source/f28003x_sysctrl.c",line 812,column 13,is_stmt,isa 0
    1019 00000047 6F03          B         $C$L19,UNC            ; [CPU_ALU] |812| 
    1020                      ; branch occurs ; [] |812| 
    1021 00000048       $C$L18:    
    1022                      .dwpsn  file "../DeviceSupport/source/f28003x_sysctrl.c",line 815,column 13,is_stmt,isa 0
    1023 00000048 8F40          MOVL      XAR5,#40962           ; [CPU_ARAU] |815| 
         00000049 A002 
    1024 0000004a       $C$L19:    
    1025 0000004a 8AA1          MOVL      XAR4,XAR1             ; [CPU_ALU] |815| 
    1026 0000004b DC28          ADDB      XAR4,#40              ; [CPU_ALU] |815| 
    1027 0000004c A0C4          MOVL      *+XAR4[0],XAR5        ; [CPU_ALU] |815| 
    1028 0000004d       $C$L20:    
TMS320C2000 Assembler PC v22.6.1 Wed May 21 09:51:55 2025

Copyright (c) 1996-2018 Texas Instruments Incorporated
C:\Users\Daniel\AppData\Local\Temp\{78ED34F4-3C3B-4D89-8F5D-B64BD43A86E6} PAGE   21

    1029                      .dwpsn  file "../DeviceSupport/source/f28003x_sysctrl.c",line 839,column 5,is_stmt,isa 0
    1030 0000004d 9B01          MOVB      AH,#1                 ; [CPU_ALU] |839| 
    1031 0000004e 28AC          MOV       T,#1                  ; [CPU_ALU] |839| 
         0000004f 0001 
    1032 00000050 88A0          MOVZ      AR6,AR0               ; [CPU_ALU] |839| 
    1033 00000051 92AB          MOV       AL,PL                 ; [CPU_ALU] |839| 
    1034 00000052 95AA          ADD       AH,PH                 ; [CPU_ALU] |839| 
    1035 00000053 72AC          ADD       T,AL                  ; [CPU_ALU] |839| 
    1036 00000054 BDA6          MOV32     R0H,XAR6              ; [CPU_FPU] |839| 
         00000055 0F12 
    1037 00000056 12A8          MPY       ACC,T,AH              ; [CPU_ALU] |839| 
    1038 00000057 0EA9          MOVU      ACC,AL                ; [CPU_ALU] |839| 
    1039 00000058 BDA9          MOV32     R1H,ACC               ; [CPU_FPU] |839| 
         00000059 0F16 
    1040 0000005a 7700          NOP       ; [CPU_ALU] 
    1041 0000005b 7700          NOP       ; [CPU_ALU] 
    1042 0000005c FF69          SPM       #0                    ; [CPU_ALU] 
    1043 0000005d E68B          UI32TOF32 R0H,R0H               ; [CPU_FPU] |839| 
         0000005e 0000 
    1044 0000005f E68B          UI32TOF32 R1H,R1H               ; [CPU_FPU] |839| 
         00000060 0009 
    1045              $C$DW$59        .dwtag  DW_TAG_TI_branch
    1046                      .dwattr $C$DW$59, DW_AT_low_pc(0x00)
    1047                      .dwattr $C$DW$59, DW_AT_name("FS$$DIV")
    1048                      .dwattr $C$DW$59, DW_AT_TI_call
    1049              
    1050 00000061 7640!         LCR       #FS$$DIV              ; [CPU_ALU] |839| 
         00000062 0000 
    1051                      ; call occurs [#FS$$DIV] ; [] |839| 
    1052 00000063 0201          MOVB      ACC,#1                ; [CPU_ALU] |839| 
    1053 00000064 1E42          MOVL      *-SP[2],ACC           ; [CPU_ALU] |839| 
    1054 00000065 A2A9          MOVL      ACC,XAR3              ; [CPU_ALU] |839| 
    1055              $C$DW$60        .dwtag  DW_TAG_TI_branch
    1056                      .dwattr $C$DW$60, DW_AT_low_pc(0x00)
    1057                      .dwattr $C$DW$60, DW_AT_name("_ComputeCntrSeedValue")
    1058                      .dwattr $C$DW$60, DW_AT_TI_call
    1059              
    1060 00000066 7640+         LCR       #_ComputeCntrSeedValue ; [CPU_ALU] |839| 
         00000067 0000 
    1061                      ; call occurs [#_ComputeCntrSeedValue] ; [] |839| 
    1062                      .dwpsn  file "../DeviceSupport/source/f28003x_sysctrl.c",line 844,column 5,is_stmt,isa 0
    1063 00000068 CCC1          AND       AL,*+XAR1[0],#0xf8ff  ; [CPU_ALU] |844| 
         00000069 F8FF 
    1064 0000006a 1AA9          OR        AL,#0x0a00            ; [CPU_ALU] |844| 
         0000006b 0A00 
    1065 0000006c 96C1          MOV       *+XAR1[0],AL          ; [CPU_ALU] |844| 
    1066                      .dwpsn  file "../DeviceSupport/source/f28003x_sysctrl.c",line 849,column 5,is_stmt,isa 0
    1067 0000006d CCC1          AND       AL,*+XAR1[0],#0xfff8  ; [CPU_ALU] |849| 
         0000006e FFF8 
    1068 0000006f 500A          ORB       AL,#0x0a              ; [CPU_ALU] |849| 
    1069 00000070 96C1          MOV       *+XAR1[0],AL          ; [CPU_ALU] |849| 
    1070                      .dwpsn  file "../DeviceSupport/source/f28003x_sysctrl.c",line 850,column 5,is_stmt,isa 0
    1071 00000071 761A          EDIS      ; [CPU_ALU] |850| 
    1072 00000072 D914          ADDB      XAR1,#20              ; [CPU_ALU] 
    1073 00000073       $C$L21:    
TMS320C2000 Assembler PC v22.6.1 Wed May 21 09:51:55 2025

Copyright (c) 1996-2018 Texas Instruments Incorporated
C:\Users\Daniel\AppData\Local\Temp\{78ED34F4-3C3B-4D89-8F5D-B64BD43A86E6} PAGE   22

    1074                      .dwpsn  file "../DeviceSupport/source/f28003x_sysctrl.c",line 855,column 11,is_stmt,isa 0
    1075 00000073 06C1          MOVL      ACC,*+XAR1[0]         ; [CPU_ALU] |855| 
    1076 00000074 9B00          MOVB      AH,#0                 ; [CPU_ALU] |855| 
    1077 00000075 9003          ANDB      AL,#0x03              ; [CPU_ALU] |855| 
    1078 00000076 FF58          TEST      ACC                   ; [CPU_ALU] |855| 
    1079 00000077 61FC          B         $C$L21,EQ             ; [CPU_ALU] |855| 
    1080                      ; branchcc occurs ; [] |855| 
    1081                      .dwpsn  file "../DeviceSupport/source/f28003x_sysctrl.c",line 862,column 5,is_stmt,isa 0
    1082 00000078 06C1          MOVL      ACC,*+XAR1[0]         ; [CPU_ALU] |862| 
    1083 00000079 B602          MOVB      XAR7,#2               ; [CPU_ALU] |862| 
    1084 0000007a BE00          MOVB      XAR6,#0               ; [CPU_ALU] |862| 
    1085 0000007b 9B00          MOVB      AH,#0                 ; [CPU_ALU] |862| 
    1086 0000007c 9003          ANDB      AL,#0x03              ; [CPU_ALU] |862| 
    1087 0000007d 0FA7          CMPL      ACC,XAR7              ; [CPU_ALU] |862| 
    1088 0000007e 56B1          MOVB      XAR6,#1,EQ            ; [CPU_ALU] |862| 
         0000007f 01A6 
    1089 00000080 FE82          SUBB      SP,#2                 ; [CPU_ARAU] 
    1090                      .dwcfi  cfa_offset, -6
    1091 00000081 82BE          MOVL      XAR3,*--SP            ; [CPU_ALU] 
    1092                      .dwcfi  cfa_offset, -4
    1093                      .dwcfi  restore_reg, 11
    1094 00000082 92A6          MOV       AL,AR6                ; [CPU_ALU] |862| 
    1095 00000083 8BBE          MOVL      XAR1,*--SP            ; [CPU_ALU] 
    1096                      .dwcfi  cfa_offset, -2
    1097                      .dwcfi  restore_reg, 7
    1098              $C$DW$61        .dwtag  DW_TAG_TI_branch
    1099                      .dwattr $C$DW$61, DW_AT_low_pc(0x00)
    1100                      .dwattr $C$DW$61, DW_AT_TI_return
    1101              
    1102 00000084 0006          LRETR     ; [CPU_ALU] 
    1103                      ; return occurs ; [] 
    1104                      .dwattr $C$DW$45, DW_AT_TI_end_file("../DeviceSupport/source/f28003x_sysctrl.c")
    1105                      .dwattr $C$DW$45, DW_AT_TI_end_line(0x360)
    1106                      .dwattr $C$DW$45, DW_AT_TI_end_column(0x01)
    1107                      .dwendentry
    1108                      .dwendtag $C$DW$45
    1109              
    1110 00000000               .sect   ".text:_InitSysPll"
    1111                      .clink
    1112                      .global _InitSysPll
    1113              
    1114              $C$DW$62        .dwtag  DW_TAG_subprogram
    1115                      .dwattr $C$DW$62, DW_AT_name("InitSysPll")
    1116                      .dwattr $C$DW$62, DW_AT_low_pc(_InitSysPll)
    1117                      .dwattr $C$DW$62, DW_AT_high_pc(0x00)
    1118                      .dwattr $C$DW$62, DW_AT_TI_symbol_name("_InitSysPll")
    1119                      .dwattr $C$DW$62, DW_AT_external
    1120                      .dwattr $C$DW$62, DW_AT_TI_begin_file("../DeviceSupport/source/f28003x_sysctrl.c")
    1121                      .dwattr $C$DW$62, DW_AT_TI_begin_line(0x188)
    1122                      .dwattr $C$DW$62, DW_AT_TI_begin_column(0x06)
    1123                      .dwattr $C$DW$62, DW_AT_TI_max_frame_size(-20)
    1124                      .dwpsn  file "../DeviceSupport/source/f28003x_sysctrl.c",line 394,column 1,is_stmt,address _InitSysPl
    1125              
    1126                      .dwfde $C$DW$CIE, _InitSysPll
    1127              $C$DW$63        .dwtag  DW_TAG_formal_parameter
TMS320C2000 Assembler PC v22.6.1 Wed May 21 09:51:55 2025

Copyright (c) 1996-2018 Texas Instruments Incorporated
C:\Users\Daniel\AppData\Local\Temp\{78ED34F4-3C3B-4D89-8F5D-B64BD43A86E6} PAGE   23

    1128                      .dwattr $C$DW$63, DW_AT_name("clock_source")
    1129                      .dwattr $C$DW$63, DW_AT_TI_symbol_name("_clock_source")
    1130                      .dwattr $C$DW$63, DW_AT_type(*$C$DW$T$19)
    1131                      .dwattr $C$DW$63, DW_AT_location[DW_OP_reg12]
    1132              
    1133              $C$DW$64        .dwtag  DW_TAG_formal_parameter
    1134                      .dwattr $C$DW$64, DW_AT_name("imult")
    1135                      .dwattr $C$DW$64, DW_AT_TI_symbol_name("_imult")
    1136                      .dwattr $C$DW$64, DW_AT_type(*$C$DW$T$19)
    1137                      .dwattr $C$DW$64, DW_AT_location[DW_OP_reg14]
    1138              
    1139              $C$DW$65        .dwtag  DW_TAG_formal_parameter
    1140                      .dwattr $C$DW$65, DW_AT_name("refdiv")
    1141                      .dwattr $C$DW$65, DW_AT_TI_symbol_name("_refdiv")
    1142                      .dwattr $C$DW$65, DW_AT_type(*$C$DW$T$21)
    1143                      .dwattr $C$DW$65, DW_AT_location[DW_OP_reg0]
    1144              
    1145              $C$DW$66        .dwtag  DW_TAG_formal_parameter
    1146                      .dwattr $C$DW$66, DW_AT_name("odiv")
    1147                      .dwattr $C$DW$66, DW_AT_TI_symbol_name("_odiv")
    1148                      .dwattr $C$DW$66, DW_AT_type(*$C$DW$T$21)
    1149                      .dwattr $C$DW$66, DW_AT_location[DW_OP_breg20 -22]
    1150              
    1151              $C$DW$67        .dwtag  DW_TAG_formal_parameter
    1152                      .dwattr $C$DW$67, DW_AT_name("divsel")
    1153                      .dwattr $C$DW$67, DW_AT_TI_symbol_name("_divsel")
    1154                      .dwattr $C$DW$67, DW_AT_type(*$C$DW$T$19)
    1155                      .dwattr $C$DW$67, DW_AT_location[DW_OP_breg20 -23]
    1156              
    1157              $C$DW$68        .dwtag  DW_TAG_formal_parameter
    1158                      .dwattr $C$DW$68, DW_AT_name("dccbase")
    1159                      .dwattr $C$DW$68, DW_AT_TI_symbol_name("_dccbase")
    1160                      .dwattr $C$DW$68, DW_AT_type(*$C$DW$T$21)
    1161                      .dwattr $C$DW$68, DW_AT_location[DW_OP_breg20 -26]
    1162              
    1163              
    1164              ;***************************************************************
    1165              ;* FNAME: _InitSysPll                   FR SIZE:  18           *
    1166              ;*                                                             *
    1167              ;* FUNCTION ENVIRONMENT                                        *
    1168              ;*                                                             *
    1169              ;* FUNCTION PROPERTIES                                         *
    1170              ;*                            3 Parameter,  9 Auto,  6 SOE     *
    1171              ;***************************************************************
    1172              
    1173              _InitSysPll:
    1174              ;* AR5   assigned to $O$C2
    1175              ;* AR4   assigned to $O$C3
    1176              ;* AR6   assigned to $O$K8
    1177              ;* AR4   assigned to $O$K8
    1178              ;* AR4   assigned to $O$K8
    1179              ;* AR4   assigned to $O$K8
    1180              ;* AL    assigned to _pllLockStatus
    1181              $C$DW$69        .dwtag  DW_TAG_variable
    1182                      .dwattr $C$DW$69, DW_AT_name("pllLockStatus")
TMS320C2000 Assembler PC v22.6.1 Wed May 21 09:51:55 2025

Copyright (c) 1996-2018 Texas Instruments Incorporated
C:\Users\Daniel\AppData\Local\Temp\{78ED34F4-3C3B-4D89-8F5D-B64BD43A86E6} PAGE   24

    1183                      .dwattr $C$DW$69, DW_AT_TI_symbol_name("_pllLockStatus")
    1184                      .dwattr $C$DW$69, DW_AT_type(*$C$DW$T$11)
    1185                      .dwattr $C$DW$69, DW_AT_location[DW_OP_reg0]
    1186              
    1187              ;* AR7   assigned to _pllLockStatus
    1188              $C$DW$70        .dwtag  DW_TAG_variable
    1189                      .dwattr $C$DW$70, DW_AT_name("pllLockStatus")
    1190                      .dwattr $C$DW$70, DW_AT_TI_symbol_name("_pllLockStatus")
    1191                      .dwattr $C$DW$70, DW_AT_type(*$C$DW$T$11)
    1192                      .dwattr $C$DW$70, DW_AT_location[DW_OP_reg18]
    1193              
    1194              ;* AR6   assigned to $O$K7
    1195              ;* AR3   assigned to _clock_source
    1196              $C$DW$71        .dwtag  DW_TAG_variable
    1197                      .dwattr $C$DW$71, DW_AT_name("clock_source")
    1198                      .dwattr $C$DW$71, DW_AT_TI_symbol_name("_clock_source")
    1199                      .dwattr $C$DW$71, DW_AT_type(*$C$DW$T$334)
    1200                      .dwattr $C$DW$71, DW_AT_location[DW_OP_reg10]
    1201              
    1202              $C$DW$72        .dwtag  DW_TAG_variable
    1203                      .dwattr $C$DW$72, DW_AT_name("imult")
    1204                      .dwattr $C$DW$72, DW_AT_TI_symbol_name("_imult")
    1205                      .dwattr $C$DW$72, DW_AT_type(*$C$DW$T$334)
    1206                      .dwattr $C$DW$72, DW_AT_location[DW_OP_breg20 -4]
    1207              
    1208              ;* AR2   assigned to _refdiv
    1209              $C$DW$73        .dwtag  DW_TAG_variable
    1210                      .dwattr $C$DW$73, DW_AT_name("refdiv")
    1211                      .dwattr $C$DW$73, DW_AT_TI_symbol_name("_refdiv")
    1212                      .dwattr $C$DW$73, DW_AT_type(*$C$DW$T$340)
    1213                      .dwattr $C$DW$73, DW_AT_location[DW_OP_reg8]
    1214              
    1215              $C$DW$74        .dwtag  DW_TAG_variable
    1216                      .dwattr $C$DW$74, DW_AT_name("odiv")
    1217                      .dwattr $C$DW$74, DW_AT_TI_symbol_name("_odiv")
    1218                      .dwattr $C$DW$74, DW_AT_type(*$C$DW$T$340)
    1219                      .dwattr $C$DW$74, DW_AT_location[DW_OP_breg20 -8]
    1220              
    1221              $C$DW$75        .dwtag  DW_TAG_variable
    1222                      .dwattr $C$DW$75, DW_AT_name("divsel")
    1223                      .dwattr $C$DW$75, DW_AT_TI_symbol_name("_divsel")
    1224                      .dwattr $C$DW$75, DW_AT_type(*$C$DW$T$334)
    1225                      .dwattr $C$DW$75, DW_AT_location[DW_OP_breg20 -5]
    1226              
    1227              $C$DW$76        .dwtag  DW_TAG_variable
    1228                      .dwattr $C$DW$76, DW_AT_name("dccbase")
    1229                      .dwattr $C$DW$76, DW_AT_TI_symbol_name("_dccbase")
    1230                      .dwattr $C$DW$76, DW_AT_type(*$C$DW$T$340)
    1231                      .dwattr $C$DW$76, DW_AT_location[DW_OP_breg20 -10]
    1232              
    1233              ;* AR6   assigned to _timeout
    1234              $C$DW$77        .dwtag  DW_TAG_variable
    1235                      .dwattr $C$DW$77, DW_AT_name("timeout")
    1236                      .dwattr $C$DW$77, DW_AT_TI_symbol_name("_timeout")
    1237                      .dwattr $C$DW$77, DW_AT_type(*$C$DW$T$21)
TMS320C2000 Assembler PC v22.6.1 Wed May 21 09:51:55 2025

Copyright (c) 1996-2018 Texas Instruments Incorporated
C:\Users\Daniel\AppData\Local\Temp\{78ED34F4-3C3B-4D89-8F5D-B64BD43A86E6} PAGE   25

    1238                      .dwattr $C$DW$77, DW_AT_location[DW_OP_reg16]
    1239              
    1240              $C$DW$78        .dwtag  DW_TAG_variable
    1241                      .dwattr $C$DW$78, DW_AT_name("temp_syspllmult")
    1242                      .dwattr $C$DW$78, DW_AT_TI_symbol_name("_temp_syspllmult")
    1243                      .dwattr $C$DW$78, DW_AT_type(*$C$DW$T$21)
    1244                      .dwattr $C$DW$78, DW_AT_location[DW_OP_breg20 -12]
    1245              
    1246                      .dwcfi  cfa_offset, -2
    1247                      .dwcfi  save_reg_to_mem, 26, 0
    1248 00000000 B2BD          MOVL      *SP++,XAR1            ; [CPU_ALU] 
    1249                      .dwcfi  save_reg_to_mem, 7, 2
    1250                      .dwcfi  cfa_offset, -4
    1251 00000001 AABD          MOVL      *SP++,XAR2            ; [CPU_ALU] 
    1252                      .dwcfi  save_reg_to_mem, 9, 4
    1253                      .dwcfi  cfa_offset, -6
    1254 00000002 A2BD          MOVL      *SP++,XAR3            ; [CPU_ALU] 
    1255                      .dwcfi  save_reg_to_mem, 11, 6
    1256                      .dwcfi  cfa_offset, -8
    1257 00000003 FE0C          ADDB      SP,#12                ; [CPU_ARAU] 
    1258                      .dwcfi  cfa_offset, -20
    1259 00000004 86A9          MOVL      XAR2,ACC              ; [CPU_ALU] |394| 
    1260 00000005 5BA4          MOVZ      AR3,AR4               ; [CPU_ALU] |394| 
    1261 00000006 2D57          MOV       T,*-SP[23]            ; [CPU_ALU] |394| 
    1262 00000007 065A          MOVL      ACC,*-SP[26]          ; [CPU_ALU] |394| 
    1263 00000008 1E4A          MOVL      *-SP[10],ACC          ; [CPU_ALU] |394| 
    1264                      .dwpsn  file "../DeviceSupport/source/f28003x_sysctrl.c",line 398,column 5,is_stmt,isa 0
    1265 00000009 CCA3          AND       AL,AR3,#0x0003        ; [CPU_ALU] |398| 
         0000000a 0003 
    1266 0000000b 88A9          MOVZ      AR6,AL                ; [CPU_ALU] |398| 
    1267                      .dwpsn  file "../DeviceSupport/source/f28003x_sysctrl.c",line 394,column 1,is_stmt,isa 0
    1268 0000000c 2145          MOV       *-SP[5],T             ; [CPU_ALU] |394| 
    1269                      .dwpsn  file "../DeviceSupport/source/f28003x_sysctrl.c",line 398,column 5,is_stmt,isa 0
    1270 0000000d D008          MOVB      XAR0,#8               ; [CPU_ALU] |398| 
    1271 0000000e 8F00!         MOVL      XAR4,#_ClkCfgRegs     ; [CPU_ARAU] |398| 
         0000000f 0000 
    1272 00000010 27A6          MOV       PL,AR6                ; [CPU_ALU] |398| 
    1273 00000011 9294          MOV       AL,*+XAR4[AR0]        ; [CPU_ALU] |398| 
    1274 00000012 9003          ANDB      AL,#0x03              ; [CPU_ALU] |398| 
    1275                      .dwpsn  file "../DeviceSupport/source/f28003x_sysctrl.c",line 394,column 1,is_stmt,isa 0
    1276 00000013 8E56          MOVL      XAR0,*-SP[22]         ; [CPU_ALU] |394| 
    1277 00000014 7D44          MOV       *-SP[4],AR5           ; [CPU_ALU] |394| 
    1278                      .dwpsn  file "../DeviceSupport/source/f28003x_sysctrl.c",line 398,column 5,is_stmt,isa 0
    1279 00000015 2BAA          MOV       PH,#0                 ; [CPU_ALU] |398| 
    1280 00000016 0EA9          MOVU      ACC,AL                ; [CPU_ALU] |398| 
    1281                      .dwpsn  file "../DeviceSupport/source/f28003x_sysctrl.c",line 394,column 1,is_stmt,isa 0
    1282 00000017 3A48          MOVL      *-SP[8],XAR0          ; [CPU_ALU] |394| 
    1283                      .dwpsn  file "../DeviceSupport/source/f28003x_sysctrl.c",line 398,column 5,is_stmt,isa 0
    1284 00000018 0FAB          CMPL      ACC,P                 ; [CPU_ALU] |398| 
    1285 00000019 602D          B         $C$L22,NEQ            ; [CPU_ALU] |398| 
    1286                      ; branchcc occurs ; [] |398| 
    1287 0000001a D032          MOVB      XAR0,#50              ; [CPU_ALU] |398| 
    1288 0000001b CC94          AND       AL,*+XAR4[AR0],#0x0002 ; [CPU_ALU] |398| 
         0000001c 0002 
    1289 0000001d FFC0          LSR       AL,1                  ; [CPU_ALU] |398| 
TMS320C2000 Assembler PC v22.6.1 Wed May 21 09:51:55 2025

Copyright (c) 1996-2018 Texas Instruments Incorporated
C:\Users\Daniel\AppData\Local\Temp\{78ED34F4-3C3B-4D89-8F5D-B64BD43A86E6} PAGE   26

    1290 0000001e 0EA9          MOVU      ACC,AL                ; [CPU_ALU] |398| 
    1291 0000001f 1EA7          MOVL      XAR7,ACC              ; [CPU_ALU] |398| 
    1292 00000020 92A3          MOV       AL,AR3                ; [CPU_ALU] |398| 
    1293 00000021 FFC1          LSR       AL,2                  ; [CPU_ALU] |398| 
    1294 00000022 9001          ANDB      AL,#0x01              ; [CPU_ALU] |398| 
    1295 00000023 27A9          MOV       PL,AL                 ; [CPU_ALU] |398| 
    1296 00000024 06A7          MOVL      ACC,XAR7              ; [CPU_ALU] |398| 
    1297 00000025 0FAB          CMPL      ACC,P                 ; [CPU_ALU] |398| 
    1298 00000026 6020          B         $C$L22,NEQ            ; [CPU_ALU] |398| 
    1299                      ; branchcc occurs ; [] |398| 
    1300 00000027 9344          MOV       AH,*-SP[4]            ; [CPU_ALU] |398| 
    1301 00000028 D014          MOVB      XAR0,#20              ; [CPU_ALU] |398| 
    1302 00000029 80A8          MOVZ      AR7,AH                ; [CPU_ALU] |398| 
    1303 0000002a 9294          MOV       AL,*+XAR4[AR0]        ; [CPU_ALU] |398| 
    1304 0000002b 90FF          ANDB      AL,#0xff              ; [CPU_ALU] |398| 
    1305 0000002c 0EA9          MOVU      ACC,AL                ; [CPU_ALU] |398| 
    1306 0000002d 0FA7          CMPL      ACC,XAR7              ; [CPU_ALU] |398| 
    1307 0000002e 6018          B         $C$L22,NEQ            ; [CPU_ALU] |398| 
    1308                      ; branchcc occurs ; [] |398| 
    1309 0000002f D015          MOVB      XAR0,#21              ; [CPU_ALU] |398| 
    1310 00000030 CC94          AND       AL,*+XAR4[AR0],#0x1f00 ; [CPU_ALU] |398| 
         00000031 1F00 
    1311 00000032 FFC7          LSR       AL,8                  ; [CPU_ALU] |398| 
    1312 00000033 0EA9          MOVU      ACC,AL                ; [CPU_ALU] |398| 
    1313 00000034 0FA2          CMPL      ACC,XAR2              ; [CPU_ALU] |398| 
    1314 00000035 6011          B         $C$L22,NEQ            ; [CPU_ALU] |398| 
    1315                      ; branchcc occurs ; [] |398| 
    1316 00000036 D015          MOVB      XAR0,#21              ; [CPU_ALU] |398| 
    1317 00000037 C548          MOVL      XAR7,*-SP[8]          ; [CPU_ALU] |398| 
    1318 00000038 9294          MOV       AL,*+XAR4[AR0]        ; [CPU_ALU] |398| 
    1319 00000039 901F          ANDB      AL,#0x1f              ; [CPU_ALU] |398| 
    1320 0000003a 0EA9          MOVU      ACC,AL                ; [CPU_ALU] |398| 
    1321 0000003b 0FA7          CMPL      ACC,XAR7              ; [CPU_ALU] |398| 
    1322 0000003c 600A          B         $C$L22,NEQ            ; [CPU_ALU] |398| 
    1323                      ; branchcc occurs ; [] |398| 
    1324 0000003d 9345          MOV       AH,*-SP[5]            ; [CPU_ALU] |398| 
    1325 0000003e D022          MOVB      XAR0,#34              ; [CPU_ALU] |398| 
    1326 0000003f 80A8          MOVZ      AR7,AH                ; [CPU_ALU] |398| 
    1327 00000040 9294          MOV       AL,*+XAR4[AR0]        ; [CPU_ALU] |398| 
    1328 00000041 903F          ANDB      AL,#0x3f              ; [CPU_ALU] |398| 
    1329 00000042 0EA9          MOVU      ACC,AL                ; [CPU_ALU] |398| 
    1330 00000043 0FA7          CMPL      ACC,XAR7              ; [CPU_ALU] |398| 
    1331 00000044 FFE1          B         $C$L35,EQ             ; [CPU_ALU] |398| 
         00000045 00B7 
    1332                      ; branchcc occurs ; [] |398| 
    1333 00000046       $C$L22:    
    1334                      .dwpsn  file "../DeviceSupport/source/f28003x_sysctrl.c",line 411,column 5,is_stmt,isa 0
    1335 00000046 7622          EALLOW    ; [CPU_ALU] |411| 
    1336                      .dwpsn  file "../DeviceSupport/source/f28003x_sysctrl.c",line 417,column 5,is_stmt,isa 0
    1337 00000047 9344          MOV       AH,*-SP[4]            ; [CPU_ALU] |417| 
    1338 00000048 D014          MOVB      XAR0,#20              ; [CPU_ALU] |417| 
    1339 00000049 80A8          MOVZ      AR7,AH                ; [CPU_ALU] |417| 
    1340 0000004a 9294          MOV       AL,*+XAR4[AR0]        ; [CPU_ALU] |417| 
    1341 0000004b 90FF          ANDB      AL,#0xff              ; [CPU_ALU] |417| 
    1342 0000004c 0EA9          MOVU      ACC,AL                ; [CPU_ALU] |417| 
TMS320C2000 Assembler PC v22.6.1 Wed May 21 09:51:55 2025

Copyright (c) 1996-2018 Texas Instruments Incorporated
C:\Users\Daniel\AppData\Local\Temp\{78ED34F4-3C3B-4D89-8F5D-B64BD43A86E6} PAGE   27

    1343 0000004d 0FA7          CMPL      ACC,XAR7              ; [CPU_ALU] |417| 
    1344 0000004e 6012          B         $C$L23,NEQ            ; [CPU_ALU] |417| 
    1345                      ; branchcc occurs ; [] |417| 
    1346 0000004f D015          MOVB      XAR0,#21              ; [CPU_ALU] |417| 
    1347 00000050 CC94          AND       AL,*+XAR4[AR0],#0x1f00 ; [CPU_ALU] |417| 
         00000051 1F00 
    1348 00000052 FFC7          LSR       AL,8                  ; [CPU_ALU] |417| 
    1349 00000053 0EA9          MOVU      ACC,AL                ; [CPU_ALU] |417| 
    1350 00000054 0FA2          CMPL      ACC,XAR2              ; [CPU_ALU] |417| 
    1351 00000055 600B          B         $C$L23,NEQ            ; [CPU_ALU] |417| 
    1352                      ; branchcc occurs ; [] |417| 
    1353 00000056 D015          MOVB      XAR0,#21              ; [CPU_ALU] |417| 
    1354 00000057 C548          MOVL      XAR7,*-SP[8]          ; [CPU_ALU] |417| 
    1355 00000058 9294          MOV       AL,*+XAR4[AR0]        ; [CPU_ALU] |417| 
    1356 00000059 901F          ANDB      AL,#0x1f              ; [CPU_ALU] |417| 
    1357 0000005a 0EA9          MOVU      ACC,AL                ; [CPU_ALU] |417| 
    1358 0000005b 0FA7          CMPL      ACC,XAR7              ; [CPU_ALU] |417| 
    1359 0000005c 6004          B         $C$L23,NEQ            ; [CPU_ALU] |417| 
    1360                      ; branchcc occurs ; [] |417| 
    1361 0000005d D00E          MOVB      XAR0,#14              ; [CPU_ALU] |417| 
    1362 0000005e 4094          TBIT      *+XAR4[AR0],#0        ; [CPU_ALU] |417| 
    1363 0000005f 6D75          B         $C$L31,TC             ; [CPU_ALU] |417| 
    1364                      ; branchcc occurs ; [] |417| 
    1365 00000060       $C$L23:    
    1366                      .dwpsn  file "../DeviceSupport/source/f28003x_sysctrl.c",line 425,column 9,is_stmt,isa 0
    1367 00000060 83A4          MOVL      XAR5,XAR4             ; [CPU_ALU] |425| 
    1368 00000061 DD0E          ADDB      XAR5,#14              ; [CPU_ALU] |425| 
    1369 00000062 18C5          AND       *+XAR5[0],#0xfffd     ; [CPU_ALU] |425| 
         00000063 FFFD 
    1370 00000064 F678   RPT #120 || NOP
         00000065 7700 
    1371                      .dwpsn  file "../DeviceSupport/source/f28003x_sysctrl.c",line 435,column 9,is_stmt,isa 0
    1372 00000066 AAA9          MOVL      ACC,XAR2              ; [CPU_ALU] |435| 
    1373 00000067 A348          MOVL      P,*-SP[8]             ; [CPU_ALU] |435| 
    1374                      .dwpsn  file "../DeviceSupport/source/f28003x_sysctrl.c",line 440,column 9,is_stmt,isa 0
    1375 00000068 8044          MOVZ      AR7,*-SP[4]           ; [CPU_ALU] |440| 
    1376 00000069 83A4          MOVL      XAR5,XAR4             ; [CPU_ALU] |440| 
    1377                      .dwpsn  file "../DeviceSupport/source/f28003x_sysctrl.c",line 435,column 9,is_stmt,isa 0
    1378 0000006a FF37          LSL       ACC,8                 ; [CPU_ALU] |435| 
    1379 0000006b CAAB          OR        AL,PL                 ; [CPU_ALU] |435| 
    1380 0000006c CBAA          OR        AH,PH                 ; [CPU_ALU] |435| 
    1381                      .dwpsn  file "../DeviceSupport/source/f28003x_sysctrl.c",line 440,column 9,is_stmt,isa 0
    1382 0000006d DD0E          ADDB      XAR5,#14              ; [CPU_ALU] |440| 
    1383                      .dwpsn  file "../DeviceSupport/source/f28003x_sysctrl.c",line 435,column 9,is_stmt,isa 0
    1384 0000006e FF3F          LSL       ACC,16                ; [CPU_ALU] |435| 
    1385                      .dwpsn  file "../DeviceSupport/source/f28003x_sysctrl.c",line 440,column 9,is_stmt,isa 0
    1386 0000006f 18C5          AND       *+XAR5[0],#0xfffe     ; [CPU_FPU] |440| 
         00000070 FFFE 
    1387                      .dwpsn  file "../DeviceSupport/source/f28003x_sysctrl.c",line 435,column 9,is_stmt,isa 0
    1388 00000071 AFA7          OR        ACC,AR7               ; [CPU_ALU] |435| 
    1389 00000072 1E4C          MOVL      *-SP[12],ACC          ; [CPU_ALU] |435| 
    1390                      .dwpsn  file "../DeviceSupport/source/f28003x_sysctrl.c",line 441,column 9,is_stmt,isa 0
    1391 00000073 761A          EDIS      ; [CPU_ALU] |441| 
    1392 00000074 F642   RPT #66 || NOP
         00000075 7700 
TMS320C2000 Assembler PC v22.6.1 Wed May 21 09:51:55 2025

Copyright (c) 1996-2018 Texas Instruments Incorporated
C:\Users\Daniel\AppData\Local\Temp\{78ED34F4-3C3B-4D89-8F5D-B64BD43A86E6} PAGE   28

    1393                      .dwpsn  file "../DeviceSupport/source/f28003x_sysctrl.c",line 451,column 13,is_stmt,isa 0
    1394 00000076 D008          MOVB      XAR0,#8               ; [CPU_ALU] |451| 
    1395 00000077 88A6          MOVZ      AR6,AR6               ; [CPU_ALU] |451| 
    1396 00000078 9294          MOV       AL,*+XAR4[AR0]        ; [CPU_ALU] |451| 
    1397 00000079 9003          ANDB      AL,#0x03              ; [CPU_ALU] |451| 
    1398 0000007a 0EA9          MOVU      ACC,AL                ; [CPU_ALU] |451| 
    1399 0000007b 0FA6          CMPL      ACC,XAR6              ; [CPU_ALU] |451| 
    1400 0000007c 600E          B         $C$L24,NEQ            ; [CPU_ALU] |451| 
    1401                      ; branchcc occurs ; [] |451| 
    1402 0000007d D032          MOVB      XAR0,#50              ; [CPU_ALU] |451| 
    1403 0000007e CC94          AND       AL,*+XAR4[AR0],#0x0002 ; [CPU_ALU] |451| 
         0000007f 0002 
    1404 00000080 FFC0          LSR       AL,1                  ; [CPU_ALU] |451| 
    1405 00000081 0EA9          MOVU      ACC,AL                ; [CPU_ALU] |451| 
    1406 00000082 1EA6          MOVL      XAR6,ACC              ; [CPU_ALU] |451| 
    1407 00000083 92A3          MOV       AL,AR3                ; [CPU_ALU] |451| 
    1408 00000084 FFC1          LSR       AL,2                  ; [CPU_ALU] |451| 
    1409 00000085 9001          ANDB      AL,#0x01              ; [CPU_ALU] |451| 
    1410 00000086 80A9          MOVZ      AR7,AL                ; [CPU_ALU] |451| 
    1411 00000087 06A6          MOVL      ACC,XAR6              ; [CPU_ALU] |451| 
    1412 00000088 0FA7          CMPL      ACC,XAR7              ; [CPU_ALU] |451| 
    1413 00000089 6118          B         $C$L28,EQ             ; [CPU_ALU] |451| 
    1414                      ; branchcc occurs ; [] |451| 
    1415 0000008a       $C$L24:    
    1416 0000008a 92A3          MOV       AL,AR3                ; [CPU_ALU] |451| 
    1417 0000008b 6113          B         $C$L27,EQ             ; [CPU_ALU] |451| 
    1418                      ; branchcc occurs ; [] |451| 
    1419 0000008c 5201          CMPB      AL,#1                 ; [CPU_ALU] |451| 
    1420 0000008d 610D          B         $C$L26,EQ             ; [CPU_ALU] |451| 
    1421                      ; branchcc occurs ; [] |451| 
    1422 0000008e 5202          CMPB      AL,#2                 ; [CPU_ALU] |451| 
    1423 0000008f 6107          B         $C$L25,EQ             ; [CPU_ALU] |451| 
    1424                      ; branchcc occurs ; [] |451| 
    1425 00000090 5205          CMPB      AL,#5                 ; [CPU_ALU] |451| 
    1426 00000091 6010          B         $C$L28,NEQ            ; [CPU_ALU] |451| 
    1427                      ; branchcc occurs ; [] |451| 
    1428 00000092 FF69          SPM       #0                    ; [CPU_ALU] 
    1429                      .dwpsn  file "../DeviceSupport/source/f28003x_sysctrl.c",line 466,column 21,is_stmt,isa 0
    1430              $C$DW$79        .dwtag  DW_TAG_TI_branch
    1431                      .dwattr $C$DW$79, DW_AT_low_pc(0x00)
    1432                      .dwattr $C$DW$79, DW_AT_name("_SysXtalOscSESel")
    1433                      .dwattr $C$DW$79, DW_AT_TI_call
    1434              
    1435 00000093 7640+         LCR       #_SysXtalOscSESel     ; [CPU_ALU] |466| 
         00000094 0000 
    1436                      ; call occurs [#_SysXtalOscSESel] ; [] |466| 
    1437                      .dwpsn  file "../DeviceSupport/source/f28003x_sysctrl.c",line 467,column 21,is_stmt,isa 0
    1438 00000095 6F0C          B         $C$L28,UNC            ; [CPU_ALU] |467| 
    1439                      ; branch occurs ; [] |467| 
    1440 00000096       $C$L25:    
    1441 00000096 FF69          SPM       #0                    ; [CPU_ALU] 
    1442                      .dwpsn  file "../DeviceSupport/source/f28003x_sysctrl.c",line 454,column 21,is_stmt,isa 0
    1443              $C$DW$80        .dwtag  DW_TAG_TI_branch
    1444                      .dwattr $C$DW$80, DW_AT_low_pc(0x00)
    1445                      .dwattr $C$DW$80, DW_AT_name("_SysIntOsc1Sel")
TMS320C2000 Assembler PC v22.6.1 Wed May 21 09:51:55 2025

Copyright (c) 1996-2018 Texas Instruments Incorporated
C:\Users\Daniel\AppData\Local\Temp\{78ED34F4-3C3B-4D89-8F5D-B64BD43A86E6} PAGE   29

    1446                      .dwattr $C$DW$80, DW_AT_TI_call
    1447              
    1448 00000097 7640+         LCR       #_SysIntOsc1Sel       ; [CPU_ALU] |454| 
         00000098 0000 
    1449                      ; call occurs [#_SysIntOsc1Sel] ; [] |454| 
    1450                      .dwpsn  file "../DeviceSupport/source/f28003x_sysctrl.c",line 455,column 21,is_stmt,isa 0
    1451 00000099 6F08          B         $C$L28,UNC            ; [CPU_ALU] |455| 
    1452                      ; branch occurs ; [] |455| 
    1453 0000009a       $C$L26:    
    1454 0000009a FF69          SPM       #0                    ; [CPU_ALU] 
    1455                      .dwpsn  file "../DeviceSupport/source/f28003x_sysctrl.c",line 462,column 21,is_stmt,isa 0
    1456              $C$DW$81        .dwtag  DW_TAG_TI_branch
    1457                      .dwattr $C$DW$81, DW_AT_low_pc(0x00)
    1458                      .dwattr $C$DW$81, DW_AT_name("_SysXtalOscSel")
    1459                      .dwattr $C$DW$81, DW_AT_TI_call
    1460              
    1461 0000009b 7640+         LCR       #_SysXtalOscSel       ; [CPU_ALU] |462| 
         0000009c 0000 
    1462                      ; call occurs [#_SysXtalOscSel] ; [] |462| 
    1463                      .dwpsn  file "../DeviceSupport/source/f28003x_sysctrl.c",line 463,column 21,is_stmt,isa 0
    1464 0000009d 6F04          B         $C$L28,UNC            ; [CPU_ALU] |463| 
    1465                      ; branch occurs ; [] |463| 
    1466 0000009e       $C$L27:    
    1467 0000009e FF69          SPM       #0                    ; [CPU_ALU] 
    1468                      .dwpsn  file "../DeviceSupport/source/f28003x_sysctrl.c",line 458,column 21,is_stmt,isa 0
    1469              $C$DW$82        .dwtag  DW_TAG_TI_branch
    1470                      .dwattr $C$DW$82, DW_AT_low_pc(0x00)
    1471                      .dwattr $C$DW$82, DW_AT_name("_SysIntOsc2Sel")
    1472                      .dwattr $C$DW$82, DW_AT_TI_call
    1473              
    1474 0000009f 7640+         LCR       #_SysIntOsc2Sel       ; [CPU_ALU] |458| 
         000000a0 0000 
    1475                      ; call occurs [#_SysIntOsc2Sel] ; [] |458| 
    1476 000000a1       $C$L28:    
    1477 000000a1 F63C   RPT #60 || NOP
         000000a2 7700 
    1478                      .dwpsn  file "../DeviceSupport/source/f28003x_sysctrl.c",line 476,column 9,is_stmt,isa 0
    1479 000000a3 7622          EALLOW    ; [CPU_ALU] |476| 
    1480                      .dwpsn  file "../DeviceSupport/source/f28003x_sysctrl.c",line 481,column 9,is_stmt,isa 0
    1481 000000a4 7680!         MOVL      XAR6,#_ClkCfgRegs     ; [CPU_ARAU] |481| 
         000000a5 0000 
    1482                      .dwpsn  file "../DeviceSupport/source/f28003x_sysctrl.c",line 486,column 9,is_stmt,isa 0
    1483 000000a6 D114          MOVB      XAR1,#20              ; [CPU_ALU] |486| 
    1484                      .dwpsn  file "../DeviceSupport/source/f28003x_sysctrl.c",line 481,column 9,is_stmt,isa 0
    1485 000000a7 83A6          MOVL      XAR5,XAR6             ; [CPU_ALU] |481| 
    1486                      .dwpsn  file "../DeviceSupport/source/f28003x_sysctrl.c",line 491,column 9,is_stmt,isa 0
    1487 000000a8 8AA6          MOVL      XAR4,XAR6             ; [CPU_ALU] |491| 
    1488                      .dwpsn  file "../DeviceSupport/source/f28003x_sysctrl.c",line 481,column 9,is_stmt,isa 0
    1489 000000a9 064C          MOVL      ACC,*-SP[12]          ; [CPU_ALU] |481| 
    1490                      .dwpsn  file "../DeviceSupport/source/f28003x_sysctrl.c",line 497,column 9,is_stmt,isa 0
    1491 000000aa D016          MOVB      XAR0,#22              ; [CPU_ALU] |497| 
    1492                      .dwpsn  file "../DeviceSupport/source/f28003x_sysctrl.c",line 481,column 9,is_stmt,isa 0
    1493 000000ab DD22          ADDB      XAR5,#34              ; [CPU_ALU] |481| 
    1494                      .dwpsn  file "../DeviceSupport/source/f28003x_sysctrl.c",line 491,column 9,is_stmt,isa 0
    1495 000000ac DC0E          ADDB      XAR4,#14              ; [CPU_ALU] |491| 
TMS320C2000 Assembler PC v22.6.1 Wed May 21 09:51:55 2025

Copyright (c) 1996-2018 Texas Instruments Incorporated
C:\Users\Daniel\AppData\Local\Temp\{78ED34F4-3C3B-4D89-8F5D-B64BD43A86E6} PAGE   30

    1496                      .dwpsn  file "../DeviceSupport/source/f28003x_sysctrl.c",line 481,column 9,is_stmt,isa 0
    1497 000000ad 18C5          AND       *+XAR5[0],#0xffc0     ; [CPU_ALU] |481| 
         000000ae FFC0 
    1498                      .dwpsn  file "../DeviceSupport/source/f28003x_sysctrl.c",line 486,column 9,is_stmt,isa 0
    1499 000000af 1E9E          MOVL      *+XAR6[AR1],ACC       ; [CPU_ALU] |486| 
    1500                      .dwpsn  file "../DeviceSupport/source/f28003x_sysctrl.c",line 491,column 9,is_stmt,isa 0
    1501 000000b0 1AC4          OR        *+XAR4[0],#0x0001     ; [CPU_ALU] |491| 
         000000b1 0001 
    1502                      .dwpsn  file "../DeviceSupport/source/f28003x_sysctrl.c",line 497,column 9,is_stmt,isa 0
    1503 000000b2 CC96          AND       AL,*+XAR6[AR0],#0x0001 ; [CPU_ALU] |497| 
         000000b3 0001 
    1504 000000b4 80A9          MOVZ      AR7,AL                ; [CPU_ALU] |497| 
    1505                      .dwpsn  file "../DeviceSupport/source/f28003x_sysctrl.c",line 496,column 9,is_stmt,isa 0
    1506 000000b5 AAA9          MOVL      ACC,XAR2              ; [CPU_ALU] |496| 
    1507 000000b6 FF39          LSL       ACC,10                ; [CPU_ALU] |496| 
    1508 000000b7 FF1A          ADD       ACC,#1 << 10          ; [CPU_ALU] |496| 
         000000b8 0001 
    1509 000000b9 1EA6          MOVL      XAR6,ACC              ; [CPU_ALU] |496| 
    1510 000000ba 92A7          MOV       AL,AR7                ; [CPU_ALU] |496| 
    1511                      .dwpsn  file "../DeviceSupport/source/f28003x_sysctrl.c",line 502,column 15,is_stmt,isa 0
    1512 000000bb 5201          CMPB      AL,#1                 ; [CPU_ALU] |502| 
    1513 000000bc 610A          B         $C$L30,EQ             ; [CPU_ALU] |502| 
    1514                      ; branchcc occurs ; [] |502| 
    1515 000000bd       $C$L29:    
    1516 000000bd 06A6          MOVL      ACC,XAR6              ; [CPU_ALU] 
    1517 000000be 6108          B         $C$L30,EQ             ; [CPU_ALU] |502| 
    1518                      ; branchcc occurs ; [] |502| 
    1519 000000bf 761F!         MOVW      DP,#_ClkCfgRegs+22    ; [CPU_ARAU] 
         000000c0 0000 
    1520                      .dwpsn  file "../DeviceSupport/source/f28003x_sysctrl.c",line 504,column 13,is_stmt,isa 0
    1521 000000c1 CC16!         AND       AL,@$BLOCKED(_ClkCfgRegs)+22,#0x0001 ; [CPU_ALU] |504| 
         000000c2 0001 
    1522                      .dwpsn  file "../DeviceSupport/source/f28003x_sysctrl.c",line 505,column 13,is_stmt,isa 0
    1523 000000c3 DE81          SUBB      XAR6,#1               ; [CPU_ALU] |505| 
    1524 000000c4 5201          CMPB      AL,#1                 ; [CPU_ALU] |505| 
    1525 000000c5 60F8          B         $C$L29,NEQ            ; [CPU_ALU] |505| 
    1526                      ; branchcc occurs ; [] |505| 
    1527 000000c6       $C$L30:    
    1528                      .dwpsn  file "../DeviceSupport/source/f28003x_sysctrl.c",line 508,column 9,is_stmt,isa 0
    1529 000000c6 761A          EDIS      ; [CPU_ALU] |508| 
    1530 000000c7 9244          MOV       AL,*-SP[4]            ; [CPU_ALU] |508| 
    1531                      .dwpsn  file "../DeviceSupport/source/f28003x_sysctrl.c",line 513,column 9,is_stmt,isa 0
    1532 000000c8 9641          MOV       *-SP[1],AL            ; [CPU_ALU] |513| 
    1533 000000c9 5CA3          MOVZ      AR4,AR3               ; [CPU_ALU] |513| 
    1534 000000ca D500          MOVB      XAR5,#0               ; [CPU_ALU] |513| 
    1535 000000cb FF69          SPM       #0                    ; [CPU_ALU] 
    1536 000000cc 9248          MOV       AL,*-SP[8]            ; [CPU_ALU] |513| 
    1537 000000cd 9642          MOV       *-SP[2],AL            ; [CPU_ALU] |513| 
    1538 000000ce 7A43          MOV       *-SP[3],AR2           ; [CPU_ALU] |513| 
    1539 000000cf 064A          MOVL      ACC,*-SP[10]          ; [CPU_ALU] |513| 
    1540              $C$DW$83        .dwtag  DW_TAG_TI_branch
    1541                      .dwattr $C$DW$83, DW_AT_low_pc(0x00)
    1542                      .dwattr $C$DW$83, DW_AT_name("_IsPLLValid")
    1543                      .dwattr $C$DW$83, DW_AT_TI_call
    1544              
TMS320C2000 Assembler PC v22.6.1 Wed May 21 09:51:55 2025

Copyright (c) 1996-2018 Texas Instruments Incorporated
C:\Users\Daniel\AppData\Local\Temp\{78ED34F4-3C3B-4D89-8F5D-B64BD43A86E6} PAGE   31

    1545 000000d0 7640+         LCR       #_IsPLLValid          ; [CPU_ALU] |513| 
         000000d1 0000 
    1546                      ; call occurs [#_IsPLLValid] ; [] |513| 
    1547 000000d2 5200          CMPB      AL,#0                 ; [CPU_ALU] |513| 
    1548 000000d3 6127          B         $C$L34,EQ             ; [CPU_ALU] |513| 
    1549                      ; branchcc occurs ; [] |513| 
    1550 000000d4       $C$L31:    
    1551                      .dwpsn  file "../DeviceSupport/source/f28003x_sysctrl.c",line 528,column 9,is_stmt,isa 0
    1552 000000d4 7622          EALLOW    ; [CPU_ALU] |528| 
    1553 000000d5 9245          MOV       AL,*-SP[5]            ; [CPU_ALU] |528| 
    1554                      .dwpsn  file "../DeviceSupport/source/f28003x_sysctrl.c",line 532,column 9,is_stmt,isa 0
    1555 000000d6 523F          CMPB      AL,#63                ; [CPU_ALU] |532| 
    1556 000000d7 6006          B         $C$L32,NEQ            ; [CPU_ALU] |532| 
    1557                      ; branchcc occurs ; [] |532| 
    1558 000000d8 761F!         MOVW      DP,#_ClkCfgRegs+34    ; [CPU_ARAU] 
         000000d9 0000 
    1559                      .dwpsn  file "../DeviceSupport/source/f28003x_sysctrl.c",line 538,column 13,is_stmt,isa 0
    1560 000000da 1A22!         OR        @$BLOCKED(_ClkCfgRegs)+34,#0x003f ; [CPU_ALU] |538| 
         000000db 003F 
    1561 000000dc 6F0C          B         $C$L33,UNC            ; [CPU_ALU] |538| 
    1562                      ; branch occurs ; [] |538| 
    1563 000000dd       $C$L32:    
    1564                      .dwpsn  file "../DeviceSupport/source/f28003x_sysctrl.c",line 534,column 13,is_stmt,isa 0
    1565 000000dd 9A01          MOVB      AL,#1                 ; [CPU_ALU] |534| 
    1566 000000de D022          MOVB      XAR0,#34              ; [CPU_ALU] |534| 
    1567 000000df 8F00!         MOVL      XAR4,#_ClkCfgRegs     ; [CPU_ARAU] |534| 
         000000e0 0000 
    1568 000000e1 9445          ADD       AL,*-SP[5]            ; [CPU_ALU] |534| 
    1569 000000e2 CD94          AND       AH,*+XAR4[AR0],#0xffc0 ; [CPU_FPU] |534| 
         000000e3 FFC0 
    1570 000000e4 903F          ANDB      AL,#0x3f              ; [CPU_ALU] |534| 
    1571 000000e5 D022          MOVB      XAR0,#34              ; [CPU_ALU] |534| 
    1572 000000e6 CAA8          OR        AL,AH                 ; [CPU_ALU] |534| 
    1573 000000e7 9694          MOV       *+XAR4[AR0],AL        ; [CPU_ALU] |534| 
    1574 000000e8       $C$L33:    
    1575                      .dwpsn  file "../DeviceSupport/source/f28003x_sysctrl.c",line 544,column 9,is_stmt,isa 0
    1576 000000e8 8F40!         MOVL      XAR5,#_ClkCfgRegs     ; [CPU_ARAU] |544| 
         000000e9 0000 
    1577 000000ea 8AA5          MOVL      XAR4,XAR5             ; [CPU_ALU] |544| 
    1578 000000eb DC0E          ADDB      XAR4,#14              ; [CPU_ALU] |544| 
    1579 000000ec 1AC4          OR        *+XAR4[0],#0x0002     ; [CPU_ALU] |544| 
         000000ed 0002 
    1580 000000ee F664   RPT #100 || NOP
         000000ef 7700 
    1581                      .dwpsn  file "../DeviceSupport/source/f28003x_sysctrl.c",line 554,column 9,is_stmt,isa 0
    1582 000000f0 9245          MOV       AL,*-SP[5]            ; [CPU_ALU] |554| 
    1583 000000f1 D022          MOVB      XAR0,#34              ; [CPU_ALU] |554| 
    1584 000000f2 903F          ANDB      AL,#63                ; [CPU_ALU] |554| 
    1585 000000f3 CD95          AND       AH,*+XAR5[AR0],#0xffc0 ; [CPU_FPU] |554| 
         000000f4 FFC0 
    1586 000000f5 D022          MOVB      XAR0,#34              ; [CPU_FPU] |554| 
    1587 000000f6 CAA8          OR        AL,AH                 ; [CPU_ALU] |554| 
    1588 000000f7 9695          MOV       *+XAR5[AR0],AL        ; [CPU_ALU] |554| 
    1589                      .dwpsn  file "../DeviceSupport/source/f28003x_sysctrl.c",line 555,column 9,is_stmt,isa 0
    1590 000000f8 761A          EDIS      ; [CPU_ALU] |555| 
TMS320C2000 Assembler PC v22.6.1 Wed May 21 09:51:55 2025

Copyright (c) 1996-2018 Texas Instruments Incorporated
C:\Users\Daniel\AppData\Local\Temp\{78ED34F4-3C3B-4D89-8F5D-B64BD43A86E6} PAGE   32

    1591 000000f9 6F02          B         $C$L35,UNC            ; [CPU_ALU] 
    1592                      ; branch occurs ; [] 
    1593 000000fa       $C$L34:    
    1594 000000fa 7625   ESTOP0
    1595 000000fb       $C$L35:    
    1596 000000fb FE8C          SUBB      SP,#12                ; [CPU_ARAU] 
    1597                      .dwcfi  cfa_offset, -8
    1598 000000fc FF69          SPM       #0                    ; [CPU_ALU] 
    1599 000000fd 82BE          MOVL      XAR3,*--SP            ; [CPU_ALU] 
    1600                      .dwcfi  cfa_offset, -6
    1601                      .dwcfi  restore_reg, 11
    1602 000000fe 86BE          MOVL      XAR2,*--SP            ; [CPU_ALU] 
    1603                      .dwcfi  cfa_offset, -4
    1604                      .dwcfi  restore_reg, 9
    1605 000000ff 8BBE          MOVL      XAR1,*--SP            ; [CPU_ALU] 
    1606                      .dwcfi  cfa_offset, -2
    1607                      .dwcfi  restore_reg, 7
    1608              $C$DW$84        .dwtag  DW_TAG_TI_branch
    1609                      .dwattr $C$DW$84, DW_AT_low_pc(0x00)
    1610                      .dwattr $C$DW$84, DW_AT_TI_return
    1611              
    1612 00000100 0006          LRETR     ; [CPU_ALU] 
    1613                      ; return occurs ; [] 
    1614                      .dwattr $C$DW$62, DW_AT_TI_end_file("../DeviceSupport/source/f28003x_sysctrl.c")
    1615                      .dwattr $C$DW$62, DW_AT_TI_end_line(0x230)
    1616                      .dwattr $C$DW$62, DW_AT_TI_end_column(0x01)
    1617                      .dwendentry
    1618                      .dwendtag $C$DW$62
    1619              
    1620 00000000               .sect   ".text:_DisableDog"
    1621                      .clink
    1622                      .global _DisableDog
    1623              
    1624              $C$DW$85        .dwtag  DW_TAG_subprogram
    1625                      .dwattr $C$DW$85, DW_AT_name("DisableDog")
    1626                      .dwattr $C$DW$85, DW_AT_low_pc(_DisableDog)
    1627                      .dwattr $C$DW$85, DW_AT_high_pc(0x00)
    1628                      .dwattr $C$DW$85, DW_AT_TI_symbol_name("_DisableDog")
    1629                      .dwattr $C$DW$85, DW_AT_external
    1630                      .dwattr $C$DW$85, DW_AT_TI_begin_file("../DeviceSupport/source/f28003x_sysctrl.c")
    1631                      .dwattr $C$DW$85, DW_AT_TI_begin_line(0x175)
    1632                      .dwattr $C$DW$85, DW_AT_TI_begin_column(0x06)
    1633                      .dwattr $C$DW$85, DW_AT_TI_max_frame_size(-4)
    1634                      .dwpsn  file "../DeviceSupport/source/f28003x_sysctrl.c",line 374,column 1,is_stmt,address _DisableDo
    1635              
    1636                      .dwfde $C$DW$CIE, _DisableDog
    1637              
    1638              ;***************************************************************
    1639              ;* FNAME: _DisableDog                   FR SIZE:   2           *
    1640              ;*                                                             *
    1641              ;* FUNCTION ENVIRONMENT                                        *
    1642              ;*                                                             *
    1643              ;* FUNCTION PROPERTIES                                         *
    1644              ;*                            0 Parameter,  1 Auto,  0 SOE     *
    1645              ;***************************************************************
TMS320C2000 Assembler PC v22.6.1 Wed May 21 09:51:55 2025

Copyright (c) 1996-2018 Texas Instruments Incorporated
C:\Users\Daniel\AppData\Local\Temp\{78ED34F4-3C3B-4D89-8F5D-B64BD43A86E6} PAGE   33

    1646              
    1647              _DisableDog:
    1648              $C$DW$86        .dwtag  DW_TAG_variable
    1649                      .dwattr $C$DW$86, DW_AT_name("temp")
    1650                      .dwattr $C$DW$86, DW_AT_TI_symbol_name("_temp")
    1651                      .dwattr $C$DW$86, DW_AT_type(*$C$DW$T$333)
    1652                      .dwattr $C$DW$86, DW_AT_location[DW_OP_breg20 -1]
    1653              
    1654                      .dwcfi  cfa_offset, -2
    1655                      .dwcfi  save_reg_to_mem, 26, 0
    1656 00000000 FE02          ADDB      SP,#2                 ; [CPU_ARAU] 
    1657                      .dwcfi  cfa_offset, -4
    1658                      .dwpsn  file "../DeviceSupport/source/f28003x_sysctrl.c",line 380,column 5,is_stmt,isa 0
    1659 00000001 7622          EALLOW    ; [CPU_ALU] |380| 
    1660 00000002 761F!         MOVW      DP,#_WdRegs+41        ; [CPU_ARAU] 
         00000003 0000 
    1661                      .dwpsn  file "../DeviceSupport/source/f28003x_sysctrl.c",line 381,column 5,is_stmt,isa 0
    1662 00000004 9229!         MOV       AL,@$BLOCKED(_WdRegs)+41 ; [CPU_ALU] |381| 
    1663 00000005 9007          ANDB      AL,#0x07              ; [CPU_ALU] |381| 
    1664 00000006 9641          MOV       *-SP[1],AL            ; [CPU_ALU] |381| 
    1665                      .dwpsn  file "../DeviceSupport/source/f28003x_sysctrl.c",line 382,column 5,is_stmt,isa 0
    1666 00000007 5068          ORB       AL,#0x68              ; [CPU_ALU] |382| 
    1667 00000008 9629!         MOV       @$BLOCKED(_WdRegs)+41,AL ; [CPU_ALU] |382| 
    1668                      .dwpsn  file "../DeviceSupport/source/f28003x_sysctrl.c",line 383,column 5,is_stmt,isa 0
    1669 00000009 761A          EDIS      ; [CPU_ALU] |383| 
    1670 0000000a FE82          SUBB      SP,#2                 ; [CPU_ARAU] 
    1671                      .dwcfi  cfa_offset, -2
    1672              $C$DW$87        .dwtag  DW_TAG_TI_branch
    1673                      .dwattr $C$DW$87, DW_AT_low_pc(0x00)
    1674                      .dwattr $C$DW$87, DW_AT_TI_return
    1675              
    1676 0000000b 0006          LRETR     ; [CPU_ALU] 
    1677                      ; return occurs ; [] 
    1678                      .dwattr $C$DW$85, DW_AT_TI_end_file("../DeviceSupport/source/f28003x_sysctrl.c")
    1679                      .dwattr $C$DW$85, DW_AT_TI_end_line(0x180)
    1680                      .dwattr $C$DW$85, DW_AT_TI_end_column(0x01)
    1681                      .dwendentry
    1682                      .dwendtag $C$DW$85
    1683              
    1684 00000000               .sect   ".TI.ramfunc:_InitFlash"
    1685                      .clink
    1686                      .global _InitFlash
    1687              
    1688              $C$DW$88        .dwtag  DW_TAG_subprogram
    1689                      .dwattr $C$DW$88, DW_AT_name("InitFlash")
    1690                      .dwattr $C$DW$88, DW_AT_low_pc(_InitFlash)
    1691                      .dwattr $C$DW$88, DW_AT_high_pc(0x00)
    1692                      .dwattr $C$DW$88, DW_AT_TI_symbol_name("_InitFlash")
    1693                      .dwattr $C$DW$88, DW_AT_external
    1694                      .dwattr $C$DW$88, DW_AT_TI_begin_file("../DeviceSupport/source/f28003x_sysctrl.c")
    1695                      .dwattr $C$DW$88, DW_AT_TI_begin_line(0x112)
    1696                      .dwattr $C$DW$88, DW_AT_TI_begin_column(0x06)
    1697                      .dwattr $C$DW$88, DW_AT_TI_max_frame_size(-2)
    1698                      .dwpsn  file "../DeviceSupport/source/f28003x_sysctrl.c",line 275,column 1,is_stmt,address _InitFlash
    1699              
TMS320C2000 Assembler PC v22.6.1 Wed May 21 09:51:55 2025

Copyright (c) 1996-2018 Texas Instruments Incorporated
C:\Users\Daniel\AppData\Local\Temp\{78ED34F4-3C3B-4D89-8F5D-B64BD43A86E6} PAGE   34

    1700                      .dwfde $C$DW$CIE, _InitFlash
    1701              
    1702              ;***************************************************************
    1703              ;* FNAME: _InitFlash                    FR SIZE:   0           *
    1704              ;*                                                             *
    1705              ;* FUNCTION ENVIRONMENT                                        *
    1706              ;*                                                             *
    1707              ;* FUNCTION PROPERTIES                                         *
    1708              ;*                            0 Parameter,  0 Auto,  0 SOE     *
    1709              ;***************************************************************
    1710              
    1711 00000000       _InitFlash:
    1712              ;* AR5   assigned to $O$C1
    1713                      .dwcfi  cfa_offset, -2
    1714                      .dwcfi  save_reg_to_mem, 26, 0
    1715                      .dwpsn  file "../DeviceSupport/source/f28003x_sysctrl.c",line 276,column 5,is_stmt,isa 0
    1716 00000000 7622          EALLOW    ; [CPU_ALU] |276| 
    1717                      .dwpsn  file "../DeviceSupport/source/f28003x_sysctrl.c",line 285,column 5,is_stmt,isa 0
    1718 00000001 8F40!         MOVL      XAR5,#_Flash0CtrlRegs ; [CPU_ARAU] |285| 
         00000002 0000 
    1719                      .dwpsn  file "../DeviceSupport/source/f28003x_sysctrl.c",line 291,column 5,is_stmt,isa 0
    1720 00000003 A0A9          MOVL      ACC,XAR5              ; [CPU_ALU] |291| 
    1721                      .dwpsn  file "../DeviceSupport/source/f28003x_sysctrl.c",line 285,column 5,is_stmt,isa 0
    1722 00000004 C4A5          MOVL      XAR6,XAR5             ; [CPU_ALU] |285| 
    1723 00000005 761F!         MOVW      DP,#_Flash0CtrlRegs+384 ; [CPU_ARAU] 
         00000006 0006 
    1724                      .dwpsn  file "../DeviceSupport/source/f28003x_sysctrl.c",line 291,column 5,is_stmt,isa 0
    1725 00000007 FF17          ADD       ACC,#3 << 7           ; [CPU_ALU] |291| 
         00000008 0003 
    1726                      .dwpsn  file "../DeviceSupport/source/f28003x_sysctrl.c",line 286,column 5,is_stmt,isa 0
    1727 00000009 DD20          ADDB      XAR5,#32              ; [CPU_ALU] |286| 
    1728                      .dwpsn  file "../DeviceSupport/source/f28003x_sysctrl.c",line 291,column 5,is_stmt,isa 0
    1729 0000000a 8AA9          MOVL      XAR4,ACC              ; [CPU_ALU] |291| 
    1730                      .dwpsn  file "../DeviceSupport/source/f28003x_sysctrl.c",line 285,column 5,is_stmt,isa 0
    1731 0000000b DE24          ADDB      XAR6,#36              ; [CPU_ALU] |285| 
    1732 0000000c 1AC6          OR        *+XAR6[0],#0x0001     ; [CPU_ALU] |285| 
         0000000d 0001 
    1733                      .dwpsn  file "../DeviceSupport/source/f28003x_sysctrl.c",line 286,column 5,is_stmt,isa 0
    1734 0000000e 1AC5          OR        *+XAR5[0],#0x0003     ; [CPU_ALU] |286| 
         0000000f 0003 
    1735                      .dwpsn  file "../DeviceSupport/source/f28003x_sysctrl.c",line 291,column 5,is_stmt,isa 0
    1736 00000010 18C4          AND       *+XAR4[0],#0xfffd     ; [CPU_ALU] |291| 
         00000011 FFFD 
    1737                      .dwpsn  file "../DeviceSupport/source/f28003x_sysctrl.c",line 292,column 5,is_stmt,isa 0
    1738 00000012 1800!         AND       @$BLOCKED(_Flash0CtrlRegs)+384,#0xfffe ; [CPU_ALU] |292| 
         00000013 FFFE 
    1739 00000014 761F!         MOVW      DP,#_Flash0CtrlRegs   ; [CPU_ARAU] 
         00000015 0000 
    1740                      .dwpsn  file "../DeviceSupport/source/f28003x_sysctrl.c",line 303,column 9,is_stmt,isa 0
    1741 00000016 CC00!         AND       AL,@$BLOCKED(_Flash0CtrlRegs),#0xf1ff ; [CPU_ALU] |303| 
         00000017 F1FF 
    1742 00000018 1AA9          OR        AL,#0x0500            ; [CPU_ALU] |303| 
         00000019 0500 
    1743 0000001a 9600!         MOV       @$BLOCKED(_Flash0CtrlRegs),AL ; [CPU_ALU] |303| 
    1744 0000001b 761F!         MOVW      DP,#_Flash0CtrlRegs+384 ; [CPU_ARAU] 
TMS320C2000 Assembler PC v22.6.1 Wed May 21 09:51:55 2025

Copyright (c) 1996-2018 Texas Instruments Incorporated
C:\Users\Daniel\AppData\Local\Temp\{78ED34F4-3C3B-4D89-8F5D-B64BD43A86E6} PAGE   35

         0000001c 0006 
    1745                      .dwpsn  file "../DeviceSupport/source/f28003x_sysctrl.c",line 310,column 5,is_stmt,isa 0
    1746 0000001d 1A00!         OR        @$BLOCKED(_Flash0CtrlRegs)+384,#0x0002 ; [CPU_ALU] |310| 
         0000001e 0002 
    1747                      .dwpsn  file "../DeviceSupport/source/f28003x_sysctrl.c",line 311,column 5,is_stmt,isa 0
    1748 0000001f 1A00!         OR        @$BLOCKED(_Flash0CtrlRegs)+384,#0x0001 ; [CPU_ALU] |311| 
         00000020 0001 
    1749 00000021 761F!         MOVW      DP,#_Flash0EccRegs    ; [CPU_ARAU] 
         00000022 0000 
    1750                      .dwpsn  file "../DeviceSupport/source/f28003x_sysctrl.c",line 317,column 5,is_stmt,isa 0
    1751 00000023 CC00!         AND       AL,@$BLOCKED(_Flash0EccRegs),#0xfff8 ; [CPU_ALU] |317| 
         00000024 FFF8 
    1752 00000025 500A          ORB       AL,#0x0a              ; [CPU_ALU] |317| 
    1753 00000026 9600!         MOV       @$BLOCKED(_Flash0EccRegs),AL ; [CPU_ALU] |317| 
    1754                      .dwpsn  file "../DeviceSupport/source/f28003x_sysctrl.c",line 319,column 5,is_stmt,isa 0
    1755 00000027 761A          EDIS      ; [CPU_ALU] |319| 
    1756 00000028 F607   RPT #7 || NOP
         00000029 7700 
    1757 0000002a FF69          SPM       #0                    ; [CPU_ALU] 
    1758              $C$DW$89        .dwtag  DW_TAG_TI_branch
    1759                      .dwattr $C$DW$89, DW_AT_low_pc(0x00)
    1760                      .dwattr $C$DW$89, DW_AT_TI_return
    1761              
    1762 0000002b 0006          LRETR     ; [CPU_ALU] 
    1763                      ; return occurs ; [] 
    1764                      .dwattr $C$DW$88, DW_AT_TI_end_file("../DeviceSupport/source/f28003x_sysctrl.c")
    1765                      .dwattr $C$DW$88, DW_AT_TI_end_line(0x146)
    1766                      .dwattr $C$DW$88, DW_AT_TI_end_column(0x01)
    1767                      .dwendentry
    1768                      .dwendtag $C$DW$88
    1769              
    1770 00000000               .sect   ".text:_InitPeripheralClocks"
    1771                      .clink
    1772                      .global _InitPeripheralClocks
    1773              
    1774              $C$DW$90        .dwtag  DW_TAG_subprogram
    1775                      .dwattr $C$DW$90, DW_AT_name("InitPeripheralClocks")
    1776                      .dwattr $C$DW$90, DW_AT_low_pc(_InitPeripheralClocks)
    1777                      .dwattr $C$DW$90, DW_AT_high_pc(0x00)
    1778                      .dwattr $C$DW$90, DW_AT_TI_symbol_name("_InitPeripheralClocks")
    1779                      .dwattr $C$DW$90, DW_AT_external
    1780                      .dwattr $C$DW$90, DW_AT_TI_begin_file("../DeviceSupport/source/f28003x_sysctrl.c")
    1781                      .dwattr $C$DW$90, DW_AT_TI_begin_line(0x98)
    1782                      .dwattr $C$DW$90, DW_AT_TI_begin_column(0x06)
    1783                      .dwattr $C$DW$90, DW_AT_TI_max_frame_size(-6)
    1784                      .dwpsn  file "../DeviceSupport/source/f28003x_sysctrl.c",line 153,column 1,is_stmt,address _InitPerip
    1785              
    1786                      .dwfde $C$DW$CIE, _InitPeripheralClocks
    1787              
    1788              ;***************************************************************
    1789              ;* FNAME: _InitPeripheralClocks         FR SIZE:   4           *
    1790              ;*                                                             *
    1791              ;* FUNCTION ENVIRONMENT                                        *
    1792              ;*                                                             *
    1793              ;* FUNCTION PROPERTIES                                         *
TMS320C2000 Assembler PC v22.6.1 Wed May 21 09:51:55 2025

Copyright (c) 1996-2018 Texas Instruments Incorporated
C:\Users\Daniel\AppData\Local\Temp\{78ED34F4-3C3B-4D89-8F5D-B64BD43A86E6} PAGE   36

    1794              ;*                            0 Parameter,  0 Auto,  4 SOE     *
    1795              ;***************************************************************
    1796              
    1797 00000000       _InitPeripheralClocks:
    1798              ;* AR4   assigned to $O$C1
    1799                      .dwcfi  cfa_offset, -2
    1800                      .dwcfi  save_reg_to_mem, 26, 0
    1801 00000000 B2BD          MOVL      *SP++,XAR1            ; [CPU_ALU] 
    1802                      .dwcfi  save_reg_to_mem, 7, 2
    1803                      .dwcfi  cfa_offset, -4
    1804 00000001 AABD          MOVL      *SP++,XAR2            ; [CPU_ALU] 
    1805                      .dwcfi  save_reg_to_mem, 9, 4
    1806                      .dwcfi  cfa_offset, -6
    1807                      .dwpsn  file "../DeviceSupport/source/f28003x_sysctrl.c",line 154,column 5,is_stmt,isa 0
    1808 00000002 7622          EALLOW    ; [CPU_ALU] |154| 
    1809                      .dwpsn  file "../DeviceSupport/source/f28003x_sysctrl.c",line 156,column 5,is_stmt,isa 0
    1810 00000003 8F00!         MOVL      XAR4,#_CpuSysRegs     ; [CPU_ARAU] |156| 
         00000004 0000 
    1811 00000005 761F!         MOVW      DP,#_CpuSysRegs+34    ; [CPU_ARAU] 
         00000006 0000 
    1812 00000007 C4A4          MOVL      XAR6,XAR4             ; [CPU_ALU] |156| 
    1813                      .dwpsn  file "../DeviceSupport/source/f28003x_sysctrl.c",line 163,column 5,is_stmt,isa 0
    1814 00000008 C5A4          MOVL      XAR7,XAR4             ; [CPU_ALU] |163| 
    1815                      .dwpsn  file "../DeviceSupport/source/f28003x_sysctrl.c",line 167,column 5,is_stmt,isa 0
    1816 00000009 83A4          MOVL      XAR5,XAR4             ; [CPU_ALU] |167| 
    1817                      .dwpsn  file "../DeviceSupport/source/f28003x_sysctrl.c",line 183,column 5,is_stmt,isa 0
    1818 0000000a 8EA4          MOVL      XAR0,XAR4             ; [CPU_ALU] |183| 
    1819                      .dwpsn  file "../DeviceSupport/source/f28003x_sysctrl.c",line 156,column 5,is_stmt,isa 0
    1820 0000000b DE22          ADDB      XAR6,#34              ; [CPU_ALU] |156| 
    1821                      .dwpsn  file "../DeviceSupport/source/f28003x_sysctrl.c",line 163,column 5,is_stmt,isa 0
    1822 0000000c DF23          ADDB      XAR7,#35              ; [CPU_ALU] |163| 
    1823                      .dwpsn  file "../DeviceSupport/source/f28003x_sysctrl.c",line 156,column 5,is_stmt,isa 0
    1824 0000000d 1AC6          OR        *+XAR6[0],#0x0001     ; [CPU_ALU] |156| 
         0000000e 0001 
    1825                      .dwpsn  file "../DeviceSupport/source/f28003x_sysctrl.c",line 167,column 5,is_stmt,isa 0
    1826 0000000f DD26          ADDB      XAR5,#38              ; [CPU_ALU] |167| 
    1827                      .dwpsn  file "../DeviceSupport/source/f28003x_sysctrl.c",line 157,column 5,is_stmt,isa 0
    1828 00000010 1A22!         OR        @$BLOCKED(_CpuSysRegs)+34,#0x0004 ; [CPU_ALU] |157| 
         00000011 0004 
    1829                      .dwpsn  file "../DeviceSupport/source/f28003x_sysctrl.c",line 176,column 5,is_stmt,isa 0
    1830 00000012 C4A4          MOVL      XAR6,XAR4             ; [CPU_ALU] |176| 
    1831                      .dwpsn  file "../DeviceSupport/source/f28003x_sysctrl.c",line 158,column 5,is_stmt,isa 0
    1832 00000013 1A22!         OR        @$BLOCKED(_CpuSysRegs)+34,#0x0008 ; [CPU_ALU] |158| 
         00000014 0008 
    1833                      .dwpsn  file "../DeviceSupport/source/f28003x_sysctrl.c",line 159,column 5,is_stmt,isa 0
    1834 00000015 1A22!         OR        @$BLOCKED(_CpuSysRegs)+34,#0x0010 ; [CPU_ALU] |159| 
         00000016 0010 
    1835                      .dwpsn  file "../DeviceSupport/source/f28003x_sysctrl.c",line 160,column 5,is_stmt,isa 0
    1836 00000017 1A22!         OR        @$BLOCKED(_CpuSysRegs)+34,#0x0020 ; [CPU_ALU] |160| 
         00000018 0020 
    1837                      .dwpsn  file "../DeviceSupport/source/f28003x_sysctrl.c",line 176,column 5,is_stmt,isa 0
    1838 00000019 DE28          ADDB      XAR6,#40              ; [CPU_ALU] |176| 
    1839                      .dwpsn  file "../DeviceSupport/source/f28003x_sysctrl.c",line 161,column 5,is_stmt,isa 0
    1840 0000001a 1A22!         OR        @$BLOCKED(_CpuSysRegs)+34,#0x2000 ; [CPU_ALU] |161| 
         0000001b 2000 
TMS320C2000 Assembler PC v22.6.1 Wed May 21 09:51:55 2025

Copyright (c) 1996-2018 Texas Instruments Incorporated
C:\Users\Daniel\AppData\Local\Temp\{78ED34F4-3C3B-4D89-8F5D-B64BD43A86E6} PAGE   37

    1841                      .dwpsn  file "../DeviceSupport/source/f28003x_sysctrl.c",line 162,column 5,is_stmt,isa 0
    1842 0000001c 1A22!         OR        @$BLOCKED(_CpuSysRegs)+34,#0x4000 ; [CPU_ALU] |162| 
         0000001d 4000 
    1843                      .dwpsn  file "../DeviceSupport/source/f28003x_sysctrl.c",line 163,column 5,is_stmt,isa 0
    1844 0000001e 1AC7          OR        *+XAR7[0],#0x0001     ; [CPU_ALU] |163| 
         0000001f 0001 
    1845                      .dwpsn  file "../DeviceSupport/source/f28003x_sysctrl.c",line 164,column 5,is_stmt,isa 0
    1846 00000020 1A23!         OR        @$BLOCKED(_CpuSysRegs)+35,#0x0004 ; [CPU_ALU] |164| 
         00000021 0004 
    1847                      .dwpsn  file "../DeviceSupport/source/f28003x_sysctrl.c",line 165,column 5,is_stmt,isa 0
    1848 00000022 1A23!         OR        @$BLOCKED(_CpuSysRegs)+35,#0x0100 ; [CPU_ALU] |165| 
         00000023 0100 
    1849                      .dwpsn  file "../DeviceSupport/source/f28003x_sysctrl.c",line 167,column 5,is_stmt,isa 0
    1850 00000024 1AC5          OR        *+XAR5[0],#0x0001     ; [CPU_FPU] |167| 
         00000025 0001 
    1851                      .dwpsn  file "../DeviceSupport/source/f28003x_sysctrl.c",line 180,column 5,is_stmt,isa 0
    1852 00000026 83A4          MOVL      XAR5,XAR4             ; [CPU_FPU] |180| 
    1853                      .dwpsn  file "../DeviceSupport/source/f28003x_sysctrl.c",line 186,column 5,is_stmt,isa 0
    1854 00000027 C5A4          MOVL      XAR7,XAR4             ; [CPU_FPU] |186| 
    1855                      .dwpsn  file "../DeviceSupport/source/f28003x_sysctrl.c",line 183,column 5,is_stmt,isa 0
    1856 00000028 D82E          ADDB      XAR0,#46              ; [CPU_ALU] |183| 
    1857                      .dwpsn  file "../DeviceSupport/source/f28003x_sysctrl.c",line 168,column 5,is_stmt,isa 0
    1858 00000029 1A26!         OR        @$BLOCKED(_CpuSysRegs)+38,#0x0002 ; [CPU_FPU] |168| 
         0000002a 0002 
    1859                      .dwpsn  file "../DeviceSupport/source/f28003x_sysctrl.c",line 180,column 5,is_stmt,isa 0
    1860 0000002b DD2A          ADDB      XAR5,#42              ; [CPU_ALU] |180| 
    1861                      .dwpsn  file "../DeviceSupport/source/f28003x_sysctrl.c",line 169,column 5,is_stmt,isa 0
    1862 0000002c 1A26!         OR        @$BLOCKED(_CpuSysRegs)+38,#0x0004 ; [CPU_FPU] |169| 
         0000002d 0004 
    1863                      .dwpsn  file "../DeviceSupport/source/f28003x_sysctrl.c",line 170,column 5,is_stmt,isa 0
    1864 0000002e 1A26!         OR        @$BLOCKED(_CpuSysRegs)+38,#0x0008 ; [CPU_FPU] |170| 
         0000002f 0008 
    1865                      .dwpsn  file "../DeviceSupport/source/f28003x_sysctrl.c",line 171,column 5,is_stmt,isa 0
    1866 00000030 1A26!         OR        @$BLOCKED(_CpuSysRegs)+38,#0x0010 ; [CPU_FPU] |171| 
         00000031 0010 
    1867                      .dwpsn  file "../DeviceSupport/source/f28003x_sysctrl.c",line 172,column 5,is_stmt,isa 0
    1868 00000032 1A26!         OR        @$BLOCKED(_CpuSysRegs)+38,#0x0020 ; [CPU_FPU] |172| 
         00000033 0020 
    1869                      .dwpsn  file "../DeviceSupport/source/f28003x_sysctrl.c",line 173,column 5,is_stmt,isa 0
    1870 00000034 1A26!         OR        @$BLOCKED(_CpuSysRegs)+38,#0x0040 ; [CPU_FPU] |173| 
         00000035 0040 
    1871                      .dwpsn  file "../DeviceSupport/source/f28003x_sysctrl.c",line 174,column 5,is_stmt,isa 0
    1872 00000036 1A26!         OR        @$BLOCKED(_CpuSysRegs)+38,#0x0080 ; [CPU_FPU] |174| 
         00000037 0080 
    1873                      .dwpsn  file "../DeviceSupport/source/f28003x_sysctrl.c",line 176,column 5,is_stmt,isa 0
    1874 00000038 1AC6          OR        *+XAR6[0],#0x0001     ; [CPU_FPU] |176| 
         00000039 0001 
    1875                      .dwpsn  file "../DeviceSupport/source/f28003x_sysctrl.c",line 189,column 5,is_stmt,isa 0
    1876 0000003a C4A4          MOVL      XAR6,XAR4             ; [CPU_FPU] |189| 
    1877                      .dwpsn  file "../DeviceSupport/source/f28003x_sysctrl.c",line 177,column 5,is_stmt,isa 0
    1878 0000003b 1A28!         OR        @$BLOCKED(_CpuSysRegs)+40,#0x0002 ; [CPU_FPU] |177| 
         0000003c 0002 
    1879                      .dwpsn  file "../DeviceSupport/source/f28003x_sysctrl.c",line 178,column 5,is_stmt,isa 0
    1880 0000003d 1A28!         OR        @$BLOCKED(_CpuSysRegs)+40,#0x0004 ; [CPU_FPU] |178| 
         0000003e 0004 
TMS320C2000 Assembler PC v22.6.1 Wed May 21 09:51:55 2025

Copyright (c) 1996-2018 Texas Instruments Incorporated
C:\Users\Daniel\AppData\Local\Temp\{78ED34F4-3C3B-4D89-8F5D-B64BD43A86E6} PAGE   38

    1881                      .dwpsn  file "../DeviceSupport/source/f28003x_sysctrl.c",line 180,column 5,is_stmt,isa 0
    1882 0000003f 1AC5          OR        *+XAR5[0],#0x0001     ; [CPU_FPU] |180| 
         00000040 0001 
    1883                      .dwpsn  file "../DeviceSupport/source/f28003x_sysctrl.c",line 192,column 5,is_stmt,isa 0
    1884 00000041 83A4          MOVL      XAR5,XAR4             ; [CPU_FPU] |192| 
    1885                      .dwpsn  file "../DeviceSupport/source/f28003x_sysctrl.c",line 195,column 5,is_stmt,isa 0
    1886 00000042 8BA4          MOVL      XAR1,XAR4             ; [CPU_FPU] |195| 
    1887                      .dwpsn  file "../DeviceSupport/source/f28003x_sysctrl.c",line 186,column 5,is_stmt,isa 0
    1888 00000043 DF30          ADDB      XAR7,#48              ; [CPU_ALU] |186| 
    1889                      .dwpsn  file "../DeviceSupport/source/f28003x_sysctrl.c",line 189,column 5,is_stmt,isa 0
    1890 00000044 DE32          ADDB      XAR6,#50              ; [CPU_ALU] |189| 
    1891                      .dwpsn  file "../DeviceSupport/source/f28003x_sysctrl.c",line 192,column 5,is_stmt,isa 0
    1892 00000045 DD34          ADDB      XAR5,#52              ; [CPU_ALU] |192| 
    1893                      .dwpsn  file "../DeviceSupport/source/f28003x_sysctrl.c",line 181,column 5,is_stmt,isa 0
    1894 00000046 1A2A!         OR        @$BLOCKED(_CpuSysRegs)+42,#0x0002 ; [CPU_ALU] |181| 
         00000047 0002 
    1895                      .dwpsn  file "../DeviceSupport/source/f28003x_sysctrl.c",line 183,column 5,is_stmt,isa 0
    1896 00000048 1AC0          OR        *+XAR0[0],#0x0001     ; [CPU_ALU] |183| 
         00000049 0001 
    1897                      .dwpsn  file "../DeviceSupport/source/f28003x_sysctrl.c",line 198,column 5,is_stmt,isa 0
    1898 0000004a 8EA4          MOVL      XAR0,XAR4             ; [CPU_ALU] |198| 
    1899                      .dwpsn  file "../DeviceSupport/source/f28003x_sysctrl.c",line 184,column 5,is_stmt,isa 0
    1900 0000004b 1A2E!         OR        @$BLOCKED(_CpuSysRegs)+46,#0x0002 ; [CPU_FPU] |184| 
         0000004c 0002 
    1901                      .dwpsn  file "../DeviceSupport/source/f28003x_sysctrl.c",line 186,column 5,is_stmt,isa 0
    1902 0000004d 1AC7          OR        *+XAR7[0],#0x0001     ; [CPU_FPU] |186| 
         0000004e 0001 
    1903                      .dwpsn  file "../DeviceSupport/source/f28003x_sysctrl.c",line 202,column 5,is_stmt,isa 0
    1904 0000004f C5A4          MOVL      XAR7,XAR4             ; [CPU_FPU] |202| 
    1905                      .dwpsn  file "../DeviceSupport/source/f28003x_sysctrl.c",line 195,column 5,is_stmt,isa 0
    1906 00000050 D936          ADDB      XAR1,#54              ; [CPU_ALU] |195| 
    1907                      .dwpsn  file "../DeviceSupport/source/f28003x_sysctrl.c",line 215,column 5,is_stmt,isa 0
    1908 00000051 86A4          MOVL      XAR2,XAR4             ; [CPU_FPU] |215| 
    1909                      .dwpsn  file "../DeviceSupport/source/f28003x_sysctrl.c",line 198,column 5,is_stmt,isa 0
    1910 00000052 D83C          ADDB      XAR0,#60              ; [CPU_ALU] |198| 
    1911                      .dwpsn  file "../DeviceSupport/source/f28003x_sysctrl.c",line 202,column 5,is_stmt,isa 0
    1912 00000053 DF3E          ADDB      XAR7,#62              ; [CPU_ALU] |202| 
    1913                      .dwpsn  file "../DeviceSupport/source/f28003x_sysctrl.c",line 187,column 5,is_stmt,isa 0
    1914 00000054 1A30!         OR        @$BLOCKED(_CpuSysRegs)+48,#0x0002 ; [CPU_ALU] |187| 
         00000055 0002 
    1915                      .dwpsn  file "../DeviceSupport/source/f28003x_sysctrl.c",line 189,column 5,is_stmt,isa 0
    1916 00000056 1AC6          OR        *+XAR6[0],#0x0001     ; [CPU_ALU] |189| 
         00000057 0001 
    1917                      .dwpsn  file "../DeviceSupport/source/f28003x_sysctrl.c",line 207,column 5,is_stmt,isa 0
    1918 00000058 C4A4          MOVL      XAR6,XAR4             ; [CPU_ALU] |207| 
    1919                      .dwpsn  file "../DeviceSupport/source/f28003x_sysctrl.c",line 190,column 5,is_stmt,isa 0
    1920 00000059 1A32!         OR        @$BLOCKED(_CpuSysRegs)+50,#0x0002 ; [CPU_ALU] |190| 
         0000005a 0002 
    1921                      .dwpsn  file "../DeviceSupport/source/f28003x_sysctrl.c",line 192,column 5,is_stmt,isa 0
    1922 0000005b 1AC5          OR        *+XAR5[0],#0x0001     ; [CPU_ALU] |192| 
         0000005c 0001 
    1923                      .dwpsn  file "../DeviceSupport/source/f28003x_sysctrl.c",line 210,column 5,is_stmt,isa 0
    1924 0000005d 83A4          MOVL      XAR5,XAR4             ; [CPU_ALU] |210| 
    1925                      .dwpsn  file "../DeviceSupport/source/f28003x_sysctrl.c",line 193,column 5,is_stmt,isa 0
    1926 0000005e 1A34!         OR        @$BLOCKED(_CpuSysRegs)+52,#0x0002 ; [CPU_ALU] |193| 
TMS320C2000 Assembler PC v22.6.1 Wed May 21 09:51:55 2025

Copyright (c) 1996-2018 Texas Instruments Incorporated
C:\Users\Daniel\AppData\Local\Temp\{78ED34F4-3C3B-4D89-8F5D-B64BD43A86E6} PAGE   39

         0000005f 0002 
    1927                      .dwpsn  file "../DeviceSupport/source/f28003x_sysctrl.c",line 195,column 5,is_stmt,isa 0
    1928 00000060 1AC1          OR        *+XAR1[0],#0x0001     ; [CPU_ALU] |195| 
         00000061 0001 
    1929                      .dwpsn  file "../DeviceSupport/source/f28003x_sysctrl.c",line 218,column 5,is_stmt,isa 0
    1930 00000062 8BA4          MOVL      XAR1,XAR4             ; [CPU_FPU] |218| 
    1931                      .dwpsn  file "../DeviceSupport/source/f28003x_sysctrl.c",line 207,column 5,is_stmt,isa 0
    1932 00000063 DE43          ADDB      XAR6,#67              ; [CPU_ALU] |207| 
    1933                      .dwpsn  file "../DeviceSupport/source/f28003x_sysctrl.c",line 210,column 5,is_stmt,isa 0
    1934 00000064 DD44          ADDB      XAR5,#68              ; [CPU_ALU] |210| 
    1935                      .dwpsn  file "../DeviceSupport/source/f28003x_sysctrl.c",line 215,column 5,is_stmt,isa 0
    1936 00000065 DA46          ADDB      XAR2,#70              ; [CPU_ALU] |215| 
    1937                      .dwpsn  file "../DeviceSupport/source/f28003x_sysctrl.c",line 218,column 5,is_stmt,isa 0
    1938 00000066 D948          ADDB      XAR1,#72              ; [CPU_ALU] |218| 
    1939                      .dwpsn  file "../DeviceSupport/source/f28003x_sysctrl.c",line 196,column 5,is_stmt,isa 0
    1940 00000067 1A36!         OR        @$BLOCKED(_CpuSysRegs)+54,#0x0010 ; [CPU_FPU] |196| 
         00000068 0010 
    1941                      .dwpsn  file "../DeviceSupport/source/f28003x_sysctrl.c",line 198,column 5,is_stmt,isa 0
    1942 00000069 1AC0          OR        *+XAR0[0],#0x0001     ; [CPU_FPU] |198| 
         0000006a 0001 
    1943                      .dwpsn  file "../DeviceSupport/source/f28003x_sysctrl.c",line 221,column 5,is_stmt,isa 0
    1944 0000006b 8EA4          MOVL      XAR0,XAR4             ; [CPU_FPU] |221| 
    1945                      .dwpsn  file "../DeviceSupport/source/f28003x_sysctrl.c",line 199,column 5,is_stmt,isa 0
    1946 0000006c 1A3C!         OR        @$BLOCKED(_CpuSysRegs)+60,#0x0002 ; [CPU_FPU] |199| 
         0000006d 0002 
    1947                      .dwpsn  file "../DeviceSupport/source/f28003x_sysctrl.c",line 200,column 5,is_stmt,isa 0
    1948 0000006e 1A3C!         OR        @$BLOCKED(_CpuSysRegs)+60,#0x0004 ; [CPU_FPU] |200| 
         0000006f 0004 
    1949                      .dwpsn  file "../DeviceSupport/source/f28003x_sysctrl.c",line 202,column 5,is_stmt,isa 0
    1950 00000070 1AC7          OR        *+XAR7[0],#0x0001     ; [CPU_FPU] |202| 
         00000071 0001 
    1951                      .dwpsn  file "../DeviceSupport/source/f28003x_sysctrl.c",line 223,column 5,is_stmt,isa 0
    1952 00000072 C5A4          MOVL      XAR7,XAR4             ; [CPU_FPU] |223| 
    1953                      .dwpsn  file "../DeviceSupport/source/f28003x_sysctrl.c",line 203,column 5,is_stmt,isa 0
    1954 00000073 1A3E!         OR        @$BLOCKED(_CpuSysRegs)+62,#0x0002 ; [CPU_FPU] |203| 
         00000074 0002 
    1955                      .dwpsn  file "../DeviceSupport/source/f28003x_sysctrl.c",line 204,column 5,is_stmt,isa 0
    1956 00000075 1A3E!         OR        @$BLOCKED(_CpuSysRegs)+62,#0x0004 ; [CPU_FPU] |204| 
         00000076 0004 
    1957                      .dwpsn  file "../DeviceSupport/source/f28003x_sysctrl.c",line 205,column 5,is_stmt,isa 0
    1958 00000077 1A3E!         OR        @$BLOCKED(_CpuSysRegs)+62,#0x0008 ; [CPU_FPU] |205| 
         00000078 0008 
    1959 00000079 761F!         MOVW      DP,#_CpuSysRegs+67    ; [CPU_ARAU] 
         0000007a 0001 
    1960                      .dwpsn  file "../DeviceSupport/source/f28003x_sysctrl.c",line 207,column 5,is_stmt,isa 0
    1961 0000007b 1AC6          OR        *+XAR6[0],#0x0001     ; [CPU_FPU] |207| 
         0000007c 0001 
    1962                      .dwpsn  file "../DeviceSupport/source/f28003x_sysctrl.c",line 226,column 5,is_stmt,isa 0
    1963 0000007d C4A4          MOVL      XAR6,XAR4             ; [CPU_FPU] |226| 
    1964                      .dwpsn  file "../DeviceSupport/source/f28003x_sysctrl.c",line 208,column 5,is_stmt,isa 0
    1965 0000007e 1A03!         OR        @$BLOCKED(_CpuSysRegs)+67,#0x0002 ; [CPU_FPU] |208| 
         0000007f 0002 
    1966                      .dwpsn  file "../DeviceSupport/source/f28003x_sysctrl.c",line 210,column 5,is_stmt,isa 0
    1967 00000080 1AC5          OR        *+XAR5[0],#0x0001     ; [CPU_FPU] |210| 
         00000081 0001 
TMS320C2000 Assembler PC v22.6.1 Wed May 21 09:51:55 2025

Copyright (c) 1996-2018 Texas Instruments Incorporated
C:\Users\Daniel\AppData\Local\Temp\{78ED34F4-3C3B-4D89-8F5D-B64BD43A86E6} PAGE   40

    1968                      .dwpsn  file "../DeviceSupport/source/f28003x_sysctrl.c",line 227,column 5,is_stmt,isa 0
    1969 00000082 83A4          MOVL      XAR5,XAR4             ; [CPU_FPU] |227| 
    1970                      .dwpsn  file "../DeviceSupport/source/f28003x_sysctrl.c",line 221,column 5,is_stmt,isa 0
    1971 00000083 D84A          ADDB      XAR0,#74              ; [CPU_ALU] |221| 
    1972                      .dwpsn  file "../DeviceSupport/source/f28003x_sysctrl.c",line 223,column 5,is_stmt,isa 0
    1973 00000084 DF4C          ADDB      XAR7,#76              ; [CPU_ALU] |223| 
    1974                      .dwpsn  file "../DeviceSupport/source/f28003x_sysctrl.c",line 226,column 5,is_stmt,isa 0
    1975 00000085 DE54          ADDB      XAR6,#84              ; [CPU_ALU] |226| 
    1976                      .dwpsn  file "../DeviceSupport/source/f28003x_sysctrl.c",line 227,column 5,is_stmt,isa 0
    1977 00000086 DD56          ADDB      XAR5,#86              ; [CPU_ALU] |227| 
    1978                      .dwpsn  file "../DeviceSupport/source/f28003x_sysctrl.c",line 228,column 5,is_stmt,isa 0
    1979 00000087 DC58          ADDB      XAR4,#88              ; [CPU_ALU] |228| 
    1980                      .dwpsn  file "../DeviceSupport/source/f28003x_sysctrl.c",line 211,column 5,is_stmt,isa 0
    1981 00000088 1A04!         OR        @$BLOCKED(_CpuSysRegs)+68,#0x0002 ; [CPU_FPU] |211| 
         00000089 0002 
    1982                      .dwpsn  file "../DeviceSupport/source/f28003x_sysctrl.c",line 212,column 5,is_stmt,isa 0
    1983 0000008a 1A04!         OR        @$BLOCKED(_CpuSysRegs)+68,#0x0004 ; [CPU_FPU] |212| 
         0000008b 0004 
    1984                      .dwpsn  file "../DeviceSupport/source/f28003x_sysctrl.c",line 213,column 5,is_stmt,isa 0
    1985 0000008c 1A04!         OR        @$BLOCKED(_CpuSysRegs)+68,#0x0008 ; [CPU_FPU] |213| 
         0000008d 0008 
    1986                      .dwpsn  file "../DeviceSupport/source/f28003x_sysctrl.c",line 215,column 5,is_stmt,isa 0
    1987 0000008e 1AC2          OR        *+XAR2[0],#0x0001     ; [CPU_FPU] |215| 
         0000008f 0001 
    1988                      .dwpsn  file "../DeviceSupport/source/f28003x_sysctrl.c",line 216,column 5,is_stmt,isa 0
    1989 00000090 1A06!         OR        @$BLOCKED(_CpuSysRegs)+70,#0x0002 ; [CPU_FPU] |216| 
         00000091 0002 
    1990                      .dwpsn  file "../DeviceSupport/source/f28003x_sysctrl.c",line 218,column 5,is_stmt,isa 0
    1991 00000092 1AC1          OR        *+XAR1[0],#0x0001     ; [CPU_FPU] |218| 
         00000093 0001 
    1992                      .dwpsn  file "../DeviceSupport/source/f28003x_sysctrl.c",line 219,column 5,is_stmt,isa 0
    1993 00000094 1A08!         OR        @$BLOCKED(_CpuSysRegs)+72,#0x0002 ; [CPU_FPU] |219| 
         00000095 0002 
    1994                      .dwpsn  file "../DeviceSupport/source/f28003x_sysctrl.c",line 221,column 5,is_stmt,isa 0
    1995 00000096 1AC0          OR        *+XAR0[0],#0x0001     ; [CPU_FPU] |221| 
         00000097 0001 
    1996                      .dwpsn  file "../DeviceSupport/source/f28003x_sysctrl.c",line 223,column 5,is_stmt,isa 0
    1997 00000098 1AC7          OR        *+XAR7[0],#0x0001     ; [CPU_FPU] |223| 
         00000099 0001 
    1998                      .dwpsn  file "../DeviceSupport/source/f28003x_sysctrl.c",line 224,column 5,is_stmt,isa 0
    1999 0000009a 1A0C!         OR        @$BLOCKED(_CpuSysRegs)+76,#0x0002 ; [CPU_FPU] |224| 
         0000009b 0002 
    2000                      .dwpsn  file "../DeviceSupport/source/f28003x_sysctrl.c",line 226,column 5,is_stmt,isa 0
    2001 0000009c 1AC6          OR        *+XAR6[0],#0x0001     ; [CPU_FPU] |226| 
         0000009d 0001 
    2002                      .dwpsn  file "../DeviceSupport/source/f28003x_sysctrl.c",line 227,column 5,is_stmt,isa 0
    2003 0000009e 1AC5          OR        *+XAR5[0],#0x0001     ; [CPU_FPU] |227| 
         0000009f 0001 
    2004                      .dwpsn  file "../DeviceSupport/source/f28003x_sysctrl.c",line 228,column 5,is_stmt,isa 0
    2005 000000a0 1AC4          OR        *+XAR4[0],#0x0001     ; [CPU_ALU] |228| 
         000000a1 0001 
    2006                      .dwpsn  file "../DeviceSupport/source/f28003x_sysctrl.c",line 230,column 5,is_stmt,isa 0
    2007 000000a2 761A          EDIS      ; [CPU_ALU] |230| 
    2008 000000a3 86BE          MOVL      XAR2,*--SP            ; [CPU_ALU] 
    2009                      .dwcfi  cfa_offset, -4
TMS320C2000 Assembler PC v22.6.1 Wed May 21 09:51:55 2025

Copyright (c) 1996-2018 Texas Instruments Incorporated
C:\Users\Daniel\AppData\Local\Temp\{78ED34F4-3C3B-4D89-8F5D-B64BD43A86E6} PAGE   41

    2010                      .dwcfi  restore_reg, 9
    2011 000000a4 8BBE          MOVL      XAR1,*--SP            ; [CPU_ALU] 
    2012                      .dwcfi  cfa_offset, -2
    2013                      .dwcfi  restore_reg, 7
    2014              $C$DW$91        .dwtag  DW_TAG_TI_branch
    2015                      .dwattr $C$DW$91, DW_AT_low_pc(0x00)
    2016                      .dwattr $C$DW$91, DW_AT_TI_return
    2017              
    2018 000000a5 0006          LRETR     ; [CPU_ALU] 
    2019                      ; return occurs ; [] 
    2020                      .dwattr $C$DW$90, DW_AT_TI_end_file("../DeviceSupport/source/f28003x_sysctrl.c")
    2021                      .dwattr $C$DW$90, DW_AT_TI_end_line(0xe7)
    2022                      .dwattr $C$DW$90, DW_AT_TI_end_column(0x01)
    2023                      .dwendentry
    2024                      .dwendtag $C$DW$90
    2025              
    2026 00000000               .sect   ".text:_InitSysCtrl"
    2027                      .clink
    2028                      .global _InitSysCtrl
    2029              
    2030              $C$DW$92        .dwtag  DW_TAG_subprogram
    2031                      .dwattr $C$DW$92, DW_AT_name("InitSysCtrl")
    2032                      .dwattr $C$DW$92, DW_AT_low_pc(_InitSysCtrl)
    2033                      .dwattr $C$DW$92, DW_AT_high_pc(0x00)
    2034                      .dwattr $C$DW$92, DW_AT_TI_symbol_name("_InitSysCtrl")
    2035                      .dwattr $C$DW$92, DW_AT_external
    2036                      .dwattr $C$DW$92, DW_AT_TI_begin_file("../DeviceSupport/source/f28003x_sysctrl.c")
    2037                      .dwattr $C$DW$92, DW_AT_TI_begin_line(0x57)
    2038                      .dwattr $C$DW$92, DW_AT_TI_begin_column(0x06)
    2039                      .dwattr $C$DW$92, DW_AT_TI_max_frame_size(-8)
    2040                      .dwpsn  file "../DeviceSupport/source/f28003x_sysctrl.c",line 88,column 1,is_stmt,address _InitSysCtr
    2041              
    2042                      .dwfde $C$DW$CIE, _InitSysCtrl
    2043              
    2044              ;***************************************************************
    2045              ;* FNAME: _InitSysCtrl                  FR SIZE:   6           *
    2046              ;*                                                             *
    2047              ;* FUNCTION ENVIRONMENT                                        *
    2048              ;*                                                             *
    2049              ;* FUNCTION PROPERTIES                                         *
    2050              ;*                            6 Parameter,  0 Auto,  0 SOE     *
    2051              ;***************************************************************
    2052              
    2053 00000000       _InitSysCtrl:
    2054                      .dwcfi  cfa_offset, -2
    2055                      .dwcfi  save_reg_to_mem, 26, 0
    2056 00000000 FE06          ADDB      SP,#6                 ; [CPU_ARAU] 
    2057                      .dwcfi  cfa_offset, -8
    2058                      .dwpsn  file "../DeviceSupport/source/f28003x_sysctrl.c",line 92,column 5,is_stmt,isa 0
    2059              $C$DW$93        .dwtag  DW_TAG_TI_branch
    2060                      .dwattr $C$DW$93, DW_AT_low_pc(0x00)
    2061                      .dwattr $C$DW$93, DW_AT_name("_DisableDog")
    2062                      .dwattr $C$DW$93, DW_AT_TI_call
    2063              
    2064 00000001 7640+         LCR       #_DisableDog          ; [CPU_ALU] |92| 
TMS320C2000 Assembler PC v22.6.1 Wed May 21 09:51:55 2025

Copyright (c) 1996-2018 Texas Instruments Incorporated
C:\Users\Daniel\AppData\Local\Temp\{78ED34F4-3C3B-4D89-8F5D-B64BD43A86E6} PAGE   42

         00000002 0000 
    2065                      ; call occurs [#_DisableDog] ; [] |92| 
    2066                      .dwpsn  file "../DeviceSupport/source/f28003x_sysctrl.c",line 102,column 5,is_stmt,isa 0
    2067 00000003 8F40!         MOVL      XAR5,#_RamfuncsLoadStart ; [CPU_ARAU] |102| 
         00000004 0000 
    2068 00000005 28A8%         MOV       AH,#_RamfuncsLoadSize+0 >> 16 ; [CPU_ALU] |102| 
         00000006 0000 
    2069 00000007 8F00!         MOVL      XAR4,#_RamfuncsRunStart ; [CPU_ARAU] |102| 
         00000008 0000 
    2070 00000009 28A9!         MOV       AL,#_RamfuncsLoadSize+0 ; [CPU_ALU] |102| 
         0000000a 0000 
    2071              $C$DW$94        .dwtag  DW_TAG_TI_branch
    2072                      .dwattr $C$DW$94, DW_AT_low_pc(0x00)
    2073                      .dwattr $C$DW$94, DW_AT_name("_memcpy")
    2074                      .dwattr $C$DW$94, DW_AT_TI_call
    2075              
    2076 0000000b 7640!         LCR       #_memcpy              ; [CPU_ALU] |102| 
         0000000c 0000 
    2077                      ; call occurs [#_memcpy] ; [] |102| 
    2078                      .dwpsn  file "../DeviceSupport/source/f28003x_sysctrl.c",line 108,column 5,is_stmt,isa 0
    2079              $C$DW$95        .dwtag  DW_TAG_TI_branch
    2080                      .dwattr $C$DW$95, DW_AT_low_pc(0x00)
    2081                      .dwattr $C$DW$95, DW_AT_name("_InitFlash")
    2082                      .dwattr $C$DW$95, DW_AT_TI_call
    2083              
    2084 0000000d 7640+         LCR       #_InitFlash           ; [CPU_ALU] |108| 
         0000000e 0000 
    2085                      ; call occurs [#_InitFlash] ; [] |108| 
    2086                      .dwpsn  file "../DeviceSupport/source/f28003x_sysctrl.c",line 123,column 5,is_stmt,isa 0
    2087 0000000f 0203          MOVB      ACC,#3                ; [CPU_ALU] |123| 
    2088 00000010 BE00          MOVB      XAR6,#0               ; [CPU_ALU] |123| 
    2089 00000011 D401          MOVB      XAR4,#1               ; [CPU_ALU] |123| 
    2090 00000012 D530          MOVB      XAR5,#48              ; [CPU_ALU] |123| 
    2091 00000013 1E42          MOVL      *-SP[2],ACC           ; [CPU_ALU] |123| 
    2092 00000014 2B43          MOV       *-SP[3],#0            ; [CPU_ALU] |123| 
    2093 00000015 0201          MOVB      ACC,#1                ; [CPU_ALU] |123| 
    2094 00000016 C246          MOVL      *-SP[6],XAR6          ; [CPU_ALU] |123| 
    2095              $C$DW$96        .dwtag  DW_TAG_TI_branch
    2096                      .dwattr $C$DW$96, DW_AT_low_pc(0x00)
    2097                      .dwattr $C$DW$96, DW_AT_name("_InitSysPll")
    2098                      .dwattr $C$DW$96, DW_AT_TI_call
    2099              
    2100 00000017 7640+         LCR       #_InitSysPll          ; [CPU_ALU] |123| 
         00000018 0000 
    2101                      ; call occurs [#_InitSysPll] ; [] |123| 
    2102                      .dwpsn  file "../DeviceSupport/source/f28003x_sysctrl.c",line 142,column 5,is_stmt,isa 0
    2103              $C$DW$97        .dwtag  DW_TAG_TI_branch
    2104                      .dwattr $C$DW$97, DW_AT_low_pc(0x00)
    2105                      .dwattr $C$DW$97, DW_AT_name("_InitPeripheralClocks")
    2106                      .dwattr $C$DW$97, DW_AT_TI_call
    2107              
    2108 00000019 7640+         LCR       #_InitPeripheralClocks ; [CPU_ALU] |142| 
         0000001a 0000 
    2109                      ; call occurs [#_InitPeripheralClocks] ; [] |142| 
    2110 0000001b FE86          SUBB      SP,#6                 ; [CPU_ARAU] 
TMS320C2000 Assembler PC v22.6.1 Wed May 21 09:51:55 2025

Copyright (c) 1996-2018 Texas Instruments Incorporated
C:\Users\Daniel\AppData\Local\Temp\{78ED34F4-3C3B-4D89-8F5D-B64BD43A86E6} PAGE   43

    2111                      .dwcfi  cfa_offset, -2
    2112              $C$DW$98        .dwtag  DW_TAG_TI_branch
    2113                      .dwattr $C$DW$98, DW_AT_low_pc(0x00)
    2114                      .dwattr $C$DW$98, DW_AT_TI_return
    2115              
    2116 0000001c 0006          LRETR     ; [CPU_ALU] 
    2117                      ; return occurs ; [] 
    2118                      .dwattr $C$DW$92, DW_AT_TI_end_file("../DeviceSupport/source/f28003x_sysctrl.c")
    2119                      .dwattr $C$DW$92, DW_AT_TI_end_line(0x8f)
    2120                      .dwattr $C$DW$92, DW_AT_TI_end_column(0x01)
    2121                      .dwendentry
    2122                      .dwendtag $C$DW$92
    2123              
    2124 00000000               .sect   ".text:_IDLE"
    2125                      .clink
    2126                      .global _IDLE
    2127              
    2128              $C$DW$99        .dwtag  DW_TAG_subprogram
    2129                      .dwattr $C$DW$99, DW_AT_name("IDLE")
    2130                      .dwattr $C$DW$99, DW_AT_low_pc(_IDLE)
    2131                      .dwattr $C$DW$99, DW_AT_high_pc(0x00)
    2132                      .dwattr $C$DW$99, DW_AT_TI_symbol_name("_IDLE")
    2133                      .dwattr $C$DW$99, DW_AT_external
    2134                      .dwattr $C$DW$99, DW_AT_TI_begin_file("../DeviceSupport/source/f28003x_sysctrl.c")
    2135                      .dwattr $C$DW$99, DW_AT_TI_begin_line(0x2c6)
    2136                      .dwattr $C$DW$99, DW_AT_TI_begin_column(0x01)
    2137                      .dwattr $C$DW$99, DW_AT_TI_max_frame_size(-2)
    2138                      .dwpsn  file "../DeviceSupport/source/f28003x_sysctrl.c",line 711,column 1,is_stmt,address _IDLE,isa 
    2139              
    2140                      .dwfde $C$DW$CIE, _IDLE
    2141              
    2142              ;***************************************************************
    2143              ;* FNAME: _IDLE                         FR SIZE:   0           *
    2144              ;*                                                             *
    2145              ;* FUNCTION ENVIRONMENT                                        *
    2146              ;*                                                             *
    2147              ;* FUNCTION PROPERTIES                                         *
    2148              ;*                            0 Parameter,  0 Auto,  0 SOE     *
    2149              ;***************************************************************
    2150              
    2151 00000000       _IDLE:
    2152                      .dwcfi  cfa_offset, -2
    2153                      .dwcfi  save_reg_to_mem, 26, 0
    2154                      .dwpsn  file "../DeviceSupport/source/f28003x_sysctrl.c",line 712,column 5,is_stmt,isa 0
    2155 00000000 7622          EALLOW    ; [CPU_ALU] |712| 
    2156 00000001 761F!         MOVW      DP,#_CpuSysRegs+118   ; [CPU_ARAU] 
         00000002 0001 
    2157                      .dwpsn  file "../DeviceSupport/source/f28003x_sysctrl.c",line 713,column 5,is_stmt,isa 0
    2158 00000003 1836!         AND       @$BLOCKED(_CpuSysRegs)+118,#0xfffc ; [CPU_ALU] |713| 
         00000004 FFFC 
    2159                      .dwpsn  file "../DeviceSupport/source/f28003x_sysctrl.c",line 714,column 5,is_stmt,isa 0
    2160 00000005 761A          EDIS      ; [CPU_ALU] |714| 
    2161 00000006 7621   IDLE
    2162 00000007 FF69          SPM       #0                    ; [CPU_ALU] 
    2163              $C$DW$100       .dwtag  DW_TAG_TI_branch
TMS320C2000 Assembler PC v22.6.1 Wed May 21 09:51:55 2025

Copyright (c) 1996-2018 Texas Instruments Incorporated
C:\Users\Daniel\AppData\Local\Temp\{78ED34F4-3C3B-4D89-8F5D-B64BD43A86E6} PAGE   44

    2164                      .dwattr $C$DW$100, DW_AT_low_pc(0x00)
    2165                      .dwattr $C$DW$100, DW_AT_TI_return
    2166              
    2167 00000008 0006          LRETR     ; [CPU_ALU] 
    2168                      ; return occurs ; [] 
    2169                      .dwattr $C$DW$99, DW_AT_TI_end_file("../DeviceSupport/source/f28003x_sysctrl.c")
    2170                      .dwattr $C$DW$99, DW_AT_TI_end_line(0x2cc)
    2171                      .dwattr $C$DW$99, DW_AT_TI_end_column(0x01)
    2172                      .dwendentry
    2173                      .dwendtag $C$DW$99
    2174              
    2175 00000000               .sect   ".text:_HALT"
    2176                      .clink
    2177                      .global _HALT
    2178              
    2179              $C$DW$101       .dwtag  DW_TAG_subprogram
    2180                      .dwattr $C$DW$101, DW_AT_name("HALT")
    2181                      .dwattr $C$DW$101, DW_AT_low_pc(_HALT)
    2182                      .dwattr $C$DW$101, DW_AT_high_pc(0x00)
    2183                      .dwattr $C$DW$101, DW_AT_TI_symbol_name("_HALT")
    2184                      .dwattr $C$DW$101, DW_AT_external
    2185                      .dwattr $C$DW$101, DW_AT_TI_begin_file("../DeviceSupport/source/f28003x_sysctrl.c")
    2186                      .dwattr $C$DW$101, DW_AT_TI_begin_line(0x2d2)
    2187                      .dwattr $C$DW$101, DW_AT_TI_begin_column(0x01)
    2188                      .dwattr $C$DW$101, DW_AT_TI_max_frame_size(-2)
    2189                      .dwpsn  file "../DeviceSupport/source/f28003x_sysctrl.c",line 723,column 1,is_stmt,address _HALT,isa 
    2190              
    2191                      .dwfde $C$DW$CIE, _HALT
    2192              
    2193              ;***************************************************************
    2194              ;* FNAME: _HALT                         FR SIZE:   0           *
    2195              ;*                                                             *
    2196              ;* FUNCTION ENVIRONMENT                                        *
    2197              ;*                                                             *
    2198              ;* FUNCTION PROPERTIES                                         *
    2199              ;*                            0 Parameter,  0 Auto,  0 SOE     *
    2200              ;***************************************************************
    2201              
    2202 00000000       _HALT:
    2203                      .dwcfi  cfa_offset, -2
    2204                      .dwcfi  save_reg_to_mem, 26, 0
    2205                      .dwpsn  file "../DeviceSupport/source/f28003x_sysctrl.c",line 724,column 5,is_stmt,isa 0
    2206 00000000 7622          EALLOW    ; [CPU_ALU] |724| 
    2207 00000001 761F!         MOVW      DP,#_CpuSysRegs+118   ; [CPU_ARAU] 
         00000002 0001 
    2208                      .dwpsn  file "../DeviceSupport/source/f28003x_sysctrl.c",line 725,column 5,is_stmt,isa 0
    2209 00000003 CC36!         AND       AL,@$BLOCKED(_CpuSysRegs)+118,#0xfffe ; [CPU_ALU] |725| 
         00000004 FFFE 
    2210 00000005 5002          ORB       AL,#0x02              ; [CPU_ALU] |725| 
    2211 00000006 9636!         MOV       @$BLOCKED(_CpuSysRegs)+118,AL ; [CPU_ALU] |725| 
    2212 00000007 761F!         MOVW      DP,#_ClkCfgRegs+14    ; [CPU_ARAU] 
         00000008 0000 
    2213                      .dwpsn  file "../DeviceSupport/source/f28003x_sysctrl.c",line 726,column 5,is_stmt,isa 0
    2214 00000009 180E!         AND       @$BLOCKED(_ClkCfgRegs)+14,#0xfffd ; [CPU_ALU] |726| 
         0000000a FFFD 
TMS320C2000 Assembler PC v22.6.1 Wed May 21 09:51:55 2025

Copyright (c) 1996-2018 Texas Instruments Incorporated
C:\Users\Daniel\AppData\Local\Temp\{78ED34F4-3C3B-4D89-8F5D-B64BD43A86E6} PAGE   45

    2215                      .dwpsn  file "../DeviceSupport/source/f28003x_sysctrl.c",line 727,column 5,is_stmt,isa 0
    2216 0000000b 180E!         AND       @$BLOCKED(_ClkCfgRegs)+14,#0xfffe ; [CPU_ALU] |727| 
         0000000c FFFE 
    2217                      .dwpsn  file "../DeviceSupport/source/f28003x_sysctrl.c",line 728,column 5,is_stmt,isa 0
    2218 0000000d 761A          EDIS      ; [CPU_ALU] |728| 
    2219 0000000e 7621   IDLE
    2220 0000000f FF69          SPM       #0                    ; [CPU_ALU] 
    2221              $C$DW$102       .dwtag  DW_TAG_TI_branch
    2222                      .dwattr $C$DW$102, DW_AT_low_pc(0x00)
    2223                      .dwattr $C$DW$102, DW_AT_TI_return
    2224              
    2225 00000010 0006          LRETR     ; [CPU_ALU] 
    2226                      ; return occurs ; [] 
    2227                      .dwattr $C$DW$101, DW_AT_TI_end_file("../DeviceSupport/source/f28003x_sysctrl.c")
    2228                      .dwattr $C$DW$101, DW_AT_TI_end_line(0x2da)
    2229                      .dwattr $C$DW$101, DW_AT_TI_end_column(0x01)
    2230                      .dwendentry
    2231                      .dwendtag $C$DW$101
    2232              
    2233 00000000               .sect   ".TI.ramfunc:_FlashOff"
    2234                      .clink
    2235                      .global _FlashOff
    2236              
    2237              $C$DW$103       .dwtag  DW_TAG_subprogram
    2238                      .dwattr $C$DW$103, DW_AT_name("FlashOff")
    2239                      .dwattr $C$DW$103, DW_AT_low_pc(_FlashOff)
    2240                      .dwattr $C$DW$103, DW_AT_high_pc(0x00)
    2241                      .dwattr $C$DW$103, DW_AT_TI_symbol_name("_FlashOff")
    2242                      .dwattr $C$DW$103, DW_AT_external
    2243                      .dwattr $C$DW$103, DW_AT_TI_begin_file("../DeviceSupport/source/f28003x_sysctrl.c")
    2244                      .dwattr $C$DW$103, DW_AT_TI_begin_line(0x153)
    2245                      .dwattr $C$DW$103, DW_AT_TI_begin_column(0x06)
    2246                      .dwattr $C$DW$103, DW_AT_TI_max_frame_size(-2)
    2247                      .dwpsn  file "../DeviceSupport/source/f28003x_sysctrl.c",line 340,column 1,is_stmt,address _FlashOff,
    2248              
    2249                      .dwfde $C$DW$CIE, _FlashOff
    2250              
    2251              ;***************************************************************
    2252              ;* FNAME: _FlashOff                     FR SIZE:   0           *
    2253              ;*                                                             *
    2254              ;* FUNCTION ENVIRONMENT                                        *
    2255              ;*                                                             *
    2256              ;* FUNCTION PROPERTIES                                         *
    2257              ;*                            0 Parameter,  0 Auto,  0 SOE     *
    2258              ;***************************************************************
    2259              
    2260 00000000       _FlashOff:
    2261              ;* AR4   assigned to $O$C1
    2262                      .dwcfi  cfa_offset, -2
    2263                      .dwcfi  save_reg_to_mem, 26, 0
    2264                      .dwpsn  file "../DeviceSupport/source/f28003x_sysctrl.c",line 341,column 5,is_stmt,isa 0
    2265 00000000 7622          EALLOW    ; [CPU_ALU] |341| 
    2266                      .dwpsn  file "../DeviceSupport/source/f28003x_sysctrl.c",line 346,column 5,is_stmt,isa 0
    2267 00000001 8F00!         MOVL      XAR4,#_Flash0CtrlRegs ; [CPU_ARAU] |346| 
         00000002 0000 
TMS320C2000 Assembler PC v22.6.1 Wed May 21 09:51:55 2025

Copyright (c) 1996-2018 Texas Instruments Incorporated
C:\Users\Daniel\AppData\Local\Temp\{78ED34F4-3C3B-4D89-8F5D-B64BD43A86E6} PAGE   46

    2268 00000003 83A4          MOVL      XAR5,XAR4             ; [CPU_ALU] |346| 
    2269                      .dwpsn  file "../DeviceSupport/source/f28003x_sysctrl.c",line 351,column 5,is_stmt,isa 0
    2270 00000004 DC24          ADDB      XAR4,#36              ; [CPU_ALU] |351| 
    2271                      .dwpsn  file "../DeviceSupport/source/f28003x_sysctrl.c",line 346,column 5,is_stmt,isa 0
    2272 00000005 DD20          ADDB      XAR5,#32              ; [CPU_ALU] |346| 
    2273 00000006 18C5          AND       *+XAR5[0],#0xfffc     ; [CPU_FPU] |346| 
         00000007 FFFC 
    2274                      .dwpsn  file "../DeviceSupport/source/f28003x_sysctrl.c",line 351,column 5,is_stmt,isa 0
    2275 00000008 18C4          AND       *+XAR4[0],#0xfffe     ; [CPU_ALU] |351| 
         00000009 FFFE 
    2276                      .dwpsn  file "../DeviceSupport/source/f28003x_sysctrl.c",line 353,column 5,is_stmt,isa 0
    2277 0000000a 761A          EDIS      ; [CPU_ALU] |353| 
    2278              $C$DW$104       .dwtag  DW_TAG_TI_branch
    2279                      .dwattr $C$DW$104, DW_AT_low_pc(0x00)
    2280                      .dwattr $C$DW$104, DW_AT_TI_return
    2281              
    2282 0000000b 0006          LRETR     ; [CPU_ALU] 
    2283                      ; return occurs ; [] 
    2284                      .dwattr $C$DW$103, DW_AT_TI_end_file("../DeviceSupport/source/f28003x_sysctrl.c")
    2285                      .dwattr $C$DW$103, DW_AT_TI_end_line(0x162)
    2286                      .dwattr $C$DW$103, DW_AT_TI_end_column(0x01)
    2287                      .dwendentry
    2288                      .dwendtag $C$DW$103
    2289              
    2290 00000000               .sect   ".text:_DisablePeripheralClocks"
    2291                      .clink
    2292                      .global _DisablePeripheralClocks
    2293              
    2294              $C$DW$105       .dwtag  DW_TAG_subprogram
    2295                      .dwattr $C$DW$105, DW_AT_name("DisablePeripheralClocks")
    2296                      .dwattr $C$DW$105, DW_AT_low_pc(_DisablePeripheralClocks)
    2297                      .dwattr $C$DW$105, DW_AT_high_pc(0x00)
    2298                      .dwattr $C$DW$105, DW_AT_TI_symbol_name("_DisablePeripheralClocks")
    2299                      .dwattr $C$DW$105, DW_AT_external
    2300                      .dwattr $C$DW$105, DW_AT_TI_begin_file("../DeviceSupport/source/f28003x_sysctrl.c")
    2301                      .dwattr $C$DW$105, DW_AT_TI_begin_line(0xec)
    2302                      .dwattr $C$DW$105, DW_AT_TI_begin_column(0x06)
    2303                      .dwattr $C$DW$105, DW_AT_TI_max_frame_size(-2)
    2304                      .dwpsn  file "../DeviceSupport/source/f28003x_sysctrl.c",line 237,column 1,is_stmt,address _DisablePe
    2305              
    2306                      .dwfde $C$DW$CIE, _DisablePeripheralClocks
    2307              
    2308              ;***************************************************************
    2309              ;* FNAME: _DisablePeripheralClocks      FR SIZE:   0           *
    2310              ;*                                                             *
    2311              ;* FUNCTION ENVIRONMENT                                        *
    2312              ;*                                                             *
    2313              ;* FUNCTION PROPERTIES                                         *
    2314              ;*                            0 Parameter,  0 Auto,  0 SOE     *
    2315              ;***************************************************************
    2316              
    2317 00000000       _DisablePeripheralClocks:
    2318                      .dwcfi  cfa_offset, -2
    2319                      .dwcfi  save_reg_to_mem, 26, 0
    2320                      .dwpsn  file "../DeviceSupport/source/f28003x_sysctrl.c",line 238,column 5,is_stmt,isa 0
TMS320C2000 Assembler PC v22.6.1 Wed May 21 09:51:55 2025

Copyright (c) 1996-2018 Texas Instruments Incorporated
C:\Users\Daniel\AppData\Local\Temp\{78ED34F4-3C3B-4D89-8F5D-B64BD43A86E6} PAGE   47

    2321 00000000 7622          EALLOW    ; [CPU_ALU] |238| 
    2322                      .dwpsn  file "../DeviceSupport/source/f28003x_sysctrl.c",line 240,column 5,is_stmt,isa 0
    2323 00000001 D400          MOVB      XAR4,#0               ; [CPU_ALU] |240| 
    2324 00000002 761F!         MOVW      DP,#_CpuSysRegs+34    ; [CPU_ARAU] 
         00000003 0000 
    2325                      .dwpsn  file "../DeviceSupport/source/f28003x_sysctrl.c",line 241,column 5,is_stmt,isa 0
    2326 00000004 3100          MOV       P,#0                  ; [CPU_ALU] |241| 
    2327                      .dwpsn  file "../DeviceSupport/source/f28003x_sysctrl.c",line 242,column 5,is_stmt,isa 0
    2328 00000005 BE00          MOVB      XAR6,#0               ; [CPU_ALU] |242| 
    2329                      .dwpsn  file "../DeviceSupport/source/f28003x_sysctrl.c",line 243,column 5,is_stmt,isa 0
    2330 00000006 B600          MOVB      XAR7,#0               ; [CPU_ALU] |243| 
    2331                      .dwpsn  file "../DeviceSupport/source/f28003x_sysctrl.c",line 244,column 5,is_stmt,isa 0
    2332 00000007 0200          MOVB      ACC,#0                ; [CPU_ALU] |244| 
    2333                      .dwpsn  file "../DeviceSupport/source/f28003x_sysctrl.c",line 246,column 5,is_stmt,isa 0
    2334 00000008 D500          MOVB      XAR5,#0               ; [CPU_ALU] |246| 
    2335                      .dwpsn  file "../DeviceSupport/source/f28003x_sysctrl.c",line 253,column 5,is_stmt,isa 0
    2336 00000009 D000          MOVB      XAR0,#0               ; [CPU_ALU] |253| 
    2337                      .dwpsn  file "../DeviceSupport/source/f28003x_sysctrl.c",line 240,column 5,is_stmt,isa 0
    2338 0000000a A822!         MOVL      @$BLOCKED(_CpuSysRegs)+34,XAR4 ; [CPU_ALU] |240| 
    2339                      .dwpsn  file "../DeviceSupport/source/f28003x_sysctrl.c",line 241,column 5,is_stmt,isa 0
    2340 0000000b A926!         MOVL      @$BLOCKED(_CpuSysRegs)+38,P ; [CPU_ALU] |241| 
    2341                      .dwpsn  file "../DeviceSupport/source/f28003x_sysctrl.c",line 242,column 5,is_stmt,isa 0
    2342 0000000c C228!         MOVL      @$BLOCKED(_CpuSysRegs)+40,XAR6 ; [CPU_ALU] |242| 
    2343                      .dwpsn  file "../DeviceSupport/source/f28003x_sysctrl.c",line 243,column 5,is_stmt,isa 0
    2344 0000000d C32A!         MOVL      @$BLOCKED(_CpuSysRegs)+42,XAR7 ; [CPU_ALU] |243| 
    2345                      .dwpsn  file "../DeviceSupport/source/f28003x_sysctrl.c",line 244,column 5,is_stmt,isa 0
    2346 0000000e 1E2E!         MOVL      @$BLOCKED(_CpuSysRegs)+46,ACC ; [CPU_ALU] |244| 
    2347                      .dwpsn  file "../DeviceSupport/source/f28003x_sysctrl.c",line 245,column 5,is_stmt,isa 0
    2348 0000000f C230!         MOVL      @$BLOCKED(_CpuSysRegs)+48,XAR6 ; [CPU_ALU] |245| 
    2349                      .dwpsn  file "../DeviceSupport/source/f28003x_sysctrl.c",line 246,column 5,is_stmt,isa 0
    2350 00000010 A032!         MOVL      @$BLOCKED(_CpuSysRegs)+50,XAR5 ; [CPU_ALU] |246| 
    2351                      .dwpsn  file "../DeviceSupport/source/f28003x_sysctrl.c",line 247,column 5,is_stmt,isa 0
    2352 00000011 A834!         MOVL      @$BLOCKED(_CpuSysRegs)+52,XAR4 ; [CPU_ALU] |247| 
    2353                      .dwpsn  file "../DeviceSupport/source/f28003x_sysctrl.c",line 248,column 5,is_stmt,isa 0
    2354 00000012 A936!         MOVL      @$BLOCKED(_CpuSysRegs)+54,P ; [CPU_ALU] |248| 
    2355                      .dwpsn  file "../DeviceSupport/source/f28003x_sysctrl.c",line 249,column 5,is_stmt,isa 0
    2356 00000013 1E3C!         MOVL      @$BLOCKED(_CpuSysRegs)+60,ACC ; [CPU_ALU] |249| 
    2357                      .dwpsn  file "../DeviceSupport/source/f28003x_sysctrl.c",line 250,column 5,is_stmt,isa 0
    2358 00000014 C33E!         MOVL      @$BLOCKED(_CpuSysRegs)+62,XAR7 ; [CPU_ALU] |250| 
    2359 00000015 761F!         MOVW      DP,#_CpuSysRegs+66    ; [CPU_ARAU] 
         00000016 0001 
    2360                      .dwpsn  file "../DeviceSupport/source/f28003x_sysctrl.c",line 251,column 5,is_stmt,isa 0
    2361 00000017 C202!         MOVL      @$BLOCKED(_CpuSysRegs)+66,XAR6 ; [CPU_ALU] |251| 
    2362                      .dwpsn  file "../DeviceSupport/source/f28003x_sysctrl.c",line 252,column 5,is_stmt,isa 0
    2363 00000018 1E04!         MOVL      @$BLOCKED(_CpuSysRegs)+68,ACC ; [CPU_ALU] |252| 
    2364                      .dwpsn  file "../DeviceSupport/source/f28003x_sysctrl.c",line 253,column 5,is_stmt,isa 0
    2365 00000019 3A06!         MOVL      @$BLOCKED(_CpuSysRegs)+70,XAR0 ; [CPU_ALU] |253| 
    2366                      .dwpsn  file "../DeviceSupport/source/f28003x_sysctrl.c",line 254,column 5,is_stmt,isa 0
    2367 0000001a A008!         MOVL      @$BLOCKED(_CpuSysRegs)+72,XAR5 ; [CPU_ALU] |254| 
    2368                      .dwpsn  file "../DeviceSupport/source/f28003x_sysctrl.c",line 255,column 5,is_stmt,isa 0
    2369 0000001b A80A!         MOVL      @$BLOCKED(_CpuSysRegs)+74,XAR4 ; [CPU_ALU] |255| 
    2370                      .dwpsn  file "../DeviceSupport/source/f28003x_sysctrl.c",line 256,column 5,is_stmt,isa 0
    2371 0000001c A90C!         MOVL      @$BLOCKED(_CpuSysRegs)+76,P ; [CPU_ALU] |256| 
    2372                      .dwpsn  file "../DeviceSupport/source/f28003x_sysctrl.c",line 257,column 5,is_stmt,isa 0
    2373 0000001d C314!         MOVL      @$BLOCKED(_CpuSysRegs)+84,XAR7 ; [CPU_ALU] |257| 
TMS320C2000 Assembler PC v22.6.1 Wed May 21 09:51:55 2025

Copyright (c) 1996-2018 Texas Instruments Incorporated
C:\Users\Daniel\AppData\Local\Temp\{78ED34F4-3C3B-4D89-8F5D-B64BD43A86E6} PAGE   48

    2374                      .dwpsn  file "../DeviceSupport/source/f28003x_sysctrl.c",line 258,column 5,is_stmt,isa 0
    2375 0000001e C216!         MOVL      @$BLOCKED(_CpuSysRegs)+86,XAR6 ; [CPU_ALU] |258| 
    2376                      .dwpsn  file "../DeviceSupport/source/f28003x_sysctrl.c",line 259,column 5,is_stmt,isa 0
    2377 0000001f 1E18!         MOVL      @$BLOCKED(_CpuSysRegs)+88,ACC ; [CPU_ALU] |259| 
    2378                      .dwpsn  file "../DeviceSupport/source/f28003x_sysctrl.c",line 261,column 5,is_stmt,isa 0
    2379 00000020 761A          EDIS      ; [CPU_ALU] |261| 
    2380              $C$DW$106       .dwtag  DW_TAG_TI_branch
    2381                      .dwattr $C$DW$106, DW_AT_low_pc(0x00)
    2382                      .dwattr $C$DW$106, DW_AT_TI_return
    2383              
    2384 00000021 0006          LRETR     ; [CPU_ALU] 
    2385                      ; return occurs ; [] 
    2386                      .dwattr $C$DW$105, DW_AT_TI_end_file("../DeviceSupport/source/f28003x_sysctrl.c")
    2387                      .dwattr $C$DW$105, DW_AT_TI_end_line(0x106)
    2388                      .dwattr $C$DW$105, DW_AT_TI_end_column(0x01)
    2389                      .dwendentry
    2390                      .dwendtag $C$DW$105
    2391              
    2392              ;**************************************************************
    2393              ;* UNDEFINED EXTERNAL REFERENCES                              *
    2394              ;**************************************************************
    2395                      .global _F28x_usDelay
    2396                      .global _RamfuncsLoadStart
    2397                      .global _RamfuncsLoadSize
    2398                      .global _RamfuncsRunStart
    2399                      .global _Flash0EccRegs
    2400                      .global _WdRegs
    2401                      .global _Dcc0Regs
    2402                      .global _Dcc1Regs
    2403                      .global _ClkCfgRegs
    2404                      .global _CpuSysRegs
    2405                      .global _Flash0CtrlRegs
    2406                      .global FS$$DIV
    2407                      .global _memcpy
    2408              
    2409              ;***************************************************************
    2410              ;* TYPE INFORMATION                                            *
    2411              ;***************************************************************
    2412              
    2413              $C$DW$T$20      .dwtag  DW_TAG_structure_type
    2414                      .dwattr $C$DW$T$20, DW_AT_name("AUXCLKDIVSEL_BITS")
    2415                      .dwattr $C$DW$T$20, DW_AT_byte_size(0x02)
    2416              $C$DW$107       .dwtag  DW_TAG_member
    2417                      .dwattr $C$DW$107, DW_AT_type(*$C$DW$T$19)
    2418                      .dwattr $C$DW$107, DW_AT_name("rsvd1")
    2419                      .dwattr $C$DW$107, DW_AT_TI_symbol_name("_rsvd1")
    2420                      .dwattr $C$DW$107, DW_AT_bit_offset(0x0d)
    2421                      .dwattr $C$DW$107, DW_AT_bit_size(0x03)
    2422                      .dwattr $C$DW$107, DW_AT_data_member_location[DW_OP_plus_uconst 0x0]
    2423                      .dwattr $C$DW$107, DW_AT_accessibility(DW_ACCESS_public)
    2424              
    2425              $C$DW$108       .dwtag  DW_TAG_member
    2426                      .dwattr $C$DW$108, DW_AT_type(*$C$DW$T$19)
    2427                      .dwattr $C$DW$108, DW_AT_name("rsvd2")
    2428                      .dwattr $C$DW$108, DW_AT_TI_symbol_name("_rsvd2")
TMS320C2000 Assembler PC v22.6.1 Wed May 21 09:51:55 2025

Copyright (c) 1996-2018 Texas Instruments Incorporated
C:\Users\Daniel\AppData\Local\Temp\{78ED34F4-3C3B-4D89-8F5D-B64BD43A86E6} PAGE   49

    2429                      .dwattr $C$DW$108, DW_AT_bit_offset(0x08)
    2430                      .dwattr $C$DW$108, DW_AT_bit_size(0x05)
    2431                      .dwattr $C$DW$108, DW_AT_data_member_location[DW_OP_plus_uconst 0x0]
    2432                      .dwattr $C$DW$108, DW_AT_accessibility(DW_ACCESS_public)
    2433              
    2434              $C$DW$109       .dwtag  DW_TAG_member
    2435                      .dwattr $C$DW$109, DW_AT_type(*$C$DW$T$19)
    2436                      .dwattr $C$DW$109, DW_AT_name("MCANCLKDIV")
    2437                      .dwattr $C$DW$109, DW_AT_TI_symbol_name("_MCANCLKDIV")
    2438                      .dwattr $C$DW$109, DW_AT_bit_offset(0x03)
    2439                      .dwattr $C$DW$109, DW_AT_bit_size(0x05)
    2440                      .dwattr $C$DW$109, DW_AT_data_member_location[DW_OP_plus_uconst 0x0]
    2441                      .dwattr $C$DW$109, DW_AT_accessibility(DW_ACCESS_public)
    2442              
    2443              $C$DW$110       .dwtag  DW_TAG_member
    2444                      .dwattr $C$DW$110, DW_AT_type(*$C$DW$T$19)
    2445                      .dwattr $C$DW$110, DW_AT_name("rsvd3")
    2446                      .dwattr $C$DW$110, DW_AT_TI_symbol_name("_rsvd3")
    2447                      .dwattr $C$DW$110, DW_AT_bit_offset(0x00)
    2448                      .dwattr $C$DW$110, DW_AT_bit_size(0x03)
    2449                      .dwattr $C$DW$110, DW_AT_data_member_location[DW_OP_plus_uconst 0x0]
    2450                      .dwattr $C$DW$110, DW_AT_accessibility(DW_ACCESS_public)
    2451              
    2452              $C$DW$111       .dwtag  DW_TAG_member
    2453                      .dwattr $C$DW$111, DW_AT_type(*$C$DW$T$19)
    2454                      .dwattr $C$DW$111, DW_AT_name("rsvd4")
    2455                      .dwattr $C$DW$111, DW_AT_TI_symbol_name("_rsvd4")
    2456                      .dwattr $C$DW$111, DW_AT_bit_offset(0x00)
    2457                      .dwattr $C$DW$111, DW_AT_bit_size(0x10)
    2458                      .dwattr $C$DW$111, DW_AT_data_member_location[DW_OP_plus_uconst 0x1]
    2459                      .dwattr $C$DW$111, DW_AT_accessibility(DW_ACCESS_public)
    2460              
    2461                      .dwendtag $C$DW$T$20
    2462              
    2463              
    2464              $C$DW$T$22      .dwtag  DW_TAG_union_type
    2465                      .dwattr $C$DW$T$22, DW_AT_name("AUXCLKDIVSEL_REG")
    2466                      .dwattr $C$DW$T$22, DW_AT_byte_size(0x02)
    2467              $C$DW$112       .dwtag  DW_TAG_member
    2468                      .dwattr $C$DW$112, DW_AT_type(*$C$DW$T$21)
    2469                      .dwattr $C$DW$112, DW_AT_name("all")
    2470                      .dwattr $C$DW$112, DW_AT_TI_symbol_name("_all")
    2471                      .dwattr $C$DW$112, DW_AT_data_member_location[DW_OP_plus_uconst 0x0]
    2472                      .dwattr $C$DW$112, DW_AT_accessibility(DW_ACCESS_public)
    2473              
    2474              $C$DW$113       .dwtag  DW_TAG_member
    2475                      .dwattr $C$DW$113, DW_AT_type(*$C$DW$T$20)
    2476                      .dwattr $C$DW$113, DW_AT_name("bit")
    2477                      .dwattr $C$DW$113, DW_AT_TI_symbol_name("_bit")
    2478                      .dwattr $C$DW$113, DW_AT_data_member_location[DW_OP_plus_uconst 0x0]
    2479                      .dwattr $C$DW$113, DW_AT_accessibility(DW_ACCESS_public)
    2480              
    2481                      .dwendtag $C$DW$T$22
    2482              
    2483              
TMS320C2000 Assembler PC v22.6.1 Wed May 21 09:51:55 2025

Copyright (c) 1996-2018 Texas Instruments Incorporated
C:\Users\Daniel\AppData\Local\Temp\{78ED34F4-3C3B-4D89-8F5D-B64BD43A86E6} PAGE   50

    2484              $C$DW$T$23      .dwtag  DW_TAG_structure_type
    2485                      .dwattr $C$DW$T$23, DW_AT_name("CLKCFGLOCK1_BITS")
    2486                      .dwattr $C$DW$T$23, DW_AT_byte_size(0x02)
    2487              $C$DW$114       .dwtag  DW_TAG_member
    2488                      .dwattr $C$DW$114, DW_AT_type(*$C$DW$T$19)
    2489                      .dwattr $C$DW$114, DW_AT_name("CLKSRCCTL1")
    2490                      .dwattr $C$DW$114, DW_AT_TI_symbol_name("_CLKSRCCTL1")
    2491                      .dwattr $C$DW$114, DW_AT_bit_offset(0x0f)
    2492                      .dwattr $C$DW$114, DW_AT_bit_size(0x01)
    2493                      .dwattr $C$DW$114, DW_AT_data_member_location[DW_OP_plus_uconst 0x0]
    2494                      .dwattr $C$DW$114, DW_AT_accessibility(DW_ACCESS_public)
    2495              
    2496              $C$DW$115       .dwtag  DW_TAG_member
    2497                      .dwattr $C$DW$115, DW_AT_type(*$C$DW$T$19)
    2498                      .dwattr $C$DW$115, DW_AT_name("CLKSRCCTL2")
    2499                      .dwattr $C$DW$115, DW_AT_TI_symbol_name("_CLKSRCCTL2")
    2500                      .dwattr $C$DW$115, DW_AT_bit_offset(0x0e)
    2501                      .dwattr $C$DW$115, DW_AT_bit_size(0x01)
    2502                      .dwattr $C$DW$115, DW_AT_data_member_location[DW_OP_plus_uconst 0x0]
    2503                      .dwattr $C$DW$115, DW_AT_accessibility(DW_ACCESS_public)
    2504              
    2505              $C$DW$116       .dwtag  DW_TAG_member
    2506                      .dwattr $C$DW$116, DW_AT_type(*$C$DW$T$19)
    2507                      .dwattr $C$DW$116, DW_AT_name("CLKSRCCTL3")
    2508                      .dwattr $C$DW$116, DW_AT_TI_symbol_name("_CLKSRCCTL3")
    2509                      .dwattr $C$DW$116, DW_AT_bit_offset(0x0d)
    2510                      .dwattr $C$DW$116, DW_AT_bit_size(0x01)
    2511                      .dwattr $C$DW$116, DW_AT_data_member_location[DW_OP_plus_uconst 0x0]
    2512                      .dwattr $C$DW$116, DW_AT_accessibility(DW_ACCESS_public)
    2513              
    2514              $C$DW$117       .dwtag  DW_TAG_member
    2515                      .dwattr $C$DW$117, DW_AT_type(*$C$DW$T$19)
    2516                      .dwattr $C$DW$117, DW_AT_name("SYSPLLCTL1")
    2517                      .dwattr $C$DW$117, DW_AT_TI_symbol_name("_SYSPLLCTL1")
    2518                      .dwattr $C$DW$117, DW_AT_bit_offset(0x0c)
    2519                      .dwattr $C$DW$117, DW_AT_bit_size(0x01)
    2520                      .dwattr $C$DW$117, DW_AT_data_member_location[DW_OP_plus_uconst 0x0]
    2521                      .dwattr $C$DW$117, DW_AT_accessibility(DW_ACCESS_public)
    2522              
    2523              $C$DW$118       .dwtag  DW_TAG_member
    2524                      .dwattr $C$DW$118, DW_AT_type(*$C$DW$T$19)
    2525                      .dwattr $C$DW$118, DW_AT_name("rsvd1")
    2526                      .dwattr $C$DW$118, DW_AT_TI_symbol_name("_rsvd1")
    2527                      .dwattr $C$DW$118, DW_AT_bit_offset(0x0b)
    2528                      .dwattr $C$DW$118, DW_AT_bit_size(0x01)
    2529                      .dwattr $C$DW$118, DW_AT_data_member_location[DW_OP_plus_uconst 0x0]
    2530                      .dwattr $C$DW$118, DW_AT_accessibility(DW_ACCESS_public)
    2531              
    2532              $C$DW$119       .dwtag  DW_TAG_member
    2533                      .dwattr $C$DW$119, DW_AT_type(*$C$DW$T$19)
    2534                      .dwattr $C$DW$119, DW_AT_name("rsvd2")
    2535                      .dwattr $C$DW$119, DW_AT_TI_symbol_name("_rsvd2")
    2536                      .dwattr $C$DW$119, DW_AT_bit_offset(0x0a)
    2537                      .dwattr $C$DW$119, DW_AT_bit_size(0x01)
    2538                      .dwattr $C$DW$119, DW_AT_data_member_location[DW_OP_plus_uconst 0x0]
TMS320C2000 Assembler PC v22.6.1 Wed May 21 09:51:55 2025

Copyright (c) 1996-2018 Texas Instruments Incorporated
C:\Users\Daniel\AppData\Local\Temp\{78ED34F4-3C3B-4D89-8F5D-B64BD43A86E6} PAGE   51

    2539                      .dwattr $C$DW$119, DW_AT_accessibility(DW_ACCESS_public)
    2540              
    2541              $C$DW$120       .dwtag  DW_TAG_member
    2542                      .dwattr $C$DW$120, DW_AT_type(*$C$DW$T$19)
    2543                      .dwattr $C$DW$120, DW_AT_name("SYSPLLMULT")
    2544                      .dwattr $C$DW$120, DW_AT_TI_symbol_name("_SYSPLLMULT")
    2545                      .dwattr $C$DW$120, DW_AT_bit_offset(0x09)
    2546                      .dwattr $C$DW$120, DW_AT_bit_size(0x01)
    2547                      .dwattr $C$DW$120, DW_AT_data_member_location[DW_OP_plus_uconst 0x0]
    2548                      .dwattr $C$DW$120, DW_AT_accessibility(DW_ACCESS_public)
    2549              
    2550              $C$DW$121       .dwtag  DW_TAG_member
    2551                      .dwattr $C$DW$121, DW_AT_type(*$C$DW$T$19)
    2552                      .dwattr $C$DW$121, DW_AT_name("rsvd3")
    2553                      .dwattr $C$DW$121, DW_AT_TI_symbol_name("_rsvd3")
    2554                      .dwattr $C$DW$121, DW_AT_bit_offset(0x08)
    2555                      .dwattr $C$DW$121, DW_AT_bit_size(0x01)
    2556                      .dwattr $C$DW$121, DW_AT_data_member_location[DW_OP_plus_uconst 0x0]
    2557                      .dwattr $C$DW$121, DW_AT_accessibility(DW_ACCESS_public)
    2558              
    2559              $C$DW$122       .dwtag  DW_TAG_member
    2560                      .dwattr $C$DW$122, DW_AT_type(*$C$DW$T$19)
    2561                      .dwattr $C$DW$122, DW_AT_name("rsvd4")
    2562                      .dwattr $C$DW$122, DW_AT_TI_symbol_name("_rsvd4")
    2563                      .dwattr $C$DW$122, DW_AT_bit_offset(0x07)
    2564                      .dwattr $C$DW$122, DW_AT_bit_size(0x01)
    2565                      .dwattr $C$DW$122, DW_AT_data_member_location[DW_OP_plus_uconst 0x0]
    2566                      .dwattr $C$DW$122, DW_AT_accessibility(DW_ACCESS_public)
    2567              
    2568              $C$DW$123       .dwtag  DW_TAG_member
    2569                      .dwattr $C$DW$123, DW_AT_type(*$C$DW$T$19)
    2570                      .dwattr $C$DW$123, DW_AT_name("rsvd5")
    2571                      .dwattr $C$DW$123, DW_AT_TI_symbol_name("_rsvd5")
    2572                      .dwattr $C$DW$123, DW_AT_bit_offset(0x06)
    2573                      .dwattr $C$DW$123, DW_AT_bit_size(0x01)
    2574                      .dwattr $C$DW$123, DW_AT_data_member_location[DW_OP_plus_uconst 0x0]
    2575                      .dwattr $C$DW$123, DW_AT_accessibility(DW_ACCESS_public)
    2576              
    2577              $C$DW$124       .dwtag  DW_TAG_member
    2578                      .dwattr $C$DW$124, DW_AT_type(*$C$DW$T$19)
    2579                      .dwattr $C$DW$124, DW_AT_name("rsvd6")
    2580                      .dwattr $C$DW$124, DW_AT_TI_symbol_name("_rsvd6")
    2581                      .dwattr $C$DW$124, DW_AT_bit_offset(0x05)
    2582                      .dwattr $C$DW$124, DW_AT_bit_size(0x01)
    2583                      .dwattr $C$DW$124, DW_AT_data_member_location[DW_OP_plus_uconst 0x0]
    2584                      .dwattr $C$DW$124, DW_AT_accessibility(DW_ACCESS_public)
    2585              
    2586              $C$DW$125       .dwtag  DW_TAG_member
    2587                      .dwattr $C$DW$125, DW_AT_type(*$C$DW$T$19)
    2588                      .dwattr $C$DW$125, DW_AT_name("SYSCLKDIVSEL")
    2589                      .dwattr $C$DW$125, DW_AT_TI_symbol_name("_SYSCLKDIVSEL")
    2590                      .dwattr $C$DW$125, DW_AT_bit_offset(0x04)
    2591                      .dwattr $C$DW$125, DW_AT_bit_size(0x01)
    2592                      .dwattr $C$DW$125, DW_AT_data_member_location[DW_OP_plus_uconst 0x0]
    2593                      .dwattr $C$DW$125, DW_AT_accessibility(DW_ACCESS_public)
TMS320C2000 Assembler PC v22.6.1 Wed May 21 09:51:55 2025

Copyright (c) 1996-2018 Texas Instruments Incorporated
C:\Users\Daniel\AppData\Local\Temp\{78ED34F4-3C3B-4D89-8F5D-B64BD43A86E6} PAGE   52

    2594              
    2595              $C$DW$126       .dwtag  DW_TAG_member
    2596                      .dwattr $C$DW$126, DW_AT_type(*$C$DW$T$19)
    2597                      .dwattr $C$DW$126, DW_AT_name("AUXCLKDIVSEL")
    2598                      .dwattr $C$DW$126, DW_AT_TI_symbol_name("_AUXCLKDIVSEL")
    2599                      .dwattr $C$DW$126, DW_AT_bit_offset(0x03)
    2600                      .dwattr $C$DW$126, DW_AT_bit_size(0x01)
    2601                      .dwattr $C$DW$126, DW_AT_data_member_location[DW_OP_plus_uconst 0x0]
    2602                      .dwattr $C$DW$126, DW_AT_accessibility(DW_ACCESS_public)
    2603              
    2604              $C$DW$127       .dwtag  DW_TAG_member
    2605                      .dwattr $C$DW$127, DW_AT_type(*$C$DW$T$19)
    2606                      .dwattr $C$DW$127, DW_AT_name("PERCLKDIVSEL")
    2607                      .dwattr $C$DW$127, DW_AT_TI_symbol_name("_PERCLKDIVSEL")
    2608                      .dwattr $C$DW$127, DW_AT_bit_offset(0x02)
    2609                      .dwattr $C$DW$127, DW_AT_bit_size(0x01)
    2610                      .dwattr $C$DW$127, DW_AT_data_member_location[DW_OP_plus_uconst 0x0]
    2611                      .dwattr $C$DW$127, DW_AT_accessibility(DW_ACCESS_public)
    2612              
    2613              $C$DW$128       .dwtag  DW_TAG_member
    2614                      .dwattr $C$DW$128, DW_AT_type(*$C$DW$T$19)
    2615                      .dwattr $C$DW$128, DW_AT_name("rsvd7")
    2616                      .dwattr $C$DW$128, DW_AT_TI_symbol_name("_rsvd7")
    2617                      .dwattr $C$DW$128, DW_AT_bit_offset(0x01)
    2618                      .dwattr $C$DW$128, DW_AT_bit_size(0x01)
    2619                      .dwattr $C$DW$128, DW_AT_data_member_location[DW_OP_plus_uconst 0x0]
    2620                      .dwattr $C$DW$128, DW_AT_accessibility(DW_ACCESS_public)
    2621              
    2622              $C$DW$129       .dwtag  DW_TAG_member
    2623                      .dwattr $C$DW$129, DW_AT_type(*$C$DW$T$19)
    2624                      .dwattr $C$DW$129, DW_AT_name("LOSPCP")
    2625                      .dwattr $C$DW$129, DW_AT_TI_symbol_name("_LOSPCP")
    2626                      .dwattr $C$DW$129, DW_AT_bit_offset(0x00)
    2627                      .dwattr $C$DW$129, DW_AT_bit_size(0x01)
    2628                      .dwattr $C$DW$129, DW_AT_data_member_location[DW_OP_plus_uconst 0x0]
    2629                      .dwattr $C$DW$129, DW_AT_accessibility(DW_ACCESS_public)
    2630              
    2631              $C$DW$130       .dwtag  DW_TAG_member
    2632                      .dwattr $C$DW$130, DW_AT_type(*$C$DW$T$19)
    2633                      .dwattr $C$DW$130, DW_AT_name("XTALCR")
    2634                      .dwattr $C$DW$130, DW_AT_TI_symbol_name("_XTALCR")
    2635                      .dwattr $C$DW$130, DW_AT_bit_offset(0x0f)
    2636                      .dwattr $C$DW$130, DW_AT_bit_size(0x01)
    2637                      .dwattr $C$DW$130, DW_AT_data_member_location[DW_OP_plus_uconst 0x1]
    2638                      .dwattr $C$DW$130, DW_AT_accessibility(DW_ACCESS_public)
    2639              
    2640              $C$DW$131       .dwtag  DW_TAG_member
    2641                      .dwattr $C$DW$131, DW_AT_type(*$C$DW$T$19)
    2642                      .dwattr $C$DW$131, DW_AT_name("rsvd8")
    2643                      .dwattr $C$DW$131, DW_AT_TI_symbol_name("_rsvd8")
    2644                      .dwattr $C$DW$131, DW_AT_bit_offset(0x00)
    2645                      .dwattr $C$DW$131, DW_AT_bit_size(0x0f)
    2646                      .dwattr $C$DW$131, DW_AT_data_member_location[DW_OP_plus_uconst 0x1]
    2647                      .dwattr $C$DW$131, DW_AT_accessibility(DW_ACCESS_public)
    2648              
TMS320C2000 Assembler PC v22.6.1 Wed May 21 09:51:55 2025

Copyright (c) 1996-2018 Texas Instruments Incorporated
C:\Users\Daniel\AppData\Local\Temp\{78ED34F4-3C3B-4D89-8F5D-B64BD43A86E6} PAGE   53

    2649                      .dwendtag $C$DW$T$23
    2650              
    2651              
    2652              $C$DW$T$24      .dwtag  DW_TAG_union_type
    2653                      .dwattr $C$DW$T$24, DW_AT_name("CLKCFGLOCK1_REG")
    2654                      .dwattr $C$DW$T$24, DW_AT_byte_size(0x02)
    2655              $C$DW$132       .dwtag  DW_TAG_member
    2656                      .dwattr $C$DW$132, DW_AT_type(*$C$DW$T$21)
    2657                      .dwattr $C$DW$132, DW_AT_name("all")
    2658                      .dwattr $C$DW$132, DW_AT_TI_symbol_name("_all")
    2659                      .dwattr $C$DW$132, DW_AT_data_member_location[DW_OP_plus_uconst 0x0]
    2660                      .dwattr $C$DW$132, DW_AT_accessibility(DW_ACCESS_public)
    2661              
    2662              $C$DW$133       .dwtag  DW_TAG_member
    2663                      .dwattr $C$DW$133, DW_AT_type(*$C$DW$T$23)
    2664                      .dwattr $C$DW$133, DW_AT_name("bit")
    2665                      .dwattr $C$DW$133, DW_AT_TI_symbol_name("_bit")
    2666                      .dwattr $C$DW$133, DW_AT_data_member_location[DW_OP_plus_uconst 0x0]
    2667                      .dwattr $C$DW$133, DW_AT_accessibility(DW_ACCESS_public)
    2668              
    2669                      .dwendtag $C$DW$T$24
    2670              
    2671              
    2672              $C$DW$T$25      .dwtag  DW_TAG_structure_type
    2673                      .dwattr $C$DW$T$25, DW_AT_name("CLKFAILCFG_BITS")
    2674                      .dwattr $C$DW$T$25, DW_AT_byte_size(0x02)
    2675              $C$DW$134       .dwtag  DW_TAG_member
    2676                      .dwattr $C$DW$134, DW_AT_type(*$C$DW$T$19)
    2677                      .dwattr $C$DW$134, DW_AT_name("DCC0_ERROR_EN")
    2678                      .dwattr $C$DW$134, DW_AT_TI_symbol_name("_DCC0_ERROR_EN")
    2679                      .dwattr $C$DW$134, DW_AT_bit_offset(0x0f)
    2680                      .dwattr $C$DW$134, DW_AT_bit_size(0x01)
    2681                      .dwattr $C$DW$134, DW_AT_data_member_location[DW_OP_plus_uconst 0x0]
    2682                      .dwattr $C$DW$134, DW_AT_accessibility(DW_ACCESS_public)
    2683              
    2684              $C$DW$135       .dwtag  DW_TAG_member
    2685                      .dwattr $C$DW$135, DW_AT_type(*$C$DW$T$19)
    2686                      .dwattr $C$DW$135, DW_AT_name("DCC1_ERROR_EN")
    2687                      .dwattr $C$DW$135, DW_AT_TI_symbol_name("_DCC1_ERROR_EN")
    2688                      .dwattr $C$DW$135, DW_AT_bit_offset(0x0e)
    2689                      .dwattr $C$DW$135, DW_AT_bit_size(0x01)
    2690                      .dwattr $C$DW$135, DW_AT_data_member_location[DW_OP_plus_uconst 0x0]
    2691                      .dwattr $C$DW$135, DW_AT_accessibility(DW_ACCESS_public)
    2692              
    2693              $C$DW$136       .dwtag  DW_TAG_member
    2694                      .dwattr $C$DW$136, DW_AT_type(*$C$DW$T$19)
    2695                      .dwattr $C$DW$136, DW_AT_name("rsvd1")
    2696                      .dwattr $C$DW$136, DW_AT_TI_symbol_name("_rsvd1")
    2697                      .dwattr $C$DW$136, DW_AT_bit_offset(0x00)
    2698                      .dwattr $C$DW$136, DW_AT_bit_size(0x0e)
    2699                      .dwattr $C$DW$136, DW_AT_data_member_location[DW_OP_plus_uconst 0x0]
    2700                      .dwattr $C$DW$136, DW_AT_accessibility(DW_ACCESS_public)
    2701              
    2702              $C$DW$137       .dwtag  DW_TAG_member
    2703                      .dwattr $C$DW$137, DW_AT_type(*$C$DW$T$19)
TMS320C2000 Assembler PC v22.6.1 Wed May 21 09:51:55 2025

Copyright (c) 1996-2018 Texas Instruments Incorporated
C:\Users\Daniel\AppData\Local\Temp\{78ED34F4-3C3B-4D89-8F5D-B64BD43A86E6} PAGE   54

    2704                      .dwattr $C$DW$137, DW_AT_name("rsvd2")
    2705                      .dwattr $C$DW$137, DW_AT_TI_symbol_name("_rsvd2")
    2706                      .dwattr $C$DW$137, DW_AT_bit_offset(0x00)
    2707                      .dwattr $C$DW$137, DW_AT_bit_size(0x10)
    2708                      .dwattr $C$DW$137, DW_AT_data_member_location[DW_OP_plus_uconst 0x1]
    2709                      .dwattr $C$DW$137, DW_AT_accessibility(DW_ACCESS_public)
    2710              
    2711                      .dwendtag $C$DW$T$25
    2712              
    2713              
    2714              $C$DW$T$26      .dwtag  DW_TAG_union_type
    2715                      .dwattr $C$DW$T$26, DW_AT_name("CLKFAILCFG_REG")
    2716                      .dwattr $C$DW$T$26, DW_AT_byte_size(0x02)
    2717              $C$DW$138       .dwtag  DW_TAG_member
    2718                      .dwattr $C$DW$138, DW_AT_type(*$C$DW$T$21)
    2719                      .dwattr $C$DW$138, DW_AT_name("all")
    2720                      .dwattr $C$DW$138, DW_AT_TI_symbol_name("_all")
    2721                      .dwattr $C$DW$138, DW_AT_data_member_location[DW_OP_plus_uconst 0x0]
    2722                      .dwattr $C$DW$138, DW_AT_accessibility(DW_ACCESS_public)
    2723              
    2724              $C$DW$139       .dwtag  DW_TAG_member
    2725                      .dwattr $C$DW$139, DW_AT_type(*$C$DW$T$25)
    2726                      .dwattr $C$DW$139, DW_AT_name("bit")
    2727                      .dwattr $C$DW$139, DW_AT_TI_symbol_name("_bit")
    2728                      .dwattr $C$DW$139, DW_AT_data_member_location[DW_OP_plus_uconst 0x0]
    2729                      .dwattr $C$DW$139, DW_AT_accessibility(DW_ACCESS_public)
    2730              
    2731                      .dwendtag $C$DW$T$26
    2732              
    2733              
    2734              $C$DW$T$27      .dwtag  DW_TAG_structure_type
    2735                      .dwattr $C$DW$T$27, DW_AT_name("CLKSRCCTL1_BITS")
    2736                      .dwattr $C$DW$T$27, DW_AT_byte_size(0x02)
    2737              $C$DW$140       .dwtag  DW_TAG_member
    2738                      .dwattr $C$DW$140, DW_AT_type(*$C$DW$T$19)
    2739                      .dwattr $C$DW$140, DW_AT_name("OSCCLKSRCSEL")
    2740                      .dwattr $C$DW$140, DW_AT_TI_symbol_name("_OSCCLKSRCSEL")
    2741                      .dwattr $C$DW$140, DW_AT_bit_offset(0x0e)
    2742                      .dwattr $C$DW$140, DW_AT_bit_size(0x02)
    2743                      .dwattr $C$DW$140, DW_AT_data_member_location[DW_OP_plus_uconst 0x0]
    2744                      .dwattr $C$DW$140, DW_AT_accessibility(DW_ACCESS_public)
    2745              
    2746              $C$DW$141       .dwtag  DW_TAG_member
    2747                      .dwattr $C$DW$141, DW_AT_type(*$C$DW$T$19)
    2748                      .dwattr $C$DW$141, DW_AT_name("rsvd1")
    2749                      .dwattr $C$DW$141, DW_AT_TI_symbol_name("_rsvd1")
    2750                      .dwattr $C$DW$141, DW_AT_bit_offset(0x0d)
    2751                      .dwattr $C$DW$141, DW_AT_bit_size(0x01)
    2752                      .dwattr $C$DW$141, DW_AT_data_member_location[DW_OP_plus_uconst 0x0]
    2753                      .dwattr $C$DW$141, DW_AT_accessibility(DW_ACCESS_public)
    2754              
    2755              $C$DW$142       .dwtag  DW_TAG_member
    2756                      .dwattr $C$DW$142, DW_AT_type(*$C$DW$T$19)
    2757                      .dwattr $C$DW$142, DW_AT_name("INTOSC2OFF")
    2758                      .dwattr $C$DW$142, DW_AT_TI_symbol_name("_INTOSC2OFF")
TMS320C2000 Assembler PC v22.6.1 Wed May 21 09:51:55 2025

Copyright (c) 1996-2018 Texas Instruments Incorporated
C:\Users\Daniel\AppData\Local\Temp\{78ED34F4-3C3B-4D89-8F5D-B64BD43A86E6} PAGE   55

    2759                      .dwattr $C$DW$142, DW_AT_bit_offset(0x0c)
    2760                      .dwattr $C$DW$142, DW_AT_bit_size(0x01)
    2761                      .dwattr $C$DW$142, DW_AT_data_member_location[DW_OP_plus_uconst 0x0]
    2762                      .dwattr $C$DW$142, DW_AT_accessibility(DW_ACCESS_public)
    2763              
    2764              $C$DW$143       .dwtag  DW_TAG_member
    2765                      .dwattr $C$DW$143, DW_AT_type(*$C$DW$T$19)
    2766                      .dwattr $C$DW$143, DW_AT_name("rsvd2")
    2767                      .dwattr $C$DW$143, DW_AT_TI_symbol_name("_rsvd2")
    2768                      .dwattr $C$DW$143, DW_AT_bit_offset(0x0b)
    2769                      .dwattr $C$DW$143, DW_AT_bit_size(0x01)
    2770                      .dwattr $C$DW$143, DW_AT_data_member_location[DW_OP_plus_uconst 0x0]
    2771                      .dwattr $C$DW$143, DW_AT_accessibility(DW_ACCESS_public)
    2772              
    2773              $C$DW$144       .dwtag  DW_TAG_member
    2774                      .dwattr $C$DW$144, DW_AT_type(*$C$DW$T$19)
    2775                      .dwattr $C$DW$144, DW_AT_name("WDHALTI")
    2776                      .dwattr $C$DW$144, DW_AT_TI_symbol_name("_WDHALTI")
    2777                      .dwattr $C$DW$144, DW_AT_bit_offset(0x0a)
    2778                      .dwattr $C$DW$144, DW_AT_bit_size(0x01)
    2779                      .dwattr $C$DW$144, DW_AT_data_member_location[DW_OP_plus_uconst 0x0]
    2780                      .dwattr $C$DW$144, DW_AT_accessibility(DW_ACCESS_public)
    2781              
    2782              $C$DW$145       .dwtag  DW_TAG_member
    2783                      .dwattr $C$DW$145, DW_AT_type(*$C$DW$T$19)
    2784                      .dwattr $C$DW$145, DW_AT_name("rsvd3")
    2785                      .dwattr $C$DW$145, DW_AT_TI_symbol_name("_rsvd3")
    2786                      .dwattr $C$DW$145, DW_AT_bit_offset(0x00)
    2787                      .dwattr $C$DW$145, DW_AT_bit_size(0x0a)
    2788                      .dwattr $C$DW$145, DW_AT_data_member_location[DW_OP_plus_uconst 0x0]
    2789                      .dwattr $C$DW$145, DW_AT_accessibility(DW_ACCESS_public)
    2790              
    2791              $C$DW$146       .dwtag  DW_TAG_member
    2792                      .dwattr $C$DW$146, DW_AT_type(*$C$DW$T$19)
    2793                      .dwattr $C$DW$146, DW_AT_name("rsvd4")
    2794                      .dwattr $C$DW$146, DW_AT_TI_symbol_name("_rsvd4")
    2795                      .dwattr $C$DW$146, DW_AT_bit_offset(0x00)
    2796                      .dwattr $C$DW$146, DW_AT_bit_size(0x10)
    2797                      .dwattr $C$DW$146, DW_AT_data_member_location[DW_OP_plus_uconst 0x1]
    2798                      .dwattr $C$DW$146, DW_AT_accessibility(DW_ACCESS_public)
    2799              
    2800                      .dwendtag $C$DW$T$27
    2801              
    2802              
    2803              $C$DW$T$28      .dwtag  DW_TAG_union_type
    2804                      .dwattr $C$DW$T$28, DW_AT_name("CLKSRCCTL1_REG")
    2805                      .dwattr $C$DW$T$28, DW_AT_byte_size(0x02)
    2806              $C$DW$147       .dwtag  DW_TAG_member
    2807                      .dwattr $C$DW$147, DW_AT_type(*$C$DW$T$21)
    2808                      .dwattr $C$DW$147, DW_AT_name("all")
    2809                      .dwattr $C$DW$147, DW_AT_TI_symbol_name("_all")
    2810                      .dwattr $C$DW$147, DW_AT_data_member_location[DW_OP_plus_uconst 0x0]
    2811                      .dwattr $C$DW$147, DW_AT_accessibility(DW_ACCESS_public)
    2812              
    2813              $C$DW$148       .dwtag  DW_TAG_member
TMS320C2000 Assembler PC v22.6.1 Wed May 21 09:51:55 2025

Copyright (c) 1996-2018 Texas Instruments Incorporated
C:\Users\Daniel\AppData\Local\Temp\{78ED34F4-3C3B-4D89-8F5D-B64BD43A86E6} PAGE   56

    2814                      .dwattr $C$DW$148, DW_AT_type(*$C$DW$T$27)
    2815                      .dwattr $C$DW$148, DW_AT_name("bit")
    2816                      .dwattr $C$DW$148, DW_AT_TI_symbol_name("_bit")
    2817                      .dwattr $C$DW$148, DW_AT_data_member_location[DW_OP_plus_uconst 0x0]
    2818                      .dwattr $C$DW$148, DW_AT_accessibility(DW_ACCESS_public)
    2819              
    2820                      .dwendtag $C$DW$T$28
    2821              
    2822              
    2823              $C$DW$T$29      .dwtag  DW_TAG_structure_type
    2824                      .dwattr $C$DW$T$29, DW_AT_name("CLKSRCCTL2_BITS")
    2825                      .dwattr $C$DW$T$29, DW_AT_byte_size(0x02)
    2826              $C$DW$149       .dwtag  DW_TAG_member
    2827                      .dwattr $C$DW$149, DW_AT_type(*$C$DW$T$19)
    2828                      .dwattr $C$DW$149, DW_AT_name("rsvd1")
    2829                      .dwattr $C$DW$149, DW_AT_TI_symbol_name("_rsvd1")
    2830                      .dwattr $C$DW$149, DW_AT_bit_offset(0x0e)
    2831                      .dwattr $C$DW$149, DW_AT_bit_size(0x02)
    2832                      .dwattr $C$DW$149, DW_AT_data_member_location[DW_OP_plus_uconst 0x0]
    2833                      .dwattr $C$DW$149, DW_AT_accessibility(DW_ACCESS_public)
    2834              
    2835              $C$DW$150       .dwtag  DW_TAG_member
    2836                      .dwattr $C$DW$150, DW_AT_type(*$C$DW$T$19)
    2837                      .dwattr $C$DW$150, DW_AT_name("CANABCLKSEL")
    2838                      .dwattr $C$DW$150, DW_AT_TI_symbol_name("_CANABCLKSEL")
    2839                      .dwattr $C$DW$150, DW_AT_bit_offset(0x0c)
    2840                      .dwattr $C$DW$150, DW_AT_bit_size(0x02)
    2841                      .dwattr $C$DW$150, DW_AT_data_member_location[DW_OP_plus_uconst 0x0]
    2842                      .dwattr $C$DW$150, DW_AT_accessibility(DW_ACCESS_public)
    2843              
    2844              $C$DW$151       .dwtag  DW_TAG_member
    2845                      .dwattr $C$DW$151, DW_AT_type(*$C$DW$T$19)
    2846                      .dwattr $C$DW$151, DW_AT_name("rsvd2")
    2847                      .dwattr $C$DW$151, DW_AT_TI_symbol_name("_rsvd2")
    2848                      .dwattr $C$DW$151, DW_AT_bit_offset(0x0a)
    2849                      .dwattr $C$DW$151, DW_AT_bit_size(0x02)
    2850                      .dwattr $C$DW$151, DW_AT_data_member_location[DW_OP_plus_uconst 0x0]
    2851                      .dwattr $C$DW$151, DW_AT_accessibility(DW_ACCESS_public)
    2852              
    2853              $C$DW$152       .dwtag  DW_TAG_member
    2854                      .dwattr $C$DW$152, DW_AT_type(*$C$DW$T$19)
    2855                      .dwattr $C$DW$152, DW_AT_name("rsvd3")
    2856                      .dwattr $C$DW$152, DW_AT_TI_symbol_name("_rsvd3")
    2857                      .dwattr $C$DW$152, DW_AT_bit_offset(0x08)
    2858                      .dwattr $C$DW$152, DW_AT_bit_size(0x02)
    2859                      .dwattr $C$DW$152, DW_AT_data_member_location[DW_OP_plus_uconst 0x0]
    2860                      .dwattr $C$DW$152, DW_AT_accessibility(DW_ACCESS_public)
    2861              
    2862              $C$DW$153       .dwtag  DW_TAG_member
    2863                      .dwattr $C$DW$153, DW_AT_type(*$C$DW$T$19)
    2864                      .dwattr $C$DW$153, DW_AT_name("rsvd4")
    2865                      .dwattr $C$DW$153, DW_AT_TI_symbol_name("_rsvd4")
    2866                      .dwattr $C$DW$153, DW_AT_bit_offset(0x06)
    2867                      .dwattr $C$DW$153, DW_AT_bit_size(0x02)
    2868                      .dwattr $C$DW$153, DW_AT_data_member_location[DW_OP_plus_uconst 0x0]
TMS320C2000 Assembler PC v22.6.1 Wed May 21 09:51:55 2025

Copyright (c) 1996-2018 Texas Instruments Incorporated
C:\Users\Daniel\AppData\Local\Temp\{78ED34F4-3C3B-4D89-8F5D-B64BD43A86E6} PAGE   57

    2869                      .dwattr $C$DW$153, DW_AT_accessibility(DW_ACCESS_public)
    2870              
    2871              $C$DW$154       .dwtag  DW_TAG_member
    2872                      .dwattr $C$DW$154, DW_AT_type(*$C$DW$T$19)
    2873                      .dwattr $C$DW$154, DW_AT_name("MCANABCLKSEL")
    2874                      .dwattr $C$DW$154, DW_AT_TI_symbol_name("_MCANABCLKSEL")
    2875                      .dwattr $C$DW$154, DW_AT_bit_offset(0x04)
    2876                      .dwattr $C$DW$154, DW_AT_bit_size(0x02)
    2877                      .dwattr $C$DW$154, DW_AT_data_member_location[DW_OP_plus_uconst 0x0]
    2878                      .dwattr $C$DW$154, DW_AT_accessibility(DW_ACCESS_public)
    2879              
    2880              $C$DW$155       .dwtag  DW_TAG_member
    2881                      .dwattr $C$DW$155, DW_AT_type(*$C$DW$T$19)
    2882                      .dwattr $C$DW$155, DW_AT_name("rsvd5")
    2883                      .dwattr $C$DW$155, DW_AT_TI_symbol_name("_rsvd5")
    2884                      .dwattr $C$DW$155, DW_AT_bit_offset(0x02)
    2885                      .dwattr $C$DW$155, DW_AT_bit_size(0x02)
    2886                      .dwattr $C$DW$155, DW_AT_data_member_location[DW_OP_plus_uconst 0x0]
    2887                      .dwattr $C$DW$155, DW_AT_accessibility(DW_ACCESS_public)
    2888              
    2889              $C$DW$156       .dwtag  DW_TAG_member
    2890                      .dwattr $C$DW$156, DW_AT_type(*$C$DW$T$19)
    2891                      .dwattr $C$DW$156, DW_AT_name("rsvd6")
    2892                      .dwattr $C$DW$156, DW_AT_TI_symbol_name("_rsvd6")
    2893                      .dwattr $C$DW$156, DW_AT_bit_offset(0x00)
    2894                      .dwattr $C$DW$156, DW_AT_bit_size(0x02)
    2895                      .dwattr $C$DW$156, DW_AT_data_member_location[DW_OP_plus_uconst 0x0]
    2896                      .dwattr $C$DW$156, DW_AT_accessibility(DW_ACCESS_public)
    2897              
    2898              $C$DW$157       .dwtag  DW_TAG_member
    2899                      .dwattr $C$DW$157, DW_AT_type(*$C$DW$T$19)
    2900                      .dwattr $C$DW$157, DW_AT_name("rsvd7")
    2901                      .dwattr $C$DW$157, DW_AT_TI_symbol_name("_rsvd7")
    2902                      .dwattr $C$DW$157, DW_AT_bit_offset(0x0e)
    2903                      .dwattr $C$DW$157, DW_AT_bit_size(0x02)
    2904                      .dwattr $C$DW$157, DW_AT_data_member_location[DW_OP_plus_uconst 0x1]
    2905                      .dwattr $C$DW$157, DW_AT_accessibility(DW_ACCESS_public)
    2906              
    2907              $C$DW$158       .dwtag  DW_TAG_member
    2908                      .dwattr $C$DW$158, DW_AT_type(*$C$DW$T$19)
    2909                      .dwattr $C$DW$158, DW_AT_name("rsvd8")
    2910                      .dwattr $C$DW$158, DW_AT_TI_symbol_name("_rsvd8")
    2911                      .dwattr $C$DW$158, DW_AT_bit_offset(0x00)
    2912                      .dwattr $C$DW$158, DW_AT_bit_size(0x0e)
    2913                      .dwattr $C$DW$158, DW_AT_data_member_location[DW_OP_plus_uconst 0x1]
    2914                      .dwattr $C$DW$158, DW_AT_accessibility(DW_ACCESS_public)
    2915              
    2916                      .dwendtag $C$DW$T$29
    2917              
    2918              
    2919              $C$DW$T$30      .dwtag  DW_TAG_union_type
    2920                      .dwattr $C$DW$T$30, DW_AT_name("CLKSRCCTL2_REG")
    2921                      .dwattr $C$DW$T$30, DW_AT_byte_size(0x02)
    2922              $C$DW$159       .dwtag  DW_TAG_member
    2923                      .dwattr $C$DW$159, DW_AT_type(*$C$DW$T$21)
TMS320C2000 Assembler PC v22.6.1 Wed May 21 09:51:55 2025

Copyright (c) 1996-2018 Texas Instruments Incorporated
C:\Users\Daniel\AppData\Local\Temp\{78ED34F4-3C3B-4D89-8F5D-B64BD43A86E6} PAGE   58

    2924                      .dwattr $C$DW$159, DW_AT_name("all")
    2925                      .dwattr $C$DW$159, DW_AT_TI_symbol_name("_all")
    2926                      .dwattr $C$DW$159, DW_AT_data_member_location[DW_OP_plus_uconst 0x0]
    2927                      .dwattr $C$DW$159, DW_AT_accessibility(DW_ACCESS_public)
    2928              
    2929              $C$DW$160       .dwtag  DW_TAG_member
    2930                      .dwattr $C$DW$160, DW_AT_type(*$C$DW$T$29)
    2931                      .dwattr $C$DW$160, DW_AT_name("bit")
    2932                      .dwattr $C$DW$160, DW_AT_TI_symbol_name("_bit")
    2933                      .dwattr $C$DW$160, DW_AT_data_member_location[DW_OP_plus_uconst 0x0]
    2934                      .dwattr $C$DW$160, DW_AT_accessibility(DW_ACCESS_public)
    2935              
    2936                      .dwendtag $C$DW$T$30
    2937              
    2938              
    2939              $C$DW$T$31      .dwtag  DW_TAG_structure_type
    2940                      .dwattr $C$DW$T$31, DW_AT_name("CLKSRCCTL3_BITS")
    2941                      .dwattr $C$DW$T$31, DW_AT_byte_size(0x02)
    2942              $C$DW$161       .dwtag  DW_TAG_member
    2943                      .dwattr $C$DW$161, DW_AT_type(*$C$DW$T$19)
    2944                      .dwattr $C$DW$161, DW_AT_name("XCLKOUTSEL")
    2945                      .dwattr $C$DW$161, DW_AT_TI_symbol_name("_XCLKOUTSEL")
    2946                      .dwattr $C$DW$161, DW_AT_bit_offset(0x0c)
    2947                      .dwattr $C$DW$161, DW_AT_bit_size(0x04)
    2948                      .dwattr $C$DW$161, DW_AT_data_member_location[DW_OP_plus_uconst 0x0]
    2949                      .dwattr $C$DW$161, DW_AT_accessibility(DW_ACCESS_public)
    2950              
    2951              $C$DW$162       .dwtag  DW_TAG_member
    2952                      .dwattr $C$DW$162, DW_AT_type(*$C$DW$T$19)
    2953                      .dwattr $C$DW$162, DW_AT_name("rsvd1")
    2954                      .dwattr $C$DW$162, DW_AT_TI_symbol_name("_rsvd1")
    2955                      .dwattr $C$DW$162, DW_AT_bit_offset(0x00)
    2956                      .dwattr $C$DW$162, DW_AT_bit_size(0x0c)
    2957                      .dwattr $C$DW$162, DW_AT_data_member_location[DW_OP_plus_uconst 0x0]
    2958                      .dwattr $C$DW$162, DW_AT_accessibility(DW_ACCESS_public)
    2959              
    2960              $C$DW$163       .dwtag  DW_TAG_member
    2961                      .dwattr $C$DW$163, DW_AT_type(*$C$DW$T$19)
    2962                      .dwattr $C$DW$163, DW_AT_name("rsvd2")
    2963                      .dwattr $C$DW$163, DW_AT_TI_symbol_name("_rsvd2")
    2964                      .dwattr $C$DW$163, DW_AT_bit_offset(0x00)
    2965                      .dwattr $C$DW$163, DW_AT_bit_size(0x10)
    2966                      .dwattr $C$DW$163, DW_AT_data_member_location[DW_OP_plus_uconst 0x1]
    2967                      .dwattr $C$DW$163, DW_AT_accessibility(DW_ACCESS_public)
    2968              
    2969                      .dwendtag $C$DW$T$31
    2970              
    2971              
    2972              $C$DW$T$32      .dwtag  DW_TAG_union_type
    2973                      .dwattr $C$DW$T$32, DW_AT_name("CLKSRCCTL3_REG")
    2974                      .dwattr $C$DW$T$32, DW_AT_byte_size(0x02)
    2975              $C$DW$164       .dwtag  DW_TAG_member
    2976                      .dwattr $C$DW$164, DW_AT_type(*$C$DW$T$21)
    2977                      .dwattr $C$DW$164, DW_AT_name("all")
    2978                      .dwattr $C$DW$164, DW_AT_TI_symbol_name("_all")
TMS320C2000 Assembler PC v22.6.1 Wed May 21 09:51:55 2025

Copyright (c) 1996-2018 Texas Instruments Incorporated
C:\Users\Daniel\AppData\Local\Temp\{78ED34F4-3C3B-4D89-8F5D-B64BD43A86E6} PAGE   59

    2979                      .dwattr $C$DW$164, DW_AT_data_member_location[DW_OP_plus_uconst 0x0]
    2980                      .dwattr $C$DW$164, DW_AT_accessibility(DW_ACCESS_public)
    2981              
    2982              $C$DW$165       .dwtag  DW_TAG_member
    2983                      .dwattr $C$DW$165, DW_AT_type(*$C$DW$T$31)
    2984                      .dwattr $C$DW$165, DW_AT_name("bit")
    2985                      .dwattr $C$DW$165, DW_AT_TI_symbol_name("_bit")
    2986                      .dwattr $C$DW$165, DW_AT_data_member_location[DW_OP_plus_uconst 0x0]
    2987                      .dwattr $C$DW$165, DW_AT_accessibility(DW_ACCESS_public)
    2988              
    2989                      .dwendtag $C$DW$T$32
    2990              
    2991              
    2992              $C$DW$T$33      .dwtag  DW_TAG_structure_type
    2993                      .dwattr $C$DW$T$33, DW_AT_name("CLKSTOPACK_BITS")
    2994                      .dwattr $C$DW$T$33, DW_AT_byte_size(0x02)
    2995              $C$DW$166       .dwtag  DW_TAG_member
    2996                      .dwattr $C$DW$166, DW_AT_type(*$C$DW$T$19)
    2997                      .dwattr $C$DW$166, DW_AT_name("rsvd1")
    2998                      .dwattr $C$DW$166, DW_AT_TI_symbol_name("_rsvd1")
    2999                      .dwattr $C$DW$166, DW_AT_bit_offset(0x0f)
    3000                      .dwattr $C$DW$166, DW_AT_bit_size(0x01)
    3001                      .dwattr $C$DW$166, DW_AT_data_member_location[DW_OP_plus_uconst 0x0]
    3002                      .dwattr $C$DW$166, DW_AT_accessibility(DW_ACCESS_public)
    3003              
    3004              $C$DW$167       .dwtag  DW_TAG_member
    3005                      .dwattr $C$DW$167, DW_AT_type(*$C$DW$T$19)
    3006                      .dwattr $C$DW$167, DW_AT_name("rsvd2")
    3007                      .dwattr $C$DW$167, DW_AT_TI_symbol_name("_rsvd2")
    3008                      .dwattr $C$DW$167, DW_AT_bit_offset(0x0e)
    3009                      .dwattr $C$DW$167, DW_AT_bit_size(0x01)
    3010                      .dwattr $C$DW$167, DW_AT_data_member_location[DW_OP_plus_uconst 0x0]
    3011                      .dwattr $C$DW$167, DW_AT_accessibility(DW_ACCESS_public)
    3012              
    3013              $C$DW$168       .dwtag  DW_TAG_member
    3014                      .dwattr $C$DW$168, DW_AT_type(*$C$DW$T$19)
    3015                      .dwattr $C$DW$168, DW_AT_name("rsvd3")
    3016                      .dwattr $C$DW$168, DW_AT_TI_symbol_name("_rsvd3")
    3017                      .dwattr $C$DW$168, DW_AT_bit_offset(0x0d)
    3018                      .dwattr $C$DW$168, DW_AT_bit_size(0x01)
    3019                      .dwattr $C$DW$168, DW_AT_data_member_location[DW_OP_plus_uconst 0x0]
    3020                      .dwattr $C$DW$168, DW_AT_accessibility(DW_ACCESS_public)
    3021              
    3022              $C$DW$169       .dwtag  DW_TAG_member
    3023                      .dwattr $C$DW$169, DW_AT_type(*$C$DW$T$19)
    3024                      .dwattr $C$DW$169, DW_AT_name("rsvd4")
    3025                      .dwattr $C$DW$169, DW_AT_TI_symbol_name("_rsvd4")
    3026                      .dwattr $C$DW$169, DW_AT_bit_offset(0x0c)
    3027                      .dwattr $C$DW$169, DW_AT_bit_size(0x01)
    3028                      .dwattr $C$DW$169, DW_AT_data_member_location[DW_OP_plus_uconst 0x0]
    3029                      .dwattr $C$DW$169, DW_AT_accessibility(DW_ACCESS_public)
    3030              
    3031              $C$DW$170       .dwtag  DW_TAG_member
    3032                      .dwattr $C$DW$170, DW_AT_type(*$C$DW$T$19)
    3033                      .dwattr $C$DW$170, DW_AT_name("rsvd5")
TMS320C2000 Assembler PC v22.6.1 Wed May 21 09:51:55 2025

Copyright (c) 1996-2018 Texas Instruments Incorporated
C:\Users\Daniel\AppData\Local\Temp\{78ED34F4-3C3B-4D89-8F5D-B64BD43A86E6} PAGE   60

    3034                      .dwattr $C$DW$170, DW_AT_TI_symbol_name("_rsvd5")
    3035                      .dwattr $C$DW$170, DW_AT_bit_offset(0x0b)
    3036                      .dwattr $C$DW$170, DW_AT_bit_size(0x01)
    3037                      .dwattr $C$DW$170, DW_AT_data_member_location[DW_OP_plus_uconst 0x0]
    3038                      .dwattr $C$DW$170, DW_AT_accessibility(DW_ACCESS_public)
    3039              
    3040              $C$DW$171       .dwtag  DW_TAG_member
    3041                      .dwattr $C$DW$171, DW_AT_type(*$C$DW$T$19)
    3042                      .dwattr $C$DW$171, DW_AT_name("rsvd6")
    3043                      .dwattr $C$DW$171, DW_AT_TI_symbol_name("_rsvd6")
    3044                      .dwattr $C$DW$171, DW_AT_bit_offset(0x0a)
    3045                      .dwattr $C$DW$171, DW_AT_bit_size(0x01)
    3046                      .dwattr $C$DW$171, DW_AT_data_member_location[DW_OP_plus_uconst 0x0]
    3047                      .dwattr $C$DW$171, DW_AT_accessibility(DW_ACCESS_public)
    3048              
    3049              $C$DW$172       .dwtag  DW_TAG_member
    3050                      .dwattr $C$DW$172, DW_AT_type(*$C$DW$T$19)
    3051                      .dwattr $C$DW$172, DW_AT_name("rsvd7")
    3052                      .dwattr $C$DW$172, DW_AT_TI_symbol_name("_rsvd7")
    3053                      .dwattr $C$DW$172, DW_AT_bit_offset(0x08)
    3054                      .dwattr $C$DW$172, DW_AT_bit_size(0x02)
    3055                      .dwattr $C$DW$172, DW_AT_data_member_location[DW_OP_plus_uconst 0x0]
    3056                      .dwattr $C$DW$172, DW_AT_accessibility(DW_ACCESS_public)
    3057              
    3058              $C$DW$173       .dwtag  DW_TAG_member
    3059                      .dwattr $C$DW$173, DW_AT_type(*$C$DW$T$19)
    3060                      .dwattr $C$DW$173, DW_AT_name("MCAN_A")
    3061                      .dwattr $C$DW$173, DW_AT_TI_symbol_name("_MCAN_A")
    3062                      .dwattr $C$DW$173, DW_AT_bit_offset(0x07)
    3063                      .dwattr $C$DW$173, DW_AT_bit_size(0x01)
    3064                      .dwattr $C$DW$173, DW_AT_data_member_location[DW_OP_plus_uconst 0x0]
    3065                      .dwattr $C$DW$173, DW_AT_accessibility(DW_ACCESS_public)
    3066              
    3067              $C$DW$174       .dwtag  DW_TAG_member
    3068                      .dwattr $C$DW$174, DW_AT_type(*$C$DW$T$19)
    3069                      .dwattr $C$DW$174, DW_AT_name("rsvd8")
    3070                      .dwattr $C$DW$174, DW_AT_TI_symbol_name("_rsvd8")
    3071                      .dwattr $C$DW$174, DW_AT_bit_offset(0x00)
    3072                      .dwattr $C$DW$174, DW_AT_bit_size(0x07)
    3073                      .dwattr $C$DW$174, DW_AT_data_member_location[DW_OP_plus_uconst 0x0]
    3074                      .dwattr $C$DW$174, DW_AT_accessibility(DW_ACCESS_public)
    3075              
    3076              $C$DW$175       .dwtag  DW_TAG_member
    3077                      .dwattr $C$DW$175, DW_AT_type(*$C$DW$T$19)
    3078                      .dwattr $C$DW$175, DW_AT_name("rsvd9")
    3079                      .dwattr $C$DW$175, DW_AT_TI_symbol_name("_rsvd9")
    3080                      .dwattr $C$DW$175, DW_AT_bit_offset(0x00)
    3081                      .dwattr $C$DW$175, DW_AT_bit_size(0x10)
    3082                      .dwattr $C$DW$175, DW_AT_data_member_location[DW_OP_plus_uconst 0x1]
    3083                      .dwattr $C$DW$175, DW_AT_accessibility(DW_ACCESS_public)
    3084              
    3085                      .dwendtag $C$DW$T$33
