TMS320C2000 Assembler PC v22.6.1 Wed May 21 09:51:55 2025

Copyright (c) 1996-2018 Texas Instruments Incorporated
C:\Users\Daniel\AppData\Local\Temp\{78ED34F4-3C3B-4D89-8F5D-B64BD43A86E6} PAGE    1

       1              ;***************************************************************
       2              ;* TMS320C2000 G3 C/C++ Codegen                               PC v22.6.1.LTS *
       3              ;* Date/Time created: Wed May 21 09:51:55 2025                 *
       4              ;***************************************************************
       5                      .compiler_opts --abi=coffabi --cla_support=cla2 --diag_wrap=off --float_support=fpu32 --hll_source=on
       6                      .asg    XAR2, FP
       7              
       8              $C$DW$CU        .dwtag  DW_TAG_compile_unit
       9                      .dwattr $C$DW$CU, DW_AT_name("../DeviceSupport/source/f28003x_sysctrl.c")
      10                      .dwattr $C$DW$CU, DW_AT_producer("TI TMS320C2000 G3 C/C++ Codegen PC v22.6.1.LTS Copyright (c) 1996-2
      11                      .dwattr $C$DW$CU, DW_AT_TI_version(0x01)
      12                      .dwattr $C$DW$CU, DW_AT_comp_dir("C:\Users\Daniel\CodeComposer\UPS_MUCI\CPU1_FLASH")
      13              
      14              $C$DW$1 .dwtag  DW_TAG_subprogram
      15                      .dwattr $C$DW$1, DW_AT_name("F28x_usDelay")
      16                      .dwattr $C$DW$1, DW_AT_TI_symbol_name("_F28x_usDelay")
      17                      .dwattr $C$DW$1, DW_AT_declaration
      18                      .dwattr $C$DW$1, DW_AT_external
      19              $C$DW$2 .dwtag  DW_TAG_formal_parameter
      20                      .dwattr $C$DW$2, DW_AT_type(*$C$DW$T$12)
      21              
      22                      .dwendtag $C$DW$1
      23              
      24              $C$DW$3 .dwtag  DW_TAG_variable
      25                      .dwattr $C$DW$3, DW_AT_name("RamfuncsLoadStart")
      26                      .dwattr $C$DW$3, DW_AT_TI_symbol_name("_RamfuncsLoadStart")
      27                      .dwattr $C$DW$3, DW_AT_type(*$C$DW$T$19)
      28                      .dwattr $C$DW$3, DW_AT_declaration
      29                      .dwattr $C$DW$3, DW_AT_external
      30              
      31              $C$DW$4 .dwtag  DW_TAG_variable
      32                      .dwattr $C$DW$4, DW_AT_name("RamfuncsLoadSize")
      33                      .dwattr $C$DW$4, DW_AT_TI_symbol_name("_RamfuncsLoadSize")
      34                      .dwattr $C$DW$4, DW_AT_type(*$C$DW$T$19)
      35                      .dwattr $C$DW$4, DW_AT_declaration
      36                      .dwattr $C$DW$4, DW_AT_external
      37              
      38              $C$DW$5 .dwtag  DW_TAG_variable
      39                      .dwattr $C$DW$5, DW_AT_name("RamfuncsRunStart")
      40                      .dwattr $C$DW$5, DW_AT_TI_symbol_name("_RamfuncsRunStart")
      41                      .dwattr $C$DW$5, DW_AT_type(*$C$DW$T$19)
      42                      .dwattr $C$DW$5, DW_AT_declaration
      43                      .dwattr $C$DW$5, DW_AT_external
      44              
      45              
      46              $C$DW$6 .dwtag  DW_TAG_subprogram
      47                      .dwattr $C$DW$6, DW_AT_name("__eallow")
      48                      .dwattr $C$DW$6, DW_AT_TI_symbol_name("___eallow")
      49                      .dwattr $C$DW$6, DW_AT_declaration
      50                      .dwattr $C$DW$6, DW_AT_external
      51                      .dwendtag $C$DW$6
      52              
      53              
      54              $C$DW$7 .dwtag  DW_TAG_subprogram
      55                      .dwattr $C$DW$7, DW_AT_name("__edis")
TMS320C2000 Assembler PC v22.6.1 Wed May 21 09:51:55 2025

Copyright (c) 1996-2018 Texas Instruments Incorporated
C:\Users\Daniel\AppData\Local\Temp\{78ED34F4-3C3B-4D89-8F5D-B64BD43A86E6} PAGE    2

      56                      .dwattr $C$DW$7, DW_AT_TI_symbol_name("___edis")
      57                      .dwattr $C$DW$7, DW_AT_declaration
      58                      .dwattr $C$DW$7, DW_AT_external
      59                      .dwendtag $C$DW$7
      60              
      61              $C$DW$8 .dwtag  DW_TAG_variable
      62                      .dwattr $C$DW$8, DW_AT_name("Flash0EccRegs")
      63                      .dwattr $C$DW$8, DW_AT_TI_symbol_name("_Flash0EccRegs")
      64                      .dwattr $C$DW$8, DW_AT_type(*$C$DW$T$233)
      65                      .dwattr $C$DW$8, DW_AT_declaration
      66                      .dwattr $C$DW$8, DW_AT_external
      67              
      68              $C$DW$9 .dwtag  DW_TAG_variable
      69                      .dwattr $C$DW$9, DW_AT_name("WdRegs")
      70                      .dwattr $C$DW$9, DW_AT_TI_symbol_name("_WdRegs")
      71                      .dwattr $C$DW$9, DW_AT_type(*$C$DW$T$315)
      72                      .dwattr $C$DW$9, DW_AT_declaration
      73                      .dwattr $C$DW$9, DW_AT_external
      74              
      75              $C$DW$10        .dwtag  DW_TAG_variable
      76                      .dwattr $C$DW$10, DW_AT_name("Dcc0Regs")
      77                      .dwattr $C$DW$10, DW_AT_TI_symbol_name("_Dcc0Regs")
      78                      .dwattr $C$DW$10, DW_AT_type(*$C$DW$T$227)
      79                      .dwattr $C$DW$10, DW_AT_declaration
      80                      .dwattr $C$DW$10, DW_AT_external
      81              
      82              $C$DW$11        .dwtag  DW_TAG_variable
      83                      .dwattr $C$DW$11, DW_AT_name("Dcc1Regs")
      84                      .dwattr $C$DW$11, DW_AT_TI_symbol_name("_Dcc1Regs")
      85                      .dwattr $C$DW$11, DW_AT_type(*$C$DW$T$227)
      86                      .dwattr $C$DW$11, DW_AT_declaration
      87                      .dwattr $C$DW$11, DW_AT_external
      88              
      89              $C$DW$12        .dwtag  DW_TAG_variable
      90                      .dwattr $C$DW$12, DW_AT_name("ClkCfgRegs")
      91                      .dwattr $C$DW$12, DW_AT_TI_symbol_name("_ClkCfgRegs")
      92                      .dwattr $C$DW$12, DW_AT_type(*$C$DW$T$215)
      93                      .dwattr $C$DW$12, DW_AT_declaration
      94                      .dwattr $C$DW$12, DW_AT_external
      95              
      96              $C$DW$13        .dwtag  DW_TAG_variable
      97                      .dwattr $C$DW$13, DW_AT_name("CpuSysRegs")
      98                      .dwattr $C$DW$13, DW_AT_TI_symbol_name("_CpuSysRegs")
      99                      .dwattr $C$DW$13, DW_AT_type(*$C$DW$T$217)
     100                      .dwattr $C$DW$13, DW_AT_declaration
     101                      .dwattr $C$DW$13, DW_AT_external
     102              
     103              $C$DW$14        .dwtag  DW_TAG_variable
     104                      .dwattr $C$DW$14, DW_AT_name("Flash0CtrlRegs")
     105                      .dwattr $C$DW$14, DW_AT_TI_symbol_name("_Flash0CtrlRegs")
     106                      .dwattr $C$DW$14, DW_AT_type(*$C$DW$T$231)
     107                      .dwattr $C$DW$14, DW_AT_declaration
     108                      .dwattr $C$DW$14, DW_AT_external
     109              
     110              ;       D:\Programs\TI\ccs1281\ccs\tools\compiler\ti-cgt-c2000_22.6.1.LTS\bin\opt2000.exe C:\\Users\\Daniel\\
TMS320C2000 Assembler PC v22.6.1 Wed May 21 09:51:55 2025

Copyright (c) 1996-2018 Texas Instruments Incorporated
C:\Users\Daniel\AppData\Local\Temp\{78ED34F4-3C3B-4D89-8F5D-B64BD43A86E6} PAGE    3

     111              ;       D:\Programs\TI\ccs1281\ccs\tools\compiler\ti-cgt-c2000_22.6.1.LTS\bin\ac2000.exe -@C:\\Users\\Daniel\
     112 00000000               .sect   ".text:_PollX1Counter"
     113                      .clink
     114              
     115              $C$DW$15        .dwtag  DW_TAG_subprogram
     116                      .dwattr $C$DW$15, DW_AT_name("PollX1Counter")
     117                      .dwattr $C$DW$15, DW_AT_low_pc(_PollX1Counter)
     118                      .dwattr $C$DW$15, DW_AT_high_pc(0x00)
     119                      .dwattr $C$DW$15, DW_AT_TI_symbol_name("_PollX1Counter")
     120                      .dwattr $C$DW$15, DW_AT_TI_begin_file("../DeviceSupport/source/f28003x_sysctrl.c")
     121                      .dwattr $C$DW$15, DW_AT_TI_begin_line(0x24b)
     122                      .dwattr $C$DW$15, DW_AT_TI_begin_column(0x01)
     123                      .dwattr $C$DW$15, DW_AT_TI_max_frame_size(-2)
     124                      .dwpsn  file "../DeviceSupport/source/f28003x_sysctrl.c",line 588,column 1,is_stmt,address _PollX1Cou
     125              
     126                      .dwfde $C$DW$CIE, _PollX1Counter
     127              
     128              ;***************************************************************
     129              ;* FNAME: _PollX1Counter                FR SIZE:   0           *
     130              ;*                                                             *
     131              ;* FUNCTION ENVIRONMENT                                        *
     132              ;*                                                             *
     133              ;* FUNCTION PROPERTIES                                         *
     134              ;*                            0 Parameter,  0 Auto,  0 SOE     *
     135              ;***************************************************************
     136              
     137 00000000       _PollX1Counter:
     138                      .dwcfi  cfa_offset, -2
     139                      .dwcfi  save_reg_to_mem, 26, 0
     140                      .dwpsn  file "../DeviceSupport/source/f28003x_sysctrl.c",line 596,column 5,is_stmt,isa 0
     141 00000000 FF20          MOV       ACC,#2000             ; [CPU_ALU] |596| 
         00000001 07D0 
     142              $C$DW$16        .dwtag  DW_TAG_TI_branch
     143                      .dwattr $C$DW$16, DW_AT_low_pc(0x00)
     144                      .dwattr $C$DW$16, DW_AT_name("_F28x_usDelay")
     145                      .dwattr $C$DW$16, DW_AT_TI_call
     146              
     147 00000002 7640!         LCR       #_F28x_usDelay        ; [CPU_ALU] |596| 
         00000003 0000 
     148                      ; call occurs [#_F28x_usDelay] ; [] |596| 
     149 00000004 BE03          MOVB      XAR6,#3               ; [CPU_ALU] 
     150 00000005       $C$L1:    
     151                      .dwpsn  file "../DeviceSupport/source/f28003x_sysctrl.c",line 606,column 15,is_stmt,isa 0
     152 00000005 FF20          MOV       ACC,#511              ; [CPU_ALU] |606| 
         00000006 01FF 
     153 00000007 761F!         MOVW      DP,#_ClkCfgRegs+48    ; [CPU_ARAU] 
         00000008 0000 
     154 00000009 0F30!         CMPL      ACC,@$BLOCKED(_ClkCfgRegs)+48 ; [CPU_ALU] |606| 
     155 0000000a 6707          B         $C$L3,HIS             ; [CPU_ALU] |606| 
     156                      ; branchcc occurs ; [] |606| 
     157 0000000b       $C$L2:    
     158                      .dwpsn  file "../DeviceSupport/source/f28003x_sysctrl.c",line 608,column 13,is_stmt,isa 0
     159 0000000b 1A31!         OR        @$BLOCKED(_ClkCfgRegs)+49,#0x0001 ; [CPU_ALU] |608| 
         0000000c 0001 
     160                      .dwpsn  file "../DeviceSupport/source/f28003x_sysctrl.c",line 609,column 13,is_stmt,isa 0
TMS320C2000 Assembler PC v22.6.1 Wed May 21 09:51:55 2025

Copyright (c) 1996-2018 Texas Instruments Incorporated
C:\Users\Daniel\AppData\Local\Temp\{78ED34F4-3C3B-4D89-8F5D-B64BD43A86E6} PAGE    4

     161 0000000d 1831!         AND       @$BLOCKED(_ClkCfgRegs)+49,#0xfffe ; [CPU_ALU] |609| 
         0000000e FFFE 
     162 0000000f 0F30!         CMPL      ACC,@$BLOCKED(_ClkCfgRegs)+48 ; [CPU_ALU] |609| 
     163 00000010 68FB          B         $C$L2,LO              ; [CPU_ALU] |609| 
     164                      ; branchcc occurs ; [] |609| 
     165 00000011       $C$L3:    
     166                      .dwpsn  file "../DeviceSupport/source/f28003x_sysctrl.c",line 615,column 15,is_stmt,isa 0
     167 00000011 FF20          MOV       ACC,#2047             ; [CPU_ALU] |615| 
         00000012 07FF 
     168 00000013 0F30!         CMPL      ACC,@$BLOCKED(_ClkCfgRegs)+48 ; [CPU_ALU] |615| 
     169 00000014 60FD          B         $C$L3,NEQ             ; [CPU_ALU] |615| 
     170                      ; branchcc occurs ; [] |615| 
     171                      .dwpsn  file "../DeviceSupport/source/f28003x_sysctrl.c",line 624,column 12,is_stmt,isa 0
     172 00000015 000E          BANZ      $C$L1,AR6--           ; [CPU_ALU] |624| 
         00000016 FFF0 
     173                      ; branchcc occurs ; [] |624| 
     174              $C$DW$17        .dwtag  DW_TAG_TI_branch
     175                      .dwattr $C$DW$17, DW_AT_low_pc(0x00)
     176                      .dwattr $C$DW$17, DW_AT_TI_return
     177              
     178 00000017 0006          LRETR     ; [CPU_ALU] 
     179                      ; return occurs ; [] 
     180                      .dwattr $C$DW$15, DW_AT_TI_end_file("../DeviceSupport/source/f28003x_sysctrl.c")
     181                      .dwattr $C$DW$15, DW_AT_TI_end_line(0x271)
     182                      .dwattr $C$DW$15, DW_AT_TI_end_column(0x01)
     183                      .dwendentry
     184                      .dwendtag $C$DW$15
     185              
     186 00000000               .sect   ".text:_SysXtalOscSel"
     187                      .clink
     188                      .global _SysXtalOscSel
     189              
     190              $C$DW$18        .dwtag  DW_TAG_subprogram
     191                      .dwattr $C$DW$18, DW_AT_name("SysXtalOscSel")
     192                      .dwattr $C$DW$18, DW_AT_low_pc(_SysXtalOscSel)
     193                      .dwattr $C$DW$18, DW_AT_high_pc(0x00)
     194                      .dwattr $C$DW$18, DW_AT_TI_symbol_name("_SysXtalOscSel")
     195                      .dwattr $C$DW$18, DW_AT_external
     196                      .dwattr $C$DW$18, DW_AT_TI_begin_file("../DeviceSupport/source/f28003x_sysctrl.c")
     197                      .dwattr $C$DW$18, DW_AT_TI_begin_line(0x274)
     198                      .dwattr $C$DW$18, DW_AT_TI_begin_column(0x06)
     199                      .dwattr $C$DW$18, DW_AT_TI_max_frame_size(-4)
     200                      .dwpsn  file "../DeviceSupport/source/f28003x_sysctrl.c",line 629,column 1,is_stmt,address _SysXtalOs
     201              
     202                      .dwfde $C$DW$CIE, _SysXtalOscSel
     203              
     204              ;***************************************************************
     205              ;* FNAME: _SysXtalOscSel                FR SIZE:   2           *
     206              ;*                                                             *
     207              ;* FUNCTION ENVIRONMENT                                        *
     208              ;*                                                             *
     209              ;* FUNCTION PROPERTIES                                         *
     210              ;*                            0 Parameter,  0 Auto,  2 SOE     *
     211              ;***************************************************************
     212              
TMS320C2000 Assembler PC v22.6.1 Wed May 21 09:51:55 2025

Copyright (c) 1996-2018 Texas Instruments Incorporated
C:\Users\Daniel\AppData\Local\Temp\{78ED34F4-3C3B-4D89-8F5D-B64BD43A86E6} PAGE    5

     213 00000000       _SysXtalOscSel:
     214              ;* AR1   assigned to $O$C1
     215              ;* AR1   assigned to $O$C2
     216                      .dwcfi  cfa_offset, -2
     217                      .dwcfi  save_reg_to_mem, 26, 0
     218 00000000 B2BD          MOVL      *SP++,XAR1            ; [CPU_ALU] 
     219                      .dwcfi  save_reg_to_mem, 7, 2
     220                      .dwcfi  cfa_offset, -4
     221                      .dwpsn  file "../DeviceSupport/source/f28003x_sysctrl.c",line 630,column 5,is_stmt,isa 0
     222 00000001 7622          EALLOW    ; [CPU_ALU] |630| 
     223                      .dwpsn  file "../DeviceSupport/source/f28003x_sysctrl.c",line 631,column 5,is_stmt,isa 0
     224 00000002 8D40!         MOVL      XAR1,#_ClkCfgRegs     ; [CPU_ARAU] |631| 
         00000003 0000 
     225 00000004 8AA1          MOVL      XAR4,XAR1             ; [CPU_ALU] |631| 
     226 00000005 761F!         MOVW      DP,#_ClkCfgRegs+50    ; [CPU_ARAU] 
         00000006 0000 
     227 00000007 DC32          ADDB      XAR4,#50              ; [CPU_ALU] |631| 
     228 00000008 18C4          AND       *+XAR4[0],#0xfffe     ; [CPU_ALU] |631| 
         00000009 FFFE 
     229                      .dwpsn  file "../DeviceSupport/source/f28003x_sysctrl.c",line 632,column 5,is_stmt,isa 0
     230 0000000a 1832!         AND       @$BLOCKED(_ClkCfgRegs)+50,#0xfffd ; [CPU_ALU] |632| 
         0000000b FFFD 
     231                      .dwpsn  file "../DeviceSupport/source/f28003x_sysctrl.c",line 633,column 5,is_stmt,isa 0
     232 0000000c 761A          EDIS      ; [CPU_ALU] |633| 
     233                      .dwpsn  file "../DeviceSupport/source/f28003x_sysctrl.c",line 638,column 5,is_stmt,isa 0
     234              $C$DW$19        .dwtag  DW_TAG_TI_branch
     235                      .dwattr $C$DW$19, DW_AT_low_pc(0x00)
     236                      .dwattr $C$DW$19, DW_AT_name("_PollX1Counter")
     237                      .dwattr $C$DW$19, DW_AT_TI_call
     238              
     239 0000000d 7640+         LCR       #_PollX1Counter       ; [CPU_ALU] |638| 
         0000000e 0000 
     240                      ; call occurs [#_PollX1Counter] ; [] |638| 
     241                      .dwpsn  file "../DeviceSupport/source/f28003x_sysctrl.c",line 643,column 5,is_stmt,isa 0
     242 0000000f 7622          EALLOW    ; [CPU_ALU] |643| 
     243                      .dwpsn  file "../DeviceSupport/source/f28003x_sysctrl.c",line 644,column 5,is_stmt,isa 0
     244 00000010 D008          MOVB      XAR0,#8               ; [CPU_ALU] |644| 
     245 00000011 CC91          AND       AL,*+XAR1[AR0],#0xfffc ; [CPU_ALU] |644| 
         00000012 FFFC 
     246 00000013 5001          ORB       AL,#0x01              ; [CPU_ALU] |644| 
     247 00000014 9608!         MOV       @$BLOCKED(_ClkCfgRegs)+8,AL ; [CPU_ALU] |644| 
     248                      .dwpsn  file "../DeviceSupport/source/f28003x_sysctrl.c",line 645,column 5,is_stmt,isa 0
     249 00000015 761A          EDIS      ; [CPU_ALU] |645| 
     250                      .dwpsn  file "../DeviceSupport/source/f28003x_sysctrl.c",line 651,column 5,is_stmt,isa 0
     251 00000016 6F0E          B         $C$L5,UNC             ; [CPU_ALU] |651| 
     252                      ; branch occurs ; [] |651| 
     253 00000017       $C$L4:    
     254                      .dwpsn  file "../DeviceSupport/source/f28003x_sysctrl.c",line 653,column 9,is_stmt,isa 0
     255 00000017 7622          EALLOW    ; [CPU_ALU] |653| 
     256                      .dwpsn  file "../DeviceSupport/source/f28003x_sysctrl.c",line 654,column 9,is_stmt,isa 0
     257 00000018 1A2E!         OR        @$BLOCKED(_ClkCfgRegs)+46,#0x0002 ; [CPU_ALU] |654| 
         00000019 0002 
     258                      .dwpsn  file "../DeviceSupport/source/f28003x_sysctrl.c",line 655,column 9,is_stmt,isa 0
     259 0000001a 761A          EDIS      ; [CPU_ALU] |655| 
     260                      .dwpsn  file "../DeviceSupport/source/f28003x_sysctrl.c",line 660,column 9,is_stmt,isa 0
TMS320C2000 Assembler PC v22.6.1 Wed May 21 09:51:55 2025

Copyright (c) 1996-2018 Texas Instruments Incorporated
C:\Users\Daniel\AppData\Local\Temp\{78ED34F4-3C3B-4D89-8F5D-B64BD43A86E6} PAGE    6

     261              $C$DW$20        .dwtag  DW_TAG_TI_branch
     262                      .dwattr $C$DW$20, DW_AT_low_pc(0x00)
     263                      .dwattr $C$DW$20, DW_AT_name("_PollX1Counter")
     264                      .dwattr $C$DW$20, DW_AT_TI_call
     265              
     266 0000001b 7640+         LCR       #_PollX1Counter       ; [CPU_ALU] |660| 
         0000001c 0000 
     267                      ; call occurs [#_PollX1Counter] ; [] |660| 
     268                      .dwpsn  file "../DeviceSupport/source/f28003x_sysctrl.c",line 665,column 9,is_stmt,isa 0
     269 0000001d 7622          EALLOW    ; [CPU_ALU] |665| 
     270                      .dwpsn  file "../DeviceSupport/source/f28003x_sysctrl.c",line 666,column 9,is_stmt,isa 0
     271 0000001e D008          MOVB      XAR0,#8               ; [CPU_ALU] |666| 
     272 0000001f CC91          AND       AL,*+XAR1[AR0],#0xfffc ; [CPU_ALU] |666| 
         00000020 FFFC 
     273 00000021 5001          ORB       AL,#0x01              ; [CPU_ALU] |666| 
     274 00000022 9608!         MOV       @$BLOCKED(_ClkCfgRegs)+8,AL ; [CPU_ALU] |666| 
     275                      .dwpsn  file "../DeviceSupport/source/f28003x_sysctrl.c",line 667,column 9,is_stmt,isa 0
     276 00000023 761A          EDIS      ; [CPU_ALU] |667| 
     277 00000024       $C$L5:    
     278                      .dwpsn  file "../DeviceSupport/source/f28003x_sysctrl.c",line 651,column 11,is_stmt,isa 0
     279 00000024 D02E          MOVB      XAR0,#46              ; [CPU_ALU] |651| 
     280 00000025 4091          TBIT      *+XAR1[AR0],#0        ; [CPU_ALU] |651| 
     281 00000026 6DF1          B         $C$L4,TC              ; [CPU_ALU] |651| 
     282                      ; branchcc occurs ; [] |651| 
     283 00000027 8BBE          MOVL      XAR1,*--SP            ; [CPU_ALU] 
     284                      .dwcfi  cfa_offset, -2
     285                      .dwcfi  restore_reg, 7
     286              $C$DW$21        .dwtag  DW_TAG_TI_branch
     287                      .dwattr $C$DW$21, DW_AT_low_pc(0x00)
     288                      .dwattr $C$DW$21, DW_AT_TI_return
     289              
     290 00000028 0006          LRETR     ; [CPU_ALU] 
     291                      ; return occurs ; [] 
     292                      .dwattr $C$DW$18, DW_AT_TI_end_file("../DeviceSupport/source/f28003x_sysctrl.c")
     293                      .dwattr $C$DW$18, DW_AT_TI_end_line(0x29d)
     294                      .dwattr $C$DW$18, DW_AT_TI_end_column(0x01)
     295                      .dwendentry
     296                      .dwendtag $C$DW$18
     297              
     298 00000000               .sect   ".text:_SysXtalOscSESel"
     299                      .clink
     300                      .global _SysXtalOscSESel
     301              
     302              $C$DW$22        .dwtag  DW_TAG_subprogram
     303                      .dwattr $C$DW$22, DW_AT_name("SysXtalOscSESel")
     304                      .dwattr $C$DW$22, DW_AT_low_pc(_SysXtalOscSESel)
     305                      .dwattr $C$DW$22, DW_AT_high_pc(0x00)
     306                      .dwattr $C$DW$22, DW_AT_TI_symbol_name("_SysXtalOscSESel")
     307                      .dwattr $C$DW$22, DW_AT_external
     308                      .dwattr $C$DW$22, DW_AT_TI_begin_file("../DeviceSupport/source/f28003x_sysctrl.c")
     309                      .dwattr $C$DW$22, DW_AT_TI_begin_line(0x2a5)
     310                      .dwattr $C$DW$22, DW_AT_TI_begin_column(0x01)
     311                      .dwattr $C$DW$22, DW_AT_TI_max_frame_size(-4)
     312                      .dwpsn  file "../DeviceSupport/source/f28003x_sysctrl.c",line 678,column 1,is_stmt,address _SysXtalOs
     313              
TMS320C2000 Assembler PC v22.6.1 Wed May 21 09:51:55 2025

Copyright (c) 1996-2018 Texas Instruments Incorporated
C:\Users\Daniel\AppData\Local\Temp\{78ED34F4-3C3B-4D89-8F5D-B64BD43A86E6} PAGE    7

     314                      .dwfde $C$DW$CIE, _SysXtalOscSESel
     315              
     316              ;***************************************************************
     317              ;* FNAME: _SysXtalOscSESel              FR SIZE:   2           *
     318              ;*                                                             *
     319              ;* FUNCTION ENVIRONMENT                                        *
     320              ;*                                                             *
     321              ;* FUNCTION PROPERTIES                                         *
     322              ;*                            0 Parameter,  0 Auto,  2 SOE     *
     323              ;***************************************************************
     324              
     325 00000000       _SysXtalOscSESel:
     326              ;* AR1   assigned to $O$C1
     327                      .dwcfi  cfa_offset, -2
     328                      .dwcfi  save_reg_to_mem, 26, 0
     329 00000000 B2BD          MOVL      *SP++,XAR1            ; [CPU_ALU] 
     330                      .dwcfi  save_reg_to_mem, 7, 2
     331                      .dwcfi  cfa_offset, -4
     332                      .dwpsn  file "../DeviceSupport/source/f28003x_sysctrl.c",line 679,column 5,is_stmt,isa 0
     333 00000001 7622          EALLOW    ; [CPU_ALU] |679| 
     334                      .dwpsn  file "../DeviceSupport/source/f28003x_sysctrl.c",line 680,column 5,is_stmt,isa 0
     335 00000002 8D40!         MOVL      XAR1,#_ClkCfgRegs     ; [CPU_ARAU] |680| 
         00000003 0000 
     336 00000004 8AA1          MOVL      XAR4,XAR1             ; [CPU_ALU] |680| 
     337 00000005 761F!         MOVW      DP,#_ClkCfgRegs+50    ; [CPU_ARAU] 
         00000006 0000 
     338 00000007 DC32          ADDB      XAR4,#50              ; [CPU_ALU] |680| 
     339 00000008 18C4          AND       *+XAR4[0],#0xfffe     ; [CPU_ALU] |680| 
         00000009 FFFE 
     340                      .dwpsn  file "../DeviceSupport/source/f28003x_sysctrl.c",line 681,column 5,is_stmt,isa 0
     341 0000000a 1A32!         OR        @$BLOCKED(_ClkCfgRegs)+50,#0x0002 ; [CPU_ALU] |681| 
         0000000b 0002 
     342                      .dwpsn  file "../DeviceSupport/source/f28003x_sysctrl.c",line 682,column 5,is_stmt,isa 0
     343 0000000c 761A          EDIS      ; [CPU_ALU] |682| 
     344                      .dwpsn  file "../DeviceSupport/source/f28003x_sysctrl.c",line 687,column 5,is_stmt,isa 0
     345              $C$DW$23        .dwtag  DW_TAG_TI_branch
     346                      .dwattr $C$DW$23, DW_AT_low_pc(0x00)
     347                      .dwattr $C$DW$23, DW_AT_name("_PollX1Counter")
     348                      .dwattr $C$DW$23, DW_AT_TI_call
     349              
     350 0000000d 7640+         LCR       #_PollX1Counter       ; [CPU_ALU] |687| 
         0000000e 0000 
     351                      ; call occurs [#_PollX1Counter] ; [] |687| 
     352                      .dwpsn  file "../DeviceSupport/source/f28003x_sysctrl.c",line 692,column 5,is_stmt,isa 0
     353 0000000f 7622          EALLOW    ; [CPU_ALU] |692| 
     354                      .dwpsn  file "../DeviceSupport/source/f28003x_sysctrl.c",line 693,column 5,is_stmt,isa 0
     355 00000010 D008          MOVB      XAR0,#8               ; [CPU_ALU] |693| 
     356 00000011 CC91          AND       AL,*+XAR1[AR0],#0xfffc ; [CPU_ALU] |693| 
         00000012 FFFC 
     357 00000013 5001          ORB       AL,#0x01              ; [CPU_ALU] |693| 
     358 00000014 9608!         MOV       @$BLOCKED(_ClkCfgRegs)+8,AL ; [CPU_ALU] |693| 
     359                      .dwpsn  file "../DeviceSupport/source/f28003x_sysctrl.c",line 694,column 5,is_stmt,isa 0
     360 00000015 761A          EDIS      ; [CPU_ALU] |694| 
     361                      .dwpsn  file "../DeviceSupport/source/f28003x_sysctrl.c",line 700,column 5,is_stmt,isa 0
     362 00000016 D02E          MOVB      XAR0,#46              ; [CPU_ALU] |700| 
TMS320C2000 Assembler PC v22.6.1 Wed May 21 09:51:55 2025

Copyright (c) 1996-2018 Texas Instruments Incorporated
C:\Users\Daniel\AppData\Local\Temp\{78ED34F4-3C3B-4D89-8F5D-B64BD43A86E6} PAGE    8

     363 00000017 4091          TBIT      *+XAR1[AR0],#0        ; [CPU_ALU] |700| 
     364 00000018 6C02          B         $C$L6,NTC             ; [CPU_ALU] |700| 
     365                      ; branchcc occurs ; [] |700| 
     366 00000019 7625   ESTOP0
     367 0000001a       $C$L6:    
     368 0000001a 8BBE          MOVL      XAR1,*--SP            ; [CPU_ALU] 
     369                      .dwcfi  cfa_offset, -2
     370                      .dwcfi  restore_reg, 7
     371 0000001b FF69          SPM       #0                    ; [CPU_ALU] 
     372              $C$DW$24        .dwtag  DW_TAG_TI_branch
     373                      .dwattr $C$DW$24, DW_AT_low_pc(0x00)
     374                      .dwattr $C$DW$24, DW_AT_TI_return
     375              
     376 0000001c 0006          LRETR     ; [CPU_ALU] 
     377                      ; return occurs ; [] 
     378                      .dwattr $C$DW$22, DW_AT_TI_end_file("../DeviceSupport/source/f28003x_sysctrl.c")
     379                      .dwattr $C$DW$22, DW_AT_TI_end_line(0x2c0)
     380                      .dwattr $C$DW$22, DW_AT_TI_end_column(0x01)
     381                      .dwendentry
     382                      .dwendtag $C$DW$22
     383              
     384 00000000               .sect   ".text:_SysIntOsc2Sel"
     385                      .clink
     386                      .global _SysIntOsc2Sel
     387              
     388              $C$DW$25        .dwtag  DW_TAG_subprogram
     389                      .dwattr $C$DW$25, DW_AT_name("SysIntOsc2Sel")
     390                      .dwattr $C$DW$25, DW_AT_low_pc(_SysIntOsc2Sel)
     391                      .dwattr $C$DW$25, DW_AT_high_pc(0x00)
     392                      .dwattr $C$DW$25, DW_AT_TI_symbol_name("_SysIntOsc2Sel")
     393                      .dwattr $C$DW$25, DW_AT_external
     394                      .dwattr $C$DW$25, DW_AT_TI_begin_file("../DeviceSupport/source/f28003x_sysctrl.c")
     395                      .dwattr $C$DW$25, DW_AT_TI_begin_line(0x23f)
     396                      .dwattr $C$DW$25, DW_AT_TI_begin_column(0x06)
     397                      .dwattr $C$DW$25, DW_AT_TI_max_frame_size(-2)
     398                      .dwpsn  file "../DeviceSupport/source/f28003x_sysctrl.c",line 576,column 1,is_stmt,address _SysIntOsc
     399              
     400                      .dwfde $C$DW$CIE, _SysIntOsc2Sel
     401              
     402              ;***************************************************************
     403              ;* FNAME: _SysIntOsc2Sel                FR SIZE:   0           *
     404              ;*                                                             *
     405              ;* FUNCTION ENVIRONMENT                                        *
     406              ;*                                                             *
     407              ;* FUNCTION PROPERTIES                                         *
     408              ;*                            0 Parameter,  0 Auto,  0 SOE     *
     409              ;***************************************************************
     410              
     411 00000000       _SysIntOsc2Sel:
     412                      .dwcfi  cfa_offset, -2
     413                      .dwcfi  save_reg_to_mem, 26, 0
     414                      .dwpsn  file "../DeviceSupport/source/f28003x_sysctrl.c",line 577,column 5,is_stmt,isa 0
     415 00000000 7622          EALLOW    ; [CPU_ALU] |577| 
     416 00000001 761F!         MOVW      DP,#_ClkCfgRegs+8     ; [CPU_ARAU] 
         00000002 0000 
TMS320C2000 Assembler PC v22.6.1 Wed May 21 09:51:55 2025

Copyright (c) 1996-2018 Texas Instruments Incorporated
C:\Users\Daniel\AppData\Local\Temp\{78ED34F4-3C3B-4D89-8F5D-B64BD43A86E6} PAGE    9

     417                      .dwpsn  file "../DeviceSupport/source/f28003x_sysctrl.c",line 578,column 5,is_stmt,isa 0
     418 00000003 1808!         AND       @$BLOCKED(_ClkCfgRegs)+8,#0xfffc ; [CPU_ALU] |578| 
         00000004 FFFC 
     419                      .dwpsn  file "../DeviceSupport/source/f28003x_sysctrl.c",line 579,column 5,is_stmt,isa 0
     420 00000005 761A          EDIS      ; [CPU_ALU] |579| 
     421              $C$DW$26        .dwtag  DW_TAG_TI_branch
     422                      .dwattr $C$DW$26, DW_AT_low_pc(0x00)
     423                      .dwattr $C$DW$26, DW_AT_TI_return
     424              
     425 00000006 0006          LRETR     ; [CPU_ALU] 
     426                      ; return occurs ; [] 
     427                      .dwattr $C$DW$25, DW_AT_TI_end_file("../DeviceSupport/source/f28003x_sysctrl.c")
     428                      .dwattr $C$DW$25, DW_AT_TI_end_line(0x244)
     429                      .dwattr $C$DW$25, DW_AT_TI_end_column(0x01)
     430                      .dwendentry
     431                      .dwendtag $C$DW$25
     432              
     433 00000000               .sect   ".text:_SysIntOsc1Sel"
     434                      .clink
     435                      .global _SysIntOsc1Sel
     436              
     437              $C$DW$27        .dwtag  DW_TAG_subprogram
     438                      .dwattr $C$DW$27, DW_AT_name("SysIntOsc1Sel")
     439                      .dwattr $C$DW$27, DW_AT_low_pc(_SysIntOsc1Sel)
     440                      .dwattr $C$DW$27, DW_AT_high_pc(0x00)
     441                      .dwattr $C$DW$27, DW_AT_TI_symbol_name("_SysIntOsc1Sel")
     442                      .dwattr $C$DW$27, DW_AT_external
     443                      .dwattr $C$DW$27, DW_AT_TI_begin_file("../DeviceSupport/source/f28003x_sysctrl.c")
     444                      .dwattr $C$DW$27, DW_AT_TI_begin_line(0x235)
     445                      .dwattr $C$DW$27, DW_AT_TI_begin_column(0x06)
     446                      .dwattr $C$DW$27, DW_AT_TI_max_frame_size(-2)
     447                      .dwpsn  file "../DeviceSupport/source/f28003x_sysctrl.c",line 566,column 1,is_stmt,address _SysIntOsc
     448              
     449                      .dwfde $C$DW$CIE, _SysIntOsc1Sel
     450              
     451              ;***************************************************************
     452              ;* FNAME: _SysIntOsc1Sel                FR SIZE:   0           *
     453              ;*                                                             *
     454              ;* FUNCTION ENVIRONMENT                                        *
     455              ;*                                                             *
     456              ;* FUNCTION PROPERTIES                                         *
     457              ;*                            0 Parameter,  0 Auto,  0 SOE     *
     458              ;***************************************************************
     459              
     460 00000000       _SysIntOsc1Sel:
     461                      .dwcfi  cfa_offset, -2
     462                      .dwcfi  save_reg_to_mem, 26, 0
     463                      .dwpsn  file "../DeviceSupport/source/f28003x_sysctrl.c",line 567,column 5,is_stmt,isa 0
     464 00000000 7622          EALLOW    ; [CPU_ALU] |567| 
     465 00000001 761F!         MOVW      DP,#_ClkCfgRegs+8     ; [CPU_ARAU] 
         00000002 0000 
     466                      .dwpsn  file "../DeviceSupport/source/f28003x_sysctrl.c",line 568,column 5,is_stmt,isa 0
     467 00000003 CC08!         AND       AL,@$BLOCKED(_ClkCfgRegs)+8,#0xfffe ; [CPU_ALU] |568| 
         00000004 FFFE 
     468 00000005 5002          ORB       AL,#0x02              ; [CPU_ALU] |568| 
TMS320C2000 Assembler PC v22.6.1 Wed May 21 09:51:55 2025

Copyright (c) 1996-2018 Texas Instruments Incorporated
C:\Users\Daniel\AppData\Local\Temp\{78ED34F4-3C3B-4D89-8F5D-B64BD43A86E6} PAGE   10

     469 00000006 9608!         MOV       @$BLOCKED(_ClkCfgRegs)+8,AL ; [CPU_ALU] |568| 
     470                      .dwpsn  file "../DeviceSupport/source/f28003x_sysctrl.c",line 569,column 5,is_stmt,isa 0
     471 00000007 761A          EDIS      ; [CPU_ALU] |569| 
     472              $C$DW$28        .dwtag  DW_TAG_TI_branch
     473                      .dwattr $C$DW$28, DW_AT_low_pc(0x00)
     474                      .dwattr $C$DW$28, DW_AT_TI_return
     475              
     476 00000008 0006          LRETR     ; [CPU_ALU] 
     477                      ; return occurs ; [] 
     478                      .dwattr $C$DW$27, DW_AT_TI_end_file("../DeviceSupport/source/f28003x_sysctrl.c")
     479                      .dwattr $C$DW$27, DW_AT_TI_end_line(0x23a)
     480                      .dwattr $C$DW$27, DW_AT_TI_end_column(0x01)
     481                      .dwendentry
     482                      .dwendtag $C$DW$27
     483              
     484 00000000               .sect   ".text:_ServiceDog"
     485                      .clink
     486                      .global _ServiceDog
     487              
     488              $C$DW$29        .dwtag  DW_TAG_subprogram
     489                      .dwattr $C$DW$29, DW_AT_name("ServiceDog")
     490                      .dwattr $C$DW$29, DW_AT_low_pc(_ServiceDog)
     491                      .dwattr $C$DW$29, DW_AT_high_pc(0x00)
     492                      .dwattr $C$DW$29, DW_AT_TI_symbol_name("_ServiceDog")
     493                      .dwattr $C$DW$29, DW_AT_external
     494                      .dwattr $C$DW$29, DW_AT_TI_begin_file("../DeviceSupport/source/f28003x_sysctrl.c")
     495                      .dwattr $C$DW$29, DW_AT_TI_begin_line(0x16a)
     496                      .dwattr $C$DW$29, DW_AT_TI_begin_column(0x06)
     497                      .dwattr $C$DW$29, DW_AT_TI_max_frame_size(-2)
     498                      .dwpsn  file "../DeviceSupport/source/f28003x_sysctrl.c",line 363,column 1,is_stmt,address _ServiceDo
     499              
     500                      .dwfde $C$DW$CIE, _ServiceDog
     501              
     502              ;***************************************************************
     503              ;* FNAME: _ServiceDog                   FR SIZE:   0           *
     504              ;*                                                             *
     505              ;* FUNCTION ENVIRONMENT                                        *
     506              ;*                                                             *
     507              ;* FUNCTION PROPERTIES                                         *
     508              ;*                            0 Parameter,  0 Auto,  0 SOE     *
     509              ;***************************************************************
     510              
     511 00000000       _ServiceDog:
     512                      .dwcfi  cfa_offset, -2
     513                      .dwcfi  save_reg_to_mem, 26, 0
     514                      .dwpsn  file "../DeviceSupport/source/f28003x_sysctrl.c",line 364,column 5,is_stmt,isa 0
     515 00000000 7622          EALLOW    ; [CPU_ALU] |364| 
     516 00000001 761F!         MOVW      DP,#_WdRegs+37        ; [CPU_ARAU] 
         00000002 0000 
     517                      .dwpsn  file "../DeviceSupport/source/f28003x_sysctrl.c",line 365,column 5,is_stmt,isa 0
     518 00000003 CC25!         AND       AL,@$BLOCKED(_WdRegs)+37,#0xff00 ; [CPU_ALU] |365| 
         00000004 FF00 
     519 00000005 5055          ORB       AL,#0x55              ; [CPU_ALU] |365| 
     520 00000006 9625!         MOV       @$BLOCKED(_WdRegs)+37,AL ; [CPU_ALU] |365| 
     521                      .dwpsn  file "../DeviceSupport/source/f28003x_sysctrl.c",line 366,column 5,is_stmt,isa 0
TMS320C2000 Assembler PC v22.6.1 Wed May 21 09:51:55 2025

Copyright (c) 1996-2018 Texas Instruments Incorporated
C:\Users\Daniel\AppData\Local\Temp\{78ED34F4-3C3B-4D89-8F5D-B64BD43A86E6} PAGE   11

     522 00000007 CC25!         AND       AL,@$BLOCKED(_WdRegs)+37,#0xff80 ; [CPU_ALU] |366| 
         00000008 FF80 
     523 00000009 50AA          ORB       AL,#0xaa              ; [CPU_ALU] |366| 
     524 0000000a 9625!         MOV       @$BLOCKED(_WdRegs)+37,AL ; [CPU_ALU] |366| 
     525                      .dwpsn  file "../DeviceSupport/source/f28003x_sysctrl.c",line 367,column 5,is_stmt,isa 0
     526 0000000b 761A          EDIS      ; [CPU_ALU] |367| 
     527              $C$DW$30        .dwtag  DW_TAG_TI_branch
     528                      .dwattr $C$DW$30, DW_AT_low_pc(0x00)
     529                      .dwattr $C$DW$30, DW_AT_TI_return
     530              
     531 0000000c 0006          LRETR     ; [CPU_ALU] 
     532                      ; return occurs ; [] 
     533                      .dwattr $C$DW$29, DW_AT_TI_end_file("../DeviceSupport/source/f28003x_sysctrl.c")
     534                      .dwattr $C$DW$29, DW_AT_TI_end_line(0x170)
     535                      .dwattr $C$DW$29, DW_AT_TI_end_column(0x01)
     536                      .dwendentry
     537                      .dwendtag $C$DW$29
     538              
     539 00000000               .sect   ".text:_ComputeCntrSeedValue"
     540                      .clink
     541                      .global _ComputeCntrSeedValue
     542              
     543              $C$DW$31        .dwtag  DW_TAG_subprogram
     544                      .dwattr $C$DW$31, DW_AT_name("ComputeCntrSeedValue")
     545                      .dwattr $C$DW$31, DW_AT_low_pc(_ComputeCntrSeedValue)
     546                      .dwattr $C$DW$31, DW_AT_high_pc(0x00)
     547                      .dwattr $C$DW$31, DW_AT_TI_symbol_name("_ComputeCntrSeedValue")
     548                      .dwattr $C$DW$31, DW_AT_external
     549                      .dwattr $C$DW$31, DW_AT_TI_begin_file("../DeviceSupport/source/f28003x_sysctrl.c")
     550                      .dwattr $C$DW$31, DW_AT_TI_begin_line(0x368)
     551                      .dwattr $C$DW$31, DW_AT_TI_begin_column(0x06)
     552                      .dwattr $C$DW$31, DW_AT_TI_max_frame_size(-10)
     553                      .dwpsn  file "../DeviceSupport/source/f28003x_sysctrl.c",line 873,column 1,is_stmt,address _ComputeCn
     554              
     555                      .dwfde $C$DW$CIE, _ComputeCntrSeedValue
     556              $C$DW$32        .dwtag  DW_TAG_formal_parameter
     557                      .dwattr $C$DW$32, DW_AT_name("base")
     558                      .dwattr $C$DW$32, DW_AT_TI_symbol_name("_base")
     559                      .dwattr $C$DW$32, DW_AT_type(*$C$DW$T$21)
     560                      .dwattr $C$DW$32, DW_AT_location[DW_OP_reg0]
     561              
     562              $C$DW$33        .dwtag  DW_TAG_formal_parameter
     563                      .dwattr $C$DW$33, DW_AT_name("fclk1_0ratio")
     564                      .dwattr $C$DW$33, DW_AT_TI_symbol_name("_fclk1_0ratio")
     565                      .dwattr $C$DW$33, DW_AT_type(*$C$DW$T$16)
     566                      .dwattr $C$DW$33, DW_AT_location[DW_OP_regx 0x2b]
     567              
     568              $C$DW$34        .dwtag  DW_TAG_formal_parameter
     569                      .dwattr $C$DW$34, DW_AT_name("tolerance")
     570                      .dwattr $C$DW$34, DW_AT_TI_symbol_name("_tolerance")
     571                      .dwattr $C$DW$34, DW_AT_type(*$C$DW$T$21)
     572                      .dwattr $C$DW$34, DW_AT_location[DW_OP_breg20 -12]
     573              
     574              
     575              ;***************************************************************
TMS320C2000 Assembler PC v22.6.1 Wed May 21 09:51:55 2025

Copyright (c) 1996-2018 Texas Instruments Incorporated
C:\Users\Daniel\AppData\Local\Temp\{78ED34F4-3C3B-4D89-8F5D-B64BD43A86E6} PAGE   12

     576              ;* FNAME: _ComputeCntrSeedValue         FR SIZE:   8           *
     577              ;*                                                             *
     578              ;* FUNCTION ENVIRONMENT                                        *
     579              ;*                                                             *
     580              ;* FUNCTION PROPERTIES                                         *
     581              ;*                            2 Parameter,  0 Auto,  6 SOE     *
     582              ;***************************************************************
     583              
     584              _ComputeCntrSeedValue:
     585              ;* AR7   assigned to $O$C1
     586              ;* AR2   assigned to _base
     587              $C$DW$35        .dwtag  DW_TAG_variable
     588                      .dwattr $C$DW$35, DW_AT_name("base")
     589                      .dwattr $C$DW$35, DW_AT_TI_symbol_name("_base")
     590                      .dwattr $C$DW$35, DW_AT_type(*$C$DW$T$340)
     591                      .dwattr $C$DW$35, DW_AT_location[DW_OP_reg8]
     592              
     593              ;* R4    assigned to _fclk1_0ratio
     594              $C$DW$36        .dwtag  DW_TAG_variable
     595                      .dwattr $C$DW$36, DW_AT_name("fclk1_0ratio")
     596                      .dwattr $C$DW$36, DW_AT_TI_symbol_name("_fclk1_0ratio")
     597                      .dwattr $C$DW$36, DW_AT_type(*$C$DW$T$344)
     598                      .dwattr $C$DW$36, DW_AT_location[DW_OP_regx 0x3b]
     599              
     600              ;* AR1   assigned to _tolerance
     601              $C$DW$37        .dwtag  DW_TAG_variable
     602                      .dwattr $C$DW$37, DW_AT_name("tolerance")
     603                      .dwattr $C$DW$37, DW_AT_TI_symbol_name("_tolerance")
     604                      .dwattr $C$DW$37, DW_AT_type(*$C$DW$T$340)
     605                      .dwattr $C$DW$37, DW_AT_location[DW_OP_reg6]
     606              
     607              ;* PL    assigned to _window
     608              $C$DW$38        .dwtag  DW_TAG_variable
     609                      .dwattr $C$DW$38, DW_AT_name("window")
     610                      .dwattr $C$DW$38, DW_AT_TI_symbol_name("_window")
     611                      .dwattr $C$DW$38, DW_AT_type(*$C$DW$T$21)
     612                      .dwattr $C$DW$38, DW_AT_location[DW_OP_reg2]
     613              
     614              ;* AR6   assigned to _dccCounterSeed0
     615              $C$DW$39        .dwtag  DW_TAG_variable
     616                      .dwattr $C$DW$39, DW_AT_name("dccCounterSeed0")
     617                      .dwattr $C$DW$39, DW_AT_TI_symbol_name("_dccCounterSeed0")
     618                      .dwattr $C$DW$39, DW_AT_type(*$C$DW$T$21)
     619                      .dwattr $C$DW$39, DW_AT_location[DW_OP_reg16]
     620              
     621              ;* AR7   assigned to _dccValidSeed0
     622              $C$DW$40        .dwtag  DW_TAG_variable
     623                      .dwattr $C$DW$40, DW_AT_name("dccValidSeed0")
     624                      .dwattr $C$DW$40, DW_AT_TI_symbol_name("_dccValidSeed0")
     625                      .dwattr $C$DW$40, DW_AT_type(*$C$DW$T$21)
     626                      .dwattr $C$DW$40, DW_AT_location[DW_OP_reg18]
     627              
     628              ;* XT    assigned to _dccCounterSeed1
     629              $C$DW$41        .dwtag  DW_TAG_variable
     630                      .dwattr $C$DW$41, DW_AT_name("dccCounterSeed1")
TMS320C2000 Assembler PC v22.6.1 Wed May 21 09:51:55 2025

Copyright (c) 1996-2018 Texas Instruments Incorporated
C:\Users\Daniel\AppData\Local\Temp\{78ED34F4-3C3B-4D89-8F5D-B64BD43A86E6} PAGE   13

     631                      .dwattr $C$DW$41, DW_AT_TI_symbol_name("_dccCounterSeed1")
     632                      .dwattr $C$DW$41, DW_AT_type(*$C$DW$T$21)
     633                      .dwattr $C$DW$41, DW_AT_location[DW_OP_reg21]
     634              
     635              ;* AR4   assigned to _DccRegs
     636              $C$DW$42        .dwtag  DW_TAG_variable
     637                      .dwattr $C$DW$42, DW_AT_name("DccRegs")
     638                      .dwattr $C$DW$42, DW_AT_TI_symbol_name("_DccRegs")
     639                      .dwattr $C$DW$42, DW_AT_type(*$C$DW$T$228)
     640                      .dwattr $C$DW$42, DW_AT_location[DW_OP_reg12]
     641              
     642                      .dwcfi  cfa_offset, -2
     643                      .dwcfi  save_reg_to_mem, 26, 0
     644 00000000 B2BD          MOVL      *SP++,XAR1            ; [CPU_ALU] 
     645                      .dwcfi  save_reg_to_mem, 7, 2
     646                      .dwcfi  cfa_offset, -4
     647 00000001 AABD          MOVL      *SP++,XAR2            ; [CPU_ALU] 
     648                      .dwcfi  save_reg_to_mem, 9, 4
     649                      .dwcfi  cfa_offset, -6
     650 00000002 E203          MOV32     *SP++,R4H             ; [CPU_FPU] 
         00000003 04BD 
     651                      .dwcfi  save_reg_to_mem, 59, 6
     652                      .dwcfi  cfa_offset, -8
     653 00000004 FE02          ADDB      SP,#2                 ; [CPU_ARAU] 
     654                      .dwcfi  cfa_offset, -10
     655 00000005 E6CF          MOV32     R4H,R0H               ; [CPU_FPU] |873| 
         00000006 0004 
     656 00000007 86A9          MOVL      XAR2,ACC              ; [CPU_ALU] |873| 
     657                      .dwpsn  file "../DeviceSupport/source/f28003x_sysctrl.c",line 877,column 5,is_stmt,isa 0
     658 00000008 E811          CMPF32    R4H,#16256            ; [CPU_FPU] |877| 
         00000009 FC04 
     659                      .dwpsn  file "../DeviceSupport/source/f28003x_sysctrl.c",line 873,column 1,is_stmt,isa 0
     660 0000000a 8B4C          MOVL      XAR1,*-SP[12]         ; [CPU_ALU] |873| 
     661                      .dwpsn  file "../DeviceSupport/source/f28003x_sysctrl.c",line 877,column 5,is_stmt,isa 0
     662 0000000b AD14          MOVST0    ZF, NF                ; [CPU_FPU] |877| 
     663 0000000c 631F          B         $C$L7,GEQ             ; [CPU_ALU] |877| 
     664                      ; branchcc occurs ; [] |877| 
     665                      .dwpsn  file "../DeviceSupport/source/f28003x_sysctrl.c",line 892,column 9,is_stmt,isa 0
     666 0000000d E802          MOVIZ     R0H,#16384            ; [CPU_FPU] |892| 
         0000000e 0000 
     667 0000000f E6CF          MOV32     R1H,R4H               ; [CPU_FPU] |892| 
         00000010 0021 
     668              $C$DW$43        .dwtag  DW_TAG_TI_branch
     669                      .dwattr $C$DW$43, DW_AT_low_pc(0x00)
     670                      .dwattr $C$DW$43, DW_AT_name("FS$$DIV")
     671                      .dwattr $C$DW$43, DW_AT_TI_call
     672              
     673 00000011 7640!         LCR       #FS$$DIV              ; [CPU_ALU] |892| 
         00000012 0000 
     674                      ; call occurs [#FS$$DIV] ; [] |892| 
     675 00000013 E890          ADDF32    R0H,R0H,#16672        ; [CPU_FPU] |892| 
         00000014 4800 
     676 00000015 7700          NOP       ; [CPU_ALU] 
     677 00000016 E68A          F32TOUI32 R0H,R0H               ; [CPU_FPU] |892| 
         00000017 0000 
TMS320C2000 Assembler PC v22.6.1 Wed May 21 09:51:55 2025

Copyright (c) 1996-2018 Texas Instruments Incorporated
C:\Users\Daniel\AppData\Local\Temp\{78ED34F4-3C3B-4D89-8F5D-B64BD43A86E6} PAGE   14

     678 00000018 7700          NOP       ; [CPU_ALU] 
     679 00000019 7700          NOP       ; [CPU_ALU] 
     680 0000001a BFA7          MOV32     XAR7,R0H              ; [CPU_FPU] |892| 
         0000001b 0F12 
     681 0000001c 0264          MOVB      ACC,#100              ; [CPU_ALU] |892| 
     682 0000001d 1EAC          MOVL      XT,ACC                ; [CPU_ALU] |892| 
     683 0000001e 0200          MOVB      ACC,#0                ; [CPU_ALU] |892| 
     684 0000001f 5665          IMPYXUL   P,XT,XAR7             ; [CPU_ALU] |892| 
         00000020 00A7 
     685 00000021 F61F          RPT       #31
     686 00000022 5617  ||     SUBCUL    ACC,XAR1              ; [CPU_ALU] |892| 
         00000023 00A1 
     687                      .dwpsn  file "../DeviceSupport/source/f28003x_sysctrl.c",line 897,column 9,is_stmt,isa 0
     688 00000024 A9A9          MOVL      ACC,P                 ; [CPU_ALU] |897| 
     689 00000025 03A7          SUBL      ACC,XAR7              ; [CPU_ALU] |897| 
     690 00000026 1EA6          MOVL      XAR6,ACC              ; [CPU_ALU] |897| 
     691                      .dwpsn  file "../DeviceSupport/source/f28003x_sysctrl.c",line 898,column 9,is_stmt,isa 0
     692 00000027 06A7          MOVL      ACC,XAR7              ; [CPU_ALU] |898| 
     693 00000028 FF30          LSL       ACC,1                 ; [CPU_ALU] |898| 
     694 00000029 1EA7          MOVL      XAR7,ACC              ; [CPU_ALU] |898| 
     695 0000002a 6F0B          B         $C$L8,UNC             ; [CPU_ALU] |898| 
     696                      ; branch occurs ; [] |898| 
     697 0000002b       $C$L7:    
     698                      .dwpsn  file "../DeviceSupport/source/f28003x_sysctrl.c",line 883,column 9,is_stmt,isa 0
     699 0000002b 8F00          MOVL      XAR4,#1200            ; [CPU_ARAU] |883| 
         0000002c 04B0 
     700 0000002d 0200          MOVB      ACC,#0                ; [CPU_ALU] |883| 
     701 0000002e A8AB          MOVL      P,XAR4                ; [CPU_ALU] |883| 
     702 0000002f F61F          RPT       #31
     703 00000030 5617  ||     SUBCUL    ACC,XAR1              ; [CPU_ALU] |883| 
         00000031 00A1 
     704                      .dwpsn  file "../DeviceSupport/source/f28003x_sysctrl.c",line 884,column 9,is_stmt,isa 0
     705 00000032 A9A6          MOVL      XAR6,P                ; [CPU_ALU] |884| 
     706                      .dwpsn  file "../DeviceSupport/source/f28003x_sysctrl.c",line 885,column 9,is_stmt,isa 0
     707 00000033 B618          MOVB      XAR7,#24              ; [CPU_ALU] |885| 
     708                      .dwpsn  file "../DeviceSupport/source/f28003x_sysctrl.c",line 884,column 9,is_stmt,isa 0
     709 00000034 DE8C          SUBB      XAR6,#12              ; [CPU_ALU] |884| 
     710 00000035       $C$L8:    
     711                      .dwpsn  file "../DeviceSupport/source/f28003x_sysctrl.c",line 905,column 5,is_stmt,isa 0
     712 00000035 BDAB          MOV32     R0H,P                 ; [CPU_FPU] |905| 
         00000036 0F12 
     713 00000037 7700          NOP       ; [CPU_ALU] 
     714 00000038 7700          NOP       ; [CPU_ALU] 
     715 00000039 7700          NOP       ; [CPU_ALU] 
     716 0000003a 7700          NOP       ; [CPU_ALU] 
     717 0000003b E68B          UI32TOF32 R0H,R0H               ; [CPU_FPU] |905| 
         0000003c 0000 
     718 0000003d 7700          NOP       ; [CPU_ALU] 
     719 0000003e E700          MPYF32    R0H,R4H,R0H           ; [CPU_FPU] |905| 
         0000003f 0020 
     720 00000040 7700          NOP       ; [CPU_ALU] 
     721 00000041 E68A          F32TOUI32 R0H,R0H               ; [CPU_FPU] |905| 
         00000042 0000 
     722 00000043 7700          NOP       ; [CPU_ALU] 
     723 00000044 AAA9          MOVL      ACC,XAR2              ; [CPU_ALU] |905| 
TMS320C2000 Assembler PC v22.6.1 Wed May 21 09:51:55 2025

Copyright (c) 1996-2018 Texas Instruments Incorporated
C:\Users\Daniel\AppData\Local\Temp\{78ED34F4-3C3B-4D89-8F5D-B64BD43A86E6} PAGE   15

     724 00000045 BFAC          MOV32     XT,R0H                ; [CPU_FPU] |905| 
         00000046 0F12 
     725                      .dwpsn  file "../DeviceSupport/source/f28003x_sysctrl.c",line 910,column 5,is_stmt,isa 0
     726 00000047 6109          B         $C$L10,EQ             ; [CPU_ALU] |910| 
     727                      ; branchcc occurs ; [] |910| 
     728                      .dwpsn  file "../DeviceSupport/source/f28003x_sysctrl.c",line 912,column 10,is_stmt,isa 0
     729 00000048 0201          MOVB      ACC,#1                ; [CPU_ALU] |912| 
     730 00000049 0FA2          CMPL      ACC,XAR2              ; [CPU_ALU] |912| 
     731 0000004a 6103          B         $C$L9,EQ              ; [CPU_ALU] |912| 
     732                      ; branchcc occurs ; [] |912| 
     733 0000004b 7625   ESTOP0
     734                      .dwpsn  file "../DeviceSupport/source/f28003x_sysctrl.c",line 915,column 9,is_stmt,isa 0
     735 0000004c 6F06          B         $C$L11,UNC            ; [CPU_ALU] |915| 
     736                      ; branch occurs ; [] |915| 
     737 0000004d       $C$L9:    
     738                      .dwpsn  file "../DeviceSupport/source/f28003x_sysctrl.c",line 913,column 9,is_stmt,isa 0
     739 0000004d 8F00!         MOVL      XAR4,#_Dcc1Regs       ; [CPU_ARAU] |913| 
         0000004e 0000 
     740 0000004f 6F03          B         $C$L11,UNC            ; [CPU_ALU] 
     741                      ; branch occurs ; [] 
     742 00000050       $C$L10:    
     743                      .dwpsn  file "../DeviceSupport/source/f28003x_sysctrl.c",line 911,column 9,is_stmt,isa 0
     744 00000050 8F00!         MOVL      XAR4,#_Dcc0Regs       ; [CPU_ARAU] |911| 
         00000051 0000 
     745 00000052       $C$L11:    
     746                      .dwpsn  file "../DeviceSupport/source/f28003x_sysctrl.c",line 920,column 5,is_stmt,isa 0
     747 00000052 06A6          MOVL      ACC,XAR6              ; [CPU_ALU] |920| 
     748 00000053 83A4          MOVL      XAR5,XAR4             ; [CPU_ALU] |920| 
     749 00000054 C4A4          MOVL      XAR6,XAR4             ; [CPU_ALU] |920| 
     750                      .dwpsn  file "../DeviceSupport/source/f28003x_sysctrl.c",line 921,column 5,is_stmt,isa 0
     751 00000055 D00C          MOVB      XAR0,#12              ; [CPU_ALU] |921| 
     752                      .dwpsn  file "../DeviceSupport/source/f28003x_sysctrl.c",line 920,column 5,is_stmt,isa 0
     753 00000056 910F          ANDB      AH,#15                ; [CPU_ALU] |920| 
     754 00000057 DD08          ADDB      XAR5,#8               ; [CPU_ALU] |920| 
     755 00000058 FF69          SPM       #0                    ; [CPU_ALU] 
     756 00000059 A3C5          MOVL      P,*+XAR5[0]           ; [CPU_ALU] |920| 
     757 0000005a DE08          ADDB      XAR6,#8               ; [CPU_ALU] |920| 
     758 0000005b 18AB          AND       PL,#0                 ; [CPU_ALU] |920| 
         0000005c 0000 
     759 0000005d 18AA          AND       PH,#65520             ; [CPU_ALU] |920| 
         0000005e FFF0 
     760                      .dwpsn  file "../DeviceSupport/source/f28003x_sysctrl.c",line 922,column 5,is_stmt,isa 0
     761 0000005f 83A4          MOVL      XAR5,XAR4             ; [CPU_ALU] |922| 
     762                      .dwpsn  file "../DeviceSupport/source/f28003x_sysctrl.c",line 920,column 5,is_stmt,isa 0
     763 00000060 CAAB          OR        AL,PL                 ; [CPU_ALU] |920| 
     764 00000061 CBAA          OR        AH,PH                 ; [CPU_ALU] |920| 
     765 00000062 1EC6          MOVL      *+XAR6[0],ACC         ; [CPU_ALU] |920| 
     766                      .dwpsn  file "../DeviceSupport/source/f28003x_sysctrl.c",line 921,column 5,is_stmt,isa 0
     767 00000063 7F94          MOV       *+XAR4[AR0],AR7       ; [CPU_ALU] |921| 
     768                      .dwpsn  file "../DeviceSupport/source/f28003x_sysctrl.c",line 922,column 5,is_stmt,isa 0
     769 00000064 ABA9          MOVL      ACC,XT                ; [CPU_ALU] |922| 
     770 00000065 DD10          ADDB      XAR5,#16              ; [CPU_ALU] |922| 
     771 00000066 910F          ANDB      AH,#15                ; [CPU_ALU] |922| 
     772 00000067 DC10          ADDB      XAR4,#16              ; [CPU_ALU] |922| 
     773 00000068 A3C5          MOVL      P,*+XAR5[0]           ; [CPU_ALU] |922| 
TMS320C2000 Assembler PC v22.6.1 Wed May 21 09:51:55 2025

Copyright (c) 1996-2018 Texas Instruments Incorporated
C:\Users\Daniel\AppData\Local\Temp\{78ED34F4-3C3B-4D89-8F5D-B64BD43A86E6} PAGE   16

     774 00000069 18AB          AND       PL,#0                 ; [CPU_ALU] |922| 
         0000006a 0000 
     775 0000006b 18AA          AND       PH,#65520             ; [CPU_ALU] |922| 
         0000006c FFF0 
     776 0000006d FE82          SUBB      SP,#2                 ; [CPU_ARAU] 
     777                      .dwcfi  cfa_offset, -8
     778 0000006e CAAB          OR        AL,PL                 ; [CPU_ALU] |922| 
     779 0000006f CBAA          OR        AH,PH                 ; [CPU_ALU] |922| 
     780 00000070 1EC4          MOVL      *+XAR4[0],ACC         ; [CPU_ALU] |922| 
     781 00000071 E2AF          MOV32     R4H,*--SP             ; [CPU_FPU] 
         00000072 04BE 
     782                      .dwcfi  cfa_offset, -6
     783                      .dwcfi  restore_reg, 59
     784 00000073 86BE          MOVL      XAR2,*--SP            ; [CPU_ALU] 
     785                      .dwcfi  cfa_offset, -4
     786                      .dwcfi  restore_reg, 9
     787 00000074 8BBE          MOVL      XAR1,*--SP            ; [CPU_ALU] 
     788                      .dwcfi  cfa_offset, -2
     789                      .dwcfi  restore_reg, 7
     790              $C$DW$44        .dwtag  DW_TAG_TI_branch
     791                      .dwattr $C$DW$44, DW_AT_low_pc(0x00)
     792                      .dwattr $C$DW$44, DW_AT_TI_return
     793              
     794 00000075 0006          LRETR     ; [CPU_ALU] 
     795                      ; return occurs ; [] 
     796                      .dwattr $C$DW$31, DW_AT_TI_end_file("../DeviceSupport/source/f28003x_sysctrl.c")
     797                      .dwattr $C$DW$31, DW_AT_TI_end_line(0x39b)
     798                      .dwattr $C$DW$31, DW_AT_TI_end_column(0x01)
     799                      .dwendentry
     800                      .dwendtag $C$DW$31
     801              
     802 00000000               .sect   ".text:_IsPLLValid"
     803                      .clink
     804                      .global _IsPLLValid
     805              
     806              $C$DW$45        .dwtag  DW_TAG_subprogram
     807                      .dwattr $C$DW$45, DW_AT_name("IsPLLValid")
     808                      .dwattr $C$DW$45, DW_AT_low_pc(_IsPLLValid)
     809                      .dwattr $C$DW$45, DW_AT_high_pc(0x00)
     810                      .dwattr $C$DW$45, DW_AT_TI_symbol_name("_IsPLLValid")
     811                      .dwattr $C$DW$45, DW_AT_external
     812                      .dwattr $C$DW$45, DW_AT_type(*$C$DW$T$345)
     813                      .dwattr $C$DW$45, DW_AT_TI_begin_file("../DeviceSupport/source/f28003x_sysctrl.c")
     814                      .dwattr $C$DW$45, DW_AT_TI_begin_line(0x2e2)
     815                      .dwattr $C$DW$45, DW_AT_TI_begin_column(0x01)
     816                      .dwattr $C$DW$45, DW_AT_TI_max_frame_size(-8)
     817                      .dwpsn  file "../DeviceSupport/source/f28003x_sysctrl.c",line 740,column 1,is_stmt,address _IsPLLVali
     818              
     819                      .dwfde $C$DW$CIE, _IsPLLValid
     820              $C$DW$46        .dwtag  DW_TAG_formal_parameter
     821                      .dwattr $C$DW$46, DW_AT_name("base")
     822                      .dwattr $C$DW$46, DW_AT_TI_symbol_name("_base")
     823                      .dwattr $C$DW$46, DW_AT_type(*$C$DW$T$21)
     824                      .dwattr $C$DW$46, DW_AT_location[DW_OP_reg0]
     825              
TMS320C2000 Assembler PC v22.6.1 Wed May 21 09:51:55 2025

Copyright (c) 1996-2018 Texas Instruments Incorporated
C:\Users\Daniel\AppData\Local\Temp\{78ED34F4-3C3B-4D89-8F5D-B64BD43A86E6} PAGE   17

     826              $C$DW$47        .dwtag  DW_TAG_formal_parameter
     827                      .dwattr $C$DW$47, DW_AT_name("oscSource")
     828                      .dwattr $C$DW$47, DW_AT_TI_symbol_name("_oscSource")
     829                      .dwattr $C$DW$47, DW_AT_type(*$C$DW$T$19)
     830                      .dwattr $C$DW$47, DW_AT_location[DW_OP_reg12]
     831              
     832              $C$DW$48        .dwtag  DW_TAG_formal_parameter
     833                      .dwattr $C$DW$48, DW_AT_name("pllclk")
     834                      .dwattr $C$DW$48, DW_AT_TI_symbol_name("_pllclk")
     835                      .dwattr $C$DW$48, DW_AT_type(*$C$DW$T$19)
     836                      .dwattr $C$DW$48, DW_AT_location[DW_OP_reg14]
     837              
     838              $C$DW$49        .dwtag  DW_TAG_formal_parameter
     839                      .dwattr $C$DW$49, DW_AT_name("imult")
     840                      .dwattr $C$DW$49, DW_AT_TI_symbol_name("_imult")
     841                      .dwattr $C$DW$49, DW_AT_type(*$C$DW$T$19)
     842                      .dwattr $C$DW$49, DW_AT_location[DW_OP_breg20 -9]
     843              
     844              $C$DW$50        .dwtag  DW_TAG_formal_parameter
     845                      .dwattr $C$DW$50, DW_AT_name("odiv")
     846                      .dwattr $C$DW$50, DW_AT_TI_symbol_name("_odiv")
     847                      .dwattr $C$DW$50, DW_AT_type(*$C$DW$T$19)
     848                      .dwattr $C$DW$50, DW_AT_location[DW_OP_breg20 -10]
     849              
     850              $C$DW$51        .dwtag  DW_TAG_formal_parameter
     851                      .dwattr $C$DW$51, DW_AT_name("refdiv")
     852                      .dwattr $C$DW$51, DW_AT_TI_symbol_name("_refdiv")
     853                      .dwattr $C$DW$51, DW_AT_type(*$C$DW$T$19)
     854                      .dwattr $C$DW$51, DW_AT_location[DW_OP_breg20 -11]
     855              
     856              
     857              ;***************************************************************
     858              ;* FNAME: _IsPLLValid                   FR SIZE:   6           *
     859              ;*                                                             *
     860              ;* FUNCTION ENVIRONMENT                                        *
     861              ;*                                                             *
     862              ;* FUNCTION PROPERTIES                                         *
     863              ;*                            2 Parameter,  0 Auto,  4 SOE     *
     864              ;***************************************************************
     865              
     866              _IsPLLValid:
     867              ;* AR1   assigned to $O$U57
     868              ;* AR3   assigned to _base
     869              $C$DW$52        .dwtag  DW_TAG_variable
     870                      .dwattr $C$DW$52, DW_AT_name("base")
     871                      .dwattr $C$DW$52, DW_AT_TI_symbol_name("_base")
     872                      .dwattr $C$DW$52, DW_AT_type(*$C$DW$T$340)
     873                      .dwattr $C$DW$52, DW_AT_location[DW_OP_reg10]
     874              
     875              ;* AR4   assigned to _oscSource
     876              $C$DW$53        .dwtag  DW_TAG_variable
     877                      .dwattr $C$DW$53, DW_AT_name("oscSource")
     878                      .dwattr $C$DW$53, DW_AT_TI_symbol_name("_oscSource")
     879                      .dwattr $C$DW$53, DW_AT_type(*$C$DW$T$334)
     880                      .dwattr $C$DW$53, DW_AT_location[DW_OP_reg12]
TMS320C2000 Assembler PC v22.6.1 Wed May 21 09:51:55 2025

Copyright (c) 1996-2018 Texas Instruments Incorporated
C:\Users\Daniel\AppData\Local\Temp\{78ED34F4-3C3B-4D89-8F5D-B64BD43A86E6} PAGE   18

     881              
     882              ;* AR5   assigned to _pllclk
     883              $C$DW$54        .dwtag  DW_TAG_variable
     884                      .dwattr $C$DW$54, DW_AT_name("pllclk")
     885                      .dwattr $C$DW$54, DW_AT_TI_symbol_name("_pllclk")
     886                      .dwattr $C$DW$54, DW_AT_type(*$C$DW$T$334)
     887                      .dwattr $C$DW$54, DW_AT_location[DW_OP_reg14]
     888              
     889              ;* AR0   assigned to _imult
     890              $C$DW$55        .dwtag  DW_TAG_variable
     891                      .dwattr $C$DW$55, DW_AT_name("imult")
     892                      .dwattr $C$DW$55, DW_AT_TI_symbol_name("_imult")
     893                      .dwattr $C$DW$55, DW_AT_type(*$C$DW$T$334)
     894                      .dwattr $C$DW$55, DW_AT_location[DW_OP_reg4]
     895              
     896              ;* PH    assigned to _odiv
     897              $C$DW$56        .dwtag  DW_TAG_variable
     898                      .dwattr $C$DW$56, DW_AT_name("odiv")
     899                      .dwattr $C$DW$56, DW_AT_TI_symbol_name("_odiv")
     900                      .dwattr $C$DW$56, DW_AT_type(*$C$DW$T$334)
     901                      .dwattr $C$DW$56, DW_AT_location[DW_OP_reg3]
     902              
     903              ;* PL    assigned to _refdiv
     904              $C$DW$57        .dwtag  DW_TAG_variable
     905                      .dwattr $C$DW$57, DW_AT_name("refdiv")
     906                      .dwattr $C$DW$57, DW_AT_TI_symbol_name("_refdiv")
     907                      .dwattr $C$DW$57, DW_AT_type(*$C$DW$T$334)
     908                      .dwattr $C$DW$57, DW_AT_location[DW_OP_reg2]
     909              
     910              ;* AR1   assigned to _DccRegs
     911              $C$DW$58        .dwtag  DW_TAG_variable
     912                      .dwattr $C$DW$58, DW_AT_name("DccRegs")
     913                      .dwattr $C$DW$58, DW_AT_TI_symbol_name("_DccRegs")
     914                      .dwattr $C$DW$58, DW_AT_type(*$C$DW$T$228)
     915                      .dwattr $C$DW$58, DW_AT_location[DW_OP_reg6]
     916              
     917                      .dwcfi  cfa_offset, -2
     918                      .dwcfi  save_reg_to_mem, 26, 0
     919 00000000 B2BD          MOVL      *SP++,XAR1            ; [CPU_ALU] 
     920                      .dwcfi  save_reg_to_mem, 7, 2
     921                      .dwcfi  cfa_offset, -4
     922 00000001 A2BD          MOVL      *SP++,XAR3            ; [CPU_ALU] 
     923                      .dwcfi  save_reg_to_mem, 11, 4
     924                      .dwcfi  cfa_offset, -6
     925 00000002 FE02          ADDB      SP,#2                 ; [CPU_ARAU] 
     926                      .dwcfi  cfa_offset, -8
     927 00000003 82A9          MOVL      XAR3,ACC              ; [CPU_ALU] |740| 
     928 00000004 8D7F          MOVL      XAR1,#-2              ; [CPU_ALU] |740| 
         00000005 FFFE 
     929 00000006 274B          MOV       PL,*-SP[11]           ; [CPU_ALU] |740| 
     930 00000007 2F4A          MOV       PH,*-SP[10]           ; [CPU_ALU] |740| 
     931 00000008 5849          MOVZ      AR0,*-SP[9]           ; [CPU_ALU] |740| 
     932                      .dwpsn  file "../DeviceSupport/source/f28003x_sysctrl.c",line 744,column 5,is_stmt,isa 0
     933 00000009 7622          EALLOW    ; [CPU_ALU] |744| 
     934                      .dwpsn  file "../DeviceSupport/source/f28003x_sysctrl.c",line 750,column 5,is_stmt,isa 0
TMS320C2000 Assembler PC v22.6.1 Wed May 21 09:51:55 2025

Copyright (c) 1996-2018 Texas Instruments Incorporated
C:\Users\Daniel\AppData\Local\Temp\{78ED34F4-3C3B-4D89-8F5D-B64BD43A86E6} PAGE   19

     935 0000000a FF58          TEST      ACC                   ; [CPU_ALU] |750| 
     936 0000000b 610D          B         $C$L13,EQ             ; [CPU_ALU] |750| 
     937                      ; branchcc occurs ; [] |750| 
     938                      .dwpsn  file "../DeviceSupport/source/f28003x_sysctrl.c",line 755,column 10,is_stmt,isa 0
     939 0000000c 0201          MOVB      ACC,#1                ; [CPU_ALU] |755| 
     940 0000000d 0FA3          CMPL      ACC,XAR3              ; [CPU_ALU] |755| 
     941 0000000e 6103          B         $C$L12,EQ             ; [CPU_ALU] |755| 
     942                      ; branchcc occurs ; [] |755| 
     943 0000000f 7625   ESTOP0
     944                      .dwpsn  file "../DeviceSupport/source/f28003x_sysctrl.c",line 761,column 9,is_stmt,isa 0
     945 00000010 6F0E          B         $C$L14,UNC            ; [CPU_ALU] |761| 
     946                      ; branch occurs ; [] |761| 
     947 00000011       $C$L12:    
     948 00000011 761F!         MOVW      DP,#_CpuSysRegs+76    ; [CPU_ARAU] 
         00000012 0001 
     949                      .dwpsn  file "../DeviceSupport/source/f28003x_sysctrl.c",line 757,column 13,is_stmt,isa 0
     950 00000013 8D40!         MOVL      XAR1,#_Dcc1Regs       ; [CPU_ARAU] |757| 
         00000014 0000 
     951                      .dwpsn  file "../DeviceSupport/source/f28003x_sysctrl.c",line 758,column 13,is_stmt,isa 0
     952 00000015 1A0C!         OR        @$BLOCKED(_CpuSysRegs)+76,#0x0002 ; [CPU_ALU] |758| 
         00000016 0002 
     953 00000017 6F07          B         $C$L14,UNC            ; [CPU_ALU] 
     954                      ; branch occurs ; [] 
     955 00000018       $C$L13:    
     956 00000018 761F!         MOVW      DP,#_CpuSysRegs+76    ; [CPU_ARAU] 
         00000019 0001 
     957                      .dwpsn  file "../DeviceSupport/source/f28003x_sysctrl.c",line 752,column 13,is_stmt,isa 0
     958 0000001a 8D40!         MOVL      XAR1,#_Dcc0Regs       ; [CPU_ARAU] |752| 
         0000001b 0000 
     959                      .dwpsn  file "../DeviceSupport/source/f28003x_sysctrl.c",line 753,column 13,is_stmt,isa 0
     960 0000001c 1A0C!         OR        @$BLOCKED(_CpuSysRegs)+76,#0x0001 ; [CPU_ALU] |753| 
         0000001d 0001 
     961 0000001e       $C$L14:    
     962                      .dwpsn  file "../DeviceSupport/source/f28003x_sysctrl.c",line 766,column 5,is_stmt,isa 0
     963 0000001e C5A1          MOVL      XAR7,XAR1             ; [CPU_ALU] |766| 
     964                      .dwpsn  file "../DeviceSupport/source/f28003x_sysctrl.c",line 767,column 5,is_stmt,isa 0
     965 0000001f C4A1          MOVL      XAR6,XAR1             ; [CPU_ALU] |767| 
     966                      .dwpsn  file "../DeviceSupport/source/f28003x_sysctrl.c",line 766,column 5,is_stmt,isa 0
     967 00000020 DF14          ADDB      XAR7,#20              ; [CPU_ALU] |766| 
     968                      .dwpsn  file "../DeviceSupport/source/f28003x_sysctrl.c",line 767,column 5,is_stmt,isa 0
     969 00000021 DE14          ADDB      XAR6,#20              ; [CPU_ALU] |767| 
     970                      .dwpsn  file "../DeviceSupport/source/f28003x_sysctrl.c",line 766,column 5,is_stmt,isa 0
     971 00000022 1AC7          OR        *+XAR7[0],#0x0001     ; [CPU_FPU] |766| 
         00000023 0001 
     972                      .dwpsn  file "../DeviceSupport/source/f28003x_sysctrl.c",line 767,column 5,is_stmt,isa 0
     973 00000024 1AC6          OR        *+XAR6[0],#0x0002     ; [CPU_ALU] |767| 
         00000025 0002 
     974                      .dwpsn  file "../DeviceSupport/source/f28003x_sysctrl.c",line 772,column 5,is_stmt,isa 0
     975 00000026 CCC1          AND       AL,*+XAR1[0],#0xfff0  ; [CPU_ALU] |772| 
         00000027 FFF0 
     976 00000028 5005          ORB       AL,#0x05              ; [CPU_ALU] |772| 
     977 00000029 96C1          MOV       *+XAR1[0],AL          ; [CPU_ALU] |772| 
     978                      .dwpsn  file "../DeviceSupport/source/f28003x_sysctrl.c",line 777,column 5,is_stmt,isa 0
     979 0000002a CCC1          AND       AL,*+XAR1[0],#0xff1f  ; [CPU_ALU] |777| 
         0000002b FF1F 
TMS320C2000 Assembler PC v22.6.1 Wed May 21 09:51:55 2025

Copyright (c) 1996-2018 Texas Instruments Incorporated
C:\Users\Daniel\AppData\Local\Temp\{78ED34F4-3C3B-4D89-8F5D-B64BD43A86E6} PAGE   20

     980 0000002c 5050          ORB       AL,#0x50              ; [CPU_ALU] |777| 
     981 0000002d 96C1          MOV       *+XAR1[0],AL          ; [CPU_ALU] |777| 
     982                      .dwpsn  file "../DeviceSupport/source/f28003x_sysctrl.c",line 782,column 5,is_stmt,isa 0
     983 0000002e CCC1          AND       AL,*+XAR1[0],#0x0fff  ; [CPU_ALU] |782| 
         0000002f 0FFF 
     984 00000030 1AA9          OR        AL,#0x5000            ; [CPU_ALU] |782| 
         00000031 5000 
     985 00000032 96C1          MOV       *+XAR1[0],AL          ; [CPU_ALU] |782| 
     986 00000033 92A5          MOV       AL,AR5                ; [CPU_ALU] |782| 
     987                      .dwpsn  file "../DeviceSupport/source/f28003x_sysctrl.c",line 789,column 5,is_stmt,isa 0
     988 00000034 6006          B         $C$L15,NEQ            ; [CPU_ALU] |789| 
     989                      ; branchcc occurs ; [] |789| 
     990                      .dwpsn  file "../DeviceSupport/source/f28003x_sysctrl.c",line 792,column 13,is_stmt,isa 0
     991 00000035 83A1          MOVL      XAR5,XAR1             ; [CPU_ALU] |792| 
     992 00000036 7680          MOVL      XAR6,#40960           ; [CPU_ARAU] |792| 
         00000037 A000 
     993 00000038 DD24          ADDB      XAR5,#36              ; [CPU_ALU] |792| 
     994 00000039 C2C5          MOVL      *+XAR5[0],XAR6        ; [CPU_ALU] |792| 
     995 0000003a       $C$L15:    
     996                      .dwpsn  file "../DeviceSupport/source/f28003x_sysctrl.c",line 808,column 5,is_stmt,isa 0
     997 0000003a 92A4          MOV       AL,AR4                ; [CPU_ALU] |808| 
     998 0000003b 610D          B         $C$L18,EQ             ; [CPU_ALU] |808| 
     999                      ; branchcc occurs ; [] |808| 
    1000 0000003c 5201          CMPB      AL,#1                 ; [CPU_ALU] |808| 
    1001 0000003d 6105          B         $C$L16,EQ             ; [CPU_ALU] |808| 
    1002                      ; branchcc occurs ; [] |808| 
    1003 0000003e 5202          CMPB      AL,#2                 ; [CPU_ALU] |808| 
    1004 0000003f 6106          B         $C$L17,EQ             ; [CPU_ALU] |808| 
    1005                      ; branchcc occurs ; [] |808| 
    1006 00000040 5205          CMPB      AL,#5                 ; [CPU_ALU] |808| 
    1007 00000041 600C          B         $C$L20,NEQ            ; [CPU_ALU] |808| 
    1008                      ; branchcc occurs ; [] |808| 
    1009 00000042       $C$L16:    
    1010                      .dwpsn  file "../DeviceSupport/source/f28003x_sysctrl.c",line 820,column 13,is_stmt,isa 0
    1011 00000042 8F40          MOVL      XAR5,#40960           ; [CPU_ARAU] |820| 
         00000043 A000 
    1012                      .dwpsn  file "../DeviceSupport/source/f28003x_sysctrl.c",line 821,column 13,is_stmt,isa 0
    1013 00000044 6F06          B         $C$L19,UNC            ; [CPU_ALU] |821| 
    1014                      ; branch occurs ; [] |821| 
    1015 00000045       $C$L17:    
    1016                      .dwpsn  file "../DeviceSupport/source/f28003x_sysctrl.c",line 811,column 13,is_stmt,isa 0
    1017 00000045 8F40          MOVL      XAR5,#40961           ; [CPU_ARAU] |811| 
         00000046 A001 
    1018                      .dwpsn  file "../DeviceSupport/source/f28003x_sysctrl.c",line 812,column 13,is_stmt,isa 0
    1019 00000047 6F03          B         $C$L19,UNC            ; [CPU_ALU] |812| 
    1020                      ; branch occurs ; [] |812| 
    1021 00000048       $C$L18:    
    1022                      .dwpsn  file "../DeviceSupport/source/f28003x_sysctrl.c",line 815,column 13,is_stmt,isa 0
    1023 00000048 8F40          MOVL      XAR5,#40962           ; [CPU_ARAU] |815| 
         00000049 A002 
    1024 0000004a       $C$L19:    
    1025 0000004a 8AA1          MOVL      XAR4,XAR1             ; [CPU_ALU] |815| 
    1026 0000004b DC28          ADDB      XAR4,#40              ; [CPU_ALU] |815| 
    1027 0000004c A0C4          MOVL      *+XAR4[0],XAR5        ; [CPU_ALU] |815| 
    1028 0000004d       $C$L20:    
TMS320C2000 Assembler PC v22.6.1 Wed May 21 09:51:55 2025

Copyright (c) 1996-2018 Texas Instruments Incorporated
C:\Users\Daniel\AppData\Local\Temp\{78ED34F4-3C3B-4D89-8F5D-B64BD43A86E6} PAGE   21

    1029                      .dwpsn  file "../DeviceSupport/source/f28003x_sysctrl.c",line 839,column 5,is_stmt,isa 0
    1030 0000004d 9B01          MOVB      AH,#1                 ; [CPU_ALU] |839| 
    1031 0000004e 28AC          MOV       T,#1                  ; [CPU_ALU] |839| 
         0000004f 0001 
    1032 00000050 88A0          MOVZ      AR6,AR0               ; [CPU_ALU] |839| 
    1033 00000051 92AB          MOV       AL,PL                 ; [CPU_ALU] |839| 
    1034 00000052 95AA          ADD       AH,PH                 ; [CPU_ALU] |839| 
    1035 00000053 72AC          ADD       T,AL                  ; [CPU_ALU] |839| 
    1036 00000054 BDA6          MOV32     R0H,XAR6              ; [CPU_FPU] |839| 
         00000055 0F12 
    1037 00000056 12A8          MPY       ACC,T,AH              ; [CPU_ALU] |839| 
    1038 00000057 0EA9          MOVU      ACC,AL                ; [CPU_ALU] |839| 
    1039 00000058 BDA9          MOV32     R1H,ACC               ; [CPU_FPU] |839| 
         00000059 0F16 
    1040 0000005a 7700          NOP       ; [CPU_ALU] 
    1041 0000005b 7700          NOP       ; [CPU_ALU] 
    1042 0000005c FF69          SPM       #0                    ; [CPU_ALU] 
    1043 0000005d E68B          UI32TOF32 R0H,R0H               ; [CPU_FPU] |839| 
         0000005e 0000 
    1044 0000005f E68B          UI32TOF32 R1H,R1H               ; [CPU_FPU] |839| 
         00000060 0009 
    1045              $C$DW$59        .dwtag  DW_TAG_TI_branch
    1046                      .dwattr $C$DW$59, DW_AT_low_pc(0x00)
    1047                      .dwattr $C$DW$59, DW_AT_name("FS$$DIV")
    1048                      .dwattr $C$DW$59, DW_AT_TI_call
    1049              
    1050 00000061 7640!         LCR       #FS$$DIV              ; [CPU_ALU] |839| 
         00000062 0000 
    1051                      ; call occurs [#FS$$DIV] ; [] |839| 
    1052 00000063 0201          MOVB      ACC,#1                ; [CPU_ALU] |839| 
    1053 00000064 1E42          MOVL      *-SP[2],ACC           ; [CPU_ALU] |839| 
    1054 00000065 A2A9          MOVL      ACC,XAR3              ; [CPU_ALU] |839| 
    1055              $C$DW$60        .dwtag  DW_TAG_TI_branch
    1056                      .dwattr $C$DW$60, DW_AT_low_pc(0x00)
    1057                      .dwattr $C$DW$60, DW_AT_name("_ComputeCntrSeedValue")
    1058                      .dwattr $C$DW$60, DW_AT_TI_call
    1059              
    1060 00000066 7640+         LCR       #_ComputeCntrSeedValue ; [CPU_ALU] |839| 
         00000067 0000 
    1061                      ; call occurs [#_ComputeCntrSeedValue] ; [] |839| 
    1062                      .dwpsn  file "../DeviceSupport/source/f28003x_sysctrl.c",line 844,column 5,is_stmt,isa 0
    1063 00000068 CCC1          AND       AL,*+XAR1[0],#0xf8ff  ; [CPU_ALU] |844| 
         00000069 F8FF 
    1064 0000006a 1AA9          OR        AL,#0x0a00            ; [CPU_ALU] |844| 
         0000006b 0A00 
    1065 0000006c 96C1          MOV       *+XAR1[0],AL          ; [CPU_ALU] |844| 
    1066                      .dwpsn  file "../DeviceSupport/source/f28003x_sysctrl.c",line 849,column 5,is_stmt,isa 0
    1067 0000006d CCC1          AND       AL,*+XAR1[0],#0xfff8  ; [CPU_ALU] |849| 
         0000006e FFF8 
    1068 0000006f 500A          ORB       AL,#0x0a              ; [CPU_ALU] |849| 
    1069 00000070 96C1          MOV       *+XAR1[0],AL          ; [CPU_ALU] |849| 
    1070                      .dwpsn  file "../DeviceSupport/source/f28003x_sysctrl.c",line 850,column 5,is_stmt,isa 0
    1071 00000071 761A          EDIS      ; [CPU_ALU] |850| 
    1072 00000072 D914          ADDB      XAR1,#20              ; [CPU_ALU] 
    1073 00000073       $C$L21:    
TMS320C2000 Assembler PC v22.6.1 Wed May 21 09:51:55 2025

Copyright (c) 1996-2018 Texas Instruments Incorporated
C:\Users\Daniel\AppData\Local\Temp\{78ED34F4-3C3B-4D89-8F5D-B64BD43A86E6} PAGE   22

    1074                      .dwpsn  file "../DeviceSupport/source/f28003x_sysctrl.c",line 855,column 11,is_stmt,isa 0
    1075 00000073 06C1          MOVL      ACC,*+XAR1[0]         ; [CPU_ALU] |855| 
    1076 00000074 9B00          MOVB      AH,#0                 ; [CPU_ALU] |855| 
    1077 00000075 9003          ANDB      AL,#0x03              ; [CPU_ALU] |855| 
    1078 00000076 FF58          TEST      ACC                   ; [CPU_ALU] |855| 
    1079 00000077 61FC          B         $C$L21,EQ             ; [CPU_ALU] |855| 
    1080                      ; branchcc occurs ; [] |855| 
    1081                      .dwpsn  file "../DeviceSupport/source/f28003x_sysctrl.c",line 862,column 5,is_stmt,isa 0
    1082 00000078 06C1          MOVL      ACC,*+XAR1[0]         ; [CPU_ALU] |862| 
    1083 00000079 B602          MOVB      XAR7,#2               ; [CPU_ALU] |862| 
    1084 0000007a BE00          MOVB      XAR6,#0               ; [CPU_ALU] |862| 
    1085 0000007b 9B00          MOVB      AH,#0                 ; [CPU_ALU] |862| 
    1086 0000007c 9003          ANDB      AL,#0x03              ; [CPU_ALU] |862| 
    1087 0000007d 0FA7          CMPL      ACC,XAR7              ; [CPU_ALU] |862| 
    1088 0000007e 56B1          MOVB      XAR6,#1,EQ            ; [CPU_ALU] |862| 
         0000007f 01A6 
    1089 00000080 FE82          SUBB      SP,#2                 ; [CPU_ARAU] 
    1090                      .dwcfi  cfa_offset, -6
    1091 00000081 82BE          MOVL      XAR3,*--SP            ; [CPU_ALU] 
    1092                      .dwcfi  cfa_offset, -4
    1093                      .dwcfi  restore_reg, 11
    1094 00000082 92A6          MOV       AL,AR6                ; [CPU_ALU] |862| 
    1095 00000083 8BBE          MOVL      XAR1,*--SP            ; [CPU_ALU] 
    1096                      .dwcfi  cfa_offset, -2
    1097                      .dwcfi  restore_reg, 7
    1098              $C$DW$61        .dwtag  DW_TAG_TI_branch
    1099                      .dwattr $C$DW$61, DW_AT_low_pc(0x00)
    1100                      .dwattr $C$DW$61, DW_AT_TI_return
    1101              
    1102 00000084 0006          LRETR     ; [CPU_ALU] 
    1103                      ; return occurs ; [] 
    1104                      .dwattr $C$DW$45, DW_AT_TI_end_file("../DeviceSupport/source/f28003x_sysctrl.c")
    1105                      .dwattr $C$DW$45, DW_AT_TI_end_line(0x360)
    1106                      .dwattr $C$DW$45, DW_AT_TI_end_column(0x01)
    1107                      .dwendentry
    1108                      .dwendtag $C$DW$45
    1109              
    1110 00000000               .sect   ".text:_InitSysPll"
    1111                      .clink
    1112                      .global _InitSysPll
    1113              
    1114              $C$DW$62        .dwtag  DW_TAG_subprogram
    1115                      .dwattr $C$DW$62, DW_AT_name("InitSysPll")
    1116                      .dwattr $C$DW$62, DW_AT_low_pc(_InitSysPll)
    1117                      .dwattr $C$DW$62, DW_AT_high_pc(0x00)
    1118                      .dwattr $C$DW$62, DW_AT_TI_symbol_name("_InitSysPll")
    1119                      .dwattr $C$DW$62, DW_AT_external
    1120                      .dwattr $C$DW$62, DW_AT_TI_begin_file("../DeviceSupport/source/f28003x_sysctrl.c")
    1121                      .dwattr $C$DW$62, DW_AT_TI_begin_line(0x188)
    1122                      .dwattr $C$DW$62, DW_AT_TI_begin_column(0x06)
    1123                      .dwattr $C$DW$62, DW_AT_TI_max_frame_size(-20)
    1124                      .dwpsn  file "../DeviceSupport/source/f28003x_sysctrl.c",line 394,column 1,is_stmt,address _InitSysPl
    1125              
    1126                      .dwfde $C$DW$CIE, _InitSysPll
    1127              $C$DW$63        .dwtag  DW_TAG_formal_parameter
TMS320C2000 Assembler PC v22.6.1 Wed May 21 09:51:55 2025

Copyright (c) 1996-2018 Texas Instruments Incorporated
C:\Users\Daniel\AppData\Local\Temp\{78ED34F4-3C3B-4D89-8F5D-B64BD43A86E6} PAGE   23

    1128                      .dwattr $C$DW$63, DW_AT_name("clock_source")
    1129                      .dwattr $C$DW$63, DW_AT_TI_symbol_name("_clock_source")
    1130                      .dwattr $C$DW$63, DW_AT_type(*$C$DW$T$19)
    1131                      .dwattr $C$DW$63, DW_AT_location[DW_OP_reg12]
    1132              
    1133              $C$DW$64        .dwtag  DW_TAG_formal_parameter
    1134                      .dwattr $C$DW$64, DW_AT_name("imult")
    1135                      .dwattr $C$DW$64, DW_AT_TI_symbol_name("_imult")
    1136                      .dwattr $C$DW$64, DW_AT_type(*$C$DW$T$19)
    1137                      .dwattr $C$DW$64, DW_AT_location[DW_OP_reg14]
    1138              
    1139              $C$DW$65        .dwtag  DW_TAG_formal_parameter
    1140                      .dwattr $C$DW$65, DW_AT_name("refdiv")
    1141                      .dwattr $C$DW$65, DW_AT_TI_symbol_name("_refdiv")
    1142                      .dwattr $C$DW$65, DW_AT_type(*$C$DW$T$21)
    1143                      .dwattr $C$DW$65, DW_AT_location[DW_OP_reg0]
    1144              
    1145              $C$DW$66        .dwtag  DW_TAG_formal_parameter
    1146                      .dwattr $C$DW$66, DW_AT_name("odiv")
    1147                      .dwattr $C$DW$66, DW_AT_TI_symbol_name("_odiv")
    1148                      .dwattr $C$DW$66, DW_AT_type(*$C$DW$T$21)
    1149                      .dwattr $C$DW$66, DW_AT_location[DW_OP_breg20 -22]
    1150              
    1151              $C$DW$67        .dwtag  DW_TAG_formal_parameter
    1152                      .dwattr $C$DW$67, DW_AT_name("divsel")
    1153                      .dwattr $C$DW$67, DW_AT_TI_symbol_name("_divsel")
    1154                      .dwattr $C$DW$67, DW_AT_type(*$C$DW$T$19)
    1155                      .dwattr $C$DW$67, DW_AT_location[DW_OP_breg20 -23]
    1156              
    1157              $C$DW$68        .dwtag  DW_TAG_formal_parameter
    1158                      .dwattr $C$DW$68, DW_AT_name("dccbase")
    1159                      .dwattr $C$DW$68, DW_AT_TI_symbol_name("_dccbase")
    1160                      .dwattr $C$DW$68, DW_AT_type(*$C$DW$T$21)
    1161                      .dwattr $C$DW$68, DW_AT_location[DW_OP_breg20 -26]
    1162              
    1163              
    1164              ;***************************************************************
    1165              ;* FNAME: _InitSysPll                   FR SIZE:  18           *
    1166              ;*                                                             *
    1167              ;* FUNCTION ENVIRONMENT                                        *
    1168              ;*                                                             *
    1169              ;* FUNCTION PROPERTIES                                         *
    1170              ;*                            3 Parameter,  9 Auto,  6 SOE     *
    1171              ;***************************************************************
    1172              
    1173              _InitSysPll:
    1174              ;* AR5   assigned to $O$C2
    1175              ;* AR4   assigned to $O$C3
    1176              ;* AR6   assigned to $O$K8
    1177              ;* AR4   assigned to $O$K8
    1178              ;* AR4   assigned to $O$K8
    1179              ;* AR4   assigned to $O$K8
    1180              ;* AL    assigned to _pllLockStatus
    1181              $C$DW$69        .dwtag  DW_TAG_variable
    1182                      .dwattr $C$DW$69, DW_AT_name("pllLockStatus")
TMS320C2000 Assembler PC v22.6.1 Wed May 21 09:51:55 2025

Copyright (c) 1996-2018 Texas Instruments Incorporated
C:\Users\Daniel\AppData\Local\Temp\{78ED34F4-3C3B-4D89-8F5D-B64BD43A86E6} PAGE   24

    1183                      .dwattr $C$DW$69, DW_AT_TI_symbol_name("_pllLockStatus")
    1184                      .dwattr $C$DW$69, DW_AT_type(*$C$DW$T$11)
    1185                      .dwattr $C$DW$69, DW_AT_location[DW_OP_reg0]
    1186              
    1187              ;* AR7   assigned to _pllLockStatus
    1188              $C$DW$70        .dwtag  DW_TAG_variable
    1189                      .dwattr $C$DW$70, DW_AT_name("pllLockStatus")
    1190                      .dwattr $C$DW$70, DW_AT_TI_symbol_name("_pllLockStatus")
    1191                      .dwattr $C$DW$70, DW_AT_type(*$C$DW$T$11)
    1192                      .dwattr $C$DW$70, DW_AT_location[DW_OP_reg18]
    1193              
    1194              ;* AR6   assigned to $O$K7
    1195              ;* AR3   assigned to _clock_source
    1196              $C$DW$71        .dwtag  DW_TAG_variable
    1197                      .dwattr $C$DW$71, DW_AT_name("clock_source")
    1198                      .dwattr $C$DW$71, DW_AT_TI_symbol_name("_clock_source")
    1199                      .dwattr $C$DW$71, DW_AT_type(*$C$DW$T$334)
    1200                      .dwattr $C$DW$71, DW_AT_location[DW_OP_reg10]
    1201              
    1202              $C$DW$72        .dwtag  DW_TAG_variable
    1203                      .dwattr $C$DW$72, DW_AT_name("imult")
    1204                      .dwattr $C$DW$72, DW_AT_TI_symbol_name("_imult")
    1205                      .dwattr $C$DW$72, DW_AT_type(*$C$DW$T$334)
    1206                      .dwattr $C$DW$72, DW_AT_location[DW_OP_breg20 -4]
    1207              
    1208              ;* AR2   assigned to _refdiv
    1209              $C$DW$73        .dwtag  DW_TAG_variable
    1210                      .dwattr $C$DW$73, DW_AT_name("refdiv")
    1211                      .dwattr $C$DW$73, DW_AT_TI_symbol_name("_refdiv")
    1212                      .dwattr $C$DW$73, DW_AT_type(*$C$DW$T$340)
    1213                      .dwattr $C$DW$73, DW_AT_location[DW_OP_reg8]
    1214              
    1215              $C$DW$74        .dwtag  DW_TAG_variable
    1216                      .dwattr $C$DW$74, DW_AT_name("odiv")
    1217                      .dwattr $C$DW$74, DW_AT_TI_symbol_name("_odiv")
    1218                      .dwattr $C$DW$74, DW_AT_type(*$C$DW$T$340)
    1219                      .dwattr $C$DW$74, DW_AT_location[DW_OP_breg20 -8]
    1220              
    1221              $C$DW$75        .dwtag  DW_TAG_variable
    1222                      .dwattr $C$DW$75, DW_AT_name("divsel")
    1223                      .dwattr $C$DW$75, DW_AT_TI_symbol_name("_divsel")
    1224                      .dwattr $C$DW$75, DW_AT_type(*$C$DW$T$334)
    1225                      .dwattr $C$DW$75, DW_AT_location[DW_OP_breg20 -5]
    1226              
    1227              $C$DW$76        .dwtag  DW_TAG_variable
    1228                      .dwattr $C$DW$76, DW_AT_name("dccbase")
    1229                      .dwattr $C$DW$76, DW_AT_TI_symbol_name("_dccbase")
    1230                      .dwattr $C$DW$76, DW_AT_type(*$C$DW$T$340)
    1231                      .dwattr $C$DW$76, DW_AT_location[DW_OP_breg20 -10]
    1232              
    1233              ;* AR6   assigned to _timeout
    1234              $C$DW$77        .dwtag  DW_TAG_variable
    1235                      .dwattr $C$DW$77, DW_AT_name("timeout")
    1236                      .dwattr $C$DW$77, DW_AT_TI_symbol_name("_timeout")
    1237                      .dwattr $C$DW$77, DW_AT_type(*$C$DW$T$21)
TMS320C2000 Assembler PC v22.6.1 Wed May 21 09:51:55 2025

Copyright (c) 1996-2018 Texas Instruments Incorporated
C:\Users\Daniel\AppData\Local\Temp\{78ED34F4-3C3B-4D89-8F5D-B64BD43A86E6} PAGE   25

    1238                      .dwattr $C$DW$77, DW_AT_location[DW_OP_reg16]
    1239              
    1240              $C$DW$78        .dwtag  DW_TAG_variable
    1241                      .dwattr $C$DW$78, DW_AT_name("temp_syspllmult")
    1242                      .dwattr $C$DW$78, DW_AT_TI_symbol_name("_temp_syspllmult")
    1243                      .dwattr $C$DW$78, DW_AT_type(*$C$DW$T$21)
    1244                      .dwattr $C$DW$78, DW_AT_location[DW_OP_breg20 -12]
    1245              
    1246                      .dwcfi  cfa_offset, -2
    1247                      .dwcfi  save_reg_to_mem, 26, 0
    1248 00000000 B2BD          MOVL      *SP++,XAR1            ; [CPU_ALU] 
    1249                      .dwcfi  save_reg_to_mem, 7, 2
    1250                      .dwcfi  cfa_offset, -4
    1251 00000001 AABD          MOVL      *SP++,XAR2            ; [CPU_ALU] 
    1252                      .dwcfi  save_reg_to_mem, 9, 4
    1253                      .dwcfi  cfa_offset, -6
    1254 00000002 A2BD          MOVL      *SP++,XAR3            ; [CPU_ALU] 
    1255                      .dwcfi  save_reg_to_mem, 11, 6
    1256                      .dwcfi  cfa_offset, -8
    1257 00000003 FE0C          ADDB      SP,#12                ; [CPU_ARAU] 
    1258                      .dwcfi  cfa_offset, -20
    1259 00000004 86A9          MOVL      XAR2,ACC              ; [CPU_ALU] |394| 
    1260 00000005 5BA4          MOVZ      AR3,AR4               ; [CPU_ALU] |394| 
    1261 00000006 2D57          MOV       T,*-SP[23]            ; [CPU_ALU] |394| 
    1262 00000007 065A          MOVL      ACC,*-SP[26]          ; [CPU_ALU] |394| 
    1263 00000008 1E4A          MOVL      *-SP[10],ACC          ; [CPU_ALU] |394| 
    1264                      .dwpsn  file "../DeviceSupport/source/f28003x_sysctrl.c",line 398,column 5,is_stmt,isa 0
    1265 00000009 CCA3          AND       AL,AR3,#0x0003        ; [CPU_ALU] |398| 
         0000000a 0003 
    1266 0000000b 88A9          MOVZ      AR6,AL                ; [CPU_ALU] |398| 
    1267                      .dwpsn  file "../DeviceSupport/source/f28003x_sysctrl.c",line 394,column 1,is_stmt,isa 0
    1268 0000000c 2145          MOV       *-SP[5],T             ; [CPU_ALU] |394| 
    1269                      .dwpsn  file "../DeviceSupport/source/f28003x_sysctrl.c",line 398,column 5,is_stmt,isa 0
    1270 0000000d D008          MOVB      XAR0,#8               ; [CPU_ALU] |398| 
    1271 0000000e 8F00!         MOVL      XAR4,#_ClkCfgRegs     ; [CPU_ARAU] |398| 
         0000000f 0000 
    1272 00000010 27A6          MOV       PL,AR6                ; [CPU_ALU] |398| 
    1273 00000011 9294          MOV       AL,*+XAR4[AR0]        ; [CPU_ALU] |398| 
    1274 00000012 9003          ANDB      AL,#0x03              ; [CPU_ALU] |398| 
    1275                      .dwpsn  file "../DeviceSupport/source/f28003x_sysctrl.c",line 394,column 1,is_stmt,isa 0
    1276 00000013 8E56          MOVL      XAR0,*-SP[22]         ; [CPU_ALU] |394| 
    1277 00000014 7D44          MOV       *-SP[4],AR5           ; [CPU_ALU] |394| 
    1278                      .dwpsn  file "../DeviceSupport/source/f28003x_sysctrl.c",line 398,column 5,is_stmt,isa 0
    1279 00000015 2BAA          MOV       PH,#0                 ; [CPU_ALU] |398| 
    1280 00000016 0EA9          MOVU      ACC,AL                ; [CPU_ALU] |398| 
    1281                      .dwpsn  file "../DeviceSupport/source/f28003x_sysctrl.c",line 394,column 1,is_stmt,isa 0
    1282 00000017 3A48          MOVL      *-SP[8],XAR0          ; [CPU_ALU] |394| 
    1283                      .dwpsn  file "../DeviceSupport/source/f28003x_sysctrl.c",line 398,column 5,is_stmt,isa 0
    1284 00000018 0FAB          CMPL      ACC,P                 ; [CPU_ALU] |398| 
    1285 00000019 602D          B         $C$L22,NEQ            ; [CPU_ALU] |398| 
    1286                      ; branchcc occurs ; [] |398| 
    1287 0000001a D032          MOVB      XAR0,#50              ; [CPU_ALU] |398| 
    1288 0000001b CC94          AND       AL,*+XAR4[AR0],#0x0002 ; [CPU_ALU] |398| 
         0000001c 0002 
    1289 0000001d FFC0          LSR       AL,1                  ; [CPU_ALU] |398| 
TMS320C2000 Assembler PC v22.6.1 Wed May 21 09:51:55 2025

Copyright (c) 1996-2018 Texas Instruments Incorporated
C:\Users\Daniel\AppData\Local\Temp\{78ED34F4-3C3B-4D89-8F5D-B64BD43A86E6} PAGE   26

    1290 0000001e 0EA9          MOVU      ACC,AL                ; [CPU_ALU] |398| 
    1291 0000001f 1EA7          MOVL      XAR7,ACC              ; [CPU_ALU] |398| 
    1292 00000020 92A3          MOV       AL,AR3                ; [CPU_ALU] |398| 
    1293 00000021 FFC1          LSR       AL,2                  ; [CPU_ALU] |398| 
    1294 00000022 9001          ANDB      AL,#0x01              ; [CPU_ALU] |398| 
    1295 00000023 27A9          MOV       PL,AL                 ; [CPU_ALU] |398| 
    1296 00000024 06A7          MOVL      ACC,XAR7              ; [CPU_ALU] |398| 
    1297 00000025 0FAB          CMPL      ACC,P                 ; [CPU_ALU] |398| 
    1298 00000026 6020          B         $C$L22,NEQ            ; [CPU_ALU] |398| 
    1299                      ; branchcc occurs ; [] |398| 
    1300 00000027 9344          MOV       AH,*-SP[4]            ; [CPU_ALU] |398| 
    1301 00000028 D014          MOVB      XAR0,#20              ; [CPU_ALU] |398| 
    1302 00000029 80A8          MOVZ      AR7,AH                ; [CPU_ALU] |398| 
    1303 0000002a 9294          MOV       AL,*+XAR4[AR0]        ; [CPU_ALU] |398| 
    1304 0000002b 90FF          ANDB      AL,#0xff              ; [CPU_ALU] |398| 
    1305 0000002c 0EA9          MOVU      ACC,AL                ; [CPU_ALU] |398| 
    1306 0000002d 0FA7          CMPL      ACC,XAR7              ; [CPU_ALU] |398| 
    1307 0000002e 6018          B         $C$L22,NEQ            ; [CPU_ALU] |398| 
    1308                      ; branchcc occurs ; [] |398| 
    1309 0000002f D015          MOVB      XAR0,#21              ; [CPU_ALU] |398| 
    1310 00000030 CC94          AND       AL,*+XAR4[AR0],#0x1f00 ; [CPU_ALU] |398| 
         00000031 1F00 
    1311 00000032 FFC7          LSR       AL,8                  ; [CPU_ALU] |398| 
    1312 00000033 0EA9          MOVU      ACC,AL                ; [CPU_ALU] |398| 
    1313 00000034 0FA2          CMPL      ACC,XAR2              ; [CPU_ALU] |398| 
    1314 00000035 6011          B         $C$L22,NEQ            ; [CPU_ALU] |398| 
    1315                      ; branchcc occurs ; [] |398| 
    1316 00000036 D015          MOVB      XAR0,#21              ; [CPU_ALU] |398| 
    1317 00000037 C548          MOVL      XAR7,*-SP[8]          ; [CPU_ALU] |398| 
    1318 00000038 9294          MOV       AL,*+XAR4[AR0]        ; [CPU_ALU] |398| 
    1319 00000039 901F          ANDB      AL,#0x1f              ; [CPU_ALU] |398| 
    1320 0000003a 0EA9          MOVU      ACC,AL                ; [CPU_ALU] |398| 
    1321 0000003b 0FA7          CMPL      ACC,XAR7              ; [CPU_ALU] |398| 
    1322 0000003c 600A          B         $C$L22,NEQ            ; [CPU_ALU] |398| 
    1323                      ; branchcc occurs ; [] |398| 
    1324 0000003d 9345          MOV       AH,*-SP[5]            ; [CPU_ALU] |398| 
    1325 0000003e D022          MOVB      XAR0,#34              ; [CPU_ALU] |398| 
    1326 0000003f 80A8          MOVZ      AR7,AH                ; [CPU_ALU] |398| 
    1327 00000040 9294          MOV       AL,*+XAR4[AR0]        ; [CPU_ALU] |398| 
    1328 00000041 903F          ANDB      AL,#0x3f              ; [CPU_ALU] |398| 
    1329 00000042 0EA9          MOVU      ACC,AL                ; [CPU_ALU] |398| 
    1330 00000043 0FA7          CMPL      ACC,XAR7              ; [CPU_ALU] |398| 
    1331 00000044 FFE1          B         $C$L35,EQ             ; [CPU_ALU] |398| 
         00000045 00B7 
    1332                      ; branchcc occurs ; [] |398| 
    1333 00000046       $C$L22:    
    1334                      .dwpsn  file "../DeviceSupport/source/f28003x_sysctrl.c",line 411,column 5,is_stmt,isa 0
    1335 00000046 7622          EALLOW    ; [CPU_ALU] |411| 
    1336                      .dwpsn  file "../DeviceSupport/source/f28003x_sysctrl.c",line 417,column 5,is_stmt,isa 0
    1337 00000047 9344          MOV       AH,*-SP[4]            ; [CPU_ALU] |417| 
    1338 00000048 D014          MOVB      XAR0,#20              ; [CPU_ALU] |417| 
    1339 00000049 80A8          MOVZ      AR7,AH                ; [CPU_ALU] |417| 
    1340 0000004a 9294          MOV       AL,*+XAR4[AR0]        ; [CPU_ALU] |417| 
    1341 0000004b 90FF          ANDB      AL,#0xff              ; [CPU_ALU] |417| 
    1342 0000004c 0EA9          MOVU      ACC,AL                ; [CPU_ALU] |417| 
TMS320C2000 Assembler PC v22.6.1 Wed May 21 09:51:55 2025

Copyright (c) 1996-2018 Texas Instruments Incorporated
C:\Users\Daniel\AppData\Local\Temp\{78ED34F4-3C3B-4D89-8F5D-B64BD43A86E6} PAGE   27

    1343 0000004d 0FA7          CMPL      ACC,XAR7              ; [CPU_ALU] |417| 
    1344 0000004e 6012          B         $C$L23,NEQ            ; [CPU_ALU] |417| 
    1345                      ; branchcc occurs ; [] |417| 
    1346 0000004f D015          MOVB      XAR0,#21              ; [CPU_ALU] |417| 
    1347 00000050 CC94          AND       AL,*+XAR4[AR0],#0x1f00 ; [CPU_ALU] |417| 
         00000051 1F00 
    1348 00000052 FFC7          LSR       AL,8                  ; [CPU_ALU] |417| 
    1349 00000053 0EA9          MOVU      ACC,AL                ; [CPU_ALU] |417| 
    1350 00000054 0FA2          CMPL      ACC,XAR2              ; [CPU_ALU] |417| 
    1351 00000055 600B          B         $C$L23,NEQ            ; [CPU_ALU] |417| 
    1352                      ; branchcc occurs ; [] |417| 
    1353 00000056 D015          MOVB      XAR0,#21              ; [CPU_ALU] |417| 
    1354 00000057 C548          MOVL      XAR7,*-SP[8]          ; [CPU_ALU] |417| 
    1355 00000058 9294          MOV       AL,*+XAR4[AR0]        ; [CPU_ALU] |417| 
    1356 00000059 901F          ANDB      AL,#0x1f              ; [CPU_ALU] |417| 
    1357 0000005a 0EA9          MOVU      ACC,AL                ; [CPU_ALU] |417| 
    1358 0000005b 0FA7          CMPL      ACC,XAR7              ; [CPU_ALU] |417| 
    1359 0000005c 6004          B         $C$L23,NEQ            ; [CPU_ALU] |417| 
    1360                      ; branchcc occurs ; [] |417| 
    1361 0000005d D00E          MOVB      XAR0,#14              ; [CPU_ALU] |417| 
    1362 0000005e 4094          TBIT      *+XAR4[AR0],#0        ; [CPU_ALU] |417| 
    1363 0000005f 6D75          B         $C$L31,TC             ; [CPU_ALU] |417| 
    1364                      ; branchcc occurs ; [] |417| 
    1365 00000060       $C$L23:    
    1366                      .dwpsn  file "../DeviceSupport/source/f28003x_sysctrl.c",line 425,column 9,is_stmt,isa 0
    1367 00000060 83A4          MOVL      XAR5,XAR4             ; [CPU_ALU] |425| 
    1368 00000061 DD0E          ADDB      XAR5,#14              ; [CPU_ALU] |425| 
    1369 00000062 18C5          AND       *+XAR5[0],#0xfffd     ; [CPU_ALU] |425| 
         00000063 FFFD 
    1370 00000064 F678   RPT #120 || NOP
         00000065 7700 
    1371                      .dwpsn  file "../DeviceSupport/source/f28003x_sysctrl.c",line 435,column 9,is_stmt,isa 0
    1372 00000066 AAA9          MOVL      ACC,XAR2              ; [CPU_ALU] |435| 
    1373 00000067 A348          MOVL      P,*-SP[8]             ; [CPU_ALU] |435| 
    1374                      .dwpsn  file "../DeviceSupport/source/f28003x_sysctrl.c",line 440,column 9,is_stmt,isa 0
    1375 00000068 8044          MOVZ      AR7,*-SP[4]           ; [CPU_ALU] |440| 
    1376 00000069 83A4          MOVL      XAR5,XAR4             ; [CPU_ALU] |440| 
    1377                      .dwpsn  file "../DeviceSupport/source/f28003x_sysctrl.c",line 435,column 9,is_stmt,isa 0
    1378 0000006a FF37          LSL       ACC,8                 ; [CPU_ALU] |435| 
    1379 0000006b CAAB          OR        AL,PL                 ; [CPU_ALU] |435| 
    1380 0000006c CBAA          OR        AH,PH                 ; [CPU_ALU] |435| 
    1381                      .dwpsn  file "../DeviceSupport/source/f28003x_sysctrl.c",line 440,column 9,is_stmt,isa 0
    1382 0000006d DD0E          ADDB      XAR5,#14              ; [CPU_ALU] |440| 
    1383                      .dwpsn  file "../DeviceSupport/source/f28003x_sysctrl.c",line 435,column 9,is_stmt,isa 0
    1384 0000006e FF3F          LSL       ACC,16                ; [CPU_ALU] |435| 
    1385                      .dwpsn  file "../DeviceSupport/source/f28003x_sysctrl.c",line 440,column 9,is_stmt,isa 0
    1386 0000006f 18C5          AND       *+XAR5[0],#0xfffe     ; [CPU_FPU] |440| 
         00000070 FFFE 
    1387                      .dwpsn  file "../DeviceSupport/source/f28003x_sysctrl.c",line 435,column 9,is_stmt,isa 0
    1388 00000071 AFA7          OR        ACC,AR7               ; [CPU_ALU] |435| 
    1389 00000072 1E4C          MOVL      *-SP[12],ACC          ; [CPU_ALU] |435| 
    1390                      .dwpsn  file "../DeviceSupport/source/f28003x_sysctrl.c",line 441,column 9,is_stmt,isa 0
    1391 00000073 761A          EDIS      ; [CPU_ALU] |441| 
    1392 00000074 F642   RPT #66 || NOP
         00000075 7700 
TMS320C2000 Assembler PC v22.6.1 Wed May 21 09:51:55 2025

Copyright (c) 1996-2018 Texas Instruments Incorporated
C:\Users\Daniel\AppData\Local\Temp\{78ED34F4-3C3B-4D89-8F5D-B64BD43A86E6} PAGE   28

    1393                      .dwpsn  file "../DeviceSupport/source/f28003x_sysctrl.c",line 451,column 13,is_stmt,isa 0
    1394 00000076 D008          MOVB      XAR0,#8               ; [CPU_ALU] |451| 
    1395 00000077 88A6          MOVZ      AR6,AR6               ; [CPU_ALU] |451| 
    1396 00000078 9294          MOV       AL,*+XAR4[AR0]        ; [CPU_ALU] |451| 
    1397 00000079 9003          ANDB      AL,#0x03              ; [CPU_ALU] |451| 
    1398 0000007a 0EA9          MOVU      ACC,AL                ; [CPU_ALU] |451| 
    1399 0000007b 0FA6          CMPL      ACC,XAR6              ; [CPU_ALU] |451| 
    1400 0000007c 600E          B         $C$L24,NEQ            ; [CPU_ALU] |451| 
    1401                      ; branchcc occurs ; [] |451| 
    1402 0000007d D032          MOVB      XAR0,#50              ; [CPU_ALU] |451| 
    1403 0000007e CC94          AND       AL,*+XAR4[AR0],#0x0002 ; [CPU_ALU] |451| 
         0000007f 0002 
    1404 00000080 FFC0          LSR       AL,1                  ; [CPU_ALU] |451| 
    1405 00000081 0EA9          MOVU      ACC,AL                ; [CPU_ALU] |451| 
    1406 00000082 1EA6          MOVL      XAR6,ACC              ; [CPU_ALU] |451| 
    1407 00000083 92A3          MOV       AL,AR3                ; [CPU_ALU] |451| 
    1408 00000084 FFC1          LSR       AL,2                  ; [CPU_ALU] |451| 
    1409 00000085 9001          ANDB      AL,#0x01              ; [CPU_ALU] |451| 
    1410 00000086 80A9          MOVZ      AR7,AL                ; [CPU_ALU] |451| 
    1411 00000087 06A6          MOVL      ACC,XAR6              ; [CPU_ALU] |451| 
    1412 00000088 0FA7          CMPL      ACC,XAR7              ; [CPU_ALU] |451| 
    1413 00000089 6118          B         $C$L28,EQ             ; [CPU_ALU] |451| 
    1414                      ; branchcc occurs ; [] |451| 
    1415 0000008a       $C$L24:    
    1416 0000008a 92A3          MOV       AL,AR3                ; [CPU_ALU] |451| 
    1417 0000008b 6113          B         $C$L27,EQ             ; [CPU_ALU] |451| 
    1418                      ; branchcc occurs ; [] |451| 
    1419 0000008c 5201          CMPB      AL,#1                 ; [CPU_ALU] |451| 
    1420 0000008d 610D          B         $C$L26,EQ             ; [CPU_ALU] |451| 
    1421                      ; branchcc occurs ; [] |451| 
    1422 0000008e 5202          CMPB      AL,#2                 ; [CPU_ALU] |451| 
    1423 0000008f 6107          B         $C$L25,EQ             ; [CPU_ALU] |451| 
    1424                      ; branchcc occurs ; [] |451| 
    1425 00000090 5205          CMPB      AL,#5                 ; [CPU_ALU] |451| 
    1426 00000091 6010          B         $C$L28,NEQ            ; [CPU_ALU] |451| 
    1427                      ; branchcc occurs ; [] |451| 
    1428 00000092 FF69          SPM       #0                    ; [CPU_ALU] 
    1429                      .dwpsn  file "../DeviceSupport/source/f28003x_sysctrl.c",line 466,column 21,is_stmt,isa 0
    1430              $C$DW$79        .dwtag  DW_TAG_TI_branch
    1431                      .dwattr $C$DW$79, DW_AT_low_pc(0x00)
    1432                      .dwattr $C$DW$79, DW_AT_name("_SysXtalOscSESel")
    1433                      .dwattr $C$DW$79, DW_AT_TI_call
    1434              
    1435 00000093 7640+         LCR       #_SysXtalOscSESel     ; [CPU_ALU] |466| 
         00000094 0000 
    1436                      ; call occurs [#_SysXtalOscSESel] ; [] |466| 
    1437                      .dwpsn  file "../DeviceSupport/source/f28003x_sysctrl.c",line 467,column 21,is_stmt,isa 0
    1438 00000095 6F0C          B         $C$L28,UNC            ; [CPU_ALU] |467| 
    1439                      ; branch occurs ; [] |467| 
    1440 00000096       $C$L25:    
    1441 00000096 FF69          SPM       #0                    ; [CPU_ALU] 
    1442                      .dwpsn  file "../DeviceSupport/source/f28003x_sysctrl.c",line 454,column 21,is_stmt,isa 0
    1443              $C$DW$80        .dwtag  DW_TAG_TI_branch
    1444                      .dwattr $C$DW$80, DW_AT_low_pc(0x00)
    1445                      .dwattr $C$DW$80, DW_AT_name("_SysIntOsc1Sel")
TMS320C2000 Assembler PC v22.6.1 Wed May 21 09:51:55 2025

Copyright (c) 1996-2018 Texas Instruments Incorporated
C:\Users\Daniel\AppData\Local\Temp\{78ED34F4-3C3B-4D89-8F5D-B64BD43A86E6} PAGE   29

    1446                      .dwattr $C$DW$80, DW_AT_TI_call
    1447              
    1448 00000097 7640+         LCR       #_SysIntOsc1Sel       ; [CPU_ALU] |454| 
         00000098 0000 
    1449                      ; call occurs [#_SysIntOsc1Sel] ; [] |454| 
    1450                      .dwpsn  file "../DeviceSupport/source/f28003x_sysctrl.c",line 455,column 21,is_stmt,isa 0
    1451 00000099 6F08          B         $C$L28,UNC            ; [CPU_ALU] |455| 
    1452                      ; branch occurs ; [] |455| 
    1453 0000009a       $C$L26:    
    1454 0000009a FF69          SPM       #0                    ; [CPU_ALU] 
    1455                      .dwpsn  file "../DeviceSupport/source/f28003x_sysctrl.c",line 462,column 21,is_stmt,isa 0
    1456              $C$DW$81        .dwtag  DW_TAG_TI_branch
    1457                      .dwattr $C$DW$81, DW_AT_low_pc(0x00)
    1458                      .dwattr $C$DW$81, DW_AT_name("_SysXtalOscSel")
    1459                      .dwattr $C$DW$81, DW_AT_TI_call
    1460              
    1461 0000009b 7640+         LCR       #_SysXtalOscSel       ; [CPU_ALU] |462| 
         0000009c 0000 
    1462                      ; call occurs [#_SysXtalOscSel] ; [] |462| 
    1463                      .dwpsn  file "../DeviceSupport/source/f28003x_sysctrl.c",line 463,column 21,is_stmt,isa 0
    1464 0000009d 6F04          B         $C$L28,UNC            ; [CPU_ALU] |463| 
    1465                      ; branch occurs ; [] |463| 
    1466 0000009e       $C$L27:    
    1467 0000009e FF69          SPM       #0                    ; [CPU_ALU] 
    1468                      .dwpsn  file "../DeviceSupport/source/f28003x_sysctrl.c",line 458,column 21,is_stmt,isa 0
    1469              $C$DW$82        .dwtag  DW_TAG_TI_branch
    1470                      .dwattr $C$DW$82, DW_AT_low_pc(0x00)
    1471                      .dwattr $C$DW$82, DW_AT_name("_SysIntOsc2Sel")
    1472                      .dwattr $C$DW$82, DW_AT_TI_call
    1473              
    1474 0000009f 7640+         LCR       #_SysIntOsc2Sel       ; [CPU_ALU] |458| 
         000000a0 0000 
    1475                      ; call occurs [#_SysIntOsc2Sel] ; [] |458| 
    1476 000000a1       $C$L28:    
    1477 000000a1 F63C   RPT #60 || NOP
         000000a2 7700 
    1478                      .dwpsn  file "../DeviceSupport/source/f28003x_sysctrl.c",line 476,column 9,is_stmt,isa 0
    1479 000000a3 7622          EALLOW    ; [CPU_ALU] |476| 
    1480                      .dwpsn  file "../DeviceSupport/source/f28003x_sysctrl.c",line 481,column 9,is_stmt,isa 0
    1481 000000a4 7680!         MOVL      XAR6,#_ClkCfgRegs     ; [CPU_ARAU] |481| 
         000000a5 0000 
    1482                      .dwpsn  file "../DeviceSupport/source/f28003x_sysctrl.c",line 486,column 9,is_stmt,isa 0
    1483 000000a6 D114          MOVB      XAR1,#20              ; [CPU_ALU] |486| 
    1484                      .dwpsn  file "../DeviceSupport/source/f28003x_sysctrl.c",line 481,column 9,is_stmt,isa 0
    1485 000000a7 83A6          MOVL      XAR5,XAR6             ; [CPU_ALU] |481| 
    1486                      .dwpsn  file "../DeviceSupport/source/f28003x_sysctrl.c",line 491,column 9,is_stmt,isa 0
    1487 000000a8 8AA6          MOVL      XAR4,XAR6             ; [CPU_ALU] |491| 
    1488                      .dwpsn  file "../DeviceSupport/source/f28003x_sysctrl.c",line 481,column 9,is_stmt,isa 0
    1489 000000a9 064C          MOVL      ACC,*-SP[12]          ; [CPU_ALU] |481| 
    1490                      .dwpsn  file "../DeviceSupport/source/f28003x_sysctrl.c",line 497,column 9,is_stmt,isa 0
    1491 000000aa D016          MOVB      XAR0,#22              ; [CPU_ALU] |497| 
    1492                      .dwpsn  file "../DeviceSupport/source/f28003x_sysctrl.c",line 481,column 9,is_stmt,isa 0
    1493 000000ab DD22          ADDB      XAR5,#34              ; [CPU_ALU] |481| 
    1494                      .dwpsn  file "../DeviceSupport/source/f28003x_sysctrl.c",line 491,column 9,is_stmt,isa 0
    1495 000000ac DC0E          ADDB      XAR4,#14              ; [CPU_ALU] |491| 
TMS320C2000 Assembler PC v22.6.1 Wed May 21 09:51:55 2025

Copyright (c) 1996-2018 Texas Instruments Incorporated
C:\Users\Daniel\AppData\Local\Temp\{78ED34F4-3C3B-4D89-8F5D-B64BD43A86E6} PAGE   30

    1496                      .dwpsn  file "../DeviceSupport/source/f28003x_sysctrl.c",line 481,column 9,is_stmt,isa 0
    1497 000000ad 18C5          AND       *+XAR5[0],#0xffc0     ; [CPU_ALU] |481| 
         000000ae FFC0 
    1498                      .dwpsn  file "../DeviceSupport/source/f28003x_sysctrl.c",line 486,column 9,is_stmt,isa 0
    1499 000000af 1E9E          MOVL      *+XAR6[AR1],ACC       ; [CPU_ALU] |486| 
    1500                      .dwpsn  file "../DeviceSupport/source/f28003x_sysctrl.c",line 491,column 9,is_stmt,isa 0
    1501 000000b0 1AC4          OR        *+XAR4[0],#0x0001     ; [CPU_ALU] |491| 
         000000b1 0001 
    1502                      .dwpsn  file "../DeviceSupport/source/f28003x_sysctrl.c",line 497,column 9,is_stmt,isa 0
    1503 000000b2 CC96          AND       AL,*+XAR6[AR0],#0x0001 ; [CPU_ALU] |497| 
         000000b3 0001 
    1504 000000b4 80A9          MOVZ      AR7,AL                ; [CPU_ALU] |497| 
    1505                      .dwpsn  file "../DeviceSupport/source/f28003x_sysctrl.c",line 496,column 9,is_stmt,isa 0
    1506 000000b5 AAA9          MOVL      ACC,XAR2              ; [CPU_ALU] |496| 
    1507 000000b6 FF39          LSL       ACC,10                ; [CPU_ALU] |496| 
    1508 000000b7 FF1A          ADD       ACC,#1 << 10          ; [CPU_ALU] |496| 
         000000b8 0001 
    1509 000000b9 1EA6          MOVL      XAR6,ACC              ; [CPU_ALU] |496| 
    1510 000000ba 92A7          MOV       AL,AR7                ; [CPU_ALU] |496| 
    1511                      .dwpsn  file "../DeviceSupport/source/f28003x_sysctrl.c",line 502,column 15,is_stmt,isa 0
    1512 000000bb 5201          CMPB      AL,#1                 ; [CPU_ALU] |502| 
    1513 000000bc 610A          B         $C$L30,EQ             ; [CPU_ALU] |502| 
    1514                      ; branchcc occurs ; [] |502| 
    1515 000000bd       $C$L29:    
    1516 000000bd 06A6          MOVL      ACC,XAR6              ; [CPU_ALU] 
    1517 000000be 6108          B         $C$L30,EQ             ; [CPU_ALU] |502| 
    1518                      ; branchcc occurs ; [] |502| 
    1519 000000bf 761F!         MOVW      DP,#_ClkCfgRegs+22    ; [CPU_ARAU] 
         000000c0 0000 
    1520                      .dwpsn  file "../DeviceSupport/source/f28003x_sysctrl.c",line 504,column 13,is_stmt,isa 0
    1521 000000c1 CC16!         AND       AL,@$BLOCKED(_ClkCfgRegs)+22,#0x0001 ; [CPU_ALU] |504| 
         000000c2 0001 
    1522                      .dwpsn  file "../DeviceSupport/source/f28003x_sysctrl.c",line 505,column 13,is_stmt,isa 0
    1523 000000c3 DE81          SUBB      XAR6,#1               ; [CPU_ALU] |505| 
    1524 000000c4 5201          CMPB      AL,#1                 ; [CPU_ALU] |505| 
    1525 000000c5 60F8          B         $C$L29,NEQ            ; [CPU_ALU] |505| 
    1526                      ; branchcc occurs ; [] |505| 
    1527 000000c6       $C$L30:    
    1528                      .dwpsn  file "../DeviceSupport/source/f28003x_sysctrl.c",line 508,column 9,is_stmt,isa 0
    1529 000000c6 761A          EDIS      ; [CPU_ALU] |508| 
    1530 000000c7 9244          MOV       AL,*-SP[4]            ; [CPU_ALU] |508| 
    1531                      .dwpsn  file "../DeviceSupport/source/f28003x_sysctrl.c",line 513,column 9,is_stmt,isa 0
    1532 000000c8 9641          MOV       *-SP[1],AL            ; [CPU_ALU] |513| 
    1533 000000c9 5CA3          MOVZ      AR4,AR3               ; [CPU_ALU] |513| 
    1534 000000ca D500          MOVB      XAR5,#0               ; [CPU_ALU] |513| 
    1535 000000cb FF69          SPM       #0                    ; [CPU_ALU] 
    1536 000000cc 9248          MOV       AL,*-SP[8]            ; [CPU_ALU] |513| 
    1537 000000cd 9642          MOV       *-SP[2],AL            ; [CPU_ALU] |513| 
    1538 000000ce 7A43          MOV       *-SP[3],AR2           ; [CPU_ALU] |513| 
    1539 000000cf 064A          MOVL      ACC,*-SP[10]          ; [CPU_ALU] |513| 
    1540              $C$DW$83        .dwtag  DW_TAG_TI_branch
    1541                      .dwattr $C$DW$83, DW_AT_low_pc(0x00)
    1542                      .dwattr $C$DW$83, DW_AT_name("_IsPLLValid")
    1543                      .dwattr $C$DW$83, DW_AT_TI_call
    1544              
TMS320C2000 Assembler PC v22.6.1 Wed May 21 09:51:55 2025

Copyright (c) 1996-2018 Texas Instruments Incorporated
C:\Users\Daniel\AppData\Local\Temp\{78ED34F4-3C3B-4D89-8F5D-B64BD43A86E6} PAGE   31

    1545 000000d0 7640+         LCR       #_IsPLLValid          ; [CPU_ALU] |513| 
         000000d1 0000 
    1546                      ; call occurs [#_IsPLLValid] ; [] |513| 
    1547 000000d2 5200          CMPB      AL,#0                 ; [CPU_ALU] |513| 
    1548 000000d3 6127          B         $C$L34,EQ             ; [CPU_ALU] |513| 
    1549                      ; branchcc occurs ; [] |513| 
    1550 000000d4       $C$L31:    
    1551                      .dwpsn  file "../DeviceSupport/source/f28003x_sysctrl.c",line 528,column 9,is_stmt,isa 0
    1552 000000d4 7622          EALLOW    ; [CPU_ALU] |528| 
    1553 000000d5 9245          MOV       AL,*-SP[5]            ; [CPU_ALU] |528| 
    1554                      .dwpsn  file "../DeviceSupport/source/f28003x_sysctrl.c",line 532,column 9,is_stmt,isa 0
    1555 000000d6 523F          CMPB      AL,#63                ; [CPU_ALU] |532| 
    1556 000000d7 6006          B         $C$L32,NEQ            ; [CPU_ALU] |532| 
    1557                      ; branchcc occurs ; [] |532| 
    1558 000000d8 761F!         MOVW      DP,#_ClkCfgRegs+34    ; [CPU_ARAU] 
         000000d9 0000 
    1559                      .dwpsn  file "../DeviceSupport/source/f28003x_sysctrl.c",line 538,column 13,is_stmt,isa 0
    1560 000000da 1A22!         OR        @$BLOCKED(_ClkCfgRegs)+34,#0x003f ; [CPU_ALU] |538| 
         000000db 003F 
    1561 000000dc 6F0C          B         $C$L33,UNC            ; [CPU_ALU] |538| 
    1562                      ; branch occurs ; [] |538| 
    1563 000000dd       $C$L32:    
    1564                      .dwpsn  file "../DeviceSupport/source/f28003x_sysctrl.c",line 534,column 13,is_stmt,isa 0
    1565 000000dd 9A01          MOVB      AL,#1                 ; [CPU_ALU] |534| 
    1566 000000de D022          MOVB      XAR0,#34              ; [CPU_ALU] |534| 
    1567 000000df 8F00!         MOVL      XAR4,#_ClkCfgRegs     ; [CPU_ARAU] |534| 
         000000e0 0000 
    1568 000000e1 9445          ADD       AL,*-SP[5]            ; [CPU_ALU] |534| 
    1569 000000e2 CD94          AND       AH,*+XAR4[AR0],#0xffc0 ; [CPU_FPU] |534| 
         000000e3 FFC0 
    1570 000000e4 903F          ANDB      AL,#0x3f              ; [CPU_ALU] |534| 
    1571 000000e5 D022          MOVB      XAR0,#34              ; [CPU_ALU] |534| 
    1572 000000e6 CAA8          OR        AL,AH                 ; [CPU_ALU] |534| 
    1573 000000e7 9694          MOV       *+XAR4[AR0],AL        ; [CPU_ALU] |534| 
    1574 000000e8       $C$L33:    
    1575                      .dwpsn  file "../DeviceSupport/source/f28003x_sysctrl.c",line 544,column 9,is_stmt,isa 0
    1576 000000e8 8F40!         MOVL      XAR5,#_ClkCfgRegs     ; [CPU_ARAU] |544| 
         000000e9 0000 
    1577 000000ea 8AA5          MOVL      XAR4,XAR5             ; [CPU_ALU] |544| 
    1578 000000eb DC0E          ADDB      XAR4,#14              ; [CPU_ALU] |544| 
    1579 000000ec 1AC4          OR        *+XAR4[0],#0x0002     ; [CPU_ALU] |544| 
         000000ed 0002 
    1580 000000ee F664   RPT #100 || NOP
         000000ef 7700 
    1581                      .dwpsn  file "../DeviceSupport/source/f28003x_sysctrl.c",line 554,column 9,is_stmt,isa 0
    1582 000000f0 9245          MOV       AL,*-SP[5]            ; [CPU_ALU] |554| 
    1583 000000f1 D022          MOVB      XAR0,#34              ; [CPU_ALU] |554| 
    1584 000000f2 903F          ANDB      AL,#63                ; [CPU_ALU] |554| 
    1585 000000f3 CD95          AND       AH,*+XAR5[AR0],#0xffc0 ; [CPU_FPU] |554| 
         000000f4 FFC0 
    1586 000000f5 D022          MOVB      XAR0,#34              ; [CPU_FPU] |554| 
    1587 000000f6 CAA8          OR        AL,AH                 ; [CPU_ALU] |554| 
    1588 000000f7 9695          MOV       *+XAR5[AR0],AL        ; [CPU_ALU] |554| 
    1589                      .dwpsn  file "../DeviceSupport/source/f28003x_sysctrl.c",line 555,column 9,is_stmt,isa 0
    1590 000000f8 761A          EDIS      ; [CPU_ALU] |555| 
TMS320C2000 Assembler PC v22.6.1 Wed May 21 09:51:55 2025

Copyright (c) 1996-2018 Texas Instruments Incorporated
C:\Users\Daniel\AppData\Local\Temp\{78ED34F4-3C3B-4D89-8F5D-B64BD43A86E6} PAGE   32

    1591 000000f9 6F02          B         $C$L35,UNC            ; [CPU_ALU] 
    1592                      ; branch occurs ; [] 
    1593 000000fa       $C$L34:    
    1594 000000fa 7625   ESTOP0
    1595 000000fb       $C$L35:    
    1596 000000fb FE8C          SUBB      SP,#12                ; [CPU_ARAU] 
    1597                      .dwcfi  cfa_offset, -8
    1598 000000fc FF69          SPM       #0                    ; [CPU_ALU] 
    1599 000000fd 82BE          MOVL      XAR3,*--SP            ; [CPU_ALU] 
    1600                      .dwcfi  cfa_offset, -6
    1601                      .dwcfi  restore_reg, 11
    1602 000000fe 86BE          MOVL      XAR2,*--SP            ; [CPU_ALU] 
    1603                      .dwcfi  cfa_offset, -4
    1604                      .dwcfi  restore_reg, 9
    1605 000000ff 8BBE          MOVL      XAR1,*--SP            ; [CPU_ALU] 
    1606                      .dwcfi  cfa_offset, -2
    1607                      .dwcfi  restore_reg, 7
    1608              $C$DW$84        .dwtag  DW_TAG_TI_branch
    1609                      .dwattr $C$DW$84, DW_AT_low_pc(0x00)
    1610                      .dwattr $C$DW$84, DW_AT_TI_return
    1611              
    1612 00000100 0006          LRETR     ; [CPU_ALU] 
    1613                      ; return occurs ; [] 
    1614                      .dwattr $C$DW$62, DW_AT_TI_end_file("../DeviceSupport/source/f28003x_sysctrl.c")
    1615                      .dwattr $C$DW$62, DW_AT_TI_end_line(0x230)
    1616                      .dwattr $C$DW$62, DW_AT_TI_end_column(0x01)
    1617                      .dwendentry
    1618                      .dwendtag $C$DW$62
    1619              
    1620 00000000               .sect   ".text:_DisableDog"
    1621                      .clink
    1622                      .global _DisableDog
    1623              
    1624              $C$DW$85        .dwtag  DW_TAG_subprogram
    1625                      .dwattr $C$DW$85, DW_AT_name("DisableDog")
    1626                      .dwattr $C$DW$85, DW_AT_low_pc(_DisableDog)
    1627                      .dwattr $C$DW$85, DW_AT_high_pc(0x00)
    1628                      .dwattr $C$DW$85, DW_AT_TI_symbol_name("_DisableDog")
    1629                      .dwattr $C$DW$85, DW_AT_external
    1630                      .dwattr $C$DW$85, DW_AT_TI_begin_file("../DeviceSupport/source/f28003x_sysctrl.c")
    1631                      .dwattr $C$DW$85, DW_AT_TI_begin_line(0x175)
    1632                      .dwattr $C$DW$85, DW_AT_TI_begin_column(0x06)
    1633                      .dwattr $C$DW$85, DW_AT_TI_max_frame_size(-4)
    1634                      .dwpsn  file "../DeviceSupport/source/f28003x_sysctrl.c",line 374,column 1,is_stmt,address _DisableDo
    1635              
    1636                      .dwfde $C$DW$CIE, _DisableDog
    1637              
    1638              ;***************************************************************
    1639              ;* FNAME: _DisableDog                   FR SIZE:   2           *
    1640              ;*                                                             *
    1641              ;* FUNCTION ENVIRONMENT                                        *
    1642              ;*                                                             *
    1643              ;* FUNCTION PROPERTIES                                         *
    1644              ;*                            0 Parameter,  1 Auto,  0 SOE     *
    1645              ;***************************************************************
TMS320C2000 Assembler PC v22.6.1 Wed May 21 09:51:55 2025

Copyright (c) 1996-2018 Texas Instruments Incorporated
C:\Users\Daniel\AppData\Local\Temp\{78ED34F4-3C3B-4D89-8F5D-B64BD43A86E6} PAGE   33

    1646              
    1647              _DisableDog:
    1648              $C$DW$86        .dwtag  DW_TAG_variable
    1649                      .dwattr $C$DW$86, DW_AT_name("temp")
    1650                      .dwattr $C$DW$86, DW_AT_TI_symbol_name("_temp")
    1651                      .dwattr $C$DW$86, DW_AT_type(*$C$DW$T$333)
    1652                      .dwattr $C$DW$86, DW_AT_location[DW_OP_breg20 -1]
    1653              
    1654                      .dwcfi  cfa_offset, -2
    1655                      .dwcfi  save_reg_to_mem, 26, 0
    1656 00000000 FE02          ADDB      SP,#2                 ; [CPU_ARAU] 
    1657                      .dwcfi  cfa_offset, -4
    1658                      .dwpsn  file "../DeviceSupport/source/f28003x_sysctrl.c",line 380,column 5,is_stmt,isa 0
    1659 00000001 7622          EALLOW    ; [CPU_ALU] |380| 
    1660 00000002 761F!         MOVW      DP,#_WdRegs+41        ; [CPU_ARAU] 
         00000003 0000 
    1661                      .dwpsn  file "../DeviceSupport/source/f28003x_sysctrl.c",line 381,column 5,is_stmt,isa 0
    1662 00000004 9229!         MOV       AL,@$BLOCKED(_WdRegs)+41 ; [CPU_ALU] |381| 
    1663 00000005 9007          ANDB      AL,#0x07              ; [CPU_ALU] |381| 
    1664 00000006 9641          MOV       *-SP[1],AL            ; [CPU_ALU] |381| 
    1665                      .dwpsn  file "../DeviceSupport/source/f28003x_sysctrl.c",line 382,column 5,is_stmt,isa 0
    1666 00000007 5068          ORB       AL,#0x68              ; [CPU_ALU] |382| 
    1667 00000008 9629!         MOV       @$BLOCKED(_WdRegs)+41,AL ; [CPU_ALU] |382| 
    1668                      .dwpsn  file "../DeviceSupport/source/f28003x_sysctrl.c",line 383,column 5,is_stmt,isa 0
    1669 00000009 761A          EDIS      ; [CPU_ALU] |383| 
    1670 0000000a FE82          SUBB      SP,#2                 ; [CPU_ARAU] 
    1671                      .dwcfi  cfa_offset, -2
    1672              $C$DW$87        .dwtag  DW_TAG_TI_branch
    1673                      .dwattr $C$DW$87, DW_AT_low_pc(0x00)
    1674                      .dwattr $C$DW$87, DW_AT_TI_return
    1675              
    1676 0000000b 0006          LRETR     ; [CPU_ALU] 
    1677                      ; return occurs ; [] 
    1678                      .dwattr $C$DW$85, DW_AT_TI_end_file("../DeviceSupport/source/f28003x_sysctrl.c")
    1679                      .dwattr $C$DW$85, DW_AT_TI_end_line(0x180)
    1680                      .dwattr $C$DW$85, DW_AT_TI_end_column(0x01)
    1681                      .dwendentry
    1682                      .dwendtag $C$DW$85
    1683              
    1684 00000000               .sect   ".TI.ramfunc:_InitFlash"
    1685                      .clink
    1686                      .global _InitFlash
    1687              
    1688              $C$DW$88        .dwtag  DW_TAG_subprogram
    1689                      .dwattr $C$DW$88, DW_AT_name("InitFlash")
    1690                      .dwattr $C$DW$88, DW_AT_low_pc(_InitFlash)
    1691                      .dwattr $C$DW$88, DW_AT_high_pc(0x00)
    1692                      .dwattr $C$DW$88, DW_AT_TI_symbol_name("_InitFlash")
    1693                      .dwattr $C$DW$88, DW_AT_external
    1694                      .dwattr $C$DW$88, DW_AT_TI_begin_file("../DeviceSupport/source/f28003x_sysctrl.c")
    1695                      .dwattr $C$DW$88, DW_AT_TI_begin_line(0x112)
    1696                      .dwattr $C$DW$88, DW_AT_TI_begin_column(0x06)
    1697                      .dwattr $C$DW$88, DW_AT_TI_max_frame_size(-2)
    1698                      .dwpsn  file "../DeviceSupport/source/f28003x_sysctrl.c",line 275,column 1,is_stmt,address _InitFlash
    1699              
TMS320C2000 Assembler PC v22.6.1 Wed May 21 09:51:55 2025

Copyright (c) 1996-2018 Texas Instruments Incorporated
C:\Users\Daniel\AppData\Local\Temp\{78ED34F4-3C3B-4D89-8F5D-B64BD43A86E6} PAGE   34

    1700                      .dwfde $C$DW$CIE, _InitFlash
    1701              
    1702              ;***************************************************************
    1703              ;* FNAME: _InitFlash                    FR SIZE:   0           *
    1704              ;*                                                             *
    1705              ;* FUNCTION ENVIRONMENT                                        *
    1706              ;*                                                             *
    1707              ;* FUNCTION PROPERTIES                                         *
    1708              ;*                            0 Parameter,  0 Auto,  0 SOE     *
    1709              ;***************************************************************
    1710              
    1711 00000000       _InitFlash:
    1712              ;* AR5   assigned to $O$C1
    1713                      .dwcfi  cfa_offset, -2
    1714                      .dwcfi  save_reg_to_mem, 26, 0
    1715                      .dwpsn  file "../DeviceSupport/source/f28003x_sysctrl.c",line 276,column 5,is_stmt,isa 0
    1716 00000000 7622          EALLOW    ; [CPU_ALU] |276| 
    1717                      .dwpsn  file "../DeviceSupport/source/f28003x_sysctrl.c",line 285,column 5,is_stmt,isa 0
    1718 00000001 8F40!         MOVL      XAR5,#_Flash0CtrlRegs ; [CPU_ARAU] |285| 
         00000002 0000 
    1719                      .dwpsn  file "../DeviceSupport/source/f28003x_sysctrl.c",line 291,column 5,is_stmt,isa 0
    1720 00000003 A0A9          MOVL      ACC,XAR5              ; [CPU_ALU] |291| 
    1721                      .dwpsn  file "../DeviceSupport/source/f28003x_sysctrl.c",line 285,column 5,is_stmt,isa 0
    1722 00000004 C4A5          MOVL      XAR6,XAR5             ; [CPU_ALU] |285| 
    1723 00000005 761F!         MOVW      DP,#_Flash0CtrlRegs+384 ; [CPU_ARAU] 
         00000006 0006 
    1724                      .dwpsn  file "../DeviceSupport/source/f28003x_sysctrl.c",line 291,column 5,is_stmt,isa 0
    1725 00000007 FF17          ADD       ACC,#3 << 7           ; [CPU_ALU] |291| 
         00000008 0003 
    1726                      .dwpsn  file "../DeviceSupport/source/f28003x_sysctrl.c",line 286,column 5,is_stmt,isa 0
    1727 00000009 DD20          ADDB      XAR5,#32              ; [CPU_ALU] |286| 
    1728                      .dwpsn  file "../DeviceSupport/source/f28003x_sysctrl.c",line 291,column 5,is_stmt,isa 0
    1729 0000000a 8AA9          MOVL      XAR4,ACC              ; [CPU_ALU] |291| 
    1730                      .dwpsn  file "../DeviceSupport/source/f28003x_sysctrl.c",line 285,column 5,is_stmt,isa 0
    1731 0000000b DE24          ADDB      XAR6,#36              ; [CPU_ALU] |285| 
    1732 0000000c 1AC6          OR        *+XAR6[0],#0x0001     ; [CPU_ALU] |285| 
         0000000d 0001 
    1733                      .dwpsn  file "../DeviceSupport/source/f28003x_sysctrl.c",line 286,column 5,is_stmt,isa 0
    1734 0000000e 1AC5          OR        *+XAR5[0],#0x0003     ; [CPU_ALU] |286| 
         0000000f 0003 
    1735                      .dwpsn  file "../DeviceSupport/source/f28003x_sysctrl.c",line 291,column 5,is_stmt,isa 0
    1736 00000010 18C4          AND       *+XAR4[0],#0xfffd     ; [CPU_ALU] |291| 
         00000011 FFFD 
    1737                      .dwpsn  file "../DeviceSupport/source/f28003x_sysctrl.c",line 292,column 5,is_stmt,isa 0
    1738 00000012 1800!         AND       @$BLOCKED(_Flash0CtrlRegs)+384,#0xfffe ; [CPU_ALU] |292| 
         00000013 FFFE 
    1739 00000014 761F!         MOVW      DP,#_Flash0CtrlRegs   ; [CPU_ARAU] 
         00000015 0000 
    1740                      .dwpsn  file "../DeviceSupport/source/f28003x_sysctrl.c",line 303,column 9,is_stmt,isa 0
    1741 00000016 CC00!         AND       AL,@$BLOCKED(_Flash0CtrlRegs),#0xf1ff ; [CPU_ALU] |303| 
         00000017 F1FF 
    1742 00000018 1AA9          OR        AL,#0x0500            ; [CPU_ALU] |303| 
         00000019 0500 
    1743 0000001a 9600!         MOV       @$BLOCKED(_Flash0CtrlRegs),AL ; [CPU_ALU] |303| 
    1744 0000001b 761F!         MOVW      DP,#_Flash0CtrlRegs+384 ; [CPU_ARAU] 
TMS320C2000 Assembler PC v22.6.1 Wed May 21 09:51:55 2025

Copyright (c) 1996-2018 Texas Instruments Incorporated
C:\Users\Daniel\AppData\Local\Temp\{78ED34F4-3C3B-4D89-8F5D-B64BD43A86E6} PAGE   35

         0000001c 0006 
    1745                      .dwpsn  file "../DeviceSupport/source/f28003x_sysctrl.c",line 310,column 5,is_stmt,isa 0
    1746 0000001d 1A00!         OR        @$BLOCKED(_Flash0CtrlRegs)+384,#0x0002 ; [CPU_ALU] |310| 
         0000001e 0002 
    1747                      .dwpsn  file "../DeviceSupport/source/f28003x_sysctrl.c",line 311,column 5,is_stmt,isa 0
    1748 0000001f 1A00!         OR        @$BLOCKED(_Flash0CtrlRegs)+384,#0x0001 ; [CPU_ALU] |311| 
         00000020 0001 
    1749 00000021 761F!         MOVW      DP,#_Flash0EccRegs    ; [CPU_ARAU] 
         00000022 0000 
    1750                      .dwpsn  file "../DeviceSupport/source/f28003x_sysctrl.c",line 317,column 5,is_stmt,isa 0
    1751 00000023 CC00!         AND       AL,@$BLOCKED(_Flash0EccRegs),#0xfff8 ; [CPU_ALU] |317| 
         00000024 FFF8 
    1752 00000025 500A          ORB       AL,#0x0a              ; [CPU_ALU] |317| 
    1753 00000026 9600!         MOV       @$BLOCKED(_Flash0EccRegs),AL ; [CPU_ALU] |317| 
    1754                      .dwpsn  file "../DeviceSupport/source/f28003x_sysctrl.c",line 319,column 5,is_stmt,isa 0
    1755 00000027 761A          EDIS      ; [CPU_ALU] |319| 
    1756 00000028 F607   RPT #7 || NOP
         00000029 7700 
    1757 0000002a FF69          SPM       #0                    ; [CPU_ALU] 
    1758              $C$DW$89        .dwtag  DW_TAG_TI_branch
    1759                      .dwattr $C$DW$89, DW_AT_low_pc(0x00)
    1760                      .dwattr $C$DW$89, DW_AT_TI_return
    1761              
    1762 0000002b 0006          LRETR     ; [CPU_ALU] 
    1763                      ; return occurs ; [] 
    1764                      .dwattr $C$DW$88, DW_AT_TI_end_file("../DeviceSupport/source/f28003x_sysctrl.c")
    1765                      .dwattr $C$DW$88, DW_AT_TI_end_line(0x146)
    1766                      .dwattr $C$DW$88, DW_AT_TI_end_column(0x01)
    1767                      .dwendentry
    1768                      .dwendtag $C$DW$88
    1769              
    1770 00000000               .sect   ".text:_InitPeripheralClocks"
    1771                      .clink
    1772                      .global _InitPeripheralClocks
    1773              
    1774              $C$DW$90        .dwtag  DW_TAG_subprogram
    1775                      .dwattr $C$DW$90, DW_AT_name("InitPeripheralClocks")
    1776                      .dwattr $C$DW$90, DW_AT_low_pc(_InitPeripheralClocks)
    1777                      .dwattr $C$DW$90, DW_AT_high_pc(0x00)
    1778                      .dwattr $C$DW$90, DW_AT_TI_symbol_name("_InitPeripheralClocks")
    1779                      .dwattr $C$DW$90, DW_AT_external
    1780                      .dwattr $C$DW$90, DW_AT_TI_begin_file("../DeviceSupport/source/f28003x_sysctrl.c")
    1781                      .dwattr $C$DW$90, DW_AT_TI_begin_line(0x98)
    1782                      .dwattr $C$DW$90, DW_AT_TI_begin_column(0x06)
    1783                      .dwattr $C$DW$90, DW_AT_TI_max_frame_size(-6)
    1784                      .dwpsn  file "../DeviceSupport/source/f28003x_sysctrl.c",line 153,column 1,is_stmt,address _InitPerip
    1785              
    1786                      .dwfde $C$DW$CIE, _InitPeripheralClocks
    1787              
    1788              ;***************************************************************
    1789              ;* FNAME: _InitPeripheralClocks         FR SIZE:   4           *
    1790              ;*                                                             *
    1791              ;* FUNCTION ENVIRONMENT                                        *
    1792              ;*                                                             *
    1793              ;* FUNCTION PROPERTIES                                         *
TMS320C2000 Assembler PC v22.6.1 Wed May 21 09:51:55 2025

Copyright (c) 1996-2018 Texas Instruments Incorporated
C:\Users\Daniel\AppData\Local\Temp\{78ED34F4-3C3B-4D89-8F5D-B64BD43A86E6} PAGE   36

    1794              ;*                            0 Parameter,  0 Auto,  4 SOE     *
    1795              ;***************************************************************
    1796              
    1797 00000000       _InitPeripheralClocks:
    1798              ;* AR4   assigned to $O$C1
    1799                      .dwcfi  cfa_offset, -2
    1800                      .dwcfi  save_reg_to_mem, 26, 0
    1801 00000000 B2BD          MOVL      *SP++,XAR1            ; [CPU_ALU] 
    1802                      .dwcfi  save_reg_to_mem, 7, 2
    1803                      .dwcfi  cfa_offset, -4
    1804 00000001 AABD          MOVL      *SP++,XAR2            ; [CPU_ALU] 
    1805                      .dwcfi  save_reg_to_mem, 9, 4
    1806                      .dwcfi  cfa_offset, -6
    1807                      .dwpsn  file "../DeviceSupport/source/f28003x_sysctrl.c",line 154,column 5,is_stmt,isa 0
    1808 00000002 7622          EALLOW    ; [CPU_ALU] |154| 
    1809                      .dwpsn  file "../DeviceSupport/source/f28003x_sysctrl.c",line 156,column 5,is_stmt,isa 0
    1810 00000003 8F00!         MOVL      XAR4,#_CpuSysRegs     ; [CPU_ARAU] |156| 
         00000004 0000 
    1811 00000005 761F!         MOVW      DP,#_CpuSysRegs+34    ; [CPU_ARAU] 
         00000006 0000 
    1812 00000007 C4A4          MOVL      XAR6,XAR4             ; [CPU_ALU] |156| 
    1813                      .dwpsn  file "../DeviceSupport/source/f28003x_sysctrl.c",line 163,column 5,is_stmt,isa 0
    1814 00000008 C5A4          MOVL      XAR7,XAR4             ; [CPU_ALU] |163| 
    1815                      .dwpsn  file "../DeviceSupport/source/f28003x_sysctrl.c",line 167,column 5,is_stmt,isa 0
    1816 00000009 83A4          MOVL      XAR5,XAR4             ; [CPU_ALU] |167| 
    1817                      .dwpsn  file "../DeviceSupport/source/f28003x_sysctrl.c",line 183,column 5,is_stmt,isa 0
    1818 0000000a 8EA4          MOVL      XAR0,XAR4             ; [CPU_ALU] |183| 
    1819                      .dwpsn  file "../DeviceSupport/source/f28003x_sysctrl.c",line 156,column 5,is_stmt,isa 0
    1820 0000000b DE22          ADDB      XAR6,#34              ; [CPU_ALU] |156| 
    1821                      .dwpsn  file "../DeviceSupport/source/f28003x_sysctrl.c",line 163,column 5,is_stmt,isa 0
    1822 0000000c DF23          ADDB      XAR7,#35              ; [CPU_ALU] |163| 
    1823                      .dwpsn  file "../DeviceSupport/source/f28003x_sysctrl.c",line 156,column 5,is_stmt,isa 0
    1824 0000000d 1AC6          OR        *+XAR6[0],#0x0001     ; [CPU_ALU] |156| 
         0000000e 0001 
    1825                      .dwpsn  file "../DeviceSupport/source/f28003x_sysctrl.c",line 167,column 5,is_stmt,isa 0
    1826 0000000f DD26          ADDB      XAR5,#38              ; [CPU_ALU] |167| 
    1827                      .dwpsn  file "../DeviceSupport/source/f28003x_sysctrl.c",line 157,column 5,is_stmt,isa 0
    1828 00000010 1A22!         OR        @$BLOCKED(_CpuSysRegs)+34,#0x0004 ; [CPU_ALU] |157| 
         00000011 0004 
    1829                      .dwpsn  file "../DeviceSupport/source/f28003x_sysctrl.c",line 176,column 5,is_stmt,isa 0
    1830 00000012 C4A4          MOVL      XAR6,XAR4             ; [CPU_ALU] |176| 
    1831                      .dwpsn  file "../DeviceSupport/source/f28003x_sysctrl.c",line 158,column 5,is_stmt,isa 0
    1832 00000013 1A22!         OR        @$BLOCKED(_CpuSysRegs)+34,#0x0008 ; [CPU_ALU] |158| 
         00000014 0008 
    1833                      .dwpsn  file "../DeviceSupport/source/f28003x_sysctrl.c",line 159,column 5,is_stmt,isa 0
    1834 00000015 1A22!         OR        @$BLOCKED(_CpuSysRegs)+34,#0x0010 ; [CPU_ALU] |159| 
         00000016 0010 
    1835                      .dwpsn  file "../DeviceSupport/source/f28003x_sysctrl.c",line 160,column 5,is_stmt,isa 0
    1836 00000017 1A22!         OR        @$BLOCKED(_CpuSysRegs)+34,#0x0020 ; [CPU_ALU] |160| 
         00000018 0020 
    1837                      .dwpsn  file "../DeviceSupport/source/f28003x_sysctrl.c",line 176,column 5,is_stmt,isa 0
    1838 00000019 DE28          ADDB      XAR6,#40              ; [CPU_ALU] |176| 
    1839                      .dwpsn  file "../DeviceSupport/source/f28003x_sysctrl.c",line 161,column 5,is_stmt,isa 0
    1840 0000001a 1A22!         OR        @$BLOCKED(_CpuSysRegs)+34,#0x2000 ; [CPU_ALU] |161| 
         0000001b 2000 
TMS320C2000 Assembler PC v22.6.1 Wed May 21 09:51:55 2025

Copyright (c) 1996-2018 Texas Instruments Incorporated
C:\Users\Daniel\AppData\Local\Temp\{78ED34F4-3C3B-4D89-8F5D-B64BD43A86E6} PAGE   37

    1841                      .dwpsn  file "../DeviceSupport/source/f28003x_sysctrl.c",line 162,column 5,is_stmt,isa 0
    1842 0000001c 1A22!         OR        @$BLOCKED(_CpuSysRegs)+34,#0x4000 ; [CPU_ALU] |162| 
         0000001d 4000 
    1843                      .dwpsn  file "../DeviceSupport/source/f28003x_sysctrl.c",line 163,column 5,is_stmt,isa 0
    1844 0000001e 1AC7          OR        *+XAR7[0],#0x0001     ; [CPU_ALU] |163| 
         0000001f 0001 
    1845                      .dwpsn  file "../DeviceSupport/source/f28003x_sysctrl.c",line 164,column 5,is_stmt,isa 0
    1846 00000020 1A23!         OR        @$BLOCKED(_CpuSysRegs)+35,#0x0004 ; [CPU_ALU] |164| 
         00000021 0004 
    1847                      .dwpsn  file "../DeviceSupport/source/f28003x_sysctrl.c",line 165,column 5,is_stmt,isa 0
    1848 00000022 1A23!         OR        @$BLOCKED(_CpuSysRegs)+35,#0x0100 ; [CPU_ALU] |165| 
         00000023 0100 
    1849                      .dwpsn  file "../DeviceSupport/source/f28003x_sysctrl.c",line 167,column 5,is_stmt,isa 0
    1850 00000024 1AC5          OR        *+XAR5[0],#0x0001     ; [CPU_FPU] |167| 
         00000025 0001 
    1851                      .dwpsn  file "../DeviceSupport/source/f28003x_sysctrl.c",line 180,column 5,is_stmt,isa 0
    1852 00000026 83A4          MOVL      XAR5,XAR4             ; [CPU_FPU] |180| 
    1853                      .dwpsn  file "../DeviceSupport/source/f28003x_sysctrl.c",line 186,column 5,is_stmt,isa 0
    1854 00000027 C5A4          MOVL      XAR7,XAR4             ; [CPU_FPU] |186| 
    1855                      .dwpsn  file "../DeviceSupport/source/f28003x_sysctrl.c",line 183,column 5,is_stmt,isa 0
    1856 00000028 D82E          ADDB      XAR0,#46              ; [CPU_ALU] |183| 
    1857                      .dwpsn  file "../DeviceSupport/source/f28003x_sysctrl.c",line 168,column 5,is_stmt,isa 0
    1858 00000029 1A26!         OR        @$BLOCKED(_CpuSysRegs)+38,#0x0002 ; [CPU_FPU] |168| 
         0000002a 0002 
    1859                      .dwpsn  file "../DeviceSupport/source/f28003x_sysctrl.c",line 180,column 5,is_stmt,isa 0
    1860 0000002b DD2A          ADDB      XAR5,#42              ; [CPU_ALU] |180| 
    1861                      .dwpsn  file "../DeviceSupport/source/f28003x_sysctrl.c",line 169,column 5,is_stmt,isa 0
    1862 0000002c 1A26!         OR        @$BLOCKED(_CpuSysRegs)+38,#0x0004 ; [CPU_FPU] |169| 
         0000002d 0004 
    1863                      .dwpsn  file "../DeviceSupport/source/f28003x_sysctrl.c",line 170,column 5,is_stmt,isa 0
    1864 0000002e 1A26!         OR        @$BLOCKED(_CpuSysRegs)+38,#0x0008 ; [CPU_FPU] |170| 
         0000002f 0008 
    1865                      .dwpsn  file "../DeviceSupport/source/f28003x_sysctrl.c",line 171,column 5,is_stmt,isa 0
    1866 00000030 1A26!         OR        @$BLOCKED(_CpuSysRegs)+38,#0x0010 ; [CPU_FPU] |171| 
         00000031 0010 
    1867                      .dwpsn  file "../DeviceSupport/source/f28003x_sysctrl.c",line 172,column 5,is_stmt,isa 0
    1868 00000032 1A26!         OR        @$BLOCKED(_CpuSysRegs)+38,#0x0020 ; [CPU_FPU] |172| 
         00000033 0020 
    1869                      .dwpsn  file "../DeviceSupport/source/f28003x_sysctrl.c",line 173,column 5,is_stmt,isa 0
    1870 00000034 1A26!         OR        @$BLOCKED(_CpuSysRegs)+38,#0x0040 ; [CPU_FPU] |173| 
         00000035 0040 
    1871                      .dwpsn  file "../DeviceSupport/source/f28003x_sysctrl.c",line 174,column 5,is_stmt,isa 0
    1872 00000036 1A26!         OR        @$BLOCKED(_CpuSysRegs)+38,#0x0080 ; [CPU_FPU] |174| 
         00000037 0080 
    1873                      .dwpsn  file "../DeviceSupport/source/f28003x_sysctrl.c",line 176,column 5,is_stmt,isa 0
    1874 00000038 1AC6          OR        *+XAR6[0],#0x0001     ; [CPU_FPU] |176| 
         00000039 0001 
    1875                      .dwpsn  file "../DeviceSupport/source/f28003x_sysctrl.c",line 189,column 5,is_stmt,isa 0
    1876 0000003a C4A4          MOVL      XAR6,XAR4             ; [CPU_FPU] |189| 
    1877                      .dwpsn  file "../DeviceSupport/source/f28003x_sysctrl.c",line 177,column 5,is_stmt,isa 0
    1878 0000003b 1A28!         OR        @$BLOCKED(_CpuSysRegs)+40,#0x0002 ; [CPU_FPU] |177| 
         0000003c 0002 
    1879                      .dwpsn  file "../DeviceSupport/source/f28003x_sysctrl.c",line 178,column 5,is_stmt,isa 0
    1880 0000003d 1A28!         OR        @$BLOCKED(_CpuSysRegs)+40,#0x0004 ; [CPU_FPU] |178| 
         0000003e 0004 
TMS320C2000 Assembler PC v22.6.1 Wed May 21 09:51:55 2025

Copyright (c) 1996-2018 Texas Instruments Incorporated
C:\Users\Daniel\AppData\Local\Temp\{78ED34F4-3C3B-4D89-8F5D-B64BD43A86E6} PAGE   38

    1881                      .dwpsn  file "../DeviceSupport/source/f28003x_sysctrl.c",line 180,column 5,is_stmt,isa 0
    1882 0000003f 1AC5          OR        *+XAR5[0],#0x0001     ; [CPU_FPU] |180| 
         00000040 0001 
    1883                      .dwpsn  file "../DeviceSupport/source/f28003x_sysctrl.c",line 192,column 5,is_stmt,isa 0
    1884 00000041 83A4          MOVL      XAR5,XAR4             ; [CPU_FPU] |192| 
    1885                      .dwpsn  file "../DeviceSupport/source/f28003x_sysctrl.c",line 195,column 5,is_stmt,isa 0
    1886 00000042 8BA4          MOVL      XAR1,XAR4             ; [CPU_FPU] |195| 
    1887                      .dwpsn  file "../DeviceSupport/source/f28003x_sysctrl.c",line 186,column 5,is_stmt,isa 0
    1888 00000043 DF30          ADDB      XAR7,#48              ; [CPU_ALU] |186| 
    1889                      .dwpsn  file "../DeviceSupport/source/f28003x_sysctrl.c",line 189,column 5,is_stmt,isa 0
    1890 00000044 DE32          ADDB      XAR6,#50              ; [CPU_ALU] |189| 
    1891                      .dwpsn  file "../DeviceSupport/source/f28003x_sysctrl.c",line 192,column 5,is_stmt,isa 0
    1892 00000045 DD34          ADDB      XAR5,#52              ; [CPU_ALU] |192| 
    1893                      .dwpsn  file "../DeviceSupport/source/f28003x_sysctrl.c",line 181,column 5,is_stmt,isa 0
    1894 00000046 1A2A!         OR        @$BLOCKED(_CpuSysRegs)+42,#0x0002 ; [CPU_ALU] |181| 
         00000047 0002 
    1895                      .dwpsn  file "../DeviceSupport/source/f28003x_sysctrl.c",line 183,column 5,is_stmt,isa 0
    1896 00000048 1AC0          OR        *+XAR0[0],#0x0001     ; [CPU_ALU] |183| 
         00000049 0001 
    1897                      .dwpsn  file "../DeviceSupport/source/f28003x_sysctrl.c",line 198,column 5,is_stmt,isa 0
    1898 0000004a 8EA4          MOVL      XAR0,XAR4             ; [CPU_ALU] |198| 
    1899                      .dwpsn  file "../DeviceSupport/source/f28003x_sysctrl.c",line 184,column 5,is_stmt,isa 0
    1900 0000004b 1A2E!         OR        @$BLOCKED(_CpuSysRegs)+46,#0x0002 ; [CPU_FPU] |184| 
         0000004c 0002 
    1901                      .dwpsn  file "../DeviceSupport/source/f28003x_sysctrl.c",line 186,column 5,is_stmt,isa 0
    1902 0000004d 1AC7          OR        *+XAR7[0],#0x0001     ; [CPU_FPU] |186| 
         0000004e 0001 
    1903                      .dwpsn  file "../DeviceSupport/source/f28003x_sysctrl.c",line 202,column 5,is_stmt,isa 0
    1904 0000004f C5A4          MOVL      XAR7,XAR4             ; [CPU_FPU] |202| 
    1905                      .dwpsn  file "../DeviceSupport/source/f28003x_sysctrl.c",line 195,column 5,is_stmt,isa 0
    1906 00000050 D936          ADDB      XAR1,#54              ; [CPU_ALU] |195| 
    1907                      .dwpsn  file "../DeviceSupport/source/f28003x_sysctrl.c",line 215,column 5,is_stmt,isa 0
    1908 00000051 86A4          MOVL      XAR2,XAR4             ; [CPU_FPU] |215| 
    1909                      .dwpsn  file "../DeviceSupport/source/f28003x_sysctrl.c",line 198,column 5,is_stmt,isa 0
    1910 00000052 D83C          ADDB      XAR0,#60              ; [CPU_ALU] |198| 
    1911                      .dwpsn  file "../DeviceSupport/source/f28003x_sysctrl.c",line 202,column 5,is_stmt,isa 0
    1912 00000053 DF3E          ADDB      XAR7,#62              ; [CPU_ALU] |202| 
    1913                      .dwpsn  file "../DeviceSupport/source/f28003x_sysctrl.c",line 187,column 5,is_stmt,isa 0
    1914 00000054 1A30!         OR        @$BLOCKED(_CpuSysRegs)+48,#0x0002 ; [CPU_ALU] |187| 
         00000055 0002 
    1915                      .dwpsn  file "../DeviceSupport/source/f28003x_sysctrl.c",line 189,column 5,is_stmt,isa 0
    1916 00000056 1AC6          OR        *+XAR6[0],#0x0001     ; [CPU_ALU] |189| 
         00000057 0001 
    1917                      .dwpsn  file "../DeviceSupport/source/f28003x_sysctrl.c",line 207,column 5,is_stmt,isa 0
    1918 00000058 C4A4          MOVL      XAR6,XAR4             ; [CPU_ALU] |207| 
    1919                      .dwpsn  file "../DeviceSupport/source/f28003x_sysctrl.c",line 190,column 5,is_stmt,isa 0
    1920 00000059 1A32!         OR        @$BLOCKED(_CpuSysRegs)+50,#0x0002 ; [CPU_ALU] |190| 
         0000005a 0002 
    1921                      .dwpsn  file "../DeviceSupport/source/f28003x_sysctrl.c",line 192,column 5,is_stmt,isa 0
    1922 0000005b 1AC5          OR        *+XAR5[0],#0x0001     ; [CPU_ALU] |192| 
         0000005c 0001 
    1923                      .dwpsn  file "../DeviceSupport/source/f28003x_sysctrl.c",line 210,column 5,is_stmt,isa 0
    1924 0000005d 83A4          MOVL      XAR5,XAR4             ; [CPU_ALU] |210| 
    1925                      .dwpsn  file "../DeviceSupport/source/f28003x_sysctrl.c",line 193,column 5,is_stmt,isa 0
    1926 0000005e 1A34!         OR        @$BLOCKED(_CpuSysRegs)+52,#0x0002 ; [CPU_ALU] |193| 
TMS320C2000 Assembler PC v22.6.1 Wed May 21 09:51:55 2025

Copyright (c) 1996-2018 Texas Instruments Incorporated
C:\Users\Daniel\AppData\Local\Temp\{78ED34F4-3C3B-4D89-8F5D-B64BD43A86E6} PAGE   39

         0000005f 0002 
    1927                      .dwpsn  file "../DeviceSupport/source/f28003x_sysctrl.c",line 195,column 5,is_stmt,isa 0
    1928 00000060 1AC1          OR        *+XAR1[0],#0x0001     ; [CPU_ALU] |195| 
         00000061 0001 
    1929                      .dwpsn  file "../DeviceSupport/source/f28003x_sysctrl.c",line 218,column 5,is_stmt,isa 0
    1930 00000062 8BA4          MOVL      XAR1,XAR4             ; [CPU_FPU] |218| 
    1931                      .dwpsn  file "../DeviceSupport/source/f28003x_sysctrl.c",line 207,column 5,is_stmt,isa 0
    1932 00000063 DE43          ADDB      XAR6,#67              ; [CPU_ALU] |207| 
    1933                      .dwpsn  file "../DeviceSupport/source/f28003x_sysctrl.c",line 210,column 5,is_stmt,isa 0
    1934 00000064 DD44          ADDB      XAR5,#68              ; [CPU_ALU] |210| 
    1935                      .dwpsn  file "../DeviceSupport/source/f28003x_sysctrl.c",line 215,column 5,is_stmt,isa 0
    1936 00000065 DA46          ADDB      XAR2,#70              ; [CPU_ALU] |215| 
    1937                      .dwpsn  file "../DeviceSupport/source/f28003x_sysctrl.c",line 218,column 5,is_stmt,isa 0
    1938 00000066 D948          ADDB      XAR1,#72              ; [CPU_ALU] |218| 
    1939                      .dwpsn  file "../DeviceSupport/source/f28003x_sysctrl.c",line 196,column 5,is_stmt,isa 0
    1940 00000067 1A36!         OR        @$BLOCKED(_CpuSysRegs)+54,#0x0010 ; [CPU_FPU] |196| 
         00000068 0010 
    1941                      .dwpsn  file "../DeviceSupport/source/f28003x_sysctrl.c",line 198,column 5,is_stmt,isa 0
    1942 00000069 1AC0          OR        *+XAR0[0],#0x0001     ; [CPU_FPU] |198| 
         0000006a 0001 
    1943                      .dwpsn  file "../DeviceSupport/source/f28003x_sysctrl.c",line 221,column 5,is_stmt,isa 0
    1944 0000006b 8EA4          MOVL      XAR0,XAR4             ; [CPU_FPU] |221| 
    1945                      .dwpsn  file "../DeviceSupport/source/f28003x_sysctrl.c",line 199,column 5,is_stmt,isa 0
    1946 0000006c 1A3C!         OR        @$BLOCKED(_CpuSysRegs)+60,#0x0002 ; [CPU_FPU] |199| 
         0000006d 0002 
    1947                      .dwpsn  file "../DeviceSupport/source/f28003x_sysctrl.c",line 200,column 5,is_stmt,isa 0
    1948 0000006e 1A3C!         OR        @$BLOCKED(_CpuSysRegs)+60,#0x0004 ; [CPU_FPU] |200| 
         0000006f 0004 
    1949                      .dwpsn  file "../DeviceSupport/source/f28003x_sysctrl.c",line 202,column 5,is_stmt,isa 0
    1950 00000070 1AC7          OR        *+XAR7[0],#0x0001     ; [CPU_FPU] |202| 
         00000071 0001 
    1951                      .dwpsn  file "../DeviceSupport/source/f28003x_sysctrl.c",line 223,column 5,is_stmt,isa 0
    1952 00000072 C5A4          MOVL      XAR7,XAR4             ; [CPU_FPU] |223| 
    1953                      .dwpsn  file "../DeviceSupport/source/f28003x_sysctrl.c",line 203,column 5,is_stmt,isa 0
    1954 00000073 1A3E!         OR        @$BLOCKED(_CpuSysRegs)+62,#0x0002 ; [CPU_FPU] |203| 
         00000074 0002 
    1955                      .dwpsn  file "../DeviceSupport/source/f28003x_sysctrl.c",line 204,column 5,is_stmt,isa 0
    1956 00000075 1A3E!         OR        @$BLOCKED(_CpuSysRegs)+62,#0x0004 ; [CPU_FPU] |204| 
         00000076 0004 
    1957                      .dwpsn  file "../DeviceSupport/source/f28003x_sysctrl.c",line 205,column 5,is_stmt,isa 0
    1958 00000077 1A3E!         OR        @$BLOCKED(_CpuSysRegs)+62,#0x0008 ; [CPU_FPU] |205| 
         00000078 0008 
    1959 00000079 761F!         MOVW      DP,#_CpuSysRegs+67    ; [CPU_ARAU] 
         0000007a 0001 
    1960                      .dwpsn  file "../DeviceSupport/source/f28003x_sysctrl.c",line 207,column 5,is_stmt,isa 0
    1961 0000007b 1AC6          OR        *+XAR6[0],#0x0001     ; [CPU_FPU] |207| 
         0000007c 0001 
    1962                      .dwpsn  file "../DeviceSupport/source/f28003x_sysctrl.c",line 226,column 5,is_stmt,isa 0
    1963 0000007d C4A4          MOVL      XAR6,XAR4             ; [CPU_FPU] |226| 
    1964                      .dwpsn  file "../DeviceSupport/source/f28003x_sysctrl.c",line 208,column 5,is_stmt,isa 0
    1965 0000007e 1A03!         OR        @$BLOCKED(_CpuSysRegs)+67,#0x0002 ; [CPU_FPU] |208| 
         0000007f 0002 
    1966                      .dwpsn  file "../DeviceSupport/source/f28003x_sysctrl.c",line 210,column 5,is_stmt,isa 0
    1967 00000080 1AC5          OR        *+XAR5[0],#0x0001     ; [CPU_FPU] |210| 
         00000081 0001 
TMS320C2000 Assembler PC v22.6.1 Wed May 21 09:51:55 2025

Copyright (c) 1996-2018 Texas Instruments Incorporated
C:\Users\Daniel\AppData\Local\Temp\{78ED34F4-3C3B-4D89-8F5D-B64BD43A86E6} PAGE   40

    1968                      .dwpsn  file "../DeviceSupport/source/f28003x_sysctrl.c",line 227,column 5,is_stmt,isa 0
    1969 00000082 83A4          MOVL      XAR5,XAR4             ; [CPU_FPU] |227| 
    1970                      .dwpsn  file "../DeviceSupport/source/f28003x_sysctrl.c",line 221,column 5,is_stmt,isa 0
    1971 00000083 D84A          ADDB      XAR0,#74              ; [CPU_ALU] |221| 
    1972                      .dwpsn  file "../DeviceSupport/source/f28003x_sysctrl.c",line 223,column 5,is_stmt,isa 0
    1973 00000084 DF4C          ADDB      XAR7,#76              ; [CPU_ALU] |223| 
    1974                      .dwpsn  file "../DeviceSupport/source/f28003x_sysctrl.c",line 226,column 5,is_stmt,isa 0
    1975 00000085 DE54          ADDB      XAR6,#84              ; [CPU_ALU] |226| 
    1976                      .dwpsn  file "../DeviceSupport/source/f28003x_sysctrl.c",line 227,column 5,is_stmt,isa 0
    1977 00000086 DD56          ADDB      XAR5,#86              ; [CPU_ALU] |227| 
    1978                      .dwpsn  file "../DeviceSupport/source/f28003x_sysctrl.c",line 228,column 5,is_stmt,isa 0
    1979 00000087 DC58          ADDB      XAR4,#88              ; [CPU_ALU] |228| 
    1980                      .dwpsn  file "../DeviceSupport/source/f28003x_sysctrl.c",line 211,column 5,is_stmt,isa 0
    1981 00000088 1A04!         OR        @$BLOCKED(_CpuSysRegs)+68,#0x0002 ; [CPU_FPU] |211| 
         00000089 0002 
    1982                      .dwpsn  file "../DeviceSupport/source/f28003x_sysctrl.c",line 212,column 5,is_stmt,isa 0
    1983 0000008a 1A04!         OR        @$BLOCKED(_CpuSysRegs)+68,#0x0004 ; [CPU_FPU] |212| 
         0000008b 0004 
    1984                      .dwpsn  file "../DeviceSupport/source/f28003x_sysctrl.c",line 213,column 5,is_stmt,isa 0
    1985 0000008c 1A04!         OR        @$BLOCKED(_CpuSysRegs)+68,#0x0008 ; [CPU_FPU] |213| 
         0000008d 0008 
    1986                      .dwpsn  file "../DeviceSupport/source/f28003x_sysctrl.c",line 215,column 5,is_stmt,isa 0
    1987 0000008e 1AC2          OR        *+XAR2[0],#0x0001     ; [CPU_FPU] |215| 
         0000008f 0001 
    1988                      .dwpsn  file "../DeviceSupport/source/f28003x_sysctrl.c",line 216,column 5,is_stmt,isa 0
    1989 00000090 1A06!         OR        @$BLOCKED(_CpuSysRegs)+70,#0x0002 ; [CPU_FPU] |216| 
         00000091 0002 
    1990                      .dwpsn  file "../DeviceSupport/source/f28003x_sysctrl.c",line 218,column 5,is_stmt,isa 0
    1991 00000092 1AC1          OR        *+XAR1[0],#0x0001     ; [CPU_FPU] |218| 
         00000093 0001 
    1992                      .dwpsn  file "../DeviceSupport/source/f28003x_sysctrl.c",line 219,column 5,is_stmt,isa 0
    1993 00000094 1A08!         OR        @$BLOCKED(_CpuSysRegs)+72,#0x0002 ; [CPU_FPU] |219| 
         00000095 0002 
    1994                      .dwpsn  file "../DeviceSupport/source/f28003x_sysctrl.c",line 221,column 5,is_stmt,isa 0
    1995 00000096 1AC0          OR        *+XAR0[0],#0x0001     ; [CPU_FPU] |221| 
         00000097 0001 
    1996                      .dwpsn  file "../DeviceSupport/source/f28003x_sysctrl.c",line 223,column 5,is_stmt,isa 0
    1997 00000098 1AC7          OR        *+XAR7[0],#0x0001     ; [CPU_FPU] |223| 
         00000099 0001 
    1998                      .dwpsn  file "../DeviceSupport/source/f28003x_sysctrl.c",line 224,column 5,is_stmt,isa 0
    1999 0000009a 1A0C!         OR        @$BLOCKED(_CpuSysRegs)+76,#0x0002 ; [CPU_FPU] |224| 
         0000009b 0002 
    2000                      .dwpsn  file "../DeviceSupport/source/f28003x_sysctrl.c",line 226,column 5,is_stmt,isa 0
    2001 0000009c 1AC6          OR        *+XAR6[0],#0x0001     ; [CPU_FPU] |226| 
         0000009d 0001 
    2002                      .dwpsn  file "../DeviceSupport/source/f28003x_sysctrl.c",line 227,column 5,is_stmt,isa 0
    2003 0000009e 1AC5          OR        *+XAR5[0],#0x0001     ; [CPU_FPU] |227| 
         0000009f 0001 
    2004                      .dwpsn  file "../DeviceSupport/source/f28003x_sysctrl.c",line 228,column 5,is_stmt,isa 0
    2005 000000a0 1AC4          OR        *+XAR4[0],#0x0001     ; [CPU_ALU] |228| 
         000000a1 0001 
    2006                      .dwpsn  file "../DeviceSupport/source/f28003x_sysctrl.c",line 230,column 5,is_stmt,isa 0
    2007 000000a2 761A          EDIS      ; [CPU_ALU] |230| 
    2008 000000a3 86BE          MOVL      XAR2,*--SP            ; [CPU_ALU] 
    2009                      .dwcfi  cfa_offset, -4
TMS320C2000 Assembler PC v22.6.1 Wed May 21 09:51:55 2025

Copyright (c) 1996-2018 Texas Instruments Incorporated
C:\Users\Daniel\AppData\Local\Temp\{78ED34F4-3C3B-4D89-8F5D-B64BD43A86E6} PAGE   41

    2010                      .dwcfi  restore_reg, 9
    2011 000000a4 8BBE          MOVL      XAR1,*--SP            ; [CPU_ALU] 
    2012                      .dwcfi  cfa_offset, -2
    2013                      .dwcfi  restore_reg, 7
    2014              $C$DW$91        .dwtag  DW_TAG_TI_branch
    2015                      .dwattr $C$DW$91, DW_AT_low_pc(0x00)
    2016                      .dwattr $C$DW$91, DW_AT_TI_return
    2017              
    2018 000000a5 0006          LRETR     ; [CPU_ALU] 
    2019                      ; return occurs ; [] 
    2020                      .dwattr $C$DW$90, DW_AT_TI_end_file("../DeviceSupport/source/f28003x_sysctrl.c")
    2021                      .dwattr $C$DW$90, DW_AT_TI_end_line(0xe7)
    2022                      .dwattr $C$DW$90, DW_AT_TI_end_column(0x01)
    2023                      .dwendentry
    2024                      .dwendtag $C$DW$90
    2025              
    2026 00000000               .sect   ".text:_InitSysCtrl"
    2027                      .clink
    2028                      .global _InitSysCtrl
    2029              
    2030              $C$DW$92        .dwtag  DW_TAG_subprogram
    2031                      .dwattr $C$DW$92, DW_AT_name("InitSysCtrl")
    2032                      .dwattr $C$DW$92, DW_AT_low_pc(_InitSysCtrl)
    2033                      .dwattr $C$DW$92, DW_AT_high_pc(0x00)
    2034                      .dwattr $C$DW$92, DW_AT_TI_symbol_name("_InitSysCtrl")
    2035                      .dwattr $C$DW$92, DW_AT_external
    2036                      .dwattr $C$DW$92, DW_AT_TI_begin_file("../DeviceSupport/source/f28003x_sysctrl.c")
    2037                      .dwattr $C$DW$92, DW_AT_TI_begin_line(0x57)
    2038                      .dwattr $C$DW$92, DW_AT_TI_begin_column(0x06)
    2039                      .dwattr $C$DW$92, DW_AT_TI_max_frame_size(-8)
    2040                      .dwpsn  file "../DeviceSupport/source/f28003x_sysctrl.c",line 88,column 1,is_stmt,address _InitSysCtr
    2041              
    2042                      .dwfde $C$DW$CIE, _InitSysCtrl
    2043              
    2044              ;***************************************************************
    2045              ;* FNAME: _InitSysCtrl                  FR SIZE:   6           *
    2046              ;*                                                             *
    2047              ;* FUNCTION ENVIRONMENT                                        *
    2048              ;*                                                             *
    2049              ;* FUNCTION PROPERTIES                                         *
    2050              ;*                            6 Parameter,  0 Auto,  0 SOE     *
    2051              ;***************************************************************
    2052              
    2053 00000000       _InitSysCtrl:
    2054                      .dwcfi  cfa_offset, -2
    2055                      .dwcfi  save_reg_to_mem, 26, 0
    2056 00000000 FE06          ADDB      SP,#6                 ; [CPU_ARAU] 
    2057                      .dwcfi  cfa_offset, -8
    2058                      .dwpsn  file "../DeviceSupport/source/f28003x_sysctrl.c",line 92,column 5,is_stmt,isa 0
    2059              $C$DW$93        .dwtag  DW_TAG_TI_branch
    2060                      .dwattr $C$DW$93, DW_AT_low_pc(0x00)
    2061                      .dwattr $C$DW$93, DW_AT_name("_DisableDog")
    2062                      .dwattr $C$DW$93, DW_AT_TI_call
    2063              
    2064 00000001 7640+         LCR       #_DisableDog          ; [CPU_ALU] |92| 
TMS320C2000 Assembler PC v22.6.1 Wed May 21 09:51:55 2025

Copyright (c) 1996-2018 Texas Instruments Incorporated
C:\Users\Daniel\AppData\Local\Temp\{78ED34F4-3C3B-4D89-8F5D-B64BD43A86E6} PAGE   42

         00000002 0000 
    2065                      ; call occurs [#_DisableDog] ; [] |92| 
    2066                      .dwpsn  file "../DeviceSupport/source/f28003x_sysctrl.c",line 102,column 5,is_stmt,isa 0
    2067 00000003 8F40!         MOVL      XAR5,#_RamfuncsLoadStart ; [CPU_ARAU] |102| 
         00000004 0000 
    2068 00000005 28A8%         MOV       AH,#_RamfuncsLoadSize+0 >> 16 ; [CPU_ALU] |102| 
         00000006 0000 
    2069 00000007 8F00!         MOVL      XAR4,#_RamfuncsRunStart ; [CPU_ARAU] |102| 
         00000008 0000 
    2070 00000009 28A9!         MOV       AL,#_RamfuncsLoadSize+0 ; [CPU_ALU] |102| 
         0000000a 0000 
    2071              $C$DW$94        .dwtag  DW_TAG_TI_branch
    2072                      .dwattr $C$DW$94, DW_AT_low_pc(0x00)
    2073                      .dwattr $C$DW$94, DW_AT_name("_memcpy")
    2074                      .dwattr $C$DW$94, DW_AT_TI_call
    2075              
    2076 0000000b 7640!         LCR       #_memcpy              ; [CPU_ALU] |102| 
         0000000c 0000 
    2077                      ; call occurs [#_memcpy] ; [] |102| 
    2078                      .dwpsn  file "../DeviceSupport/source/f28003x_sysctrl.c",line 108,column 5,is_stmt,isa 0
    2079              $C$DW$95        .dwtag  DW_TAG_TI_branch
    2080                      .dwattr $C$DW$95, DW_AT_low_pc(0x00)
    2081                      .dwattr $C$DW$95, DW_AT_name("_InitFlash")
    2082                      .dwattr $C$DW$95, DW_AT_TI_call
    2083              
    2084 0000000d 7640+         LCR       #_InitFlash           ; [CPU_ALU] |108| 
         0000000e 0000 
    2085                      ; call occurs [#_InitFlash] ; [] |108| 
    2086                      .dwpsn  file "../DeviceSupport/source/f28003x_sysctrl.c",line 123,column 5,is_stmt,isa 0
    2087 0000000f 0203          MOVB      ACC,#3                ; [CPU_ALU] |123| 
    2088 00000010 BE00          MOVB      XAR6,#0               ; [CPU_ALU] |123| 
    2089 00000011 D401          MOVB      XAR4,#1               ; [CPU_ALU] |123| 
    2090 00000012 D530          MOVB      XAR5,#48              ; [CPU_ALU] |123| 
    2091 00000013 1E42          MOVL      *-SP[2],ACC           ; [CPU_ALU] |123| 
    2092 00000014 2B43          MOV       *-SP[3],#0            ; [CPU_ALU] |123| 
    2093 00000015 0201          MOVB      ACC,#1                ; [CPU_ALU] |123| 
    2094 00000016 C246          MOVL      *-SP[6],XAR6          ; [CPU_ALU] |123| 
    2095              $C$DW$96        .dwtag  DW_TAG_TI_branch
    2096                      .dwattr $C$DW$96, DW_AT_low_pc(0x00)
    2097                      .dwattr $C$DW$96, DW_AT_name("_InitSysPll")
    2098                      .dwattr $C$DW$96, DW_AT_TI_call
    2099              
    2100 00000017 7640+         LCR       #_InitSysPll          ; [CPU_ALU] |123| 
         00000018 0000 
    2101                      ; call occurs [#_InitSysPll] ; [] |123| 
    2102                      .dwpsn  file "../DeviceSupport/source/f28003x_sysctrl.c",line 142,column 5,is_stmt,isa 0
    2103              $C$DW$97        .dwtag  DW_TAG_TI_branch
    2104                      .dwattr $C$DW$97, DW_AT_low_pc(0x00)
    2105                      .dwattr $C$DW$97, DW_AT_name("_InitPeripheralClocks")
    2106                      .dwattr $C$DW$97, DW_AT_TI_call
    2107              
    2108 00000019 7640+         LCR       #_InitPeripheralClocks ; [CPU_ALU] |142| 
         0000001a 0000 
    2109                      ; call occurs [#_InitPeripheralClocks] ; [] |142| 
    2110 0000001b FE86          SUBB      SP,#6                 ; [CPU_ARAU] 
TMS320C2000 Assembler PC v22.6.1 Wed May 21 09:51:55 2025

Copyright (c) 1996-2018 Texas Instruments Incorporated
C:\Users\Daniel\AppData\Local\Temp\{78ED34F4-3C3B-4D89-8F5D-B64BD43A86E6} PAGE   43

    2111                      .dwcfi  cfa_offset, -2
    2112              $C$DW$98        .dwtag  DW_TAG_TI_branch
    2113                      .dwattr $C$DW$98, DW_AT_low_pc(0x00)
    2114                      .dwattr $C$DW$98, DW_AT_TI_return
    2115              
    2116 0000001c 0006          LRETR     ; [CPU_ALU] 
    2117                      ; return occurs ; [] 
    2118                      .dwattr $C$DW$92, DW_AT_TI_end_file("../DeviceSupport/source/f28003x_sysctrl.c")
    2119                      .dwattr $C$DW$92, DW_AT_TI_end_line(0x8f)
    2120                      .dwattr $C$DW$92, DW_AT_TI_end_column(0x01)
    2121                      .dwendentry
    2122                      .dwendtag $C$DW$92
    2123              
    2124 00000000               .sect   ".text:_IDLE"
    2125                      .clink
    2126                      .global _IDLE
    2127              
    2128              $C$DW$99        .dwtag  DW_TAG_subprogram
    2129                      .dwattr $C$DW$99, DW_AT_name("IDLE")
    2130                      .dwattr $C$DW$99, DW_AT_low_pc(_IDLE)
    2131                      .dwattr $C$DW$99, DW_AT_high_pc(0x00)
    2132                      .dwattr $C$DW$99, DW_AT_TI_symbol_name("_IDLE")
    2133                      .dwattr $C$DW$99, DW_AT_external
    2134                      .dwattr $C$DW$99, DW_AT_TI_begin_file("../DeviceSupport/source/f28003x_sysctrl.c")
    2135                      .dwattr $C$DW$99, DW_AT_TI_begin_line(0x2c6)
    2136                      .dwattr $C$DW$99, DW_AT_TI_begin_column(0x01)
    2137                      .dwattr $C$DW$99, DW_AT_TI_max_frame_size(-2)
    2138                      .dwpsn  file "../DeviceSupport/source/f28003x_sysctrl.c",line 711,column 1,is_stmt,address _IDLE,isa 
    2139              
    2140                      .dwfde $C$DW$CIE, _IDLE
    2141              
    2142              ;***************************************************************
    2143              ;* FNAME: _IDLE                         FR SIZE:   0           *
    2144              ;*                                                             *
    2145              ;* FUNCTION ENVIRONMENT                                        *
    2146              ;*                                                             *
    2147              ;* FUNCTION PROPERTIES                                         *
    2148              ;*                            0 Parameter,  0 Auto,  0 SOE     *
    2149              ;***************************************************************
    2150              
    2151 00000000       _IDLE:
    2152                      .dwcfi  cfa_offset, -2
    2153                      .dwcfi  save_reg_to_mem, 26, 0
    2154                      .dwpsn  file "../DeviceSupport/source/f28003x_sysctrl.c",line 712,column 5,is_stmt,isa 0
    2155 00000000 7622          EALLOW    ; [CPU_ALU] |712| 
    2156 00000001 761F!         MOVW      DP,#_CpuSysRegs+118   ; [CPU_ARAU] 
         00000002 0001 
    2157                      .dwpsn  file "../DeviceSupport/source/f28003x_sysctrl.c",line 713,column 5,is_stmt,isa 0
    2158 00000003 1836!         AND       @$BLOCKED(_CpuSysRegs)+118,#0xfffc ; [CPU_ALU] |713| 
         00000004 FFFC 
    2159                      .dwpsn  file "../DeviceSupport/source/f28003x_sysctrl.c",line 714,column 5,is_stmt,isa 0
    2160 00000005 761A          EDIS      ; [CPU_ALU] |714| 
    2161 00000006 7621   IDLE
    2162 00000007 FF69          SPM       #0                    ; [CPU_ALU] 
    2163              $C$DW$100       .dwtag  DW_TAG_TI_branch
TMS320C2000 Assembler PC v22.6.1 Wed May 21 09:51:55 2025

Copyright (c) 1996-2018 Texas Instruments Incorporated
C:\Users\Daniel\AppData\Local\Temp\{78ED34F4-3C3B-4D89-8F5D-B64BD43A86E6} PAGE   44

    2164                      .dwattr $C$DW$100, DW_AT_low_pc(0x00)
    2165                      .dwattr $C$DW$100, DW_AT_TI_return
    2166              
    2167 00000008 0006          LRETR     ; [CPU_ALU] 
    2168                      ; return occurs ; [] 
    2169                      .dwattr $C$DW$99, DW_AT_TI_end_file("../DeviceSupport/source/f28003x_sysctrl.c")
    2170                      .dwattr $C$DW$99, DW_AT_TI_end_line(0x2cc)
    2171                      .dwattr $C$DW$99, DW_AT_TI_end_column(0x01)
    2172                      .dwendentry
    2173                      .dwendtag $C$DW$99
    2174              
    2175 00000000               .sect   ".text:_HALT"
    2176                      .clink
    2177                      .global _HALT
    2178              
    2179              $C$DW$101       .dwtag  DW_TAG_subprogram
    2180                      .dwattr $C$DW$101, DW_AT_name("HALT")
    2181                      .dwattr $C$DW$101, DW_AT_low_pc(_HALT)
    2182                      .dwattr $C$DW$101, DW_AT_high_pc(0x00)
    2183                      .dwattr $C$DW$101, DW_AT_TI_symbol_name("_HALT")
    2184                      .dwattr $C$DW$101, DW_AT_external
    2185                      .dwattr $C$DW$101, DW_AT_TI_begin_file("../DeviceSupport/source/f28003x_sysctrl.c")
    2186                      .dwattr $C$DW$101, DW_AT_TI_begin_line(0x2d2)
    2187                      .dwattr $C$DW$101, DW_AT_TI_begin_column(0x01)
    2188                      .dwattr $C$DW$101, DW_AT_TI_max_frame_size(-2)
    2189                      .dwpsn  file "../DeviceSupport/source/f28003x_sysctrl.c",line 723,column 1,is_stmt,address _HALT,isa 
    2190              
    2191                      .dwfde $C$DW$CIE, _HALT
    2192              
    2193              ;***************************************************************
    2194              ;* FNAME: _HALT                         FR SIZE:   0           *
    2195              ;*                                                             *
    2196              ;* FUNCTION ENVIRONMENT                                        *
    2197              ;*                                                             *
    2198              ;* FUNCTION PROPERTIES                                         *
    2199              ;*                            0 Parameter,  0 Auto,  0 SOE     *
    2200              ;***************************************************************
    2201              
    2202 00000000       _HALT:
    2203                      .dwcfi  cfa_offset, -2
    2204                      .dwcfi  save_reg_to_mem, 26, 0
    2205                      .dwpsn  file "../DeviceSupport/source/f28003x_sysctrl.c",line 724,column 5,is_stmt,isa 0
    2206 00000000 7622          EALLOW    ; [CPU_ALU] |724| 
    2207 00000001 761F!         MOVW      DP,#_CpuSysRegs+118   ; [CPU_ARAU] 
         00000002 0001 
    2208                      .dwpsn  file "../DeviceSupport/source/f28003x_sysctrl.c",line 725,column 5,is_stmt,isa 0
    2209 00000003 CC36!         AND       AL,@$BLOCKED(_CpuSysRegs)+118,#0xfffe ; [CPU_ALU] |725| 
         00000004 FFFE 
    2210 00000005 5002          ORB       AL,#0x02              ; [CPU_ALU] |725| 
    2211 00000006 9636!         MOV       @$BLOCKED(_CpuSysRegs)+118,AL ; [CPU_ALU] |725| 
    2212 00000007 761F!         MOVW      DP,#_ClkCfgRegs+14    ; [CPU_ARAU] 
         00000008 0000 
    2213                      .dwpsn  file "../DeviceSupport/source/f28003x_sysctrl.c",line 726,column 5,is_stmt,isa 0
    2214 00000009 180E!         AND       @$BLOCKED(_ClkCfgRegs)+14,#0xfffd ; [CPU_ALU] |726| 
         0000000a FFFD 
TMS320C2000 Assembler PC v22.6.1 Wed May 21 09:51:55 2025

Copyright (c) 1996-2018 Texas Instruments Incorporated
C:\Users\Daniel\AppData\Local\Temp\{78ED34F4-3C3B-4D89-8F5D-B64BD43A86E6} PAGE   45

    2215                      .dwpsn  file "../DeviceSupport/source/f28003x_sysctrl.c",line 727,column 5,is_stmt,isa 0
    2216 0000000b 180E!         AND       @$BLOCKED(_ClkCfgRegs)+14,#0xfffe ; [CPU_ALU] |727| 
         0000000c FFFE 
    2217                      .dwpsn  file "../DeviceSupport/source/f28003x_sysctrl.c",line 728,column 5,is_stmt,isa 0
    2218 0000000d 761A          EDIS      ; [CPU_ALU] |728| 
    2219 0000000e 7621   IDLE
    2220 0000000f FF69          SPM       #0                    ; [CPU_ALU] 
    2221              $C$DW$102       .dwtag  DW_TAG_TI_branch
    2222                      .dwattr $C$DW$102, DW_AT_low_pc(0x00)
    2223                      .dwattr $C$DW$102, DW_AT_TI_return
    2224              
    2225 00000010 0006          LRETR     ; [CPU_ALU] 
    2226                      ; return occurs ; [] 
    2227                      .dwattr $C$DW$101, DW_AT_TI_end_file("../DeviceSupport/source/f28003x_sysctrl.c")
    2228                      .dwattr $C$DW$101, DW_AT_TI_end_line(0x2da)
    2229                      .dwattr $C$DW$101, DW_AT_TI_end_column(0x01)
    2230                      .dwendentry
    2231                      .dwendtag $C$DW$101
    2232              
    2233 00000000               .sect   ".TI.ramfunc:_FlashOff"
    2234                      .clink
    2235                      .global _FlashOff
    2236              
    2237              $C$DW$103       .dwtag  DW_TAG_subprogram
    2238                      .dwattr $C$DW$103, DW_AT_name("FlashOff")
    2239                      .dwattr $C$DW$103, DW_AT_low_pc(_FlashOff)
    2240                      .dwattr $C$DW$103, DW_AT_high_pc(0x00)
    2241                      .dwattr $C$DW$103, DW_AT_TI_symbol_name("_FlashOff")
    2242                      .dwattr $C$DW$103, DW_AT_external
    2243                      .dwattr $C$DW$103, DW_AT_TI_begin_file("../DeviceSupport/source/f28003x_sysctrl.c")
    2244                      .dwattr $C$DW$103, DW_AT_TI_begin_line(0x153)
    2245                      .dwattr $C$DW$103, DW_AT_TI_begin_column(0x06)
    2246                      .dwattr $C$DW$103, DW_AT_TI_max_frame_size(-2)
    2247                      .dwpsn  file "../DeviceSupport/source/f28003x_sysctrl.c",line 340,column 1,is_stmt,address _FlashOff,
    2248              
    2249                      .dwfde $C$DW$CIE, _FlashOff
    2250              
    2251              ;***************************************************************
    2252              ;* FNAME: _FlashOff                     FR SIZE:   0           *
    2253              ;*                                                             *
    2254              ;* FUNCTION ENVIRONMENT                                        *
    2255              ;*                                                             *
    2256              ;* FUNCTION PROPERTIES                                         *
    2257              ;*                            0 Parameter,  0 Auto,  0 SOE     *
    2258              ;***************************************************************
    2259              
    2260 00000000       _FlashOff:
    2261              ;* AR4   assigned to $O$C1
    2262                      .dwcfi  cfa_offset, -2
    2263                      .dwcfi  save_reg_to_mem, 26, 0
    2264                      .dwpsn  file "../DeviceSupport/source/f28003x_sysctrl.c",line 341,column 5,is_stmt,isa 0
    2265 00000000 7622          EALLOW    ; [CPU_ALU] |341| 
    2266                      .dwpsn  file "../DeviceSupport/source/f28003x_sysctrl.c",line 346,column 5,is_stmt,isa 0
    2267 00000001 8F00!         MOVL      XAR4,#_Flash0CtrlRegs ; [CPU_ARAU] |346| 
         00000002 0000 
TMS320C2000 Assembler PC v22.6.1 Wed May 21 09:51:55 2025

Copyright (c) 1996-2018 Texas Instruments Incorporated
C:\Users\Daniel\AppData\Local\Temp\{78ED34F4-3C3B-4D89-8F5D-B64BD43A86E6} PAGE   46

    2268 00000003 83A4          MOVL      XAR5,XAR4             ; [CPU_ALU] |346| 
    2269                      .dwpsn  file "../DeviceSupport/source/f28003x_sysctrl.c",line 351,column 5,is_stmt,isa 0
    2270 00000004 DC24          ADDB      XAR4,#36              ; [CPU_ALU] |351| 
    2271                      .dwpsn  file "../DeviceSupport/source/f28003x_sysctrl.c",line 346,column 5,is_stmt,isa 0
    2272 00000005 DD20          ADDB      XAR5,#32              ; [CPU_ALU] |346| 
    2273 00000006 18C5          AND       *+XAR5[0],#0xfffc     ; [CPU_FPU] |346| 
         00000007 FFFC 
    2274                      .dwpsn  file "../DeviceSupport/source/f28003x_sysctrl.c",line 351,column 5,is_stmt,isa 0
    2275 00000008 18C4          AND       *+XAR4[0],#0xfffe     ; [CPU_ALU] |351| 
         00000009 FFFE 
    2276                      .dwpsn  file "../DeviceSupport/source/f28003x_sysctrl.c",line 353,column 5,is_stmt,isa 0
    2277 0000000a 761A          EDIS      ; [CPU_ALU] |353| 
    2278              $C$DW$104       .dwtag  DW_TAG_TI_branch
    2279                      .dwattr $C$DW$104, DW_AT_low_pc(0x00)
    2280                      .dwattr $C$DW$104, DW_AT_TI_return
    2281              
    2282 0000000b 0006          LRETR     ; [CPU_ALU] 
    2283                      ; return occurs ; [] 
    2284                      .dwattr $C$DW$103, DW_AT_TI_end_file("../DeviceSupport/source/f28003x_sysctrl.c")
    2285                      .dwattr $C$DW$103, DW_AT_TI_end_line(0x162)
    2286                      .dwattr $C$DW$103, DW_AT_TI_end_column(0x01)
    2287                      .dwendentry
    2288                      .dwendtag $C$DW$103
    2289              
    2290 00000000               .sect   ".text:_DisablePeripheralClocks"
    2291                      .clink
    2292                      .global _DisablePeripheralClocks
    2293              
    2294              $C$DW$105       .dwtag  DW_TAG_subprogram
    2295                      .dwattr $C$DW$105, DW_AT_name("DisablePeripheralClocks")
    2296                      .dwattr $C$DW$105, DW_AT_low_pc(_DisablePeripheralClocks)
    2297                      .dwattr $C$DW$105, DW_AT_high_pc(0x00)
    2298                      .dwattr $C$DW$105, DW_AT_TI_symbol_name("_DisablePeripheralClocks")
    2299                      .dwattr $C$DW$105, DW_AT_external
    2300                      .dwattr $C$DW$105, DW_AT_TI_begin_file("../DeviceSupport/source/f28003x_sysctrl.c")
    2301                      .dwattr $C$DW$105, DW_AT_TI_begin_line(0xec)
    2302                      .dwattr $C$DW$105, DW_AT_TI_begin_column(0x06)
    2303                      .dwattr $C$DW$105, DW_AT_TI_max_frame_size(-2)
    2304                      .dwpsn  file "../DeviceSupport/source/f28003x_sysctrl.c",line 237,column 1,is_stmt,address _DisablePe
    2305              
    2306                      .dwfde $C$DW$CIE, _DisablePeripheralClocks
    2307              
    2308              ;***************************************************************
    2309              ;* FNAME: _DisablePeripheralClocks      FR SIZE:   0           *
    2310              ;*                                                             *
    2311              ;* FUNCTION ENVIRONMENT                                        *
    2312              ;*                                                             *
    2313              ;* FUNCTION PROPERTIES                                         *
    2314              ;*                            0 Parameter,  0 Auto,  0 SOE     *
    2315              ;***************************************************************
    2316              
    2317 00000000       _DisablePeripheralClocks:
    2318                      .dwcfi  cfa_offset, -2
    2319                      .dwcfi  save_reg_to_mem, 26, 0
    2320                      .dwpsn  file "../DeviceSupport/source/f28003x_sysctrl.c",line 238,column 5,is_stmt,isa 0
TMS320C2000 Assembler PC v22.6.1 Wed May 21 09:51:55 2025

Copyright (c) 1996-2018 Texas Instruments Incorporated
C:\Users\Daniel\AppData\Local\Temp\{78ED34F4-3C3B-4D89-8F5D-B64BD43A86E6} PAGE   47

    2321 00000000 7622          EALLOW    ; [CPU_ALU] |238| 
    2322                      .dwpsn  file "../DeviceSupport/source/f28003x_sysctrl.c",line 240,column 5,is_stmt,isa 0
    2323 00000001 D400          MOVB      XAR4,#0               ; [CPU_ALU] |240| 
    2324 00000002 761F!         MOVW      DP,#_CpuSysRegs+34    ; [CPU_ARAU] 
         00000003 0000 
    2325                      .dwpsn  file "../DeviceSupport/source/f28003x_sysctrl.c",line 241,column 5,is_stmt,isa 0
    2326 00000004 3100          MOV       P,#0                  ; [CPU_ALU] |241| 
    2327                      .dwpsn  file "../DeviceSupport/source/f28003x_sysctrl.c",line 242,column 5,is_stmt,isa 0
    2328 00000005 BE00          MOVB      XAR6,#0               ; [CPU_ALU] |242| 
    2329                      .dwpsn  file "../DeviceSupport/source/f28003x_sysctrl.c",line 243,column 5,is_stmt,isa 0
    2330 00000006 B600          MOVB      XAR7,#0               ; [CPU_ALU] |243| 
    2331                      .dwpsn  file "../DeviceSupport/source/f28003x_sysctrl.c",line 244,column 5,is_stmt,isa 0
    2332 00000007 0200          MOVB      ACC,#0                ; [CPU_ALU] |244| 
    2333                      .dwpsn  file "../DeviceSupport/source/f28003x_sysctrl.c",line 246,column 5,is_stmt,isa 0
    2334 00000008 D500          MOVB      XAR5,#0               ; [CPU_ALU] |246| 
    2335                      .dwpsn  file "../DeviceSupport/source/f28003x_sysctrl.c",line 253,column 5,is_stmt,isa 0
    2336 00000009 D000          MOVB      XAR0,#0               ; [CPU_ALU] |253| 
    2337                      .dwpsn  file "../DeviceSupport/source/f28003x_sysctrl.c",line 240,column 5,is_stmt,isa 0
    2338 0000000a A822!         MOVL      @$BLOCKED(_CpuSysRegs)+34,XAR4 ; [CPU_ALU] |240| 
    2339                      .dwpsn  file "../DeviceSupport/source/f28003x_sysctrl.c",line 241,column 5,is_stmt,isa 0
    2340 0000000b A926!         MOVL      @$BLOCKED(_CpuSysRegs)+38,P ; [CPU_ALU] |241| 
    2341                      .dwpsn  file "../DeviceSupport/source/f28003x_sysctrl.c",line 242,column 5,is_stmt,isa 0
    2342 0000000c C228!         MOVL      @$BLOCKED(_CpuSysRegs)+40,XAR6 ; [CPU_ALU] |242| 
    2343                      .dwpsn  file "../DeviceSupport/source/f28003x_sysctrl.c",line 243,column 5,is_stmt,isa 0
    2344 0000000d C32A!         MOVL      @$BLOCKED(_CpuSysRegs)+42,XAR7 ; [CPU_ALU] |243| 
    2345                      .dwpsn  file "../DeviceSupport/source/f28003x_sysctrl.c",line 244,column 5,is_stmt,isa 0
    2346 0000000e 1E2E!         MOVL      @$BLOCKED(_CpuSysRegs)+46,ACC ; [CPU_ALU] |244| 
    2347                      .dwpsn  file "../DeviceSupport/source/f28003x_sysctrl.c",line 245,column 5,is_stmt,isa 0
    2348 0000000f C230!         MOVL      @$BLOCKED(_CpuSysRegs)+48,XAR6 ; [CPU_ALU] |245| 
    2349                      .dwpsn  file "../DeviceSupport/source/f28003x_sysctrl.c",line 246,column 5,is_stmt,isa 0
    2350 00000010 A032!         MOVL      @$BLOCKED(_CpuSysRegs)+50,XAR5 ; [CPU_ALU] |246| 
    2351                      .dwpsn  file "../DeviceSupport/source/f28003x_sysctrl.c",line 247,column 5,is_stmt,isa 0
    2352 00000011 A834!         MOVL      @$BLOCKED(_CpuSysRegs)+52,XAR4 ; [CPU_ALU] |247| 
    2353                      .dwpsn  file "../DeviceSupport/source/f28003x_sysctrl.c",line 248,column 5,is_stmt,isa 0
    2354 00000012 A936!         MOVL      @$BLOCKED(_CpuSysRegs)+54,P ; [CPU_ALU] |248| 
    2355                      .dwpsn  file "../DeviceSupport/source/f28003x_sysctrl.c",line 249,column 5,is_stmt,isa 0
    2356 00000013 1E3C!         MOVL      @$BLOCKED(_CpuSysRegs)+60,ACC ; [CPU_ALU] |249| 
    2357                      .dwpsn  file "../DeviceSupport/source/f28003x_sysctrl.c",line 250,column 5,is_stmt,isa 0
    2358 00000014 C33E!         MOVL      @$BLOCKED(_CpuSysRegs)+62,XAR7 ; [CPU_ALU] |250| 
    2359 00000015 761F!         MOVW      DP,#_CpuSysRegs+66    ; [CPU_ARAU] 
         00000016 0001 
    2360                      .dwpsn  file "../DeviceSupport/source/f28003x_sysctrl.c",line 251,column 5,is_stmt,isa 0
    2361 00000017 C202!         MOVL      @$BLOCKED(_CpuSysRegs)+66,XAR6 ; [CPU_ALU] |251| 
    2362                      .dwpsn  file "../DeviceSupport/source/f28003x_sysctrl.c",line 252,column 5,is_stmt,isa 0
    2363 00000018 1E04!         MOVL      @$BLOCKED(_CpuSysRegs)+68,ACC ; [CPU_ALU] |252| 
    2364                      .dwpsn  file "../DeviceSupport/source/f28003x_sysctrl.c",line 253,column 5,is_stmt,isa 0
    2365 00000019 3A06!         MOVL      @$BLOCKED(_CpuSysRegs)+70,XAR0 ; [CPU_ALU] |253| 
    2366                      .dwpsn  file "../DeviceSupport/source/f28003x_sysctrl.c",line 254,column 5,is_stmt,isa 0
    2367 0000001a A008!         MOVL      @$BLOCKED(_CpuSysRegs)+72,XAR5 ; [CPU_ALU] |254| 
    2368                      .dwpsn  file "../DeviceSupport/source/f28003x_sysctrl.c",line 255,column 5,is_stmt,isa 0
    2369 0000001b A80A!         MOVL      @$BLOCKED(_CpuSysRegs)+74,XAR4 ; [CPU_ALU] |255| 
    2370                      .dwpsn  file "../DeviceSupport/source/f28003x_sysctrl.c",line 256,column 5,is_stmt,isa 0
    2371 0000001c A90C!         MOVL      @$BLOCKED(_CpuSysRegs)+76,P ; [CPU_ALU] |256| 
    2372                      .dwpsn  file "../DeviceSupport/source/f28003x_sysctrl.c",line 257,column 5,is_stmt,isa 0
    2373 0000001d C314!         MOVL      @$BLOCKED(_CpuSysRegs)+84,XAR7 ; [CPU_ALU] |257| 
TMS320C2000 Assembler PC v22.6.1 Wed May 21 09:51:55 2025

Copyright (c) 1996-2018 Texas Instruments Incorporated
C:\Users\Daniel\AppData\Local\Temp\{78ED34F4-3C3B-4D89-8F5D-B64BD43A86E6} PAGE   48

    2374                      .dwpsn  file "../DeviceSupport/source/f28003x_sysctrl.c",line 258,column 5,is_stmt,isa 0
    2375 0000001e C216!         MOVL      @$BLOCKED(_CpuSysRegs)+86,XAR6 ; [CPU_ALU] |258| 
    2376                      .dwpsn  file "../DeviceSupport/source/f28003x_sysctrl.c",line 259,column 5,is_stmt,isa 0
    2377 0000001f 1E18!         MOVL      @$BLOCKED(_CpuSysRegs)+88,ACC ; [CPU_ALU] |259| 
    2378                      .dwpsn  file "../DeviceSupport/source/f28003x_sysctrl.c",line 261,column 5,is_stmt,isa 0
    2379 00000020 761A          EDIS      ; [CPU_ALU] |261| 
    2380              $C$DW$106       .dwtag  DW_TAG_TI_branch
    2381                      .dwattr $C$DW$106, DW_AT_low_pc(0x00)
    2382                      .dwattr $C$DW$106, DW_AT_TI_return
    2383              
    2384 00000021 0006          LRETR     ; [CPU_ALU] 
    2385                      ; return occurs ; [] 
    2386                      .dwattr $C$DW$105, DW_AT_TI_end_file("../DeviceSupport/source/f28003x_sysctrl.c")
    2387                      .dwattr $C$DW$105, DW_AT_TI_end_line(0x106)
    2388                      .dwattr $C$DW$105, DW_AT_TI_end_column(0x01)
    2389                      .dwendentry
    2390                      .dwendtag $C$DW$105
    2391              
    2392              ;**************************************************************
    2393              ;* UNDEFINED EXTERNAL REFERENCES                              *
    2394              ;**************************************************************
    2395                      .global _F28x_usDelay
    2396                      .global _RamfuncsLoadStart
    2397                      .global _RamfuncsLoadSize
    2398                      .global _RamfuncsRunStart
    2399                      .global _Flash0EccRegs
    2400                      .global _WdRegs
    2401                      .global _Dcc0Regs
    2402                      .global _Dcc1Regs
    2403                      .global _ClkCfgRegs
    2404                      .global _CpuSysRegs
    2405                      .global _Flash0CtrlRegs
    2406                      .global FS$$DIV
    2407                      .global _memcpy
    2408              
    2409              ;***************************************************************
    2410              ;* TYPE INFORMATION                                            *
    2411              ;***************************************************************
    2412              
    2413              $C$DW$T$20      .dwtag  DW_TAG_structure_type
    2414                      .dwattr $C$DW$T$20, DW_AT_name("AUXCLKDIVSEL_BITS")
    2415                      .dwattr $C$DW$T$20, DW_AT_byte_size(0x02)
    2416              $C$DW$107       .dwtag  DW_TAG_member
    2417                      .dwattr $C$DW$107, DW_AT_type(*$C$DW$T$19)
    2418                      .dwattr $C$DW$107, DW_AT_name("rsvd1")
    2419                      .dwattr $C$DW$107, DW_AT_TI_symbol_name("_rsvd1")
    2420                      .dwattr $C$DW$107, DW_AT_bit_offset(0x0d)
    2421                      .dwattr $C$DW$107, DW_AT_bit_size(0x03)
    2422                      .dwattr $C$DW$107, DW_AT_data_member_location[DW_OP_plus_uconst 0x0]
    2423                      .dwattr $C$DW$107, DW_AT_accessibility(DW_ACCESS_public)
    2424              
    2425              $C$DW$108       .dwtag  DW_TAG_member
    2426                      .dwattr $C$DW$108, DW_AT_type(*$C$DW$T$19)
    2427                      .dwattr $C$DW$108, DW_AT_name("rsvd2")
    2428                      .dwattr $C$DW$108, DW_AT_TI_symbol_name("_rsvd2")
TMS320C2000 Assembler PC v22.6.1 Wed May 21 09:51:55 2025

Copyright (c) 1996-2018 Texas Instruments Incorporated
C:\Users\Daniel\AppData\Local\Temp\{78ED34F4-3C3B-4D89-8F5D-B64BD43A86E6} PAGE   49

    2429                      .dwattr $C$DW$108, DW_AT_bit_offset(0x08)
    2430                      .dwattr $C$DW$108, DW_AT_bit_size(0x05)
    2431                      .dwattr $C$DW$108, DW_AT_data_member_location[DW_OP_plus_uconst 0x0]
    2432                      .dwattr $C$DW$108, DW_AT_accessibility(DW_ACCESS_public)
    2433              
    2434              $C$DW$109       .dwtag  DW_TAG_member
    2435                      .dwattr $C$DW$109, DW_AT_type(*$C$DW$T$19)
    2436                      .dwattr $C$DW$109, DW_AT_name("MCANCLKDIV")
    2437                      .dwattr $C$DW$109, DW_AT_TI_symbol_name("_MCANCLKDIV")
    2438                      .dwattr $C$DW$109, DW_AT_bit_offset(0x03)
    2439                      .dwattr $C$DW$109, DW_AT_bit_size(0x05)
    2440                      .dwattr $C$DW$109, DW_AT_data_member_location[DW_OP_plus_uconst 0x0]
    2441                      .dwattr $C$DW$109, DW_AT_accessibility(DW_ACCESS_public)
    2442              
    2443              $C$DW$110       .dwtag  DW_TAG_member
    2444                      .dwattr $C$DW$110, DW_AT_type(*$C$DW$T$19)
    2445                      .dwattr $C$DW$110, DW_AT_name("rsvd3")
    2446                      .dwattr $C$DW$110, DW_AT_TI_symbol_name("_rsvd3")
    2447                      .dwattr $C$DW$110, DW_AT_bit_offset(0x00)
    2448                      .dwattr $C$DW$110, DW_AT_bit_size(0x03)
    2449                      .dwattr $C$DW$110, DW_AT_data_member_location[DW_OP_plus_uconst 0x0]
    2450                      .dwattr $C$DW$110, DW_AT_accessibility(DW_ACCESS_public)
    2451              
    2452              $C$DW$111       .dwtag  DW_TAG_member
    2453                      .dwattr $C$DW$111, DW_AT_type(*$C$DW$T$19)
    2454                      .dwattr $C$DW$111, DW_AT_name("rsvd4")
    2455                      .dwattr $C$DW$111, DW_AT_TI_symbol_name("_rsvd4")
    2456                      .dwattr $C$DW$111, DW_AT_bit_offset(0x00)
    2457                      .dwattr $C$DW$111, DW_AT_bit_size(0x10)
    2458                      .dwattr $C$DW$111, DW_AT_data_member_location[DW_OP_plus_uconst 0x1]
    2459                      .dwattr $C$DW$111, DW_AT_accessibility(DW_ACCESS_public)
    2460              
    2461                      .dwendtag $C$DW$T$20
    2462              
    2463              
    2464              $C$DW$T$22      .dwtag  DW_TAG_union_type
    2465                      .dwattr $C$DW$T$22, DW_AT_name("AUXCLKDIVSEL_REG")
    2466                      .dwattr $C$DW$T$22, DW_AT_byte_size(0x02)
    2467              $C$DW$112       .dwtag  DW_TAG_member
    2468                      .dwattr $C$DW$112, DW_AT_type(*$C$DW$T$21)
    2469                      .dwattr $C$DW$112, DW_AT_name("all")
    2470                      .dwattr $C$DW$112, DW_AT_TI_symbol_name("_all")
    2471                      .dwattr $C$DW$112, DW_AT_data_member_location[DW_OP_plus_uconst 0x0]
    2472                      .dwattr $C$DW$112, DW_AT_accessibility(DW_ACCESS_public)
    2473              
    2474              $C$DW$113       .dwtag  DW_TAG_member
    2475                      .dwattr $C$DW$113, DW_AT_type(*$C$DW$T$20)
    2476                      .dwattr $C$DW$113, DW_AT_name("bit")
    2477                      .dwattr $C$DW$113, DW_AT_TI_symbol_name("_bit")
    2478                      .dwattr $C$DW$113, DW_AT_data_member_location[DW_OP_plus_uconst 0x0]
    2479                      .dwattr $C$DW$113, DW_AT_accessibility(DW_ACCESS_public)
    2480              
    2481                      .dwendtag $C$DW$T$22
    2482              
    2483              
TMS320C2000 Assembler PC v22.6.1 Wed May 21 09:51:55 2025

Copyright (c) 1996-2018 Texas Instruments Incorporated
C:\Users\Daniel\AppData\Local\Temp\{78ED34F4-3C3B-4D89-8F5D-B64BD43A86E6} PAGE   50

    2484              $C$DW$T$23      .dwtag  DW_TAG_structure_type
    2485                      .dwattr $C$DW$T$23, DW_AT_name("CLKCFGLOCK1_BITS")
    2486                      .dwattr $C$DW$T$23, DW_AT_byte_size(0x02)
    2487              $C$DW$114       .dwtag  DW_TAG_member
    2488                      .dwattr $C$DW$114, DW_AT_type(*$C$DW$T$19)
    2489                      .dwattr $C$DW$114, DW_AT_name("CLKSRCCTL1")
    2490                      .dwattr $C$DW$114, DW_AT_TI_symbol_name("_CLKSRCCTL1")
    2491                      .dwattr $C$DW$114, DW_AT_bit_offset(0x0f)
    2492                      .dwattr $C$DW$114, DW_AT_bit_size(0x01)
    2493                      .dwattr $C$DW$114, DW_AT_data_member_location[DW_OP_plus_uconst 0x0]
    2494                      .dwattr $C$DW$114, DW_AT_accessibility(DW_ACCESS_public)
    2495              
    2496              $C$DW$115       .dwtag  DW_TAG_member
    2497                      .dwattr $C$DW$115, DW_AT_type(*$C$DW$T$19)
    2498                      .dwattr $C$DW$115, DW_AT_name("CLKSRCCTL2")
    2499                      .dwattr $C$DW$115, DW_AT_TI_symbol_name("_CLKSRCCTL2")
    2500                      .dwattr $C$DW$115, DW_AT_bit_offset(0x0e)
    2501                      .dwattr $C$DW$115, DW_AT_bit_size(0x01)
    2502                      .dwattr $C$DW$115, DW_AT_data_member_location[DW_OP_plus_uconst 0x0]
    2503                      .dwattr $C$DW$115, DW_AT_accessibility(DW_ACCESS_public)
    2504              
    2505              $C$DW$116       .dwtag  DW_TAG_member
    2506                      .dwattr $C$DW$116, DW_AT_type(*$C$DW$T$19)
    2507                      .dwattr $C$DW$116, DW_AT_name("CLKSRCCTL3")
    2508                      .dwattr $C$DW$116, DW_AT_TI_symbol_name("_CLKSRCCTL3")
    2509                      .dwattr $C$DW$116, DW_AT_bit_offset(0x0d)
    2510                      .dwattr $C$DW$116, DW_AT_bit_size(0x01)
    2511                      .dwattr $C$DW$116, DW_AT_data_member_location[DW_OP_plus_uconst 0x0]
    2512                      .dwattr $C$DW$116, DW_AT_accessibility(DW_ACCESS_public)
    2513              
    2514              $C$DW$117       .dwtag  DW_TAG_member
    2515                      .dwattr $C$DW$117, DW_AT_type(*$C$DW$T$19)
    2516                      .dwattr $C$DW$117, DW_AT_name("SYSPLLCTL1")
    2517                      .dwattr $C$DW$117, DW_AT_TI_symbol_name("_SYSPLLCTL1")
    2518                      .dwattr $C$DW$117, DW_AT_bit_offset(0x0c)
    2519                      .dwattr $C$DW$117, DW_AT_bit_size(0x01)
    2520                      .dwattr $C$DW$117, DW_AT_data_member_location[DW_OP_plus_uconst 0x0]
    2521                      .dwattr $C$DW$117, DW_AT_accessibility(DW_ACCESS_public)
    2522              
    2523              $C$DW$118       .dwtag  DW_TAG_member
    2524                      .dwattr $C$DW$118, DW_AT_type(*$C$DW$T$19)
    2525                      .dwattr $C$DW$118, DW_AT_name("rsvd1")
    2526                      .dwattr $C$DW$118, DW_AT_TI_symbol_name("_rsvd1")
    2527                      .dwattr $C$DW$118, DW_AT_bit_offset(0x0b)
    2528                      .dwattr $C$DW$118, DW_AT_bit_size(0x01)
    2529                      .dwattr $C$DW$118, DW_AT_data_member_location[DW_OP_plus_uconst 0x0]
    2530                      .dwattr $C$DW$118, DW_AT_accessibility(DW_ACCESS_public)
    2531              
    2532              $C$DW$119       .dwtag  DW_TAG_member
    2533                      .dwattr $C$DW$119, DW_AT_type(*$C$DW$T$19)
    2534                      .dwattr $C$DW$119, DW_AT_name("rsvd2")
    2535                      .dwattr $C$DW$119, DW_AT_TI_symbol_name("_rsvd2")
    2536                      .dwattr $C$DW$119, DW_AT_bit_offset(0x0a)
    2537                      .dwattr $C$DW$119, DW_AT_bit_size(0x01)
    2538                      .dwattr $C$DW$119, DW_AT_data_member_location[DW_OP_plus_uconst 0x0]
TMS320C2000 Assembler PC v22.6.1 Wed May 21 09:51:55 2025

Copyright (c) 1996-2018 Texas Instruments Incorporated
C:\Users\Daniel\AppData\Local\Temp\{78ED34F4-3C3B-4D89-8F5D-B64BD43A86E6} PAGE   51

    2539                      .dwattr $C$DW$119, DW_AT_accessibility(DW_ACCESS_public)
    2540              
    2541              $C$DW$120       .dwtag  DW_TAG_member
    2542                      .dwattr $C$DW$120, DW_AT_type(*$C$DW$T$19)
    2543                      .dwattr $C$DW$120, DW_AT_name("SYSPLLMULT")
    2544                      .dwattr $C$DW$120, DW_AT_TI_symbol_name("_SYSPLLMULT")
    2545                      .dwattr $C$DW$120, DW_AT_bit_offset(0x09)
    2546                      .dwattr $C$DW$120, DW_AT_bit_size(0x01)
    2547                      .dwattr $C$DW$120, DW_AT_data_member_location[DW_OP_plus_uconst 0x0]
    2548                      .dwattr $C$DW$120, DW_AT_accessibility(DW_ACCESS_public)
    2549              
    2550              $C$DW$121       .dwtag  DW_TAG_member
    2551                      .dwattr $C$DW$121, DW_AT_type(*$C$DW$T$19)
    2552                      .dwattr $C$DW$121, DW_AT_name("rsvd3")
    2553                      .dwattr $C$DW$121, DW_AT_TI_symbol_name("_rsvd3")
    2554                      .dwattr $C$DW$121, DW_AT_bit_offset(0x08)
    2555                      .dwattr $C$DW$121, DW_AT_bit_size(0x01)
    2556                      .dwattr $C$DW$121, DW_AT_data_member_location[DW_OP_plus_uconst 0x0]
    2557                      .dwattr $C$DW$121, DW_AT_accessibility(DW_ACCESS_public)
    2558              
    2559              $C$DW$122       .dwtag  DW_TAG_member
    2560                      .dwattr $C$DW$122, DW_AT_type(*$C$DW$T$19)
    2561                      .dwattr $C$DW$122, DW_AT_name("rsvd4")
    2562                      .dwattr $C$DW$122, DW_AT_TI_symbol_name("_rsvd4")
    2563                      .dwattr $C$DW$122, DW_AT_bit_offset(0x07)
    2564                      .dwattr $C$DW$122, DW_AT_bit_size(0x01)
    2565                      .dwattr $C$DW$122, DW_AT_data_member_location[DW_OP_plus_uconst 0x0]
    2566                      .dwattr $C$DW$122, DW_AT_accessibility(DW_ACCESS_public)
    2567              
    2568              $C$DW$123       .dwtag  DW_TAG_member
    2569                      .dwattr $C$DW$123, DW_AT_type(*$C$DW$T$19)
    2570                      .dwattr $C$DW$123, DW_AT_name("rsvd5")
    2571                      .dwattr $C$DW$123, DW_AT_TI_symbol_name("_rsvd5")
    2572                      .dwattr $C$DW$123, DW_AT_bit_offset(0x06)
    2573                      .dwattr $C$DW$123, DW_AT_bit_size(0x01)
    2574                      .dwattr $C$DW$123, DW_AT_data_member_location[DW_OP_plus_uconst 0x0]
    2575                      .dwattr $C$DW$123, DW_AT_accessibility(DW_ACCESS_public)
    2576              
    2577              $C$DW$124       .dwtag  DW_TAG_member
    2578                      .dwattr $C$DW$124, DW_AT_type(*$C$DW$T$19)
    2579                      .dwattr $C$DW$124, DW_AT_name("rsvd6")
    2580                      .dwattr $C$DW$124, DW_AT_TI_symbol_name("_rsvd6")
    2581                      .dwattr $C$DW$124, DW_AT_bit_offset(0x05)
    2582                      .dwattr $C$DW$124, DW_AT_bit_size(0x01)
    2583                      .dwattr $C$DW$124, DW_AT_data_member_location[DW_OP_plus_uconst 0x0]
    2584                      .dwattr $C$DW$124, DW_AT_accessibility(DW_ACCESS_public)
    2585              
    2586              $C$DW$125       .dwtag  DW_TAG_member
    2587                      .dwattr $C$DW$125, DW_AT_type(*$C$DW$T$19)
    2588                      .dwattr $C$DW$125, DW_AT_name("SYSCLKDIVSEL")
    2589                      .dwattr $C$DW$125, DW_AT_TI_symbol_name("_SYSCLKDIVSEL")
    2590                      .dwattr $C$DW$125, DW_AT_bit_offset(0x04)
    2591                      .dwattr $C$DW$125, DW_AT_bit_size(0x01)
    2592                      .dwattr $C$DW$125, DW_AT_data_member_location[DW_OP_plus_uconst 0x0]
    2593                      .dwattr $C$DW$125, DW_AT_accessibility(DW_ACCESS_public)
TMS320C2000 Assembler PC v22.6.1 Wed May 21 09:51:55 2025

Copyright (c) 1996-2018 Texas Instruments Incorporated
C:\Users\Daniel\AppData\Local\Temp\{78ED34F4-3C3B-4D89-8F5D-B64BD43A86E6} PAGE   52

    2594              
    2595              $C$DW$126       .dwtag  DW_TAG_member
    2596                      .dwattr $C$DW$126, DW_AT_type(*$C$DW$T$19)
    2597                      .dwattr $C$DW$126, DW_AT_name("AUXCLKDIVSEL")
    2598                      .dwattr $C$DW$126, DW_AT_TI_symbol_name("_AUXCLKDIVSEL")
    2599                      .dwattr $C$DW$126, DW_AT_bit_offset(0x03)
    2600                      .dwattr $C$DW$126, DW_AT_bit_size(0x01)
    2601                      .dwattr $C$DW$126, DW_AT_data_member_location[DW_OP_plus_uconst 0x0]
    2602                      .dwattr $C$DW$126, DW_AT_accessibility(DW_ACCESS_public)
    2603              
    2604              $C$DW$127       .dwtag  DW_TAG_member
    2605                      .dwattr $C$DW$127, DW_AT_type(*$C$DW$T$19)
    2606                      .dwattr $C$DW$127, DW_AT_name("PERCLKDIVSEL")
    2607                      .dwattr $C$DW$127, DW_AT_TI_symbol_name("_PERCLKDIVSEL")
    2608                      .dwattr $C$DW$127, DW_AT_bit_offset(0x02)
    2609                      .dwattr $C$DW$127, DW_AT_bit_size(0x01)
    2610                      .dwattr $C$DW$127, DW_AT_data_member_location[DW_OP_plus_uconst 0x0]
    2611                      .dwattr $C$DW$127, DW_AT_accessibility(DW_ACCESS_public)
    2612              
    2613              $C$DW$128       .dwtag  DW_TAG_member
    2614                      .dwattr $C$DW$128, DW_AT_type(*$C$DW$T$19)
    2615                      .dwattr $C$DW$128, DW_AT_name("rsvd7")
    2616                      .dwattr $C$DW$128, DW_AT_TI_symbol_name("_rsvd7")
    2617                      .dwattr $C$DW$128, DW_AT_bit_offset(0x01)
    2618                      .dwattr $C$DW$128, DW_AT_bit_size(0x01)
    2619                      .dwattr $C$DW$128, DW_AT_data_member_location[DW_OP_plus_uconst 0x0]
    2620                      .dwattr $C$DW$128, DW_AT_accessibility(DW_ACCESS_public)
    2621              
    2622              $C$DW$129       .dwtag  DW_TAG_member
    2623                      .dwattr $C$DW$129, DW_AT_type(*$C$DW$T$19)
    2624                      .dwattr $C$DW$129, DW_AT_name("LOSPCP")
    2625                      .dwattr $C$DW$129, DW_AT_TI_symbol_name("_LOSPCP")
    2626                      .dwattr $C$DW$129, DW_AT_bit_offset(0x00)
    2627                      .dwattr $C$DW$129, DW_AT_bit_size(0x01)
    2628                      .dwattr $C$DW$129, DW_AT_data_member_location[DW_OP_plus_uconst 0x0]
    2629                      .dwattr $C$DW$129, DW_AT_accessibility(DW_ACCESS_public)
    2630              
    2631              $C$DW$130       .dwtag  DW_TAG_member
    2632                      .dwattr $C$DW$130, DW_AT_type(*$C$DW$T$19)
    2633                      .dwattr $C$DW$130, DW_AT_name("XTALCR")
    2634                      .dwattr $C$DW$130, DW_AT_TI_symbol_name("_XTALCR")
    2635                      .dwattr $C$DW$130, DW_AT_bit_offset(0x0f)
    2636                      .dwattr $C$DW$130, DW_AT_bit_size(0x01)
    2637                      .dwattr $C$DW$130, DW_AT_data_member_location[DW_OP_plus_uconst 0x1]
    2638                      .dwattr $C$DW$130, DW_AT_accessibility(DW_ACCESS_public)
    2639              
    2640              $C$DW$131       .dwtag  DW_TAG_member
    2641                      .dwattr $C$DW$131, DW_AT_type(*$C$DW$T$19)
    2642                      .dwattr $C$DW$131, DW_AT_name("rsvd8")
    2643                      .dwattr $C$DW$131, DW_AT_TI_symbol_name("_rsvd8")
    2644                      .dwattr $C$DW$131, DW_AT_bit_offset(0x00)
    2645                      .dwattr $C$DW$131, DW_AT_bit_size(0x0f)
    2646                      .dwattr $C$DW$131, DW_AT_data_member_location[DW_OP_plus_uconst 0x1]
    2647                      .dwattr $C$DW$131, DW_AT_accessibility(DW_ACCESS_public)
    2648              
TMS320C2000 Assembler PC v22.6.1 Wed May 21 09:51:55 2025

Copyright (c) 1996-2018 Texas Instruments Incorporated
C:\Users\Daniel\AppData\Local\Temp\{78ED34F4-3C3B-4D89-8F5D-B64BD43A86E6} PAGE   53

    2649                      .dwendtag $C$DW$T$23
    2650              
    2651              
    2652              $C$DW$T$24      .dwtag  DW_TAG_union_type
    2653                      .dwattr $C$DW$T$24, DW_AT_name("CLKCFGLOCK1_REG")
    2654                      .dwattr $C$DW$T$24, DW_AT_byte_size(0x02)
    2655              $C$DW$132       .dwtag  DW_TAG_member
    2656                      .dwattr $C$DW$132, DW_AT_type(*$C$DW$T$21)
    2657                      .dwattr $C$DW$132, DW_AT_name("all")
    2658                      .dwattr $C$DW$132, DW_AT_TI_symbol_name("_all")
    2659                      .dwattr $C$DW$132, DW_AT_data_member_location[DW_OP_plus_uconst 0x0]
    2660                      .dwattr $C$DW$132, DW_AT_accessibility(DW_ACCESS_public)
    2661              
    2662              $C$DW$133       .dwtag  DW_TAG_member
    2663                      .dwattr $C$DW$133, DW_AT_type(*$C$DW$T$23)
    2664                      .dwattr $C$DW$133, DW_AT_name("bit")
    2665                      .dwattr $C$DW$133, DW_AT_TI_symbol_name("_bit")
    2666                      .dwattr $C$DW$133, DW_AT_data_member_location[DW_OP_plus_uconst 0x0]
    2667                      .dwattr $C$DW$133, DW_AT_accessibility(DW_ACCESS_public)
    2668              
    2669                      .dwendtag $C$DW$T$24
    2670              
    2671              
    2672              $C$DW$T$25      .dwtag  DW_TAG_structure_type
    2673                      .dwattr $C$DW$T$25, DW_AT_name("CLKFAILCFG_BITS")
    2674                      .dwattr $C$DW$T$25, DW_AT_byte_size(0x02)
    2675              $C$DW$134       .dwtag  DW_TAG_member
    2676                      .dwattr $C$DW$134, DW_AT_type(*$C$DW$T$19)
    2677                      .dwattr $C$DW$134, DW_AT_name("DCC0_ERROR_EN")
    2678                      .dwattr $C$DW$134, DW_AT_TI_symbol_name("_DCC0_ERROR_EN")
    2679                      .dwattr $C$DW$134, DW_AT_bit_offset(0x0f)
    2680                      .dwattr $C$DW$134, DW_AT_bit_size(0x01)
    2681                      .dwattr $C$DW$134, DW_AT_data_member_location[DW_OP_plus_uconst 0x0]
    2682                      .dwattr $C$DW$134, DW_AT_accessibility(DW_ACCESS_public)
    2683              
    2684              $C$DW$135       .dwtag  DW_TAG_member
    2685                      .dwattr $C$DW$135, DW_AT_type(*$C$DW$T$19)
    2686                      .dwattr $C$DW$135, DW_AT_name("DCC1_ERROR_EN")
    2687                      .dwattr $C$DW$135, DW_AT_TI_symbol_name("_DCC1_ERROR_EN")
    2688                      .dwattr $C$DW$135, DW_AT_bit_offset(0x0e)
    2689                      .dwattr $C$DW$135, DW_AT_bit_size(0x01)
    2690                      .dwattr $C$DW$135, DW_AT_data_member_location[DW_OP_plus_uconst 0x0]
    2691                      .dwattr $C$DW$135, DW_AT_accessibility(DW_ACCESS_public)
    2692              
    2693              $C$DW$136       .dwtag  DW_TAG_member
    2694                      .dwattr $C$DW$136, DW_AT_type(*$C$DW$T$19)
    2695                      .dwattr $C$DW$136, DW_AT_name("rsvd1")
    2696                      .dwattr $C$DW$136, DW_AT_TI_symbol_name("_rsvd1")
    2697                      .dwattr $C$DW$136, DW_AT_bit_offset(0x00)
    2698                      .dwattr $C$DW$136, DW_AT_bit_size(0x0e)
    2699                      .dwattr $C$DW$136, DW_AT_data_member_location[DW_OP_plus_uconst 0x0]
    2700                      .dwattr $C$DW$136, DW_AT_accessibility(DW_ACCESS_public)
    2701              
    2702              $C$DW$137       .dwtag  DW_TAG_member
    2703                      .dwattr $C$DW$137, DW_AT_type(*$C$DW$T$19)
TMS320C2000 Assembler PC v22.6.1 Wed May 21 09:51:55 2025

Copyright (c) 1996-2018 Texas Instruments Incorporated
C:\Users\Daniel\AppData\Local\Temp\{78ED34F4-3C3B-4D89-8F5D-B64BD43A86E6} PAGE   54

    2704                      .dwattr $C$DW$137, DW_AT_name("rsvd2")
    2705                      .dwattr $C$DW$137, DW_AT_TI_symbol_name("_rsvd2")
    2706                      .dwattr $C$DW$137, DW_AT_bit_offset(0x00)
    2707                      .dwattr $C$DW$137, DW_AT_bit_size(0x10)
    2708                      .dwattr $C$DW$137, DW_AT_data_member_location[DW_OP_plus_uconst 0x1]
    2709                      .dwattr $C$DW$137, DW_AT_accessibility(DW_ACCESS_public)
    2710              
    2711                      .dwendtag $C$DW$T$25
    2712              
    2713              
    2714              $C$DW$T$26      .dwtag  DW_TAG_union_type
    2715                      .dwattr $C$DW$T$26, DW_AT_name("CLKFAILCFG_REG")
    2716                      .dwattr $C$DW$T$26, DW_AT_byte_size(0x02)
    2717              $C$DW$138       .dwtag  DW_TAG_member
    2718                      .dwattr $C$DW$138, DW_AT_type(*$C$DW$T$21)
    2719                      .dwattr $C$DW$138, DW_AT_name("all")
    2720                      .dwattr $C$DW$138, DW_AT_TI_symbol_name("_all")
    2721                      .dwattr $C$DW$138, DW_AT_data_member_location[DW_OP_plus_uconst 0x0]
    2722                      .dwattr $C$DW$138, DW_AT_accessibility(DW_ACCESS_public)
    2723              
    2724              $C$DW$139       .dwtag  DW_TAG_member
    2725                      .dwattr $C$DW$139, DW_AT_type(*$C$DW$T$25)
    2726                      .dwattr $C$DW$139, DW_AT_name("bit")
    2727                      .dwattr $C$DW$139, DW_AT_TI_symbol_name("_bit")
    2728                      .dwattr $C$DW$139, DW_AT_data_member_location[DW_OP_plus_uconst 0x0]
    2729                      .dwattr $C$DW$139, DW_AT_accessibility(DW_ACCESS_public)
    2730              
    2731                      .dwendtag $C$DW$T$26
    2732              
    2733              
    2734              $C$DW$T$27      .dwtag  DW_TAG_structure_type
    2735                      .dwattr $C$DW$T$27, DW_AT_name("CLKSRCCTL1_BITS")
    2736                      .dwattr $C$DW$T$27, DW_AT_byte_size(0x02)
    2737              $C$DW$140       .dwtag  DW_TAG_member
    2738                      .dwattr $C$DW$140, DW_AT_type(*$C$DW$T$19)
    2739                      .dwattr $C$DW$140, DW_AT_name("OSCCLKSRCSEL")
    2740                      .dwattr $C$DW$140, DW_AT_TI_symbol_name("_OSCCLKSRCSEL")
    2741                      .dwattr $C$DW$140, DW_AT_bit_offset(0x0e)
    2742                      .dwattr $C$DW$140, DW_AT_bit_size(0x02)
    2743                      .dwattr $C$DW$140, DW_AT_data_member_location[DW_OP_plus_uconst 0x0]
    2744                      .dwattr $C$DW$140, DW_AT_accessibility(DW_ACCESS_public)
    2745              
    2746              $C$DW$141       .dwtag  DW_TAG_member
    2747                      .dwattr $C$DW$141, DW_AT_type(*$C$DW$T$19)
    2748                      .dwattr $C$DW$141, DW_AT_name("rsvd1")
    2749                      .dwattr $C$DW$141, DW_AT_TI_symbol_name("_rsvd1")
    2750                      .dwattr $C$DW$141, DW_AT_bit_offset(0x0d)
    2751                      .dwattr $C$DW$141, DW_AT_bit_size(0x01)
    2752                      .dwattr $C$DW$141, DW_AT_data_member_location[DW_OP_plus_uconst 0x0]
    2753                      .dwattr $C$DW$141, DW_AT_accessibility(DW_ACCESS_public)
    2754              
    2755              $C$DW$142       .dwtag  DW_TAG_member
    2756                      .dwattr $C$DW$142, DW_AT_type(*$C$DW$T$19)
    2757                      .dwattr $C$DW$142, DW_AT_name("INTOSC2OFF")
    2758                      .dwattr $C$DW$142, DW_AT_TI_symbol_name("_INTOSC2OFF")
TMS320C2000 Assembler PC v22.6.1 Wed May 21 09:51:55 2025

Copyright (c) 1996-2018 Texas Instruments Incorporated
C:\Users\Daniel\AppData\Local\Temp\{78ED34F4-3C3B-4D89-8F5D-B64BD43A86E6} PAGE   55

    2759                      .dwattr $C$DW$142, DW_AT_bit_offset(0x0c)
    2760                      .dwattr $C$DW$142, DW_AT_bit_size(0x01)
    2761                      .dwattr $C$DW$142, DW_AT_data_member_location[DW_OP_plus_uconst 0x0]
    2762                      .dwattr $C$DW$142, DW_AT_accessibility(DW_ACCESS_public)
    2763              
    2764              $C$DW$143       .dwtag  DW_TAG_member
    2765                      .dwattr $C$DW$143, DW_AT_type(*$C$DW$T$19)
    2766                      .dwattr $C$DW$143, DW_AT_name("rsvd2")
    2767                      .dwattr $C$DW$143, DW_AT_TI_symbol_name("_rsvd2")
    2768                      .dwattr $C$DW$143, DW_AT_bit_offset(0x0b)
    2769                      .dwattr $C$DW$143, DW_AT_bit_size(0x01)
    2770                      .dwattr $C$DW$143, DW_AT_data_member_location[DW_OP_plus_uconst 0x0]
    2771                      .dwattr $C$DW$143, DW_AT_accessibility(DW_ACCESS_public)
    2772              
    2773              $C$DW$144       .dwtag  DW_TAG_member
    2774                      .dwattr $C$DW$144, DW_AT_type(*$C$DW$T$19)
    2775                      .dwattr $C$DW$144, DW_AT_name("WDHALTI")
    2776                      .dwattr $C$DW$144, DW_AT_TI_symbol_name("_WDHALTI")
    2777                      .dwattr $C$DW$144, DW_AT_bit_offset(0x0a)
    2778                      .dwattr $C$DW$144, DW_AT_bit_size(0x01)
    2779                      .dwattr $C$DW$144, DW_AT_data_member_location[DW_OP_plus_uconst 0x0]
    2780                      .dwattr $C$DW$144, DW_AT_accessibility(DW_ACCESS_public)
    2781              
    2782              $C$DW$145       .dwtag  DW_TAG_member
    2783                      .dwattr $C$DW$145, DW_AT_type(*$C$DW$T$19)
    2784                      .dwattr $C$DW$145, DW_AT_name("rsvd3")
    2785                      .dwattr $C$DW$145, DW_AT_TI_symbol_name("_rsvd3")
    2786                      .dwattr $C$DW$145, DW_AT_bit_offset(0x00)
    2787                      .dwattr $C$DW$145, DW_AT_bit_size(0x0a)
    2788                      .dwattr $C$DW$145, DW_AT_data_member_location[DW_OP_plus_uconst 0x0]
    2789                      .dwattr $C$DW$145, DW_AT_accessibility(DW_ACCESS_public)
    2790              
    2791              $C$DW$146       .dwtag  DW_TAG_member
    2792                      .dwattr $C$DW$146, DW_AT_type(*$C$DW$T$19)
    2793                      .dwattr $C$DW$146, DW_AT_name("rsvd4")
    2794                      .dwattr $C$DW$146, DW_AT_TI_symbol_name("_rsvd4")
    2795                      .dwattr $C$DW$146, DW_AT_bit_offset(0x00)
    2796                      .dwattr $C$DW$146, DW_AT_bit_size(0x10)
    2797                      .dwattr $C$DW$146, DW_AT_data_member_location[DW_OP_plus_uconst 0x1]
    2798                      .dwattr $C$DW$146, DW_AT_accessibility(DW_ACCESS_public)
    2799              
    2800                      .dwendtag $C$DW$T$27
    2801              
    2802              
    2803              $C$DW$T$28      .dwtag  DW_TAG_union_type
    2804                      .dwattr $C$DW$T$28, DW_AT_name("CLKSRCCTL1_REG")
    2805                      .dwattr $C$DW$T$28, DW_AT_byte_size(0x02)
    2806              $C$DW$147       .dwtag  DW_TAG_member
    2807                      .dwattr $C$DW$147, DW_AT_type(*$C$DW$T$21)
    2808                      .dwattr $C$DW$147, DW_AT_name("all")
    2809                      .dwattr $C$DW$147, DW_AT_TI_symbol_name("_all")
    2810                      .dwattr $C$DW$147, DW_AT_data_member_location[DW_OP_plus_uconst 0x0]
    2811                      .dwattr $C$DW$147, DW_AT_accessibility(DW_ACCESS_public)
    2812              
    2813              $C$DW$148       .dwtag  DW_TAG_member
TMS320C2000 Assembler PC v22.6.1 Wed May 21 09:51:55 2025

Copyright (c) 1996-2018 Texas Instruments Incorporated
C:\Users\Daniel\AppData\Local\Temp\{78ED34F4-3C3B-4D89-8F5D-B64BD43A86E6} PAGE   56

    2814                      .dwattr $C$DW$148, DW_AT_type(*$C$DW$T$27)
    2815                      .dwattr $C$DW$148, DW_AT_name("bit")
    2816                      .dwattr $C$DW$148, DW_AT_TI_symbol_name("_bit")
    2817                      .dwattr $C$DW$148, DW_AT_data_member_location[DW_OP_plus_uconst 0x0]
    2818                      .dwattr $C$DW$148, DW_AT_accessibility(DW_ACCESS_public)
    2819              
    2820                      .dwendtag $C$DW$T$28
    2821              
    2822              
    2823              $C$DW$T$29      .dwtag  DW_TAG_structure_type
    2824                      .dwattr $C$DW$T$29, DW_AT_name("CLKSRCCTL2_BITS")
    2825                      .dwattr $C$DW$T$29, DW_AT_byte_size(0x02)
    2826              $C$DW$149       .dwtag  DW_TAG_member
    2827                      .dwattr $C$DW$149, DW_AT_type(*$C$DW$T$19)
    2828                      .dwattr $C$DW$149, DW_AT_name("rsvd1")
    2829                      .dwattr $C$DW$149, DW_AT_TI_symbol_name("_rsvd1")
    2830                      .dwattr $C$DW$149, DW_AT_bit_offset(0x0e)
    2831                      .dwattr $C$DW$149, DW_AT_bit_size(0x02)
    2832                      .dwattr $C$DW$149, DW_AT_data_member_location[DW_OP_plus_uconst 0x0]
    2833                      .dwattr $C$DW$149, DW_AT_accessibility(DW_ACCESS_public)
    2834              
    2835              $C$DW$150       .dwtag  DW_TAG_member
    2836                      .dwattr $C$DW$150, DW_AT_type(*$C$DW$T$19)
    2837                      .dwattr $C$DW$150, DW_AT_name("CANABCLKSEL")
    2838                      .dwattr $C$DW$150, DW_AT_TI_symbol_name("_CANABCLKSEL")
    2839                      .dwattr $C$DW$150, DW_AT_bit_offset(0x0c)
    2840                      .dwattr $C$DW$150, DW_AT_bit_size(0x02)
    2841                      .dwattr $C$DW$150, DW_AT_data_member_location[DW_OP_plus_uconst 0x0]
    2842                      .dwattr $C$DW$150, DW_AT_accessibility(DW_ACCESS_public)
    2843              
    2844              $C$DW$151       .dwtag  DW_TAG_member
    2845                      .dwattr $C$DW$151, DW_AT_type(*$C$DW$T$19)
    2846                      .dwattr $C$DW$151, DW_AT_name("rsvd2")
    2847                      .dwattr $C$DW$151, DW_AT_TI_symbol_name("_rsvd2")
    2848                      .dwattr $C$DW$151, DW_AT_bit_offset(0x0a)
    2849                      .dwattr $C$DW$151, DW_AT_bit_size(0x02)
    2850                      .dwattr $C$DW$151, DW_AT_data_member_location[DW_OP_plus_uconst 0x0]
    2851                      .dwattr $C$DW$151, DW_AT_accessibility(DW_ACCESS_public)
    2852              
    2853              $C$DW$152       .dwtag  DW_TAG_member
    2854                      .dwattr $C$DW$152, DW_AT_type(*$C$DW$T$19)
    2855                      .dwattr $C$DW$152, DW_AT_name("rsvd3")
    2856                      .dwattr $C$DW$152, DW_AT_TI_symbol_name("_rsvd3")
    2857                      .dwattr $C$DW$152, DW_AT_bit_offset(0x08)
    2858                      .dwattr $C$DW$152, DW_AT_bit_size(0x02)
    2859                      .dwattr $C$DW$152, DW_AT_data_member_location[DW_OP_plus_uconst 0x0]
    2860                      .dwattr $C$DW$152, DW_AT_accessibility(DW_ACCESS_public)
    2861              
    2862              $C$DW$153       .dwtag  DW_TAG_member
    2863                      .dwattr $C$DW$153, DW_AT_type(*$C$DW$T$19)
    2864                      .dwattr $C$DW$153, DW_AT_name("rsvd4")
    2865                      .dwattr $C$DW$153, DW_AT_TI_symbol_name("_rsvd4")
    2866                      .dwattr $C$DW$153, DW_AT_bit_offset(0x06)
    2867                      .dwattr $C$DW$153, DW_AT_bit_size(0x02)
    2868                      .dwattr $C$DW$153, DW_AT_data_member_location[DW_OP_plus_uconst 0x0]
TMS320C2000 Assembler PC v22.6.1 Wed May 21 09:51:55 2025

Copyright (c) 1996-2018 Texas Instruments Incorporated
C:\Users\Daniel\AppData\Local\Temp\{78ED34F4-3C3B-4D89-8F5D-B64BD43A86E6} PAGE   57

    2869                      .dwattr $C$DW$153, DW_AT_accessibility(DW_ACCESS_public)
    2870              
    2871              $C$DW$154       .dwtag  DW_TAG_member
    2872                      .dwattr $C$DW$154, DW_AT_type(*$C$DW$T$19)
    2873                      .dwattr $C$DW$154, DW_AT_name("MCANABCLKSEL")
    2874                      .dwattr $C$DW$154, DW_AT_TI_symbol_name("_MCANABCLKSEL")
    2875                      .dwattr $C$DW$154, DW_AT_bit_offset(0x04)
    2876                      .dwattr $C$DW$154, DW_AT_bit_size(0x02)
    2877                      .dwattr $C$DW$154, DW_AT_data_member_location[DW_OP_plus_uconst 0x0]
    2878                      .dwattr $C$DW$154, DW_AT_accessibility(DW_ACCESS_public)
    2879              
    2880              $C$DW$155       .dwtag  DW_TAG_member
    2881                      .dwattr $C$DW$155, DW_AT_type(*$C$DW$T$19)
    2882                      .dwattr $C$DW$155, DW_AT_name("rsvd5")
    2883                      .dwattr $C$DW$155, DW_AT_TI_symbol_name("_rsvd5")
    2884                      .dwattr $C$DW$155, DW_AT_bit_offset(0x02)
    2885                      .dwattr $C$DW$155, DW_AT_bit_size(0x02)
    2886                      .dwattr $C$DW$155, DW_AT_data_member_location[DW_OP_plus_uconst 0x0]
    2887                      .dwattr $C$DW$155, DW_AT_accessibility(DW_ACCESS_public)
    2888              
    2889              $C$DW$156       .dwtag  DW_TAG_member
    2890                      .dwattr $C$DW$156, DW_AT_type(*$C$DW$T$19)
    2891                      .dwattr $C$DW$156, DW_AT_name("rsvd6")
    2892                      .dwattr $C$DW$156, DW_AT_TI_symbol_name("_rsvd6")
    2893                      .dwattr $C$DW$156, DW_AT_bit_offset(0x00)
    2894                      .dwattr $C$DW$156, DW_AT_bit_size(0x02)
    2895                      .dwattr $C$DW$156, DW_AT_data_member_location[DW_OP_plus_uconst 0x0]
    2896                      .dwattr $C$DW$156, DW_AT_accessibility(DW_ACCESS_public)
    2897              
    2898              $C$DW$157       .dwtag  DW_TAG_member
    2899                      .dwattr $C$DW$157, DW_AT_type(*$C$DW$T$19)
    2900                      .dwattr $C$DW$157, DW_AT_name("rsvd7")
    2901                      .dwattr $C$DW$157, DW_AT_TI_symbol_name("_rsvd7")
    2902                      .dwattr $C$DW$157, DW_AT_bit_offset(0x0e)
    2903                      .dwattr $C$DW$157, DW_AT_bit_size(0x02)
    2904                      .dwattr $C$DW$157, DW_AT_data_member_location[DW_OP_plus_uconst 0x1]
    2905                      .dwattr $C$DW$157, DW_AT_accessibility(DW_ACCESS_public)
    2906              
    2907              $C$DW$158       .dwtag  DW_TAG_member
    2908                      .dwattr $C$DW$158, DW_AT_type(*$C$DW$T$19)
    2909                      .dwattr $C$DW$158, DW_AT_name("rsvd8")
    2910                      .dwattr $C$DW$158, DW_AT_TI_symbol_name("_rsvd8")
    2911                      .dwattr $C$DW$158, DW_AT_bit_offset(0x00)
    2912                      .dwattr $C$DW$158, DW_AT_bit_size(0x0e)
    2913                      .dwattr $C$DW$158, DW_AT_data_member_location[DW_OP_plus_uconst 0x1]
    2914                      .dwattr $C$DW$158, DW_AT_accessibility(DW_ACCESS_public)
    2915              
    2916                      .dwendtag $C$DW$T$29
    2917              
    2918              
    2919              $C$DW$T$30      .dwtag  DW_TAG_union_type
    2920                      .dwattr $C$DW$T$30, DW_AT_name("CLKSRCCTL2_REG")
    2921                      .dwattr $C$DW$T$30, DW_AT_byte_size(0x02)
    2922              $C$DW$159       .dwtag  DW_TAG_member
    2923                      .dwattr $C$DW$159, DW_AT_type(*$C$DW$T$21)
TMS320C2000 Assembler PC v22.6.1 Wed May 21 09:51:55 2025

Copyright (c) 1996-2018 Texas Instruments Incorporated
C:\Users\Daniel\AppData\Local\Temp\{78ED34F4-3C3B-4D89-8F5D-B64BD43A86E6} PAGE   58

    2924                      .dwattr $C$DW$159, DW_AT_name("all")
    2925                      .dwattr $C$DW$159, DW_AT_TI_symbol_name("_all")
    2926                      .dwattr $C$DW$159, DW_AT_data_member_location[DW_OP_plus_uconst 0x0]
    2927                      .dwattr $C$DW$159, DW_AT_accessibility(DW_ACCESS_public)
    2928              
    2929              $C$DW$160       .dwtag  DW_TAG_member
    2930                      .dwattr $C$DW$160, DW_AT_type(*$C$DW$T$29)
    2931                      .dwattr $C$DW$160, DW_AT_name("bit")
    2932                      .dwattr $C$DW$160, DW_AT_TI_symbol_name("_bit")
    2933                      .dwattr $C$DW$160, DW_AT_data_member_location[DW_OP_plus_uconst 0x0]
    2934                      .dwattr $C$DW$160, DW_AT_accessibility(DW_ACCESS_public)
    2935              
    2936                      .dwendtag $C$DW$T$30
    2937              
    2938              
    2939              $C$DW$T$31      .dwtag  DW_TAG_structure_type
    2940                      .dwattr $C$DW$T$31, DW_AT_name("CLKSRCCTL3_BITS")
    2941                      .dwattr $C$DW$T$31, DW_AT_byte_size(0x02)
    2942              $C$DW$161       .dwtag  DW_TAG_member
    2943                      .dwattr $C$DW$161, DW_AT_type(*$C$DW$T$19)
    2944                      .dwattr $C$DW$161, DW_AT_name("XCLKOUTSEL")
    2945                      .dwattr $C$DW$161, DW_AT_TI_symbol_name("_XCLKOUTSEL")
    2946                      .dwattr $C$DW$161, DW_AT_bit_offset(0x0c)
    2947                      .dwattr $C$DW$161, DW_AT_bit_size(0x04)
    2948                      .dwattr $C$DW$161, DW_AT_data_member_location[DW_OP_plus_uconst 0x0]
    2949                      .dwattr $C$DW$161, DW_AT_accessibility(DW_ACCESS_public)
    2950              
    2951              $C$DW$162       .dwtag  DW_TAG_member
    2952                      .dwattr $C$DW$162, DW_AT_type(*$C$DW$T$19)
    2953                      .dwattr $C$DW$162, DW_AT_name("rsvd1")
    2954                      .dwattr $C$DW$162, DW_AT_TI_symbol_name("_rsvd1")
    2955                      .dwattr $C$DW$162, DW_AT_bit_offset(0x00)
    2956                      .dwattr $C$DW$162, DW_AT_bit_size(0x0c)
    2957                      .dwattr $C$DW$162, DW_AT_data_member_location[DW_OP_plus_uconst 0x0]
    2958                      .dwattr $C$DW$162, DW_AT_accessibility(DW_ACCESS_public)
    2959              
    2960              $C$DW$163       .dwtag  DW_TAG_member
    2961                      .dwattr $C$DW$163, DW_AT_type(*$C$DW$T$19)
    2962                      .dwattr $C$DW$163, DW_AT_name("rsvd2")
    2963                      .dwattr $C$DW$163, DW_AT_TI_symbol_name("_rsvd2")
    2964                      .dwattr $C$DW$163, DW_AT_bit_offset(0x00)
    2965                      .dwattr $C$DW$163, DW_AT_bit_size(0x10)
    2966                      .dwattr $C$DW$163, DW_AT_data_member_location[DW_OP_plus_uconst 0x1]
    2967                      .dwattr $C$DW$163, DW_AT_accessibility(DW_ACCESS_public)
    2968              
    2969                      .dwendtag $C$DW$T$31
    2970              
    2971              
    2972              $C$DW$T$32      .dwtag  DW_TAG_union_type
    2973                      .dwattr $C$DW$T$32, DW_AT_name("CLKSRCCTL3_REG")
    2974                      .dwattr $C$DW$T$32, DW_AT_byte_size(0x02)
    2975              $C$DW$164       .dwtag  DW_TAG_member
    2976                      .dwattr $C$DW$164, DW_AT_type(*$C$DW$T$21)
    2977                      .dwattr $C$DW$164, DW_AT_name("all")
    2978                      .dwattr $C$DW$164, DW_AT_TI_symbol_name("_all")
TMS320C2000 Assembler PC v22.6.1 Wed May 21 09:51:55 2025

Copyright (c) 1996-2018 Texas Instruments Incorporated
C:\Users\Daniel\AppData\Local\Temp\{78ED34F4-3C3B-4D89-8F5D-B64BD43A86E6} PAGE   59

    2979                      .dwattr $C$DW$164, DW_AT_data_member_location[DW_OP_plus_uconst 0x0]
    2980                      .dwattr $C$DW$164, DW_AT_accessibility(DW_ACCESS_public)
    2981              
    2982              $C$DW$165       .dwtag  DW_TAG_member
    2983                      .dwattr $C$DW$165, DW_AT_type(*$C$DW$T$31)
    2984                      .dwattr $C$DW$165, DW_AT_name("bit")
    2985                      .dwattr $C$DW$165, DW_AT_TI_symbol_name("_bit")
    2986                      .dwattr $C$DW$165, DW_AT_data_member_location[DW_OP_plus_uconst 0x0]
    2987                      .dwattr $C$DW$165, DW_AT_accessibility(DW_ACCESS_public)
    2988              
    2989                      .dwendtag $C$DW$T$32
    2990              
    2991              
    2992              $C$DW$T$33      .dwtag  DW_TAG_structure_type
    2993                      .dwattr $C$DW$T$33, DW_AT_name("CLKSTOPACK_BITS")
    2994                      .dwattr $C$DW$T$33, DW_AT_byte_size(0x02)
    2995              $C$DW$166       .dwtag  DW_TAG_member
    2996                      .dwattr $C$DW$166, DW_AT_type(*$C$DW$T$19)
    2997                      .dwattr $C$DW$166, DW_AT_name("rsvd1")
    2998                      .dwattr $C$DW$166, DW_AT_TI_symbol_name("_rsvd1")
    2999                      .dwattr $C$DW$166, DW_AT_bit_offset(0x0f)
    3000                      .dwattr $C$DW$166, DW_AT_bit_size(0x01)
    3001                      .dwattr $C$DW$166, DW_AT_data_member_location[DW_OP_plus_uconst 0x0]
    3002                      .dwattr $C$DW$166, DW_AT_accessibility(DW_ACCESS_public)
    3003              
    3004              $C$DW$167       .dwtag  DW_TAG_member
    3005                      .dwattr $C$DW$167, DW_AT_type(*$C$DW$T$19)
    3006                      .dwattr $C$DW$167, DW_AT_name("rsvd2")
    3007                      .dwattr $C$DW$167, DW_AT_TI_symbol_name("_rsvd2")
    3008                      .dwattr $C$DW$167, DW_AT_bit_offset(0x0e)
    3009                      .dwattr $C$DW$167, DW_AT_bit_size(0x01)
    3010                      .dwattr $C$DW$167, DW_AT_data_member_location[DW_OP_plus_uconst 0x0]
    3011                      .dwattr $C$DW$167, DW_AT_accessibility(DW_ACCESS_public)
    3012              
    3013              $C$DW$168       .dwtag  DW_TAG_member
    3014                      .dwattr $C$DW$168, DW_AT_type(*$C$DW$T$19)
    3015                      .dwattr $C$DW$168, DW_AT_name("rsvd3")
    3016                      .dwattr $C$DW$168, DW_AT_TI_symbol_name("_rsvd3")
    3017                      .dwattr $C$DW$168, DW_AT_bit_offset(0x0d)
    3018                      .dwattr $C$DW$168, DW_AT_bit_size(0x01)
    3019                      .dwattr $C$DW$168, DW_AT_data_member_location[DW_OP_plus_uconst 0x0]
    3020                      .dwattr $C$DW$168, DW_AT_accessibility(DW_ACCESS_public)
    3021              
    3022              $C$DW$169       .dwtag  DW_TAG_member
    3023                      .dwattr $C$DW$169, DW_AT_type(*$C$DW$T$19)
    3024                      .dwattr $C$DW$169, DW_AT_name("rsvd4")
    3025                      .dwattr $C$DW$169, DW_AT_TI_symbol_name("_rsvd4")
    3026                      .dwattr $C$DW$169, DW_AT_bit_offset(0x0c)
    3027                      .dwattr $C$DW$169, DW_AT_bit_size(0x01)
    3028                      .dwattr $C$DW$169, DW_AT_data_member_location[DW_OP_plus_uconst 0x0]
    3029                      .dwattr $C$DW$169, DW_AT_accessibility(DW_ACCESS_public)
    3030              
    3031              $C$DW$170       .dwtag  DW_TAG_member
    3032                      .dwattr $C$DW$170, DW_AT_type(*$C$DW$T$19)
    3033                      .dwattr $C$DW$170, DW_AT_name("rsvd5")
TMS320C2000 Assembler PC v22.6.1 Wed May 21 09:51:55 2025

Copyright (c) 1996-2018 Texas Instruments Incorporated
C:\Users\Daniel\AppData\Local\Temp\{78ED34F4-3C3B-4D89-8F5D-B64BD43A86E6} PAGE   60

    3034                      .dwattr $C$DW$170, DW_AT_TI_symbol_name("_rsvd5")
    3035                      .dwattr $C$DW$170, DW_AT_bit_offset(0x0b)
    3036                      .dwattr $C$DW$170, DW_AT_bit_size(0x01)
    3037                      .dwattr $C$DW$170, DW_AT_data_member_location[DW_OP_plus_uconst 0x0]
    3038                      .dwattr $C$DW$170, DW_AT_accessibility(DW_ACCESS_public)
    3039              
    3040              $C$DW$171       .dwtag  DW_TAG_member
    3041                      .dwattr $C$DW$171, DW_AT_type(*$C$DW$T$19)
    3042                      .dwattr $C$DW$171, DW_AT_name("rsvd6")
    3043                      .dwattr $C$DW$171, DW_AT_TI_symbol_name("_rsvd6")
    3044                      .dwattr $C$DW$171, DW_AT_bit_offset(0x0a)
    3045                      .dwattr $C$DW$171, DW_AT_bit_size(0x01)
    3046                      .dwattr $C$DW$171, DW_AT_data_member_location[DW_OP_plus_uconst 0x0]
    3047                      .dwattr $C$DW$171, DW_AT_accessibility(DW_ACCESS_public)
    3048              
    3049              $C$DW$172       .dwtag  DW_TAG_member
    3050                      .dwattr $C$DW$172, DW_AT_type(*$C$DW$T$19)
    3051                      .dwattr $C$DW$172, DW_AT_name("rsvd7")
    3052                      .dwattr $C$DW$172, DW_AT_TI_symbol_name("_rsvd7")
    3053                      .dwattr $C$DW$172, DW_AT_bit_offset(0x08)
    3054                      .dwattr $C$DW$172, DW_AT_bit_size(0x02)
    3055                      .dwattr $C$DW$172, DW_AT_data_member_location[DW_OP_plus_uconst 0x0]
    3056                      .dwattr $C$DW$172, DW_AT_accessibility(DW_ACCESS_public)
    3057              
    3058              $C$DW$173       .dwtag  DW_TAG_member
    3059                      .dwattr $C$DW$173, DW_AT_type(*$C$DW$T$19)
    3060                      .dwattr $C$DW$173, DW_AT_name("MCAN_A")
    3061                      .dwattr $C$DW$173, DW_AT_TI_symbol_name("_MCAN_A")
    3062                      .dwattr $C$DW$173, DW_AT_bit_offset(0x07)
    3063                      .dwattr $C$DW$173, DW_AT_bit_size(0x01)
    3064                      .dwattr $C$DW$173, DW_AT_data_member_location[DW_OP_plus_uconst 0x0]
    3065                      .dwattr $C$DW$173, DW_AT_accessibility(DW_ACCESS_public)
    3066              
    3067              $C$DW$174       .dwtag  DW_TAG_member
    3068                      .dwattr $C$DW$174, DW_AT_type(*$C$DW$T$19)
    3069                      .dwattr $C$DW$174, DW_AT_name("rsvd8")
    3070                      .dwattr $C$DW$174, DW_AT_TI_symbol_name("_rsvd8")
    3071                      .dwattr $C$DW$174, DW_AT_bit_offset(0x00)
    3072                      .dwattr $C$DW$174, DW_AT_bit_size(0x07)
    3073                      .dwattr $C$DW$174, DW_AT_data_member_location[DW_OP_plus_uconst 0x0]
    3074                      .dwattr $C$DW$174, DW_AT_accessibility(DW_ACCESS_public)
    3075              
    3076              $C$DW$175       .dwtag  DW_TAG_member
    3077                      .dwattr $C$DW$175, DW_AT_type(*$C$DW$T$19)
    3078                      .dwattr $C$DW$175, DW_AT_name("rsvd9")
    3079                      .dwattr $C$DW$175, DW_AT_TI_symbol_name("_rsvd9")
    3080                      .dwattr $C$DW$175, DW_AT_bit_offset(0x00)
    3081                      .dwattr $C$DW$175, DW_AT_bit_size(0x10)
    3082                      .dwattr $C$DW$175, DW_AT_data_member_location[DW_OP_plus_uconst 0x1]
    3083                      .dwattr $C$DW$175, DW_AT_accessibility(DW_ACCESS_public)
    3084              
    3085                      .dwendtag $C$DW$T$33
    3086              
    3087              
    3088              $C$DW$T$34      .dwtag  DW_TAG_union_type
TMS320C2000 Assembler PC v22.6.1 Wed May 21 09:51:55 2025

Copyright (c) 1996-2018 Texas Instruments Incorporated
C:\Users\Daniel\AppData\Local\Temp\{78ED34F4-3C3B-4D89-8F5D-B64BD43A86E6} PAGE   61

    3089                      .dwattr $C$DW$T$34, DW_AT_name("CLKSTOPACK_REG")
    3090                      .dwattr $C$DW$T$34, DW_AT_byte_size(0x02)
    3091              $C$DW$176       .dwtag  DW_TAG_member
    3092                      .dwattr $C$DW$176, DW_AT_type(*$C$DW$T$21)
    3093                      .dwattr $C$DW$176, DW_AT_name("all")
    3094                      .dwattr $C$DW$176, DW_AT_TI_symbol_name("_all")
    3095                      .dwattr $C$DW$176, DW_AT_data_member_location[DW_OP_plus_uconst 0x0]
    3096                      .dwattr $C$DW$176, DW_AT_accessibility(DW_ACCESS_public)
    3097              
    3098              $C$DW$177       .dwtag  DW_TAG_member
    3099                      .dwattr $C$DW$177, DW_AT_type(*$C$DW$T$33)
    3100                      .dwattr $C$DW$177, DW_AT_name("bit")
    3101                      .dwattr $C$DW$177, DW_AT_TI_symbol_name("_bit")
    3102                      .dwattr $C$DW$177, DW_AT_data_member_location[DW_OP_plus_uconst 0x0]
    3103                      .dwattr $C$DW$177, DW_AT_accessibility(DW_ACCESS_public)
    3104              
    3105                      .dwendtag $C$DW$T$34
    3106              
    3107              
    3108              $C$DW$T$35      .dwtag  DW_TAG_structure_type
    3109                      .dwattr $C$DW$T$35, DW_AT_name("CLKSTOPREQ_BITS")
    3110                      .dwattr $C$DW$T$35, DW_AT_byte_size(0x02)
    3111              $C$DW$178       .dwtag  DW_TAG_member
    3112                      .dwattr $C$DW$178, DW_AT_type(*$C$DW$T$19)
    3113                      .dwattr $C$DW$178, DW_AT_name("rsvd1")
    3114                      .dwattr $C$DW$178, DW_AT_TI_symbol_name("_rsvd1")
    3115                      .dwattr $C$DW$178, DW_AT_bit_offset(0x0f)
    3116                      .dwattr $C$DW$178, DW_AT_bit_size(0x01)
    3117                      .dwattr $C$DW$178, DW_AT_data_member_location[DW_OP_plus_uconst 0x0]
    3118                      .dwattr $C$DW$178, DW_AT_accessibility(DW_ACCESS_public)
    3119              
    3120              $C$DW$179       .dwtag  DW_TAG_member
    3121                      .dwattr $C$DW$179, DW_AT_type(*$C$DW$T$19)
    3122                      .dwattr $C$DW$179, DW_AT_name("rsvd2")
    3123                      .dwattr $C$DW$179, DW_AT_TI_symbol_name("_rsvd2")
    3124                      .dwattr $C$DW$179, DW_AT_bit_offset(0x0e)
    3125                      .dwattr $C$DW$179, DW_AT_bit_size(0x01)
    3126                      .dwattr $C$DW$179, DW_AT_data_member_location[DW_OP_plus_uconst 0x0]
    3127                      .dwattr $C$DW$179, DW_AT_accessibility(DW_ACCESS_public)
    3128              
    3129              $C$DW$180       .dwtag  DW_TAG_member
    3130                      .dwattr $C$DW$180, DW_AT_type(*$C$DW$T$19)
    3131                      .dwattr $C$DW$180, DW_AT_name("rsvd3")
    3132                      .dwattr $C$DW$180, DW_AT_TI_symbol_name("_rsvd3")
    3133                      .dwattr $C$DW$180, DW_AT_bit_offset(0x0d)
    3134                      .dwattr $C$DW$180, DW_AT_bit_size(0x01)
    3135                      .dwattr $C$DW$180, DW_AT_data_member_location[DW_OP_plus_uconst 0x0]
    3136                      .dwattr $C$DW$180, DW_AT_accessibility(DW_ACCESS_public)
    3137              
    3138              $C$DW$181       .dwtag  DW_TAG_member
    3139                      .dwattr $C$DW$181, DW_AT_type(*$C$DW$T$19)
    3140                      .dwattr $C$DW$181, DW_AT_name("rsvd4")
    3141                      .dwattr $C$DW$181, DW_AT_TI_symbol_name("_rsvd4")
    3142                      .dwattr $C$DW$181, DW_AT_bit_offset(0x0c)
    3143                      .dwattr $C$DW$181, DW_AT_bit_size(0x01)
TMS320C2000 Assembler PC v22.6.1 Wed May 21 09:51:55 2025

Copyright (c) 1996-2018 Texas Instruments Incorporated
C:\Users\Daniel\AppData\Local\Temp\{78ED34F4-3C3B-4D89-8F5D-B64BD43A86E6} PAGE   62

    3144                      .dwattr $C$DW$181, DW_AT_data_member_location[DW_OP_plus_uconst 0x0]
    3145                      .dwattr $C$DW$181, DW_AT_accessibility(DW_ACCESS_public)
    3146              
    3147              $C$DW$182       .dwtag  DW_TAG_member
    3148                      .dwattr $C$DW$182, DW_AT_type(*$C$DW$T$19)
    3149                      .dwattr $C$DW$182, DW_AT_name("rsvd5")
    3150                      .dwattr $C$DW$182, DW_AT_TI_symbol_name("_rsvd5")
    3151                      .dwattr $C$DW$182, DW_AT_bit_offset(0x0b)
    3152                      .dwattr $C$DW$182, DW_AT_bit_size(0x01)
    3153                      .dwattr $C$DW$182, DW_AT_data_member_location[DW_OP_plus_uconst 0x0]
    3154                      .dwattr $C$DW$182, DW_AT_accessibility(DW_ACCESS_public)
    3155              
    3156              $C$DW$183       .dwtag  DW_TAG_member
    3157                      .dwattr $C$DW$183, DW_AT_type(*$C$DW$T$19)
    3158                      .dwattr $C$DW$183, DW_AT_name("rsvd6")
    3159                      .dwattr $C$DW$183, DW_AT_TI_symbol_name("_rsvd6")
    3160                      .dwattr $C$DW$183, DW_AT_bit_offset(0x0a)
    3161                      .dwattr $C$DW$183, DW_AT_bit_size(0x01)
    3162                      .dwattr $C$DW$183, DW_AT_data_member_location[DW_OP_plus_uconst 0x0]
    3163                      .dwattr $C$DW$183, DW_AT_accessibility(DW_ACCESS_public)
    3164              
    3165              $C$DW$184       .dwtag  DW_TAG_member
    3166                      .dwattr $C$DW$184, DW_AT_type(*$C$DW$T$19)
    3167                      .dwattr $C$DW$184, DW_AT_name("rsvd7")
    3168                      .dwattr $C$DW$184, DW_AT_TI_symbol_name("_rsvd7")
    3169                      .dwattr $C$DW$184, DW_AT_bit_offset(0x08)
    3170                      .dwattr $C$DW$184, DW_AT_bit_size(0x02)
    3171                      .dwattr $C$DW$184, DW_AT_data_member_location[DW_OP_plus_uconst 0x0]
    3172                      .dwattr $C$DW$184, DW_AT_accessibility(DW_ACCESS_public)
    3173              
    3174              $C$DW$185       .dwtag  DW_TAG_member
    3175                      .dwattr $C$DW$185, DW_AT_type(*$C$DW$T$19)
    3176                      .dwattr $C$DW$185, DW_AT_name("MCAN_A")
    3177                      .dwattr $C$DW$185, DW_AT_TI_symbol_name("_MCAN_A")
    3178                      .dwattr $C$DW$185, DW_AT_bit_offset(0x07)
    3179                      .dwattr $C$DW$185, DW_AT_bit_size(0x01)
    3180                      .dwattr $C$DW$185, DW_AT_data_member_location[DW_OP_plus_uconst 0x0]
    3181                      .dwattr $C$DW$185, DW_AT_accessibility(DW_ACCESS_public)
    3182              
    3183              $C$DW$186       .dwtag  DW_TAG_member
    3184                      .dwattr $C$DW$186, DW_AT_type(*$C$DW$T$19)
    3185                      .dwattr $C$DW$186, DW_AT_name("rsvd8")
    3186                      .dwattr $C$DW$186, DW_AT_TI_symbol_name("_rsvd8")
    3187                      .dwattr $C$DW$186, DW_AT_bit_offset(0x04)
    3188                      .dwattr $C$DW$186, DW_AT_bit_size(0x03)
    3189                      .dwattr $C$DW$186, DW_AT_data_member_location[DW_OP_plus_uconst 0x0]
    3190                      .dwattr $C$DW$186, DW_AT_accessibility(DW_ACCESS_public)
    3191              
    3192              $C$DW$187       .dwtag  DW_TAG_member
    3193                      .dwattr $C$DW$187, DW_AT_type(*$C$DW$T$19)
    3194                      .dwattr $C$DW$187, DW_AT_name("rsvd9")
    3195                      .dwattr $C$DW$187, DW_AT_TI_symbol_name("_rsvd9")
    3196                      .dwattr $C$DW$187, DW_AT_bit_offset(0x00)
    3197                      .dwattr $C$DW$187, DW_AT_bit_size(0x04)
    3198                      .dwattr $C$DW$187, DW_AT_data_member_location[DW_OP_plus_uconst 0x0]
TMS320C2000 Assembler PC v22.6.1 Wed May 21 09:51:55 2025

Copyright (c) 1996-2018 Texas Instruments Incorporated
C:\Users\Daniel\AppData\Local\Temp\{78ED34F4-3C3B-4D89-8F5D-B64BD43A86E6} PAGE   63

    3199                      .dwattr $C$DW$187, DW_AT_accessibility(DW_ACCESS_public)
    3200              
    3201              $C$DW$188       .dwtag  DW_TAG_member
    3202                      .dwattr $C$DW$188, DW_AT_type(*$C$DW$T$19)
    3203                      .dwattr $C$DW$188, DW_AT_name("KEY")
    3204                      .dwattr $C$DW$188, DW_AT_TI_symbol_name("_KEY")
    3205                      .dwattr $C$DW$188, DW_AT_bit_offset(0x00)
    3206                      .dwattr $C$DW$188, DW_AT_bit_size(0x10)
    3207                      .dwattr $C$DW$188, DW_AT_data_member_location[DW_OP_plus_uconst 0x1]
    3208                      .dwattr $C$DW$188, DW_AT_accessibility(DW_ACCESS_public)
    3209              
    3210                      .dwendtag $C$DW$T$35
    3211              
    3212              
    3213              $C$DW$T$36      .dwtag  DW_TAG_union_type
    3214                      .dwattr $C$DW$T$36, DW_AT_name("CLKSTOPREQ_REG")
    3215                      .dwattr $C$DW$T$36, DW_AT_byte_size(0x02)
    3216              $C$DW$189       .dwtag  DW_TAG_member
    3217                      .dwattr $C$DW$189, DW_AT_type(*$C$DW$T$21)
    3218                      .dwattr $C$DW$189, DW_AT_name("all")
    3219                      .dwattr $C$DW$189, DW_AT_TI_symbol_name("_all")
    3220                      .dwattr $C$DW$189, DW_AT_data_member_location[DW_OP_plus_uconst 0x0]
    3221                      .dwattr $C$DW$189, DW_AT_accessibility(DW_ACCESS_public)
    3222              
    3223              $C$DW$190       .dwtag  DW_TAG_member
    3224                      .dwattr $C$DW$190, DW_AT_type(*$C$DW$T$35)
    3225                      .dwattr $C$DW$190, DW_AT_name("bit")
    3226                      .dwattr $C$DW$190, DW_AT_TI_symbol_name("_bit")
    3227                      .dwattr $C$DW$190, DW_AT_data_member_location[DW_OP_plus_uconst 0x0]
    3228                      .dwattr $C$DW$190, DW_AT_accessibility(DW_ACCESS_public)
    3229              
    3230                      .dwendtag $C$DW$T$36
    3231              
    3232              
    3233              $C$DW$T$41      .dwtag  DW_TAG_structure_type
    3234                      .dwattr $C$DW$T$41, DW_AT_name("CLK_CFG_REGS")
    3235                      .dwattr $C$DW$T$41, DW_AT_byte_size(0x3e)
    3236              $C$DW$191       .dwtag  DW_TAG_member
    3237                      .dwattr $C$DW$191, DW_AT_type(*$C$DW$T$37)
    3238                      .dwattr $C$DW$191, DW_AT_name("rsvd1")
    3239                      .dwattr $C$DW$191, DW_AT_TI_symbol_name("_rsvd1")
    3240                      .dwattr $C$DW$191, DW_AT_data_member_location[DW_OP_plus_uconst 0x0]
    3241                      .dwattr $C$DW$191, DW_AT_accessibility(DW_ACCESS_public)
    3242              
    3243              $C$DW$192       .dwtag  DW_TAG_member
    3244                      .dwattr $C$DW$192, DW_AT_type(*$C$DW$T$24)
    3245                      .dwattr $C$DW$192, DW_AT_name("CLKCFGLOCK1")
    3246                      .dwattr $C$DW$192, DW_AT_TI_symbol_name("_CLKCFGLOCK1")
    3247                      .dwattr $C$DW$192, DW_AT_data_member_location[DW_OP_plus_uconst 0x2]
    3248                      .dwattr $C$DW$192, DW_AT_accessibility(DW_ACCESS_public)
    3249              
    3250              $C$DW$193       .dwtag  DW_TAG_member
    3251                      .dwattr $C$DW$193, DW_AT_type(*$C$DW$T$38)
    3252                      .dwattr $C$DW$193, DW_AT_name("rsvd2")
    3253                      .dwattr $C$DW$193, DW_AT_TI_symbol_name("_rsvd2")
TMS320C2000 Assembler PC v22.6.1 Wed May 21 09:51:55 2025

Copyright (c) 1996-2018 Texas Instruments Incorporated
C:\Users\Daniel\AppData\Local\Temp\{78ED34F4-3C3B-4D89-8F5D-B64BD43A86E6} PAGE   64

    3254                      .dwattr $C$DW$193, DW_AT_data_member_location[DW_OP_plus_uconst 0x4]
    3255                      .dwattr $C$DW$193, DW_AT_accessibility(DW_ACCESS_public)
    3256              
    3257              $C$DW$194       .dwtag  DW_TAG_member
    3258                      .dwattr $C$DW$194, DW_AT_type(*$C$DW$T$28)
    3259                      .dwattr $C$DW$194, DW_AT_name("CLKSRCCTL1")
    3260                      .dwattr $C$DW$194, DW_AT_TI_symbol_name("_CLKSRCCTL1")
    3261                      .dwattr $C$DW$194, DW_AT_data_member_location[DW_OP_plus_uconst 0x8]
    3262                      .dwattr $C$DW$194, DW_AT_accessibility(DW_ACCESS_public)
    3263              
    3264              $C$DW$195       .dwtag  DW_TAG_member
    3265                      .dwattr $C$DW$195, DW_AT_type(*$C$DW$T$30)
    3266                      .dwattr $C$DW$195, DW_AT_name("CLKSRCCTL2")
    3267                      .dwattr $C$DW$195, DW_AT_TI_symbol_name("_CLKSRCCTL2")
    3268                      .dwattr $C$DW$195, DW_AT_data_member_location[DW_OP_plus_uconst 0xa]
    3269                      .dwattr $C$DW$195, DW_AT_accessibility(DW_ACCESS_public)
    3270              
    3271              $C$DW$196       .dwtag  DW_TAG_member
    3272                      .dwattr $C$DW$196, DW_AT_type(*$C$DW$T$32)
    3273                      .dwattr $C$DW$196, DW_AT_name("CLKSRCCTL3")
    3274                      .dwattr $C$DW$196, DW_AT_TI_symbol_name("_CLKSRCCTL3")
    3275                      .dwattr $C$DW$196, DW_AT_data_member_location[DW_OP_plus_uconst 0xc]
    3276                      .dwattr $C$DW$196, DW_AT_accessibility(DW_ACCESS_public)
    3277              
    3278              $C$DW$197       .dwtag  DW_TAG_member
    3279                      .dwattr $C$DW$197, DW_AT_type(*$C$DW$T$187)
    3280                      .dwattr $C$DW$197, DW_AT_name("SYSPLLCTL1")
    3281                      .dwattr $C$DW$197, DW_AT_TI_symbol_name("_SYSPLLCTL1")
    3282                      .dwattr $C$DW$197, DW_AT_data_member_location[DW_OP_plus_uconst 0xe]
    3283                      .dwattr $C$DW$197, DW_AT_accessibility(DW_ACCESS_public)
    3284              
    3285              $C$DW$198       .dwtag  DW_TAG_member
    3286                      .dwattr $C$DW$198, DW_AT_type(*$C$DW$T$38)
    3287                      .dwattr $C$DW$198, DW_AT_name("rsvd3")
    3288                      .dwattr $C$DW$198, DW_AT_TI_symbol_name("_rsvd3")
    3289                      .dwattr $C$DW$198, DW_AT_data_member_location[DW_OP_plus_uconst 0x10]
    3290                      .dwattr $C$DW$198, DW_AT_accessibility(DW_ACCESS_public)
    3291              
    3292              $C$DW$199       .dwtag  DW_TAG_member
    3293                      .dwattr $C$DW$199, DW_AT_type(*$C$DW$T$189)
    3294                      .dwattr $C$DW$199, DW_AT_name("SYSPLLMULT")
    3295                      .dwattr $C$DW$199, DW_AT_TI_symbol_name("_SYSPLLMULT")
    3296                      .dwattr $C$DW$199, DW_AT_data_member_location[DW_OP_plus_uconst 0x14]
    3297                      .dwattr $C$DW$199, DW_AT_accessibility(DW_ACCESS_public)
    3298              
    3299              $C$DW$200       .dwtag  DW_TAG_member
    3300                      .dwattr $C$DW$200, DW_AT_type(*$C$DW$T$191)
    3301                      .dwattr $C$DW$200, DW_AT_name("SYSPLLSTS")
    3302                      .dwattr $C$DW$200, DW_AT_TI_symbol_name("_SYSPLLSTS")
    3303                      .dwattr $C$DW$200, DW_AT_data_member_location[DW_OP_plus_uconst 0x16]
    3304                      .dwattr $C$DW$200, DW_AT_accessibility(DW_ACCESS_public)
    3305              
    3306              $C$DW$201       .dwtag  DW_TAG_member
    3307                      .dwattr $C$DW$201, DW_AT_type(*$C$DW$T$39)
    3308                      .dwattr $C$DW$201, DW_AT_name("rsvd4")
TMS320C2000 Assembler PC v22.6.1 Wed May 21 09:51:55 2025

Copyright (c) 1996-2018 Texas Instruments Incorporated
C:\Users\Daniel\AppData\Local\Temp\{78ED34F4-3C3B-4D89-8F5D-B64BD43A86E6} PAGE   65

    3309                      .dwattr $C$DW$201, DW_AT_TI_symbol_name("_rsvd4")
    3310                      .dwattr $C$DW$201, DW_AT_data_member_location[DW_OP_plus_uconst 0x18]
    3311                      .dwattr $C$DW$201, DW_AT_accessibility(DW_ACCESS_public)
    3312              
    3313              $C$DW$202       .dwtag  DW_TAG_member
    3314                      .dwattr $C$DW$202, DW_AT_type(*$C$DW$T$185)
    3315                      .dwattr $C$DW$202, DW_AT_name("SYSCLKDIVSEL")
    3316                      .dwattr $C$DW$202, DW_AT_TI_symbol_name("_SYSCLKDIVSEL")
    3317                      .dwattr $C$DW$202, DW_AT_data_member_location[DW_OP_plus_uconst 0x22]
    3318                      .dwattr $C$DW$202, DW_AT_accessibility(DW_ACCESS_public)
    3319              
    3320              $C$DW$203       .dwtag  DW_TAG_member
    3321                      .dwattr $C$DW$203, DW_AT_type(*$C$DW$T$22)
    3322                      .dwattr $C$DW$203, DW_AT_name("AUXCLKDIVSEL")
    3323                      .dwattr $C$DW$203, DW_AT_TI_symbol_name("_AUXCLKDIVSEL")
    3324                      .dwattr $C$DW$203, DW_AT_data_member_location[DW_OP_plus_uconst 0x24]
    3325                      .dwattr $C$DW$203, DW_AT_accessibility(DW_ACCESS_public)
    3326              
    3327              $C$DW$204       .dwtag  DW_TAG_member
    3328                      .dwattr $C$DW$204, DW_AT_type(*$C$DW$T$37)
    3329                      .dwattr $C$DW$204, DW_AT_name("rsvd5")
    3330                      .dwattr $C$DW$204, DW_AT_TI_symbol_name("_rsvd5")
    3331                      .dwattr $C$DW$204, DW_AT_data_member_location[DW_OP_plus_uconst 0x26]
    3332                      .dwattr $C$DW$204, DW_AT_accessibility(DW_ACCESS_public)
    3333              
    3334              $C$DW$205       .dwtag  DW_TAG_member
    3335                      .dwattr $C$DW$205, DW_AT_type(*$C$DW$T$208)
    3336                      .dwattr $C$DW$205, DW_AT_name("XCLKOUTDIVSEL")
    3337                      .dwattr $C$DW$205, DW_AT_TI_symbol_name("_XCLKOUTDIVSEL")
    3338                      .dwattr $C$DW$205, DW_AT_data_member_location[DW_OP_plus_uconst 0x28]
    3339                      .dwattr $C$DW$205, DW_AT_accessibility(DW_ACCESS_public)
    3340              
    3341              $C$DW$206       .dwtag  DW_TAG_member
    3342                      .dwattr $C$DW$206, DW_AT_type(*$C$DW$T$37)
    3343                      .dwattr $C$DW$206, DW_AT_name("rsvd6")
    3344                      .dwattr $C$DW$206, DW_AT_TI_symbol_name("_rsvd6")
    3345                      .dwattr $C$DW$206, DW_AT_data_member_location[DW_OP_plus_uconst 0x2a]
    3346                      .dwattr $C$DW$206, DW_AT_accessibility(DW_ACCESS_public)
    3347              
    3348              $C$DW$207       .dwtag  DW_TAG_member
    3349                      .dwattr $C$DW$207, DW_AT_type(*$C$DW$T$125)
    3350                      .dwattr $C$DW$207, DW_AT_name("LOSPCP")
    3351                      .dwattr $C$DW$207, DW_AT_TI_symbol_name("_LOSPCP")
    3352                      .dwattr $C$DW$207, DW_AT_data_member_location[DW_OP_plus_uconst 0x2c]
    3353                      .dwattr $C$DW$207, DW_AT_accessibility(DW_ACCESS_public)
    3354              
    3355              $C$DW$208       .dwtag  DW_TAG_member
    3356                      .dwattr $C$DW$208, DW_AT_type(*$C$DW$T$133)
    3357                      .dwattr $C$DW$208, DW_AT_name("MCDCR")
    3358                      .dwattr $C$DW$208, DW_AT_TI_symbol_name("_MCDCR")
    3359                      .dwattr $C$DW$208, DW_AT_data_member_location[DW_OP_plus_uconst 0x2e]
    3360                      .dwattr $C$DW$208, DW_AT_accessibility(DW_ACCESS_public)
    3361              
    3362              $C$DW$209       .dwtag  DW_TAG_member
    3363                      .dwattr $C$DW$209, DW_AT_type(*$C$DW$T$206)
TMS320C2000 Assembler PC v22.6.1 Wed May 21 09:51:55 2025

Copyright (c) 1996-2018 Texas Instruments Incorporated
C:\Users\Daniel\AppData\Local\Temp\{78ED34F4-3C3B-4D89-8F5D-B64BD43A86E6} PAGE   66

    3364                      .dwattr $C$DW$209, DW_AT_name("X1CNT")
    3365                      .dwattr $C$DW$209, DW_AT_TI_symbol_name("_X1CNT")
    3366                      .dwattr $C$DW$209, DW_AT_data_member_location[DW_OP_plus_uconst 0x30]
    3367                      .dwattr $C$DW$209, DW_AT_accessibility(DW_ACCESS_public)
    3368              
    3369              $C$DW$210       .dwtag  DW_TAG_member
    3370                      .dwattr $C$DW$210, DW_AT_type(*$C$DW$T$212)
    3371                      .dwattr $C$DW$210, DW_AT_name("XTALCR")
    3372                      .dwattr $C$DW$210, DW_AT_TI_symbol_name("_XTALCR")
    3373                      .dwattr $C$DW$210, DW_AT_data_member_location[DW_OP_plus_uconst 0x32]
    3374                      .dwattr $C$DW$210, DW_AT_accessibility(DW_ACCESS_public)
    3375              
    3376              $C$DW$211       .dwtag  DW_TAG_member
    3377                      .dwattr $C$DW$211, DW_AT_type(*$C$DW$T$40)
    3378                      .dwattr $C$DW$211, DW_AT_name("rsvd7")
    3379                      .dwattr $C$DW$211, DW_AT_TI_symbol_name("_rsvd7")
    3380                      .dwattr $C$DW$211, DW_AT_data_member_location[DW_OP_plus_uconst 0x34]
    3381                      .dwattr $C$DW$211, DW_AT_accessibility(DW_ACCESS_public)
    3382              
    3383              $C$DW$212       .dwtag  DW_TAG_member
    3384                      .dwattr $C$DW$212, DW_AT_type(*$C$DW$T$210)
    3385                      .dwattr $C$DW$212, DW_AT_name("XTALCR2")
    3386                      .dwattr $C$DW$212, DW_AT_TI_symbol_name("_XTALCR2")
    3387                      .dwattr $C$DW$212, DW_AT_data_member_location[DW_OP_plus_uconst 0x3a]
    3388                      .dwattr $C$DW$212, DW_AT_accessibility(DW_ACCESS_public)
    3389              
    3390              $C$DW$213       .dwtag  DW_TAG_member
    3391                      .dwattr $C$DW$213, DW_AT_type(*$C$DW$T$26)
    3392                      .dwattr $C$DW$213, DW_AT_name("CLKFAILCFG")
    3393                      .dwattr $C$DW$213, DW_AT_TI_symbol_name("_CLKFAILCFG")
    3394                      .dwattr $C$DW$213, DW_AT_data_member_location[DW_OP_plus_uconst 0x3c]
    3395                      .dwattr $C$DW$213, DW_AT_accessibility(DW_ACCESS_public)
    3396              
    3397                      .dwendtag $C$DW$T$41
    3398              
    3399              $C$DW$214       .dwtag  DW_TAG_TI_far_type
    3400                      .dwattr $C$DW$214, DW_AT_type(*$C$DW$T$41)
    3401              
    3402              $C$DW$T$215     .dwtag  DW_TAG_volatile_type
    3403                      .dwattr $C$DW$T$215, DW_AT_type(*$C$DW$214)
    3404              
    3405              
    3406              $C$DW$T$42      .dwtag  DW_TAG_structure_type
    3407                      .dwattr $C$DW$T$42, DW_AT_name("CPUSYSLOCK1_BITS")
    3408                      .dwattr $C$DW$T$42, DW_AT_byte_size(0x02)
    3409              $C$DW$215       .dwtag  DW_TAG_member
    3410                      .dwattr $C$DW$215, DW_AT_type(*$C$DW$T$19)
    3411                      .dwattr $C$DW$215, DW_AT_name("rsvd1")
    3412                      .dwattr $C$DW$215, DW_AT_TI_symbol_name("_rsvd1")
    3413                      .dwattr $C$DW$215, DW_AT_bit_offset(0x0f)
    3414                      .dwattr $C$DW$215, DW_AT_bit_size(0x01)
    3415                      .dwattr $C$DW$215, DW_AT_data_member_location[DW_OP_plus_uconst 0x0]
    3416                      .dwattr $C$DW$215, DW_AT_accessibility(DW_ACCESS_public)
    3417              
    3418              $C$DW$216       .dwtag  DW_TAG_member
TMS320C2000 Assembler PC v22.6.1 Wed May 21 09:51:55 2025

Copyright (c) 1996-2018 Texas Instruments Incorporated
C:\Users\Daniel\AppData\Local\Temp\{78ED34F4-3C3B-4D89-8F5D-B64BD43A86E6} PAGE   67

    3419                      .dwattr $C$DW$216, DW_AT_type(*$C$DW$T$19)
    3420                      .dwattr $C$DW$216, DW_AT_name("rsvd2")
    3421                      .dwattr $C$DW$216, DW_AT_TI_symbol_name("_rsvd2")
    3422                      .dwattr $C$DW$216, DW_AT_bit_offset(0x0e)
    3423                      .dwattr $C$DW$216, DW_AT_bit_size(0x01)
    3424                      .dwattr $C$DW$216, DW_AT_data_member_location[DW_OP_plus_uconst 0x0]
    3425                      .dwattr $C$DW$216, DW_AT_accessibility(DW_ACCESS_public)
    3426              
    3427              $C$DW$217       .dwtag  DW_TAG_member
    3428                      .dwattr $C$DW$217, DW_AT_type(*$C$DW$T$19)
    3429                      .dwattr $C$DW$217, DW_AT_name("PIEVERRADDR")
    3430                      .dwattr $C$DW$217, DW_AT_TI_symbol_name("_PIEVERRADDR")
    3431                      .dwattr $C$DW$217, DW_AT_bit_offset(0x0d)
    3432                      .dwattr $C$DW$217, DW_AT_bit_size(0x01)
    3433                      .dwattr $C$DW$217, DW_AT_data_member_location[DW_OP_plus_uconst 0x0]
    3434                      .dwattr $C$DW$217, DW_AT_accessibility(DW_ACCESS_public)
    3435              
    3436              $C$DW$218       .dwtag  DW_TAG_member
    3437                      .dwattr $C$DW$218, DW_AT_type(*$C$DW$T$19)
    3438                      .dwattr $C$DW$218, DW_AT_name("PCLKCR0")
    3439                      .dwattr $C$DW$218, DW_AT_TI_symbol_name("_PCLKCR0")
    3440                      .dwattr $C$DW$218, DW_AT_bit_offset(0x0c)
    3441                      .dwattr $C$DW$218, DW_AT_bit_size(0x01)
    3442                      .dwattr $C$DW$218, DW_AT_data_member_location[DW_OP_plus_uconst 0x0]
    3443                      .dwattr $C$DW$218, DW_AT_accessibility(DW_ACCESS_public)
    3444              
    3445              $C$DW$219       .dwtag  DW_TAG_member
    3446                      .dwattr $C$DW$219, DW_AT_type(*$C$DW$T$19)
    3447                      .dwattr $C$DW$219, DW_AT_name("rsvd3")
    3448                      .dwattr $C$DW$219, DW_AT_TI_symbol_name("_rsvd3")
    3449                      .dwattr $C$DW$219, DW_AT_bit_offset(0x0b)
    3450                      .dwattr $C$DW$219, DW_AT_bit_size(0x01)
    3451                      .dwattr $C$DW$219, DW_AT_data_member_location[DW_OP_plus_uconst 0x0]
    3452                      .dwattr $C$DW$219, DW_AT_accessibility(DW_ACCESS_public)
    3453              
    3454              $C$DW$220       .dwtag  DW_TAG_member
    3455                      .dwattr $C$DW$220, DW_AT_type(*$C$DW$T$19)
    3456                      .dwattr $C$DW$220, DW_AT_name("PCLKCR2")
    3457                      .dwattr $C$DW$220, DW_AT_TI_symbol_name("_PCLKCR2")
    3458                      .dwattr $C$DW$220, DW_AT_bit_offset(0x0a)
    3459                      .dwattr $C$DW$220, DW_AT_bit_size(0x01)
    3460                      .dwattr $C$DW$220, DW_AT_data_member_location[DW_OP_plus_uconst 0x0]
    3461                      .dwattr $C$DW$220, DW_AT_accessibility(DW_ACCESS_public)
    3462              
    3463              $C$DW$221       .dwtag  DW_TAG_member
    3464                      .dwattr $C$DW$221, DW_AT_type(*$C$DW$T$19)
    3465                      .dwattr $C$DW$221, DW_AT_name("PCLKCR3")
    3466                      .dwattr $C$DW$221, DW_AT_TI_symbol_name("_PCLKCR3")
    3467                      .dwattr $C$DW$221, DW_AT_bit_offset(0x09)
    3468                      .dwattr $C$DW$221, DW_AT_bit_size(0x01)
    3469                      .dwattr $C$DW$221, DW_AT_data_member_location[DW_OP_plus_uconst 0x0]
    3470                      .dwattr $C$DW$221, DW_AT_accessibility(DW_ACCESS_public)
    3471              
    3472              $C$DW$222       .dwtag  DW_TAG_member
    3473                      .dwattr $C$DW$222, DW_AT_type(*$C$DW$T$19)
TMS320C2000 Assembler PC v22.6.1 Wed May 21 09:51:55 2025

Copyright (c) 1996-2018 Texas Instruments Incorporated
C:\Users\Daniel\AppData\Local\Temp\{78ED34F4-3C3B-4D89-8F5D-B64BD43A86E6} PAGE   68

    3474                      .dwattr $C$DW$222, DW_AT_name("PCLKCR4")
    3475                      .dwattr $C$DW$222, DW_AT_TI_symbol_name("_PCLKCR4")
    3476                      .dwattr $C$DW$222, DW_AT_bit_offset(0x08)
    3477                      .dwattr $C$DW$222, DW_AT_bit_size(0x01)
    3478                      .dwattr $C$DW$222, DW_AT_data_member_location[DW_OP_plus_uconst 0x0]
    3479                      .dwattr $C$DW$222, DW_AT_accessibility(DW_ACCESS_public)
    3480              
    3481              $C$DW$223       .dwtag  DW_TAG_member
    3482                      .dwattr $C$DW$223, DW_AT_type(*$C$DW$T$19)
    3483                      .dwattr $C$DW$223, DW_AT_name("rsvd4")
    3484                      .dwattr $C$DW$223, DW_AT_TI_symbol_name("_rsvd4")
    3485                      .dwattr $C$DW$223, DW_AT_bit_offset(0x07)
    3486                      .dwattr $C$DW$223, DW_AT_bit_size(0x01)
    3487                      .dwattr $C$DW$223, DW_AT_data_member_location[DW_OP_plus_uconst 0x0]
    3488                      .dwattr $C$DW$223, DW_AT_accessibility(DW_ACCESS_public)
    3489              
    3490              $C$DW$224       .dwtag  DW_TAG_member
    3491                      .dwattr $C$DW$224, DW_AT_type(*$C$DW$T$19)
    3492                      .dwattr $C$DW$224, DW_AT_name("PCLKCR6")
    3493                      .dwattr $C$DW$224, DW_AT_TI_symbol_name("_PCLKCR6")
    3494                      .dwattr $C$DW$224, DW_AT_bit_offset(0x06)
    3495                      .dwattr $C$DW$224, DW_AT_bit_size(0x01)
    3496                      .dwattr $C$DW$224, DW_AT_data_member_location[DW_OP_plus_uconst 0x0]
    3497                      .dwattr $C$DW$224, DW_AT_accessibility(DW_ACCESS_public)
    3498              
    3499              $C$DW$225       .dwtag  DW_TAG_member
    3500                      .dwattr $C$DW$225, DW_AT_type(*$C$DW$T$19)
    3501                      .dwattr $C$DW$225, DW_AT_name("PCLKCR7")
    3502                      .dwattr $C$DW$225, DW_AT_TI_symbol_name("_PCLKCR7")
    3503                      .dwattr $C$DW$225, DW_AT_bit_offset(0x05)
    3504                      .dwattr $C$DW$225, DW_AT_bit_size(0x01)
    3505                      .dwattr $C$DW$225, DW_AT_data_member_location[DW_OP_plus_uconst 0x0]
    3506                      .dwattr $C$DW$225, DW_AT_accessibility(DW_ACCESS_public)
    3507              
    3508              $C$DW$226       .dwtag  DW_TAG_member
    3509                      .dwattr $C$DW$226, DW_AT_type(*$C$DW$T$19)
    3510                      .dwattr $C$DW$226, DW_AT_name("PCLKCR8")
    3511                      .dwattr $C$DW$226, DW_AT_TI_symbol_name("_PCLKCR8")
    3512                      .dwattr $C$DW$226, DW_AT_bit_offset(0x04)
    3513                      .dwattr $C$DW$226, DW_AT_bit_size(0x01)
    3514                      .dwattr $C$DW$226, DW_AT_data_member_location[DW_OP_plus_uconst 0x0]
    3515                      .dwattr $C$DW$226, DW_AT_accessibility(DW_ACCESS_public)
    3516              
    3517              $C$DW$227       .dwtag  DW_TAG_member
    3518                      .dwattr $C$DW$227, DW_AT_type(*$C$DW$T$19)
    3519                      .dwattr $C$DW$227, DW_AT_name("PCLKCR9")
    3520                      .dwattr $C$DW$227, DW_AT_TI_symbol_name("_PCLKCR9")
    3521                      .dwattr $C$DW$227, DW_AT_bit_offset(0x03)
    3522                      .dwattr $C$DW$227, DW_AT_bit_size(0x01)
    3523                      .dwattr $C$DW$227, DW_AT_data_member_location[DW_OP_plus_uconst 0x0]
    3524                      .dwattr $C$DW$227, DW_AT_accessibility(DW_ACCESS_public)
    3525              
    3526              $C$DW$228       .dwtag  DW_TAG_member
    3527                      .dwattr $C$DW$228, DW_AT_type(*$C$DW$T$19)
    3528                      .dwattr $C$DW$228, DW_AT_name("PCLKCR10")
TMS320C2000 Assembler PC v22.6.1 Wed May 21 09:51:55 2025

Copyright (c) 1996-2018 Texas Instruments Incorporated
C:\Users\Daniel\AppData\Local\Temp\{78ED34F4-3C3B-4D89-8F5D-B64BD43A86E6} PAGE   69

    3529                      .dwattr $C$DW$228, DW_AT_TI_symbol_name("_PCLKCR10")
    3530                      .dwattr $C$DW$228, DW_AT_bit_offset(0x02)
    3531                      .dwattr $C$DW$228, DW_AT_bit_size(0x01)
    3532                      .dwattr $C$DW$228, DW_AT_data_member_location[DW_OP_plus_uconst 0x0]
    3533                      .dwattr $C$DW$228, DW_AT_accessibility(DW_ACCESS_public)
    3534              
    3535              $C$DW$229       .dwtag  DW_TAG_member
    3536                      .dwattr $C$DW$229, DW_AT_type(*$C$DW$T$19)
    3537                      .dwattr $C$DW$229, DW_AT_name("rsvd5")
    3538                      .dwattr $C$DW$229, DW_AT_TI_symbol_name("_rsvd5")
    3539                      .dwattr $C$DW$229, DW_AT_bit_offset(0x01)
    3540                      .dwattr $C$DW$229, DW_AT_bit_size(0x01)
    3541                      .dwattr $C$DW$229, DW_AT_data_member_location[DW_OP_plus_uconst 0x0]
    3542                      .dwattr $C$DW$229, DW_AT_accessibility(DW_ACCESS_public)
    3543              
    3544              $C$DW$230       .dwtag  DW_TAG_member
    3545                      .dwattr $C$DW$230, DW_AT_type(*$C$DW$T$19)
    3546                      .dwattr $C$DW$230, DW_AT_name("rsvd6")
    3547                      .dwattr $C$DW$230, DW_AT_TI_symbol_name("_rsvd6")
    3548                      .dwattr $C$DW$230, DW_AT_bit_offset(0x00)
    3549                      .dwattr $C$DW$230, DW_AT_bit_size(0x01)
    3550                      .dwattr $C$DW$230, DW_AT_data_member_location[DW_OP_plus_uconst 0x0]
    3551                      .dwattr $C$DW$230, DW_AT_accessibility(DW_ACCESS_public)
    3552              
    3553              $C$DW$231       .dwtag  DW_TAG_member
    3554                      .dwattr $C$DW$231, DW_AT_type(*$C$DW$T$19)
    3555                      .dwattr $C$DW$231, DW_AT_name("PCLKCR13")
    3556                      .dwattr $C$DW$231, DW_AT_TI_symbol_name("_PCLKCR13")
    3557                      .dwattr $C$DW$231, DW_AT_bit_offset(0x0f)
    3558                      .dwattr $C$DW$231, DW_AT_bit_size(0x01)
    3559                      .dwattr $C$DW$231, DW_AT_data_member_location[DW_OP_plus_uconst 0x1]
    3560                      .dwattr $C$DW$231, DW_AT_accessibility(DW_ACCESS_public)
    3561              
    3562              $C$DW$232       .dwtag  DW_TAG_member
    3563                      .dwattr $C$DW$232, DW_AT_type(*$C$DW$T$19)
    3564                      .dwattr $C$DW$232, DW_AT_name("PCLKCR14")
    3565                      .dwattr $C$DW$232, DW_AT_TI_symbol_name("_PCLKCR14")
    3566                      .dwattr $C$DW$232, DW_AT_bit_offset(0x0e)
    3567                      .dwattr $C$DW$232, DW_AT_bit_size(0x01)
    3568                      .dwattr $C$DW$232, DW_AT_data_member_location[DW_OP_plus_uconst 0x1]
    3569                      .dwattr $C$DW$232, DW_AT_accessibility(DW_ACCESS_public)
    3570              
    3571              $C$DW$233       .dwtag  DW_TAG_member
    3572                      .dwattr $C$DW$233, DW_AT_type(*$C$DW$T$19)
    3573                      .dwattr $C$DW$233, DW_AT_name("rsvd7")
    3574                      .dwattr $C$DW$233, DW_AT_TI_symbol_name("_rsvd7")
    3575                      .dwattr $C$DW$233, DW_AT_bit_offset(0x0d)
    3576                      .dwattr $C$DW$233, DW_AT_bit_size(0x01)
    3577                      .dwattr $C$DW$233, DW_AT_data_member_location[DW_OP_plus_uconst 0x1]
    3578                      .dwattr $C$DW$233, DW_AT_accessibility(DW_ACCESS_public)
    3579              
    3580              $C$DW$234       .dwtag  DW_TAG_member
    3581                      .dwattr $C$DW$234, DW_AT_type(*$C$DW$T$19)
    3582                      .dwattr $C$DW$234, DW_AT_name("PCLKCR16")
    3583                      .dwattr $C$DW$234, DW_AT_TI_symbol_name("_PCLKCR16")
TMS320C2000 Assembler PC v22.6.1 Wed May 21 09:51:55 2025

Copyright (c) 1996-2018 Texas Instruments Incorporated
C:\Users\Daniel\AppData\Local\Temp\{78ED34F4-3C3B-4D89-8F5D-B64BD43A86E6} PAGE   70

    3584                      .dwattr $C$DW$234, DW_AT_bit_offset(0x0c)
    3585                      .dwattr $C$DW$234, DW_AT_bit_size(0x01)
    3586                      .dwattr $C$DW$234, DW_AT_data_member_location[DW_OP_plus_uconst 0x1]
    3587                      .dwattr $C$DW$234, DW_AT_accessibility(DW_ACCESS_public)
    3588              
    3589              $C$DW$235       .dwtag  DW_TAG_member
    3590                      .dwattr $C$DW$235, DW_AT_type(*$C$DW$T$19)
    3591                      .dwattr $C$DW$235, DW_AT_name("rsvd8")
    3592                      .dwattr $C$DW$235, DW_AT_TI_symbol_name("_rsvd8")
    3593                      .dwattr $C$DW$235, DW_AT_bit_offset(0x0b)
    3594                      .dwattr $C$DW$235, DW_AT_bit_size(0x01)
    3595                      .dwattr $C$DW$235, DW_AT_data_member_location[DW_OP_plus_uconst 0x1]
    3596                      .dwattr $C$DW$235, DW_AT_accessibility(DW_ACCESS_public)
    3597              
    3598              $C$DW$236       .dwtag  DW_TAG_member
    3599                      .dwattr $C$DW$236, DW_AT_type(*$C$DW$T$19)
    3600                      .dwattr $C$DW$236, DW_AT_name("LPMCR")
    3601                      .dwattr $C$DW$236, DW_AT_TI_symbol_name("_LPMCR")
    3602                      .dwattr $C$DW$236, DW_AT_bit_offset(0x0a)
    3603                      .dwattr $C$DW$236, DW_AT_bit_size(0x01)
    3604                      .dwattr $C$DW$236, DW_AT_data_member_location[DW_OP_plus_uconst 0x1]
    3605                      .dwattr $C$DW$236, DW_AT_accessibility(DW_ACCESS_public)
    3606              
    3607              $C$DW$237       .dwtag  DW_TAG_member
    3608                      .dwattr $C$DW$237, DW_AT_type(*$C$DW$T$19)
    3609                      .dwattr $C$DW$237, DW_AT_name("GPIOLPMSEL0")
    3610                      .dwattr $C$DW$237, DW_AT_TI_symbol_name("_GPIOLPMSEL0")
    3611                      .dwattr $C$DW$237, DW_AT_bit_offset(0x09)
    3612                      .dwattr $C$DW$237, DW_AT_bit_size(0x01)
    3613                      .dwattr $C$DW$237, DW_AT_data_member_location[DW_OP_plus_uconst 0x1]
    3614                      .dwattr $C$DW$237, DW_AT_accessibility(DW_ACCESS_public)
    3615              
    3616              $C$DW$238       .dwtag  DW_TAG_member
    3617                      .dwattr $C$DW$238, DW_AT_type(*$C$DW$T$19)
    3618                      .dwattr $C$DW$238, DW_AT_name("GPIOLPMSEL1")
    3619                      .dwattr $C$DW$238, DW_AT_TI_symbol_name("_GPIOLPMSEL1")
    3620                      .dwattr $C$DW$238, DW_AT_bit_offset(0x08)
    3621                      .dwattr $C$DW$238, DW_AT_bit_size(0x01)
    3622                      .dwattr $C$DW$238, DW_AT_data_member_location[DW_OP_plus_uconst 0x1]
    3623                      .dwattr $C$DW$238, DW_AT_accessibility(DW_ACCESS_public)
    3624              
    3625              $C$DW$239       .dwtag  DW_TAG_member
    3626                      .dwattr $C$DW$239, DW_AT_type(*$C$DW$T$19)
    3627                      .dwattr $C$DW$239, DW_AT_name("PCLKCR17")
    3628                      .dwattr $C$DW$239, DW_AT_TI_symbol_name("_PCLKCR17")
    3629                      .dwattr $C$DW$239, DW_AT_bit_offset(0x07)
    3630                      .dwattr $C$DW$239, DW_AT_bit_size(0x01)
    3631                      .dwattr $C$DW$239, DW_AT_data_member_location[DW_OP_plus_uconst 0x1]
    3632                      .dwattr $C$DW$239, DW_AT_accessibility(DW_ACCESS_public)
    3633              
    3634              $C$DW$240       .dwtag  DW_TAG_member
    3635                      .dwattr $C$DW$240, DW_AT_type(*$C$DW$T$19)
    3636                      .dwattr $C$DW$240, DW_AT_name("PCLKCR18")
    3637                      .dwattr $C$DW$240, DW_AT_TI_symbol_name("_PCLKCR18")
    3638                      .dwattr $C$DW$240, DW_AT_bit_offset(0x06)
TMS320C2000 Assembler PC v22.6.1 Wed May 21 09:51:55 2025

Copyright (c) 1996-2018 Texas Instruments Incorporated
C:\Users\Daniel\AppData\Local\Temp\{78ED34F4-3C3B-4D89-8F5D-B64BD43A86E6} PAGE   71

    3639                      .dwattr $C$DW$240, DW_AT_bit_size(0x01)
    3640                      .dwattr $C$DW$240, DW_AT_data_member_location[DW_OP_plus_uconst 0x1]
    3641                      .dwattr $C$DW$240, DW_AT_accessibility(DW_ACCESS_public)
    3642              
    3643              $C$DW$241       .dwtag  DW_TAG_member
    3644                      .dwattr $C$DW$241, DW_AT_type(*$C$DW$T$19)
    3645                      .dwattr $C$DW$241, DW_AT_name("PCLKCR19")
    3646                      .dwattr $C$DW$241, DW_AT_TI_symbol_name("_PCLKCR19")
    3647                      .dwattr $C$DW$241, DW_AT_bit_offset(0x05)
    3648                      .dwattr $C$DW$241, DW_AT_bit_size(0x01)
    3649                      .dwattr $C$DW$241, DW_AT_data_member_location[DW_OP_plus_uconst 0x1]
    3650                      .dwattr $C$DW$241, DW_AT_accessibility(DW_ACCESS_public)
    3651              
    3652              $C$DW$242       .dwtag  DW_TAG_member
    3653                      .dwattr $C$DW$242, DW_AT_type(*$C$DW$T$19)
    3654                      .dwattr $C$DW$242, DW_AT_name("PCLKCR20")
    3655                      .dwattr $C$DW$242, DW_AT_TI_symbol_name("_PCLKCR20")
    3656                      .dwattr $C$DW$242, DW_AT_bit_offset(0x04)
    3657                      .dwattr $C$DW$242, DW_AT_bit_size(0x01)
    3658                      .dwattr $C$DW$242, DW_AT_data_member_location[DW_OP_plus_uconst 0x1]
    3659                      .dwattr $C$DW$242, DW_AT_accessibility(DW_ACCESS_public)
    3660              
    3661              $C$DW$243       .dwtag  DW_TAG_member
    3662                      .dwattr $C$DW$243, DW_AT_type(*$C$DW$T$19)
    3663                      .dwattr $C$DW$243, DW_AT_name("PCLKCR21")
    3664                      .dwattr $C$DW$243, DW_AT_TI_symbol_name("_PCLKCR21")
    3665                      .dwattr $C$DW$243, DW_AT_bit_offset(0x03)
    3666                      .dwattr $C$DW$243, DW_AT_bit_size(0x01)
    3667                      .dwattr $C$DW$243, DW_AT_data_member_location[DW_OP_plus_uconst 0x1]
    3668                      .dwattr $C$DW$243, DW_AT_accessibility(DW_ACCESS_public)
    3669              
    3670              $C$DW$244       .dwtag  DW_TAG_member
    3671                      .dwattr $C$DW$244, DW_AT_type(*$C$DW$T$19)
    3672                      .dwattr $C$DW$244, DW_AT_name("PCLKCR22")
    3673                      .dwattr $C$DW$244, DW_AT_TI_symbol_name("_PCLKCR22")
    3674                      .dwattr $C$DW$244, DW_AT_bit_offset(0x02)
    3675                      .dwattr $C$DW$244, DW_AT_bit_size(0x01)
    3676                      .dwattr $C$DW$244, DW_AT_data_member_location[DW_OP_plus_uconst 0x1]
    3677                      .dwattr $C$DW$244, DW_AT_accessibility(DW_ACCESS_public)
    3678              
    3679              $C$DW$245       .dwtag  DW_TAG_member
    3680                      .dwattr $C$DW$245, DW_AT_type(*$C$DW$T$19)
    3681                      .dwattr $C$DW$245, DW_AT_name("rsvd9")
    3682                      .dwattr $C$DW$245, DW_AT_TI_symbol_name("_rsvd9")
    3683                      .dwattr $C$DW$245, DW_AT_bit_offset(0x01)
    3684                      .dwattr $C$DW$245, DW_AT_bit_size(0x01)
    3685                      .dwattr $C$DW$245, DW_AT_data_member_location[DW_OP_plus_uconst 0x1]
    3686                      .dwattr $C$DW$245, DW_AT_accessibility(DW_ACCESS_public)
    3687              
    3688              $C$DW$246       .dwtag  DW_TAG_member
    3689                      .dwattr $C$DW$246, DW_AT_type(*$C$DW$T$19)
    3690                      .dwattr $C$DW$246, DW_AT_name("rsvd10")
    3691                      .dwattr $C$DW$246, DW_AT_TI_symbol_name("_rsvd10")
    3692                      .dwattr $C$DW$246, DW_AT_bit_offset(0x00)
    3693                      .dwattr $C$DW$246, DW_AT_bit_size(0x01)
TMS320C2000 Assembler PC v22.6.1 Wed May 21 09:51:55 2025

Copyright (c) 1996-2018 Texas Instruments Incorporated
C:\Users\Daniel\AppData\Local\Temp\{78ED34F4-3C3B-4D89-8F5D-B64BD43A86E6} PAGE   72

    3694                      .dwattr $C$DW$246, DW_AT_data_member_location[DW_OP_plus_uconst 0x1]
    3695                      .dwattr $C$DW$246, DW_AT_accessibility(DW_ACCESS_public)
    3696              
    3697                      .dwendtag $C$DW$T$42
    3698              
    3699              
    3700              $C$DW$T$43      .dwtag  DW_TAG_union_type
    3701                      .dwattr $C$DW$T$43, DW_AT_name("CPUSYSLOCK1_REG")
    3702                      .dwattr $C$DW$T$43, DW_AT_byte_size(0x02)
    3703              $C$DW$247       .dwtag  DW_TAG_member
    3704                      .dwattr $C$DW$247, DW_AT_type(*$C$DW$T$21)
    3705                      .dwattr $C$DW$247, DW_AT_name("all")
    3706                      .dwattr $C$DW$247, DW_AT_TI_symbol_name("_all")
    3707                      .dwattr $C$DW$247, DW_AT_data_member_location[DW_OP_plus_uconst 0x0]
    3708                      .dwattr $C$DW$247, DW_AT_accessibility(DW_ACCESS_public)
    3709              
    3710              $C$DW$248       .dwtag  DW_TAG_member
    3711                      .dwattr $C$DW$248, DW_AT_type(*$C$DW$T$42)
    3712                      .dwattr $C$DW$248, DW_AT_name("bit")
    3713                      .dwattr $C$DW$248, DW_AT_TI_symbol_name("_bit")
    3714                      .dwattr $C$DW$248, DW_AT_data_member_location[DW_OP_plus_uconst 0x0]
    3715                      .dwattr $C$DW$248, DW_AT_accessibility(DW_ACCESS_public)
    3716              
    3717                      .dwendtag $C$DW$T$43
    3718              
    3719              
    3720              $C$DW$T$44      .dwtag  DW_TAG_structure_type
    3721                      .dwattr $C$DW$T$44, DW_AT_name("CPUSYSLOCK2_BITS")
    3722                      .dwattr $C$DW$T$44, DW_AT_byte_size(0x02)
    3723              $C$DW$249       .dwtag  DW_TAG_member
    3724                      .dwattr $C$DW$249, DW_AT_type(*$C$DW$T$19)
    3725                      .dwattr $C$DW$249, DW_AT_name("rsvd1")
    3726                      .dwattr $C$DW$249, DW_AT_TI_symbol_name("_rsvd1")
    3727                      .dwattr $C$DW$249, DW_AT_bit_offset(0x0f)
    3728                      .dwattr $C$DW$249, DW_AT_bit_size(0x01)
    3729                      .dwattr $C$DW$249, DW_AT_data_member_location[DW_OP_plus_uconst 0x0]
    3730                      .dwattr $C$DW$249, DW_AT_accessibility(DW_ACCESS_public)
    3731              
    3732              $C$DW$250       .dwtag  DW_TAG_member
    3733                      .dwattr $C$DW$250, DW_AT_type(*$C$DW$T$19)
    3734                      .dwattr $C$DW$250, DW_AT_name("PCLKCR25")
    3735                      .dwattr $C$DW$250, DW_AT_TI_symbol_name("_PCLKCR25")
    3736                      .dwattr $C$DW$250, DW_AT_bit_offset(0x0e)
    3737                      .dwattr $C$DW$250, DW_AT_bit_size(0x01)
    3738                      .dwattr $C$DW$250, DW_AT_data_member_location[DW_OP_plus_uconst 0x0]
    3739                      .dwattr $C$DW$250, DW_AT_accessibility(DW_ACCESS_public)
    3740              
    3741              $C$DW$251       .dwtag  DW_TAG_member
    3742                      .dwattr $C$DW$251, DW_AT_type(*$C$DW$T$19)
    3743                      .dwattr $C$DW$251, DW_AT_name("PCLKCR26")
    3744                      .dwattr $C$DW$251, DW_AT_TI_symbol_name("_PCLKCR26")
    3745                      .dwattr $C$DW$251, DW_AT_bit_offset(0x0d)
    3746                      .dwattr $C$DW$251, DW_AT_bit_size(0x01)
    3747                      .dwattr $C$DW$251, DW_AT_data_member_location[DW_OP_plus_uconst 0x0]
    3748                      .dwattr $C$DW$251, DW_AT_accessibility(DW_ACCESS_public)
TMS320C2000 Assembler PC v22.6.1 Wed May 21 09:51:55 2025

Copyright (c) 1996-2018 Texas Instruments Incorporated
C:\Users\Daniel\AppData\Local\Temp\{78ED34F4-3C3B-4D89-8F5D-B64BD43A86E6} PAGE   73

    3749              
    3750              $C$DW$252       .dwtag  DW_TAG_member
    3751                      .dwattr $C$DW$252, DW_AT_type(*$C$DW$T$19)
    3752                      .dwattr $C$DW$252, DW_AT_name("PCLKCR27")
    3753                      .dwattr $C$DW$252, DW_AT_TI_symbol_name("_PCLKCR27")
    3754                      .dwattr $C$DW$252, DW_AT_bit_offset(0x0c)
    3755                      .dwattr $C$DW$252, DW_AT_bit_size(0x01)
    3756                      .dwattr $C$DW$252, DW_AT_data_member_location[DW_OP_plus_uconst 0x0]
    3757                      .dwattr $C$DW$252, DW_AT_accessibility(DW_ACCESS_public)
    3758              
    3759              $C$DW$253       .dwtag  DW_TAG_member
    3760                      .dwattr $C$DW$253, DW_AT_type(*$C$DW$T$19)
    3761                      .dwattr $C$DW$253, DW_AT_name("rsvd2")
    3762                      .dwattr $C$DW$253, DW_AT_TI_symbol_name("_rsvd2")
    3763                      .dwattr $C$DW$253, DW_AT_bit_offset(0x00)
    3764                      .dwattr $C$DW$253, DW_AT_bit_size(0x0c)
    3765                      .dwattr $C$DW$253, DW_AT_data_member_location[DW_OP_plus_uconst 0x0]
    3766                      .dwattr $C$DW$253, DW_AT_accessibility(DW_ACCESS_public)
    3767              
    3768              $C$DW$254       .dwtag  DW_TAG_member
    3769                      .dwattr $C$DW$254, DW_AT_type(*$C$DW$T$19)
    3770                      .dwattr $C$DW$254, DW_AT_name("rsvd3")
    3771                      .dwattr $C$DW$254, DW_AT_TI_symbol_name("_rsvd3")
    3772                      .dwattr $C$DW$254, DW_AT_bit_offset(0x00)
    3773                      .dwattr $C$DW$254, DW_AT_bit_size(0x10)
    3774                      .dwattr $C$DW$254, DW_AT_data_member_location[DW_OP_plus_uconst 0x1]
    3775                      .dwattr $C$DW$254, DW_AT_accessibility(DW_ACCESS_public)
    3776              
    3777                      .dwendtag $C$DW$T$44
    3778              
    3779              
    3780              $C$DW$T$45      .dwtag  DW_TAG_union_type
    3781                      .dwattr $C$DW$T$45, DW_AT_name("CPUSYSLOCK2_REG")
    3782                      .dwattr $C$DW$T$45, DW_AT_byte_size(0x02)
    3783              $C$DW$255       .dwtag  DW_TAG_member
    3784                      .dwattr $C$DW$255, DW_AT_type(*$C$DW$T$21)
    3785                      .dwattr $C$DW$255, DW_AT_name("all")
    3786                      .dwattr $C$DW$255, DW_AT_TI_symbol_name("_all")
    3787                      .dwattr $C$DW$255, DW_AT_data_member_location[DW_OP_plus_uconst 0x0]
    3788                      .dwattr $C$DW$255, DW_AT_accessibility(DW_ACCESS_public)
    3789              
    3790              $C$DW$256       .dwtag  DW_TAG_member
    3791                      .dwattr $C$DW$256, DW_AT_type(*$C$DW$T$44)
    3792                      .dwattr $C$DW$256, DW_AT_name("bit")
    3793                      .dwattr $C$DW$256, DW_AT_TI_symbol_name("_bit")
    3794                      .dwattr $C$DW$256, DW_AT_data_member_location[DW_OP_plus_uconst 0x0]
    3795                      .dwattr $C$DW$256, DW_AT_accessibility(DW_ACCESS_public)
    3796              
    3797                      .dwendtag $C$DW$T$45
    3798              
    3799              
    3800              $C$DW$T$47      .dwtag  DW_TAG_structure_type
    3801                      .dwattr $C$DW$T$47, DW_AT_name("CPU_SYS_REGS")
    3802                      .dwattr $C$DW$T$47, DW_AT_byte_size(0xa0)
    3803              $C$DW$257       .dwtag  DW_TAG_member
TMS320C2000 Assembler PC v22.6.1 Wed May 21 09:51:55 2025

Copyright (c) 1996-2018 Texas Instruments Incorporated
C:\Users\Daniel\AppData\Local\Temp\{78ED34F4-3C3B-4D89-8F5D-B64BD43A86E6} PAGE   74

    3804                      .dwattr $C$DW$257, DW_AT_type(*$C$DW$T$43)
    3805                      .dwattr $C$DW$257, DW_AT_name("CPUSYSLOCK1")
    3806                      .dwattr $C$DW$257, DW_AT_TI_symbol_name("_CPUSYSLOCK1")
    3807                      .dwattr $C$DW$257, DW_AT_data_member_location[DW_OP_plus_uconst 0x0]
    3808                      .dwattr $C$DW$257, DW_AT_accessibility(DW_ACCESS_public)
    3809              
    3810              $C$DW$258       .dwtag  DW_TAG_member
    3811                      .dwattr $C$DW$258, DW_AT_type(*$C$DW$T$45)
    3812                      .dwattr $C$DW$258, DW_AT_name("CPUSYSLOCK2")
    3813                      .dwattr $C$DW$258, DW_AT_TI_symbol_name("_CPUSYSLOCK2")
    3814                      .dwattr $C$DW$258, DW_AT_data_member_location[DW_OP_plus_uconst 0x2]
    3815                      .dwattr $C$DW$258, DW_AT_accessibility(DW_ACCESS_public)
    3816              
    3817              $C$DW$259       .dwtag  DW_TAG_member
    3818                      .dwattr $C$DW$259, DW_AT_type(*$C$DW$T$40)
    3819                      .dwattr $C$DW$259, DW_AT_name("rsvd1")
    3820                      .dwattr $C$DW$259, DW_AT_TI_symbol_name("_rsvd1")
    3821                      .dwattr $C$DW$259, DW_AT_data_member_location[DW_OP_plus_uconst 0x4]
    3822                      .dwattr $C$DW$259, DW_AT_accessibility(DW_ACCESS_public)
    3823              
    3824              $C$DW$260       .dwtag  DW_TAG_member
    3825                      .dwattr $C$DW$260, DW_AT_type(*$C$DW$T$175)
    3826                      .dwattr $C$DW$260, DW_AT_name("PIEVERRADDR")
    3827                      .dwattr $C$DW$260, DW_AT_TI_symbol_name("_PIEVERRADDR")
    3828                      .dwattr $C$DW$260, DW_AT_data_member_location[DW_OP_plus_uconst 0xa]
    3829                      .dwattr $C$DW$260, DW_AT_accessibility(DW_ACCESS_public)
    3830              
    3831              $C$DW$261       .dwtag  DW_TAG_member
    3832                      .dwattr $C$DW$261, DW_AT_type(*$C$DW$T$46)
    3833                      .dwattr $C$DW$261, DW_AT_name("rsvd2")
    3834                      .dwattr $C$DW$261, DW_AT_TI_symbol_name("_rsvd2")
    3835                      .dwattr $C$DW$261, DW_AT_data_member_location[DW_OP_plus_uconst 0xc]
    3836                      .dwattr $C$DW$261, DW_AT_accessibility(DW_ACCESS_public)
    3837              
    3838              $C$DW$262       .dwtag  DW_TAG_member
    3839                      .dwattr $C$DW$262, DW_AT_type(*$C$DW$T$135)
    3840                      .dwattr $C$DW$262, DW_AT_name("PCLKCR0")
    3841                      .dwattr $C$DW$262, DW_AT_TI_symbol_name("_PCLKCR0")
    3842                      .dwattr $C$DW$262, DW_AT_data_member_location[DW_OP_plus_uconst 0x22]
    3843                      .dwattr $C$DW$262, DW_AT_accessibility(DW_ACCESS_public)
    3844              
    3845              $C$DW$263       .dwtag  DW_TAG_member
    3846                      .dwattr $C$DW$263, DW_AT_type(*$C$DW$T$37)
    3847                      .dwattr $C$DW$263, DW_AT_name("rsvd3")
    3848                      .dwattr $C$DW$263, DW_AT_TI_symbol_name("_rsvd3")
    3849                      .dwattr $C$DW$263, DW_AT_data_member_location[DW_OP_plus_uconst 0x24]
    3850                      .dwattr $C$DW$263, DW_AT_accessibility(DW_ACCESS_public)
    3851              
    3852              $C$DW$264       .dwtag  DW_TAG_member
    3853                      .dwattr $C$DW$264, DW_AT_type(*$C$DW$T$161)
    3854                      .dwattr $C$DW$264, DW_AT_name("PCLKCR2")
    3855                      .dwattr $C$DW$264, DW_AT_TI_symbol_name("_PCLKCR2")
    3856                      .dwattr $C$DW$264, DW_AT_data_member_location[DW_OP_plus_uconst 0x26]
    3857                      .dwattr $C$DW$264, DW_AT_accessibility(DW_ACCESS_public)
    3858              
TMS320C2000 Assembler PC v22.6.1 Wed May 21 09:51:55 2025

Copyright (c) 1996-2018 Texas Instruments Incorporated
C:\Users\Daniel\AppData\Local\Temp\{78ED34F4-3C3B-4D89-8F5D-B64BD43A86E6} PAGE   75

    3859              $C$DW$265       .dwtag  DW_TAG_member
    3860                      .dwattr $C$DW$265, DW_AT_type(*$C$DW$T$163)
    3861                      .dwattr $C$DW$265, DW_AT_name("PCLKCR3")
    3862                      .dwattr $C$DW$265, DW_AT_TI_symbol_name("_PCLKCR3")
    3863                      .dwattr $C$DW$265, DW_AT_data_member_location[DW_OP_plus_uconst 0x28]
    3864                      .dwattr $C$DW$265, DW_AT_accessibility(DW_ACCESS_public)
    3865              
    3866              $C$DW$266       .dwtag  DW_TAG_member
    3867                      .dwattr $C$DW$266, DW_AT_type(*$C$DW$T$165)
    3868                      .dwattr $C$DW$266, DW_AT_name("PCLKCR4")
    3869                      .dwattr $C$DW$266, DW_AT_TI_symbol_name("_PCLKCR4")
    3870                      .dwattr $C$DW$266, DW_AT_data_member_location[DW_OP_plus_uconst 0x2a]
    3871                      .dwattr $C$DW$266, DW_AT_accessibility(DW_ACCESS_public)
    3872              
    3873              $C$DW$267       .dwtag  DW_TAG_member
    3874                      .dwattr $C$DW$267, DW_AT_type(*$C$DW$T$37)
    3875                      .dwattr $C$DW$267, DW_AT_name("rsvd4")
    3876                      .dwattr $C$DW$267, DW_AT_TI_symbol_name("_rsvd4")
    3877                      .dwattr $C$DW$267, DW_AT_data_member_location[DW_OP_plus_uconst 0x2c]
    3878                      .dwattr $C$DW$267, DW_AT_accessibility(DW_ACCESS_public)
    3879              
    3880              $C$DW$268       .dwtag  DW_TAG_member
    3881                      .dwattr $C$DW$268, DW_AT_type(*$C$DW$T$167)
    3882                      .dwattr $C$DW$268, DW_AT_name("PCLKCR6")
    3883                      .dwattr $C$DW$268, DW_AT_TI_symbol_name("_PCLKCR6")
    3884                      .dwattr $C$DW$268, DW_AT_data_member_location[DW_OP_plus_uconst 0x2e]
    3885                      .dwattr $C$DW$268, DW_AT_accessibility(DW_ACCESS_public)
    3886              
    3887              $C$DW$269       .dwtag  DW_TAG_member
    3888                      .dwattr $C$DW$269, DW_AT_type(*$C$DW$T$169)
    3889                      .dwattr $C$DW$269, DW_AT_name("PCLKCR7")
    3890                      .dwattr $C$DW$269, DW_AT_TI_symbol_name("_PCLKCR7")
    3891                      .dwattr $C$DW$269, DW_AT_data_member_location[DW_OP_plus_uconst 0x30]
    3892                      .dwattr $C$DW$269, DW_AT_accessibility(DW_ACCESS_public)
    3893              
    3894              $C$DW$270       .dwtag  DW_TAG_member
    3895                      .dwattr $C$DW$270, DW_AT_type(*$C$DW$T$171)
    3896                      .dwattr $C$DW$270, DW_AT_name("PCLKCR8")
    3897                      .dwattr $C$DW$270, DW_AT_TI_symbol_name("_PCLKCR8")
    3898                      .dwattr $C$DW$270, DW_AT_data_member_location[DW_OP_plus_uconst 0x32]
    3899                      .dwattr $C$DW$270, DW_AT_accessibility(DW_ACCESS_public)
    3900              
    3901              $C$DW$271       .dwtag  DW_TAG_member
    3902                      .dwattr $C$DW$271, DW_AT_type(*$C$DW$T$173)
    3903                      .dwattr $C$DW$271, DW_AT_name("PCLKCR9")
    3904                      .dwattr $C$DW$271, DW_AT_TI_symbol_name("_PCLKCR9")
    3905                      .dwattr $C$DW$271, DW_AT_data_member_location[DW_OP_plus_uconst 0x34]
    3906                      .dwattr $C$DW$271, DW_AT_accessibility(DW_ACCESS_public)
    3907              
    3908              $C$DW$272       .dwtag  DW_TAG_member
    3909                      .dwattr $C$DW$272, DW_AT_type(*$C$DW$T$137)
    3910                      .dwattr $C$DW$272, DW_AT_name("PCLKCR10")
    3911                      .dwattr $C$DW$272, DW_AT_TI_symbol_name("_PCLKCR10")
    3912                      .dwattr $C$DW$272, DW_AT_data_member_location[DW_OP_plus_uconst 0x36]
    3913                      .dwattr $C$DW$272, DW_AT_accessibility(DW_ACCESS_public)
TMS320C2000 Assembler PC v22.6.1 Wed May 21 09:51:55 2025

Copyright (c) 1996-2018 Texas Instruments Incorporated
C:\Users\Daniel\AppData\Local\Temp\{78ED34F4-3C3B-4D89-8F5D-B64BD43A86E6} PAGE   76

    3914              
    3915              $C$DW$273       .dwtag  DW_TAG_member
    3916                      .dwattr $C$DW$273, DW_AT_type(*$C$DW$T$38)
    3917                      .dwattr $C$DW$273, DW_AT_name("rsvd5")
    3918                      .dwattr $C$DW$273, DW_AT_TI_symbol_name("_rsvd5")
    3919                      .dwattr $C$DW$273, DW_AT_data_member_location[DW_OP_plus_uconst 0x38]
    3920                      .dwattr $C$DW$273, DW_AT_accessibility(DW_ACCESS_public)
    3921              
    3922              $C$DW$274       .dwtag  DW_TAG_member
    3923                      .dwattr $C$DW$274, DW_AT_type(*$C$DW$T$139)
    3924                      .dwattr $C$DW$274, DW_AT_name("PCLKCR13")
    3925                      .dwattr $C$DW$274, DW_AT_TI_symbol_name("_PCLKCR13")
    3926                      .dwattr $C$DW$274, DW_AT_data_member_location[DW_OP_plus_uconst 0x3c]
    3927                      .dwattr $C$DW$274, DW_AT_accessibility(DW_ACCESS_public)
    3928              
    3929              $C$DW$275       .dwtag  DW_TAG_member
    3930                      .dwattr $C$DW$275, DW_AT_type(*$C$DW$T$141)
    3931                      .dwattr $C$DW$275, DW_AT_name("PCLKCR14")
    3932                      .dwattr $C$DW$275, DW_AT_TI_symbol_name("_PCLKCR14")
    3933                      .dwattr $C$DW$275, DW_AT_data_member_location[DW_OP_plus_uconst 0x3e]
    3934                      .dwattr $C$DW$275, DW_AT_accessibility(DW_ACCESS_public)
    3935              
    3936              $C$DW$276       .dwtag  DW_TAG_member
    3937                      .dwattr $C$DW$276, DW_AT_type(*$C$DW$T$37)
    3938                      .dwattr $C$DW$276, DW_AT_name("rsvd6")
    3939                      .dwattr $C$DW$276, DW_AT_TI_symbol_name("_rsvd6")
    3940                      .dwattr $C$DW$276, DW_AT_data_member_location[DW_OP_plus_uconst 0x40]
    3941                      .dwattr $C$DW$276, DW_AT_accessibility(DW_ACCESS_public)
    3942              
    3943              $C$DW$277       .dwtag  DW_TAG_member
    3944                      .dwattr $C$DW$277, DW_AT_type(*$C$DW$T$143)
    3945                      .dwattr $C$DW$277, DW_AT_name("PCLKCR16")
    3946                      .dwattr $C$DW$277, DW_AT_TI_symbol_name("_PCLKCR16")
    3947                      .dwattr $C$DW$277, DW_AT_data_member_location[DW_OP_plus_uconst 0x42]
    3948                      .dwattr $C$DW$277, DW_AT_accessibility(DW_ACCESS_public)
    3949              
    3950              $C$DW$278       .dwtag  DW_TAG_member
    3951                      .dwattr $C$DW$278, DW_AT_type(*$C$DW$T$145)
    3952                      .dwattr $C$DW$278, DW_AT_name("PCLKCR17")
    3953                      .dwattr $C$DW$278, DW_AT_TI_symbol_name("_PCLKCR17")
    3954                      .dwattr $C$DW$278, DW_AT_data_member_location[DW_OP_plus_uconst 0x44]
    3955                      .dwattr $C$DW$278, DW_AT_accessibility(DW_ACCESS_public)
    3956              
    3957              $C$DW$279       .dwtag  DW_TAG_member
    3958                      .dwattr $C$DW$279, DW_AT_type(*$C$DW$T$147)
    3959                      .dwattr $C$DW$279, DW_AT_name("PCLKCR18")
    3960                      .dwattr $C$DW$279, DW_AT_TI_symbol_name("_PCLKCR18")
    3961                      .dwattr $C$DW$279, DW_AT_data_member_location[DW_OP_plus_uconst 0x46]
    3962                      .dwattr $C$DW$279, DW_AT_accessibility(DW_ACCESS_public)
    3963              
    3964              $C$DW$280       .dwtag  DW_TAG_member
    3965                      .dwattr $C$DW$280, DW_AT_type(*$C$DW$T$149)
    3966                      .dwattr $C$DW$280, DW_AT_name("PCLKCR19")
    3967                      .dwattr $C$DW$280, DW_AT_TI_symbol_name("_PCLKCR19")
    3968                      .dwattr $C$DW$280, DW_AT_data_member_location[DW_OP_plus_uconst 0x48]
TMS320C2000 Assembler PC v22.6.1 Wed May 21 09:51:55 2025

Copyright (c) 1996-2018 Texas Instruments Incorporated
C:\Users\Daniel\AppData\Local\Temp\{78ED34F4-3C3B-4D89-8F5D-B64BD43A86E6} PAGE   77

    3969                      .dwattr $C$DW$280, DW_AT_accessibility(DW_ACCESS_public)
    3970              
    3971              $C$DW$281       .dwtag  DW_TAG_member
    3972                      .dwattr $C$DW$281, DW_AT_type(*$C$DW$T$151)
    3973                      .dwattr $C$DW$281, DW_AT_name("PCLKCR20")
    3974                      .dwattr $C$DW$281, DW_AT_TI_symbol_name("_PCLKCR20")
    3975                      .dwattr $C$DW$281, DW_AT_data_member_location[DW_OP_plus_uconst 0x4a]
    3976                      .dwattr $C$DW$281, DW_AT_accessibility(DW_ACCESS_public)
    3977              
    3978              $C$DW$282       .dwtag  DW_TAG_member
    3979                      .dwattr $C$DW$282, DW_AT_type(*$C$DW$T$153)
    3980                      .dwattr $C$DW$282, DW_AT_name("PCLKCR21")
    3981                      .dwattr $C$DW$282, DW_AT_TI_symbol_name("_PCLKCR21")
    3982                      .dwattr $C$DW$282, DW_AT_data_member_location[DW_OP_plus_uconst 0x4c]
    3983                      .dwattr $C$DW$282, DW_AT_accessibility(DW_ACCESS_public)
    3984              
    3985              $C$DW$283       .dwtag  DW_TAG_member
    3986                      .dwattr $C$DW$283, DW_AT_type(*$C$DW$T$40)
    3987                      .dwattr $C$DW$283, DW_AT_name("rsvd7")
    3988                      .dwattr $C$DW$283, DW_AT_TI_symbol_name("_rsvd7")
    3989                      .dwattr $C$DW$283, DW_AT_data_member_location[DW_OP_plus_uconst 0x4e]
    3990                      .dwattr $C$DW$283, DW_AT_accessibility(DW_ACCESS_public)
    3991              
    3992              $C$DW$284       .dwtag  DW_TAG_member
    3993                      .dwattr $C$DW$284, DW_AT_type(*$C$DW$T$155)
    3994                      .dwattr $C$DW$284, DW_AT_name("PCLKCR25")
    3995                      .dwattr $C$DW$284, DW_AT_TI_symbol_name("_PCLKCR25")
    3996                      .dwattr $C$DW$284, DW_AT_data_member_location[DW_OP_plus_uconst 0x54]
    3997                      .dwattr $C$DW$284, DW_AT_accessibility(DW_ACCESS_public)
    3998              
    3999              $C$DW$285       .dwtag  DW_TAG_member
    4000                      .dwattr $C$DW$285, DW_AT_type(*$C$DW$T$157)
    4001                      .dwattr $C$DW$285, DW_AT_name("PCLKCR26")
    4002                      .dwattr $C$DW$285, DW_AT_TI_symbol_name("_PCLKCR26")
    4003                      .dwattr $C$DW$285, DW_AT_data_member_location[DW_OP_plus_uconst 0x56]
    4004                      .dwattr $C$DW$285, DW_AT_accessibility(DW_ACCESS_public)
    4005              
    4006              $C$DW$286       .dwtag  DW_TAG_member
    4007                      .dwattr $C$DW$286, DW_AT_type(*$C$DW$T$159)
    4008                      .dwattr $C$DW$286, DW_AT_name("PCLKCR27")
    4009                      .dwattr $C$DW$286, DW_AT_TI_symbol_name("_PCLKCR27")
    4010                      .dwattr $C$DW$286, DW_AT_data_member_location[DW_OP_plus_uconst 0x58]
    4011                      .dwattr $C$DW$286, DW_AT_accessibility(DW_ACCESS_public)
    4012              
    4013              $C$DW$287       .dwtag  DW_TAG_member
    4014                      .dwattr $C$DW$287, DW_AT_type(*$C$DW$T$46)
    4015                      .dwattr $C$DW$287, DW_AT_name("rsvd8")
    4016                      .dwattr $C$DW$287, DW_AT_TI_symbol_name("_rsvd8")
    4017                      .dwattr $C$DW$287, DW_AT_data_member_location[DW_OP_plus_uconst 0x5a]
    4018                      .dwattr $C$DW$287, DW_AT_accessibility(DW_ACCESS_public)
    4019              
    4020              $C$DW$288       .dwtag  DW_TAG_member
    4021                      .dwattr $C$DW$288, DW_AT_type(*$C$DW$T$183)
    4022                      .dwattr $C$DW$288, DW_AT_name("SIMRESET")
    4023                      .dwattr $C$DW$288, DW_AT_TI_symbol_name("_SIMRESET")
TMS320C2000 Assembler PC v22.6.1 Wed May 21 09:51:55 2025

Copyright (c) 1996-2018 Texas Instruments Incorporated
C:\Users\Daniel\AppData\Local\Temp\{78ED34F4-3C3B-4D89-8F5D-B64BD43A86E6} PAGE   78

    4024                      .dwattr $C$DW$288, DW_AT_data_member_location[DW_OP_plus_uconst 0x70]
    4025                      .dwattr $C$DW$288, DW_AT_accessibility(DW_ACCESS_public)
    4026              
    4027              $C$DW$289       .dwtag  DW_TAG_member
    4028                      .dwattr $C$DW$289, DW_AT_type(*$C$DW$T$38)
    4029                      .dwattr $C$DW$289, DW_AT_name("rsvd9")
    4030                      .dwattr $C$DW$289, DW_AT_TI_symbol_name("_rsvd9")
    4031                      .dwattr $C$DW$289, DW_AT_data_member_location[DW_OP_plus_uconst 0x72]
    4032                      .dwattr $C$DW$289, DW_AT_accessibility(DW_ACCESS_public)
    4033              
    4034              $C$DW$290       .dwtag  DW_TAG_member
    4035                      .dwattr $C$DW$290, DW_AT_type(*$C$DW$T$127)
    4036                      .dwattr $C$DW$290, DW_AT_name("LPMCR")
    4037                      .dwattr $C$DW$290, DW_AT_TI_symbol_name("_LPMCR")
    4038                      .dwattr $C$DW$290, DW_AT_data_member_location[DW_OP_plus_uconst 0x76]
    4039                      .dwattr $C$DW$290, DW_AT_accessibility(DW_ACCESS_public)
    4040              
    4041              $C$DW$291       .dwtag  DW_TAG_member
    4042                      .dwattr $C$DW$291, DW_AT_type(*$C$DW$T$121)
    4043                      .dwattr $C$DW$291, DW_AT_name("GPIOLPMSEL0")
    4044                      .dwattr $C$DW$291, DW_AT_TI_symbol_name("_GPIOLPMSEL0")
    4045                      .dwattr $C$DW$291, DW_AT_data_member_location[DW_OP_plus_uconst 0x78]
    4046                      .dwattr $C$DW$291, DW_AT_accessibility(DW_ACCESS_public)
    4047              
    4048              $C$DW$292       .dwtag  DW_TAG_member
    4049                      .dwattr $C$DW$292, DW_AT_type(*$C$DW$T$123)
    4050                      .dwattr $C$DW$292, DW_AT_name("GPIOLPMSEL1")
    4051                      .dwattr $C$DW$292, DW_AT_TI_symbol_name("_GPIOLPMSEL1")
    4052                      .dwattr $C$DW$292, DW_AT_data_member_location[DW_OP_plus_uconst 0x7a]
    4053                      .dwattr $C$DW$292, DW_AT_accessibility(DW_ACCESS_public)
    4054              
    4055              $C$DW$293       .dwtag  DW_TAG_member
    4056                      .dwattr $C$DW$293, DW_AT_type(*$C$DW$T$193)
    4057                      .dwattr $C$DW$293, DW_AT_name("TMR2CLKCTL")
    4058                      .dwattr $C$DW$293, DW_AT_TI_symbol_name("_TMR2CLKCTL")
    4059                      .dwattr $C$DW$293, DW_AT_data_member_location[DW_OP_plus_uconst 0x7c]
    4060                      .dwattr $C$DW$293, DW_AT_accessibility(DW_ACCESS_public)
    4061              
    4062              $C$DW$294       .dwtag  DW_TAG_member
    4063                      .dwattr $C$DW$294, DW_AT_type(*$C$DW$T$177)
    4064                      .dwattr $C$DW$294, DW_AT_name("RESCCLR")
    4065                      .dwattr $C$DW$294, DW_AT_TI_symbol_name("_RESCCLR")
    4066                      .dwattr $C$DW$294, DW_AT_data_member_location[DW_OP_plus_uconst 0x7e]
    4067                      .dwattr $C$DW$294, DW_AT_accessibility(DW_ACCESS_public)
    4068              
    4069              $C$DW$295       .dwtag  DW_TAG_member
    4070                      .dwattr $C$DW$295, DW_AT_type(*$C$DW$T$179)
    4071                      .dwattr $C$DW$295, DW_AT_name("RESC")
    4072                      .dwattr $C$DW$295, DW_AT_TI_symbol_name("_RESC")
    4073                      .dwattr $C$DW$295, DW_AT_data_member_location[DW_OP_plus_uconst 0x80]
    4074                      .dwattr $C$DW$295, DW_AT_accessibility(DW_ACCESS_public)
    4075              
    4076              $C$DW$296       .dwtag  DW_TAG_member
    4077                      .dwattr $C$DW$296, DW_AT_type(*$C$DW$T$46)
    4078                      .dwattr $C$DW$296, DW_AT_name("rsvd10")
TMS320C2000 Assembler PC v22.6.1 Wed May 21 09:51:55 2025

Copyright (c) 1996-2018 Texas Instruments Incorporated
C:\Users\Daniel\AppData\Local\Temp\{78ED34F4-3C3B-4D89-8F5D-B64BD43A86E6} PAGE   79

    4079                      .dwattr $C$DW$296, DW_AT_TI_symbol_name("_rsvd10")
    4080                      .dwattr $C$DW$296, DW_AT_data_member_location[DW_OP_plus_uconst 0x82]
    4081                      .dwattr $C$DW$296, DW_AT_accessibility(DW_ACCESS_public)
    4082              
    4083              $C$DW$297       .dwtag  DW_TAG_member
    4084                      .dwattr $C$DW$297, DW_AT_type(*$C$DW$T$131)
    4085                      .dwattr $C$DW$297, DW_AT_name("MCANWAKESTATUS")
    4086                      .dwattr $C$DW$297, DW_AT_TI_symbol_name("_MCANWAKESTATUS")
    4087                      .dwattr $C$DW$297, DW_AT_data_member_location[DW_OP_plus_uconst 0x98]
    4088                      .dwattr $C$DW$297, DW_AT_accessibility(DW_ACCESS_public)
    4089              
    4090              $C$DW$298       .dwtag  DW_TAG_member
    4091                      .dwattr $C$DW$298, DW_AT_type(*$C$DW$T$129)
    4092                      .dwattr $C$DW$298, DW_AT_name("MCANWAKESTATUSCLR")
    4093                      .dwattr $C$DW$298, DW_AT_TI_symbol_name("_MCANWAKESTATUSCLR")
    4094                      .dwattr $C$DW$298, DW_AT_data_member_location[DW_OP_plus_uconst 0x9a]
    4095                      .dwattr $C$DW$298, DW_AT_accessibility(DW_ACCESS_public)
    4096              
    4097              $C$DW$299       .dwtag  DW_TAG_member
    4098                      .dwattr $C$DW$299, DW_AT_type(*$C$DW$T$36)
    4099                      .dwattr $C$DW$299, DW_AT_name("CLKSTOPREQ")
    4100                      .dwattr $C$DW$299, DW_AT_TI_symbol_name("_CLKSTOPREQ")
    4101                      .dwattr $C$DW$299, DW_AT_data_member_location[DW_OP_plus_uconst 0x9c]
    4102                      .dwattr $C$DW$299, DW_AT_accessibility(DW_ACCESS_public)
    4103              
    4104              $C$DW$300       .dwtag  DW_TAG_member
    4105                      .dwattr $C$DW$300, DW_AT_type(*$C$DW$T$34)
    4106                      .dwattr $C$DW$300, DW_AT_name("CLKSTOPACK")
    4107                      .dwattr $C$DW$300, DW_AT_TI_symbol_name("_CLKSTOPACK")
    4108                      .dwattr $C$DW$300, DW_AT_data_member_location[DW_OP_plus_uconst 0x9e]
    4109                      .dwattr $C$DW$300, DW_AT_accessibility(DW_ACCESS_public)
    4110              
    4111                      .dwendtag $C$DW$T$47
    4112              
    4113              $C$DW$301       .dwtag  DW_TAG_TI_far_type
    4114                      .dwattr $C$DW$301, DW_AT_type(*$C$DW$T$47)
    4115              
    4116              $C$DW$T$217     .dwtag  DW_TAG_volatile_type
    4117                      .dwattr $C$DW$T$217, DW_AT_type(*$C$DW$301)
    4118              
    4119              
    4120              $C$DW$T$52      .dwtag  DW_TAG_structure_type
    4121                      .dwattr $C$DW$T$52, DW_AT_name("DCCCLKSRC0_BITS")
    4122                      .dwattr $C$DW$T$52, DW_AT_byte_size(0x04)
    4123              $C$DW$302       .dwtag  DW_TAG_member
    4124                      .dwattr $C$DW$302, DW_AT_type(*$C$DW$T$49)
    4125                      .dwattr $C$DW$302, DW_AT_name("CLKSRC0")
    4126                      .dwattr $C$DW$302, DW_AT_TI_symbol_name("_CLKSRC0")
    4127                      .dwattr $C$DW$302, DW_AT_bit_offset(0x1c)
    4128                      .dwattr $C$DW$302, DW_AT_bit_size(0x04)
    4129                      .dwattr $C$DW$302, DW_AT_data_member_location[DW_OP_plus_uconst 0x0]
    4130                      .dwattr $C$DW$302, DW_AT_accessibility(DW_ACCESS_public)
    4131              
    4132              $C$DW$303       .dwtag  DW_TAG_member
    4133                      .dwattr $C$DW$303, DW_AT_type(*$C$DW$T$49)
TMS320C2000 Assembler PC v22.6.1 Wed May 21 09:51:55 2025

Copyright (c) 1996-2018 Texas Instruments Incorporated
C:\Users\Daniel\AppData\Local\Temp\{78ED34F4-3C3B-4D89-8F5D-B64BD43A86E6} PAGE   80

    4134                      .dwattr $C$DW$303, DW_AT_name("rsvd1")
    4135                      .dwattr $C$DW$303, DW_AT_TI_symbol_name("_rsvd1")
    4136                      .dwattr $C$DW$303, DW_AT_bit_offset(0x14)
    4137                      .dwattr $C$DW$303, DW_AT_bit_size(0x08)
    4138                      .dwattr $C$DW$303, DW_AT_data_member_location[DW_OP_plus_uconst 0x0]
    4139                      .dwattr $C$DW$303, DW_AT_accessibility(DW_ACCESS_public)
    4140              
    4141              $C$DW$304       .dwtag  DW_TAG_member
    4142                      .dwattr $C$DW$304, DW_AT_type(*$C$DW$T$49)
    4143                      .dwattr $C$DW$304, DW_AT_name("KEY")
    4144                      .dwattr $C$DW$304, DW_AT_TI_symbol_name("_KEY")
    4145                      .dwattr $C$DW$304, DW_AT_bit_offset(0x10)
    4146                      .dwattr $C$DW$304, DW_AT_bit_size(0x04)
    4147                      .dwattr $C$DW$304, DW_AT_data_member_location[DW_OP_plus_uconst 0x0]
    4148                      .dwattr $C$DW$304, DW_AT_accessibility(DW_ACCESS_public)
    4149              
    4150              $C$DW$305       .dwtag  DW_TAG_member
    4151                      .dwattr $C$DW$305, DW_AT_type(*$C$DW$T$51)
    4152                      .dwattr $C$DW$305, DW_AT_name("rsvd2")
    4153                      .dwattr $C$DW$305, DW_AT_TI_symbol_name("_rsvd2")
    4154                      .dwattr $C$DW$305, DW_AT_bit_offset(0x20)
    4155                      .dwattr $C$DW$305, DW_AT_bit_size(0x10)
    4156                      .dwattr $C$DW$305, DW_AT_data_member_location[DW_OP_plus_uconst 0x0]
    4157                      .dwattr $C$DW$305, DW_AT_accessibility(DW_ACCESS_public)
    4158              
    4159                      .dwendtag $C$DW$T$52
    4160              
    4161              
    4162              $C$DW$T$53      .dwtag  DW_TAG_union_type
    4163                      .dwattr $C$DW$T$53, DW_AT_name("DCCCLKSRC0_REG")
    4164                      .dwattr $C$DW$T$53, DW_AT_byte_size(0x04)
    4165              $C$DW$306       .dwtag  DW_TAG_member
    4166                      .dwattr $C$DW$306, DW_AT_type(*$C$DW$T$51)
    4167                      .dwattr $C$DW$306, DW_AT_name("all")
    4168                      .dwattr $C$DW$306, DW_AT_TI_symbol_name("_all")
    4169                      .dwattr $C$DW$306, DW_AT_data_member_location[DW_OP_plus_uconst 0x0]
    4170                      .dwattr $C$DW$306, DW_AT_accessibility(DW_ACCESS_public)
    4171              
    4172              $C$DW$307       .dwtag  DW_TAG_member
    4173                      .dwattr $C$DW$307, DW_AT_type(*$C$DW$T$52)
    4174                      .dwattr $C$DW$307, DW_AT_name("bit")
    4175                      .dwattr $C$DW$307, DW_AT_TI_symbol_name("_bit")
    4176                      .dwattr $C$DW$307, DW_AT_data_member_location[DW_OP_plus_uconst 0x0]
    4177                      .dwattr $C$DW$307, DW_AT_accessibility(DW_ACCESS_public)
    4178              
    4179                      .dwendtag $C$DW$T$53
    4180              
    4181              
    4182              $C$DW$T$54      .dwtag  DW_TAG_structure_type
    4183                      .dwattr $C$DW$T$54, DW_AT_name("DCCCLKSRC1_BITS")
    4184                      .dwattr $C$DW$T$54, DW_AT_byte_size(0x04)
    4185              $C$DW$308       .dwtag  DW_TAG_member
    4186                      .dwattr $C$DW$308, DW_AT_type(*$C$DW$T$49)
    4187                      .dwattr $C$DW$308, DW_AT_name("CLKSRC1")
    4188                      .dwattr $C$DW$308, DW_AT_TI_symbol_name("_CLKSRC1")
TMS320C2000 Assembler PC v22.6.1 Wed May 21 09:51:55 2025

Copyright (c) 1996-2018 Texas Instruments Incorporated
C:\Users\Daniel\AppData\Local\Temp\{78ED34F4-3C3B-4D89-8F5D-B64BD43A86E6} PAGE   81

    4189                      .dwattr $C$DW$308, DW_AT_bit_offset(0x1b)
    4190                      .dwattr $C$DW$308, DW_AT_bit_size(0x05)
    4191                      .dwattr $C$DW$308, DW_AT_data_member_location[DW_OP_plus_uconst 0x0]
    4192                      .dwattr $C$DW$308, DW_AT_accessibility(DW_ACCESS_public)
    4193              
    4194              $C$DW$309       .dwtag  DW_TAG_member
    4195                      .dwattr $C$DW$309, DW_AT_type(*$C$DW$T$49)
    4196                      .dwattr $C$DW$309, DW_AT_name("rsvd1")
    4197                      .dwattr $C$DW$309, DW_AT_TI_symbol_name("_rsvd1")
    4198                      .dwattr $C$DW$309, DW_AT_bit_offset(0x14)
    4199                      .dwattr $C$DW$309, DW_AT_bit_size(0x07)
    4200                      .dwattr $C$DW$309, DW_AT_data_member_location[DW_OP_plus_uconst 0x0]
    4201                      .dwattr $C$DW$309, DW_AT_accessibility(DW_ACCESS_public)
    4202              
    4203              $C$DW$310       .dwtag  DW_TAG_member
    4204                      .dwattr $C$DW$310, DW_AT_type(*$C$DW$T$49)
    4205                      .dwattr $C$DW$310, DW_AT_name("KEY")
    4206                      .dwattr $C$DW$310, DW_AT_TI_symbol_name("_KEY")
    4207                      .dwattr $C$DW$310, DW_AT_bit_offset(0x10)
    4208                      .dwattr $C$DW$310, DW_AT_bit_size(0x04)
    4209                      .dwattr $C$DW$310, DW_AT_data_member_location[DW_OP_plus_uconst 0x0]
    4210                      .dwattr $C$DW$310, DW_AT_accessibility(DW_ACCESS_public)
    4211              
    4212              $C$DW$311       .dwtag  DW_TAG_member
    4213                      .dwattr $C$DW$311, DW_AT_type(*$C$DW$T$51)
    4214                      .dwattr $C$DW$311, DW_AT_name("rsvd2")
    4215                      .dwattr $C$DW$311, DW_AT_TI_symbol_name("_rsvd2")
    4216                      .dwattr $C$DW$311, DW_AT_bit_offset(0x20)
    4217                      .dwattr $C$DW$311, DW_AT_bit_size(0x10)
    4218                      .dwattr $C$DW$311, DW_AT_data_member_location[DW_OP_plus_uconst 0x0]
    4219                      .dwattr $C$DW$311, DW_AT_accessibility(DW_ACCESS_public)
    4220              
    4221                      .dwendtag $C$DW$T$54
    4222              
    4223              
    4224              $C$DW$T$55      .dwtag  DW_TAG_union_type
    4225                      .dwattr $C$DW$T$55, DW_AT_name("DCCCLKSRC1_REG")
    4226                      .dwattr $C$DW$T$55, DW_AT_byte_size(0x04)
    4227              $C$DW$312       .dwtag  DW_TAG_member
    4228                      .dwattr $C$DW$312, DW_AT_type(*$C$DW$T$51)
    4229                      .dwattr $C$DW$312, DW_AT_name("all")
    4230                      .dwattr $C$DW$312, DW_AT_TI_symbol_name("_all")
    4231                      .dwattr $C$DW$312, DW_AT_data_member_location[DW_OP_plus_uconst 0x0]
    4232                      .dwattr $C$DW$312, DW_AT_accessibility(DW_ACCESS_public)
    4233              
    4234              $C$DW$313       .dwtag  DW_TAG_member
    4235                      .dwattr $C$DW$313, DW_AT_type(*$C$DW$T$54)
    4236                      .dwattr $C$DW$313, DW_AT_name("bit")
    4237                      .dwattr $C$DW$313, DW_AT_TI_symbol_name("_bit")
    4238                      .dwattr $C$DW$313, DW_AT_data_member_location[DW_OP_plus_uconst 0x0]
    4239                      .dwattr $C$DW$313, DW_AT_accessibility(DW_ACCESS_public)
    4240              
    4241                      .dwendtag $C$DW$T$55
    4242              
    4243              
TMS320C2000 Assembler PC v22.6.1 Wed May 21 09:51:55 2025

Copyright (c) 1996-2018 Texas Instruments Incorporated
C:\Users\Daniel\AppData\Local\Temp\{78ED34F4-3C3B-4D89-8F5D-B64BD43A86E6} PAGE   82

    4244              $C$DW$T$56      .dwtag  DW_TAG_structure_type
    4245                      .dwattr $C$DW$T$56, DW_AT_name("DCCCNT0_BITS")
    4246                      .dwattr $C$DW$T$56, DW_AT_byte_size(0x04)
    4247              $C$DW$314       .dwtag  DW_TAG_member
    4248                      .dwattr $C$DW$314, DW_AT_type(*$C$DW$T$51)
    4249                      .dwattr $C$DW$314, DW_AT_name("COUNT0")
    4250                      .dwattr $C$DW$314, DW_AT_TI_symbol_name("_COUNT0")
    4251                      .dwattr $C$DW$314, DW_AT_bit_offset(0x2c)
    4252                      .dwattr $C$DW$314, DW_AT_bit_size(0x14)
    4253                      .dwattr $C$DW$314, DW_AT_data_member_location[DW_OP_plus_uconst 0x0]
    4254                      .dwattr $C$DW$314, DW_AT_accessibility(DW_ACCESS_public)
    4255              
    4256              $C$DW$315       .dwtag  DW_TAG_member
    4257                      .dwattr $C$DW$315, DW_AT_type(*$C$DW$T$51)
    4258                      .dwattr $C$DW$315, DW_AT_name("rsvd1")
    4259                      .dwattr $C$DW$315, DW_AT_TI_symbol_name("_rsvd1")
    4260                      .dwattr $C$DW$315, DW_AT_bit_offset(0x20)
    4261                      .dwattr $C$DW$315, DW_AT_bit_size(0x0c)
    4262                      .dwattr $C$DW$315, DW_AT_data_member_location[DW_OP_plus_uconst 0x0]
    4263                      .dwattr $C$DW$315, DW_AT_accessibility(DW_ACCESS_public)
    4264              
    4265                      .dwendtag $C$DW$T$56
    4266              
    4267              
    4268              $C$DW$T$57      .dwtag  DW_TAG_union_type
    4269                      .dwattr $C$DW$T$57, DW_AT_name("DCCCNT0_REG")
    4270                      .dwattr $C$DW$T$57, DW_AT_byte_size(0x04)
    4271              $C$DW$316       .dwtag  DW_TAG_member
    4272                      .dwattr $C$DW$316, DW_AT_type(*$C$DW$T$51)
    4273                      .dwattr $C$DW$316, DW_AT_name("all")
    4274                      .dwattr $C$DW$316, DW_AT_TI_symbol_name("_all")
    4275                      .dwattr $C$DW$316, DW_AT_data_member_location[DW_OP_plus_uconst 0x0]
    4276                      .dwattr $C$DW$316, DW_AT_accessibility(DW_ACCESS_public)
    4277              
    4278              $C$DW$317       .dwtag  DW_TAG_member
    4279                      .dwattr $C$DW$317, DW_AT_type(*$C$DW$T$56)
    4280                      .dwattr $C$DW$317, DW_AT_name("bit")
    4281                      .dwattr $C$DW$317, DW_AT_TI_symbol_name("_bit")
    4282                      .dwattr $C$DW$317, DW_AT_data_member_location[DW_OP_plus_uconst 0x0]
    4283                      .dwattr $C$DW$317, DW_AT_accessibility(DW_ACCESS_public)
    4284              
    4285                      .dwendtag $C$DW$T$57
    4286              
    4287              
    4288              $C$DW$T$58      .dwtag  DW_TAG_structure_type
    4289                      .dwattr $C$DW$T$58, DW_AT_name("DCCCNT1_BITS")
    4290                      .dwattr $C$DW$T$58, DW_AT_byte_size(0x04)
    4291              $C$DW$318       .dwtag  DW_TAG_member
    4292                      .dwattr $C$DW$318, DW_AT_type(*$C$DW$T$51)
    4293                      .dwattr $C$DW$318, DW_AT_name("COUNT1")
    4294                      .dwattr $C$DW$318, DW_AT_TI_symbol_name("_COUNT1")
    4295                      .dwattr $C$DW$318, DW_AT_bit_offset(0x2c)
    4296                      .dwattr $C$DW$318, DW_AT_bit_size(0x14)
    4297                      .dwattr $C$DW$318, DW_AT_data_member_location[DW_OP_plus_uconst 0x0]
    4298                      .dwattr $C$DW$318, DW_AT_accessibility(DW_ACCESS_public)
TMS320C2000 Assembler PC v22.6.1 Wed May 21 09:51:55 2025

Copyright (c) 1996-2018 Texas Instruments Incorporated
C:\Users\Daniel\AppData\Local\Temp\{78ED34F4-3C3B-4D89-8F5D-B64BD43A86E6} PAGE   83

    4299              
    4300              $C$DW$319       .dwtag  DW_TAG_member
    4301                      .dwattr $C$DW$319, DW_AT_type(*$C$DW$T$51)
    4302                      .dwattr $C$DW$319, DW_AT_name("rsvd1")
    4303                      .dwattr $C$DW$319, DW_AT_TI_symbol_name("_rsvd1")
    4304                      .dwattr $C$DW$319, DW_AT_bit_offset(0x20)
    4305                      .dwattr $C$DW$319, DW_AT_bit_size(0x0c)
    4306                      .dwattr $C$DW$319, DW_AT_data_member_location[DW_OP_plus_uconst 0x0]
    4307                      .dwattr $C$DW$319, DW_AT_accessibility(DW_ACCESS_public)
    4308              
    4309                      .dwendtag $C$DW$T$58
    4310              
    4311              
    4312              $C$DW$T$59      .dwtag  DW_TAG_union_type
    4313                      .dwattr $C$DW$T$59, DW_AT_name("DCCCNT1_REG")
    4314                      .dwattr $C$DW$T$59, DW_AT_byte_size(0x04)
    4315              $C$DW$320       .dwtag  DW_TAG_member
    4316                      .dwattr $C$DW$320, DW_AT_type(*$C$DW$T$51)
    4317                      .dwattr $C$DW$320, DW_AT_name("all")
    4318                      .dwattr $C$DW$320, DW_AT_TI_symbol_name("_all")
    4319                      .dwattr $C$DW$320, DW_AT_data_member_location[DW_OP_plus_uconst 0x0]
    4320                      .dwattr $C$DW$320, DW_AT_accessibility(DW_ACCESS_public)
    4321              
    4322              $C$DW$321       .dwtag  DW_TAG_member
    4323                      .dwattr $C$DW$321, DW_AT_type(*$C$DW$T$58)
    4324                      .dwattr $C$DW$321, DW_AT_name("bit")
    4325                      .dwattr $C$DW$321, DW_AT_TI_symbol_name("_bit")
    4326                      .dwattr $C$DW$321, DW_AT_data_member_location[DW_OP_plus_uconst 0x0]
    4327                      .dwattr $C$DW$321, DW_AT_accessibility(DW_ACCESS_public)
    4328              
    4329                      .dwendtag $C$DW$T$59
    4330              
    4331              
    4332              $C$DW$T$60      .dwtag  DW_TAG_structure_type
    4333                      .dwattr $C$DW$T$60, DW_AT_name("DCCCNTSEED0_BITS")
    4334                      .dwattr $C$DW$T$60, DW_AT_byte_size(0x04)
    4335              $C$DW$322       .dwtag  DW_TAG_member
    4336                      .dwattr $C$DW$322, DW_AT_type(*$C$DW$T$51)
    4337                      .dwattr $C$DW$322, DW_AT_name("COUNTSEED0")
    4338                      .dwattr $C$DW$322, DW_AT_TI_symbol_name("_COUNTSEED0")
    4339                      .dwattr $C$DW$322, DW_AT_bit_offset(0x2c)
    4340                      .dwattr $C$DW$322, DW_AT_bit_size(0x14)
    4341                      .dwattr $C$DW$322, DW_AT_data_member_location[DW_OP_plus_uconst 0x0]
    4342                      .dwattr $C$DW$322, DW_AT_accessibility(DW_ACCESS_public)
    4343              
    4344              $C$DW$323       .dwtag  DW_TAG_member
    4345                      .dwattr $C$DW$323, DW_AT_type(*$C$DW$T$51)
    4346                      .dwattr $C$DW$323, DW_AT_name("rsvd1")
    4347                      .dwattr $C$DW$323, DW_AT_TI_symbol_name("_rsvd1")
    4348                      .dwattr $C$DW$323, DW_AT_bit_offset(0x20)
    4349                      .dwattr $C$DW$323, DW_AT_bit_size(0x0c)
    4350                      .dwattr $C$DW$323, DW_AT_data_member_location[DW_OP_plus_uconst 0x0]
    4351                      .dwattr $C$DW$323, DW_AT_accessibility(DW_ACCESS_public)
    4352              
    4353                      .dwendtag $C$DW$T$60
TMS320C2000 Assembler PC v22.6.1 Wed May 21 09:51:55 2025

Copyright (c) 1996-2018 Texas Instruments Incorporated
C:\Users\Daniel\AppData\Local\Temp\{78ED34F4-3C3B-4D89-8F5D-B64BD43A86E6} PAGE   84

    4354              
    4355              
    4356              $C$DW$T$61      .dwtag  DW_TAG_union_type
    4357                      .dwattr $C$DW$T$61, DW_AT_name("DCCCNTSEED0_REG")
    4358                      .dwattr $C$DW$T$61, DW_AT_byte_size(0x04)
    4359              $C$DW$324       .dwtag  DW_TAG_member
    4360                      .dwattr $C$DW$324, DW_AT_type(*$C$DW$T$51)
    4361                      .dwattr $C$DW$324, DW_AT_name("all")
    4362                      .dwattr $C$DW$324, DW_AT_TI_symbol_name("_all")
    4363                      .dwattr $C$DW$324, DW_AT_data_member_location[DW_OP_plus_uconst 0x0]
    4364                      .dwattr $C$DW$324, DW_AT_accessibility(DW_ACCESS_public)
    4365              
    4366              $C$DW$325       .dwtag  DW_TAG_member
    4367                      .dwattr $C$DW$325, DW_AT_type(*$C$DW$T$60)
    4368                      .dwattr $C$DW$325, DW_AT_name("bit")
    4369                      .dwattr $C$DW$325, DW_AT_TI_symbol_name("_bit")
    4370                      .dwattr $C$DW$325, DW_AT_data_member_location[DW_OP_plus_uconst 0x0]
    4371                      .dwattr $C$DW$325, DW_AT_accessibility(DW_ACCESS_public)
    4372              
    4373                      .dwendtag $C$DW$T$61
    4374              
    4375              
    4376              $C$DW$T$62      .dwtag  DW_TAG_structure_type
    4377                      .dwattr $C$DW$T$62, DW_AT_name("DCCCNTSEED1_BITS")
    4378                      .dwattr $C$DW$T$62, DW_AT_byte_size(0x04)
    4379              $C$DW$326       .dwtag  DW_TAG_member
    4380                      .dwattr $C$DW$326, DW_AT_type(*$C$DW$T$51)
    4381                      .dwattr $C$DW$326, DW_AT_name("COUNTSEED1")
    4382                      .dwattr $C$DW$326, DW_AT_TI_symbol_name("_COUNTSEED1")
    4383                      .dwattr $C$DW$326, DW_AT_bit_offset(0x2c)
    4384                      .dwattr $C$DW$326, DW_AT_bit_size(0x14)
    4385                      .dwattr $C$DW$326, DW_AT_data_member_location[DW_OP_plus_uconst 0x0]
    4386                      .dwattr $C$DW$326, DW_AT_accessibility(DW_ACCESS_public)
    4387              
    4388              $C$DW$327       .dwtag  DW_TAG_member
    4389                      .dwattr $C$DW$327, DW_AT_type(*$C$DW$T$51)
    4390                      .dwattr $C$DW$327, DW_AT_name("rsvd1")
    4391                      .dwattr $C$DW$327, DW_AT_TI_symbol_name("_rsvd1")
    4392                      .dwattr $C$DW$327, DW_AT_bit_offset(0x20)
    4393                      .dwattr $C$DW$327, DW_AT_bit_size(0x0c)
    4394                      .dwattr $C$DW$327, DW_AT_data_member_location[DW_OP_plus_uconst 0x0]
    4395                      .dwattr $C$DW$327, DW_AT_accessibility(DW_ACCESS_public)
    4396              
    4397                      .dwendtag $C$DW$T$62
    4398              
    4399              
    4400              $C$DW$T$63      .dwtag  DW_TAG_union_type
    4401                      .dwattr $C$DW$T$63, DW_AT_name("DCCCNTSEED1_REG")
    4402                      .dwattr $C$DW$T$63, DW_AT_byte_size(0x04)
    4403              $C$DW$328       .dwtag  DW_TAG_member
    4404                      .dwattr $C$DW$328, DW_AT_type(*$C$DW$T$51)
    4405                      .dwattr $C$DW$328, DW_AT_name("all")
    4406                      .dwattr $C$DW$328, DW_AT_TI_symbol_name("_all")
    4407                      .dwattr $C$DW$328, DW_AT_data_member_location[DW_OP_plus_uconst 0x0]
    4408                      .dwattr $C$DW$328, DW_AT_accessibility(DW_ACCESS_public)
TMS320C2000 Assembler PC v22.6.1 Wed May 21 09:51:55 2025

Copyright (c) 1996-2018 Texas Instruments Incorporated
C:\Users\Daniel\AppData\Local\Temp\{78ED34F4-3C3B-4D89-8F5D-B64BD43A86E6} PAGE   85

    4409              
    4410              $C$DW$329       .dwtag  DW_TAG_member
    4411                      .dwattr $C$DW$329, DW_AT_type(*$C$DW$T$62)
    4412                      .dwattr $C$DW$329, DW_AT_name("bit")
    4413                      .dwattr $C$DW$329, DW_AT_TI_symbol_name("_bit")
    4414                      .dwattr $C$DW$329, DW_AT_data_member_location[DW_OP_plus_uconst 0x0]
    4415                      .dwattr $C$DW$329, DW_AT_accessibility(DW_ACCESS_public)
    4416              
    4417                      .dwendtag $C$DW$T$63
    4418              
    4419              
    4420              $C$DW$T$64      .dwtag  DW_TAG_structure_type
    4421                      .dwattr $C$DW$T$64, DW_AT_name("DCCGCTRL_BITS")
    4422                      .dwattr $C$DW$T$64, DW_AT_byte_size(0x04)
    4423              $C$DW$330       .dwtag  DW_TAG_member
    4424                      .dwattr $C$DW$330, DW_AT_type(*$C$DW$T$49)
    4425                      .dwattr $C$DW$330, DW_AT_name("DCCENA")
    4426                      .dwattr $C$DW$330, DW_AT_TI_symbol_name("_DCCENA")
    4427                      .dwattr $C$DW$330, DW_AT_bit_offset(0x1c)
    4428                      .dwattr $C$DW$330, DW_AT_bit_size(0x04)
    4429                      .dwattr $C$DW$330, DW_AT_data_member_location[DW_OP_plus_uconst 0x0]
    4430                      .dwattr $C$DW$330, DW_AT_accessibility(DW_ACCESS_public)
    4431              
    4432              $C$DW$331       .dwtag  DW_TAG_member
    4433                      .dwattr $C$DW$331, DW_AT_type(*$C$DW$T$49)
    4434                      .dwattr $C$DW$331, DW_AT_name("ERRENA")
    4435                      .dwattr $C$DW$331, DW_AT_TI_symbol_name("_ERRENA")
    4436                      .dwattr $C$DW$331, DW_AT_bit_offset(0x18)
    4437                      .dwattr $C$DW$331, DW_AT_bit_size(0x04)
    4438                      .dwattr $C$DW$331, DW_AT_data_member_location[DW_OP_plus_uconst 0x0]
    4439                      .dwattr $C$DW$331, DW_AT_accessibility(DW_ACCESS_public)
    4440              
    4441              $C$DW$332       .dwtag  DW_TAG_member
    4442                      .dwattr $C$DW$332, DW_AT_type(*$C$DW$T$49)
    4443                      .dwattr $C$DW$332, DW_AT_name("SINGLESHOT")
    4444                      .dwattr $C$DW$332, DW_AT_TI_symbol_name("_SINGLESHOT")
    4445                      .dwattr $C$DW$332, DW_AT_bit_offset(0x14)
    4446                      .dwattr $C$DW$332, DW_AT_bit_size(0x04)
    4447                      .dwattr $C$DW$332, DW_AT_data_member_location[DW_OP_plus_uconst 0x0]
    4448                      .dwattr $C$DW$332, DW_AT_accessibility(DW_ACCESS_public)
    4449              
    4450              $C$DW$333       .dwtag  DW_TAG_member
    4451                      .dwattr $C$DW$333, DW_AT_type(*$C$DW$T$49)
    4452                      .dwattr $C$DW$333, DW_AT_name("DONEENA")
    4453                      .dwattr $C$DW$333, DW_AT_TI_symbol_name("_DONEENA")
    4454                      .dwattr $C$DW$333, DW_AT_bit_offset(0x10)
    4455                      .dwattr $C$DW$333, DW_AT_bit_size(0x04)
    4456                      .dwattr $C$DW$333, DW_AT_data_member_location[DW_OP_plus_uconst 0x0]
    4457                      .dwattr $C$DW$333, DW_AT_accessibility(DW_ACCESS_public)
    4458              
    4459              $C$DW$334       .dwtag  DW_TAG_member
    4460                      .dwattr $C$DW$334, DW_AT_type(*$C$DW$T$51)
    4461                      .dwattr $C$DW$334, DW_AT_name("rsvd1")
    4462                      .dwattr $C$DW$334, DW_AT_TI_symbol_name("_rsvd1")
    4463                      .dwattr $C$DW$334, DW_AT_bit_offset(0x20)
TMS320C2000 Assembler PC v22.6.1 Wed May 21 09:51:55 2025

Copyright (c) 1996-2018 Texas Instruments Incorporated
C:\Users\Daniel\AppData\Local\Temp\{78ED34F4-3C3B-4D89-8F5D-B64BD43A86E6} PAGE   86

    4464                      .dwattr $C$DW$334, DW_AT_bit_size(0x10)
    4465                      .dwattr $C$DW$334, DW_AT_data_member_location[DW_OP_plus_uconst 0x0]
    4466                      .dwattr $C$DW$334, DW_AT_accessibility(DW_ACCESS_public)
    4467              
    4468                      .dwendtag $C$DW$T$64
    4469              
    4470              
    4471              $C$DW$T$65      .dwtag  DW_TAG_union_type
    4472                      .dwattr $C$DW$T$65, DW_AT_name("DCCGCTRL_REG")
    4473                      .dwattr $C$DW$T$65, DW_AT_byte_size(0x04)
    4474              $C$DW$335       .dwtag  DW_TAG_member
    4475                      .dwattr $C$DW$335, DW_AT_type(*$C$DW$T$51)
    4476                      .dwattr $C$DW$335, DW_AT_name("all")
    4477                      .dwattr $C$DW$335, DW_AT_TI_symbol_name("_all")
    4478                      .dwattr $C$DW$335, DW_AT_data_member_location[DW_OP_plus_uconst 0x0]
    4479                      .dwattr $C$DW$335, DW_AT_accessibility(DW_ACCESS_public)
    4480              
    4481              $C$DW$336       .dwtag  DW_TAG_member
    4482                      .dwattr $C$DW$336, DW_AT_type(*$C$DW$T$64)
    4483                      .dwattr $C$DW$336, DW_AT_name("bit")
    4484                      .dwattr $C$DW$336, DW_AT_TI_symbol_name("_bit")
    4485                      .dwattr $C$DW$336, DW_AT_data_member_location[DW_OP_plus_uconst 0x0]
    4486                      .dwattr $C$DW$336, DW_AT_accessibility(DW_ACCESS_public)
    4487              
    4488                      .dwendtag $C$DW$T$65
    4489              
    4490              
    4491              $C$DW$T$66      .dwtag  DW_TAG_structure_type
    4492                      .dwattr $C$DW$T$66, DW_AT_name("DCCSTATUS_BITS")
    4493                      .dwattr $C$DW$T$66, DW_AT_byte_size(0x04)
    4494              $C$DW$337       .dwtag  DW_TAG_member
    4495                      .dwattr $C$DW$337, DW_AT_type(*$C$DW$T$49)
    4496                      .dwattr $C$DW$337, DW_AT_name("ERR")
    4497                      .dwattr $C$DW$337, DW_AT_TI_symbol_name("_ERR")
    4498                      .dwattr $C$DW$337, DW_AT_bit_offset(0x1f)
    4499                      .dwattr $C$DW$337, DW_AT_bit_size(0x01)
    4500                      .dwattr $C$DW$337, DW_AT_data_member_location[DW_OP_plus_uconst 0x0]
    4501                      .dwattr $C$DW$337, DW_AT_accessibility(DW_ACCESS_public)
    4502              
    4503              $C$DW$338       .dwtag  DW_TAG_member
    4504                      .dwattr $C$DW$338, DW_AT_type(*$C$DW$T$49)
    4505                      .dwattr $C$DW$338, DW_AT_name("DONE")
    4506                      .dwattr $C$DW$338, DW_AT_TI_symbol_name("_DONE")
    4507                      .dwattr $C$DW$338, DW_AT_bit_offset(0x1e)
    4508                      .dwattr $C$DW$338, DW_AT_bit_size(0x01)
    4509                      .dwattr $C$DW$338, DW_AT_data_member_location[DW_OP_plus_uconst 0x0]
    4510                      .dwattr $C$DW$338, DW_AT_accessibility(DW_ACCESS_public)
    4511              
    4512              $C$DW$339       .dwtag  DW_TAG_member
    4513                      .dwattr $C$DW$339, DW_AT_type(*$C$DW$T$49)
    4514                      .dwattr $C$DW$339, DW_AT_name("rsvd1")
    4515                      .dwattr $C$DW$339, DW_AT_TI_symbol_name("_rsvd1")
    4516                      .dwattr $C$DW$339, DW_AT_bit_offset(0x10)
    4517                      .dwattr $C$DW$339, DW_AT_bit_size(0x0e)
    4518                      .dwattr $C$DW$339, DW_AT_data_member_location[DW_OP_plus_uconst 0x0]
TMS320C2000 Assembler PC v22.6.1 Wed May 21 09:51:55 2025

Copyright (c) 1996-2018 Texas Instruments Incorporated
C:\Users\Daniel\AppData\Local\Temp\{78ED34F4-3C3B-4D89-8F5D-B64BD43A86E6} PAGE   87

    4519                      .dwattr $C$DW$339, DW_AT_accessibility(DW_ACCESS_public)
    4520              
    4521              $C$DW$340       .dwtag  DW_TAG_member
    4522                      .dwattr $C$DW$340, DW_AT_type(*$C$DW$T$51)
    4523                      .dwattr $C$DW$340, DW_AT_name("rsvd2")
    4524                      .dwattr $C$DW$340, DW_AT_TI_symbol_name("_rsvd2")
    4525                      .dwattr $C$DW$340, DW_AT_bit_offset(0x20)
    4526                      .dwattr $C$DW$340, DW_AT_bit_size(0x10)
    4527                      .dwattr $C$DW$340, DW_AT_data_member_location[DW_OP_plus_uconst 0x0]
    4528                      .dwattr $C$DW$340, DW_AT_accessibility(DW_ACCESS_public)
    4529              
    4530                      .dwendtag $C$DW$T$66
    4531              
    4532              
    4533              $C$DW$T$67      .dwtag  DW_TAG_union_type
    4534                      .dwattr $C$DW$T$67, DW_AT_name("DCCSTATUS_REG")
    4535                      .dwattr $C$DW$T$67, DW_AT_byte_size(0x04)
    4536              $C$DW$341       .dwtag  DW_TAG_member
    4537                      .dwattr $C$DW$341, DW_AT_type(*$C$DW$T$51)
    4538                      .dwattr $C$DW$341, DW_AT_name("all")
    4539                      .dwattr $C$DW$341, DW_AT_TI_symbol_name("_all")
    4540                      .dwattr $C$DW$341, DW_AT_data_member_location[DW_OP_plus_uconst 0x0]
    4541                      .dwattr $C$DW$341, DW_AT_accessibility(DW_ACCESS_public)
    4542              
    4543              $C$DW$342       .dwtag  DW_TAG_member
    4544                      .dwattr $C$DW$342, DW_AT_type(*$C$DW$T$66)
    4545                      .dwattr $C$DW$342, DW_AT_name("bit")
    4546                      .dwattr $C$DW$342, DW_AT_TI_symbol_name("_bit")
    4547                      .dwattr $C$DW$342, DW_AT_data_member_location[DW_OP_plus_uconst 0x0]
    4548                      .dwattr $C$DW$342, DW_AT_accessibility(DW_ACCESS_public)
    4549              
    4550                      .dwendtag $C$DW$T$67
    4551              
    4552              
    4553              $C$DW$T$68      .dwtag  DW_TAG_structure_type
    4554                      .dwattr $C$DW$T$68, DW_AT_name("DCCVALID0_BITS")
    4555                      .dwattr $C$DW$T$68, DW_AT_byte_size(0x04)
    4556              $C$DW$343       .dwtag  DW_TAG_member
    4557                      .dwattr $C$DW$343, DW_AT_type(*$C$DW$T$49)
    4558                      .dwattr $C$DW$343, DW_AT_name("VALID0")
    4559                      .dwattr $C$DW$343, DW_AT_TI_symbol_name("_VALID0")
    4560                      .dwattr $C$DW$343, DW_AT_bit_offset(0x10)
    4561                      .dwattr $C$DW$343, DW_AT_bit_size(0x10)
    4562                      .dwattr $C$DW$343, DW_AT_data_member_location[DW_OP_plus_uconst 0x0]
    4563                      .dwattr $C$DW$343, DW_AT_accessibility(DW_ACCESS_public)
    4564              
    4565              $C$DW$344       .dwtag  DW_TAG_member
    4566                      .dwattr $C$DW$344, DW_AT_type(*$C$DW$T$51)
    4567                      .dwattr $C$DW$344, DW_AT_name("rsvd1")
    4568                      .dwattr $C$DW$344, DW_AT_TI_symbol_name("_rsvd1")
    4569                      .dwattr $C$DW$344, DW_AT_bit_offset(0x20)
    4570                      .dwattr $C$DW$344, DW_AT_bit_size(0x10)
    4571                      .dwattr $C$DW$344, DW_AT_data_member_location[DW_OP_plus_uconst 0x0]
    4572                      .dwattr $C$DW$344, DW_AT_accessibility(DW_ACCESS_public)
    4573              
TMS320C2000 Assembler PC v22.6.1 Wed May 21 09:51:55 2025

Copyright (c) 1996-2018 Texas Instruments Incorporated
C:\Users\Daniel\AppData\Local\Temp\{78ED34F4-3C3B-4D89-8F5D-B64BD43A86E6} PAGE   88

    4574                      .dwendtag $C$DW$T$68
    4575              
    4576              
    4577              $C$DW$T$69      .dwtag  DW_TAG_union_type
    4578                      .dwattr $C$DW$T$69, DW_AT_name("DCCVALID0_REG")
    4579                      .dwattr $C$DW$T$69, DW_AT_byte_size(0x04)
    4580              $C$DW$345       .dwtag  DW_TAG_member
    4581                      .dwattr $C$DW$345, DW_AT_type(*$C$DW$T$51)
    4582                      .dwattr $C$DW$345, DW_AT_name("all")
    4583                      .dwattr $C$DW$345, DW_AT_TI_symbol_name("_all")
    4584                      .dwattr $C$DW$345, DW_AT_data_member_location[DW_OP_plus_uconst 0x0]
    4585                      .dwattr $C$DW$345, DW_AT_accessibility(DW_ACCESS_public)
    4586              
    4587              $C$DW$346       .dwtag  DW_TAG_member
    4588                      .dwattr $C$DW$346, DW_AT_type(*$C$DW$T$68)
    4589                      .dwattr $C$DW$346, DW_AT_name("bit")
    4590                      .dwattr $C$DW$346, DW_AT_TI_symbol_name("_bit")
    4591                      .dwattr $C$DW$346, DW_AT_data_member_location[DW_OP_plus_uconst 0x0]
    4592                      .dwattr $C$DW$346, DW_AT_accessibility(DW_ACCESS_public)
    4593              
    4594                      .dwendtag $C$DW$T$69
    4595              
    4596              
    4597              $C$DW$T$70      .dwtag  DW_TAG_structure_type
    4598                      .dwattr $C$DW$T$70, DW_AT_name("DCCVALIDSEED0_BITS")
    4599                      .dwattr $C$DW$T$70, DW_AT_byte_size(0x04)
    4600              $C$DW$347       .dwtag  DW_TAG_member
    4601                      .dwattr $C$DW$347, DW_AT_type(*$C$DW$T$49)
    4602                      .dwattr $C$DW$347, DW_AT_name("VALIDSEED")
    4603                      .dwattr $C$DW$347, DW_AT_TI_symbol_name("_VALIDSEED")
    4604                      .dwattr $C$DW$347, DW_AT_bit_offset(0x10)
    4605                      .dwattr $C$DW$347, DW_AT_bit_size(0x10)
    4606                      .dwattr $C$DW$347, DW_AT_data_member_location[DW_OP_plus_uconst 0x0]
    4607                      .dwattr $C$DW$347, DW_AT_accessibility(DW_ACCESS_public)
    4608              
    4609              $C$DW$348       .dwtag  DW_TAG_member
    4610                      .dwattr $C$DW$348, DW_AT_type(*$C$DW$T$51)
    4611                      .dwattr $C$DW$348, DW_AT_name("rsvd1")
    4612                      .dwattr $C$DW$348, DW_AT_TI_symbol_name("_rsvd1")
    4613                      .dwattr $C$DW$348, DW_AT_bit_offset(0x20)
    4614                      .dwattr $C$DW$348, DW_AT_bit_size(0x10)
    4615                      .dwattr $C$DW$348, DW_AT_data_member_location[DW_OP_plus_uconst 0x0]
    4616                      .dwattr $C$DW$348, DW_AT_accessibility(DW_ACCESS_public)
    4617              
    4618                      .dwendtag $C$DW$T$70
    4619              
    4620              
    4621              $C$DW$T$71      .dwtag  DW_TAG_union_type
    4622                      .dwattr $C$DW$T$71, DW_AT_name("DCCVALIDSEED0_REG")
    4623                      .dwattr $C$DW$T$71, DW_AT_byte_size(0x04)
    4624              $C$DW$349       .dwtag  DW_TAG_member
    4625                      .dwattr $C$DW$349, DW_AT_type(*$C$DW$T$51)
    4626                      .dwattr $C$DW$349, DW_AT_name("all")
    4627                      .dwattr $C$DW$349, DW_AT_TI_symbol_name("_all")
    4628                      .dwattr $C$DW$349, DW_AT_data_member_location[DW_OP_plus_uconst 0x0]
TMS320C2000 Assembler PC v22.6.1 Wed May 21 09:51:55 2025

Copyright (c) 1996-2018 Texas Instruments Incorporated
C:\Users\Daniel\AppData\Local\Temp\{78ED34F4-3C3B-4D89-8F5D-B64BD43A86E6} PAGE   89

    4629                      .dwattr $C$DW$349, DW_AT_accessibility(DW_ACCESS_public)
    4630              
    4631              $C$DW$350       .dwtag  DW_TAG_member
    4632                      .dwattr $C$DW$350, DW_AT_type(*$C$DW$T$70)
    4633                      .dwattr $C$DW$350, DW_AT_name("bit")
    4634                      .dwattr $C$DW$350, DW_AT_TI_symbol_name("_bit")
    4635                      .dwattr $C$DW$350, DW_AT_data_member_location[DW_OP_plus_uconst 0x0]
    4636                      .dwattr $C$DW$350, DW_AT_accessibility(DW_ACCESS_public)
    4637              
    4638                      .dwendtag $C$DW$T$71
    4639              
    4640              
    4641              $C$DW$T$75      .dwtag  DW_TAG_structure_type
    4642                      .dwattr $C$DW$T$75, DW_AT_name("DCC_REGS")
    4643                      .dwattr $C$DW$T$75, DW_AT_byte_size(0x2c)
    4644              $C$DW$351       .dwtag  DW_TAG_member
    4645                      .dwattr $C$DW$351, DW_AT_type(*$C$DW$T$65)
    4646                      .dwattr $C$DW$351, DW_AT_name("DCCGCTRL")
    4647                      .dwattr $C$DW$351, DW_AT_TI_symbol_name("_DCCGCTRL")
    4648                      .dwattr $C$DW$351, DW_AT_data_member_location[DW_OP_plus_uconst 0x0]
    4649                      .dwattr $C$DW$351, DW_AT_accessibility(DW_ACCESS_public)
    4650              
    4651              $C$DW$352       .dwtag  DW_TAG_member
    4652                      .dwattr $C$DW$352, DW_AT_type(*$C$DW$T$74)
    4653                      .dwattr $C$DW$352, DW_AT_name("rsvd1")
    4654                      .dwattr $C$DW$352, DW_AT_TI_symbol_name("_rsvd1")
    4655                      .dwattr $C$DW$352, DW_AT_data_member_location[DW_OP_plus_uconst 0x4]
    4656                      .dwattr $C$DW$352, DW_AT_accessibility(DW_ACCESS_public)
    4657              
    4658              $C$DW$353       .dwtag  DW_TAG_member
    4659                      .dwattr $C$DW$353, DW_AT_type(*$C$DW$T$61)
    4660                      .dwattr $C$DW$353, DW_AT_name("DCCCNTSEED0")
    4661                      .dwattr $C$DW$353, DW_AT_TI_symbol_name("_DCCCNTSEED0")
    4662                      .dwattr $C$DW$353, DW_AT_data_member_location[DW_OP_plus_uconst 0x8]
    4663                      .dwattr $C$DW$353, DW_AT_accessibility(DW_ACCESS_public)
    4664              
    4665              $C$DW$354       .dwtag  DW_TAG_member
    4666                      .dwattr $C$DW$354, DW_AT_type(*$C$DW$T$71)
    4667                      .dwattr $C$DW$354, DW_AT_name("DCCVALIDSEED0")
    4668                      .dwattr $C$DW$354, DW_AT_TI_symbol_name("_DCCVALIDSEED0")
    4669                      .dwattr $C$DW$354, DW_AT_data_member_location[DW_OP_plus_uconst 0xc]
    4670                      .dwattr $C$DW$354, DW_AT_accessibility(DW_ACCESS_public)
    4671              
    4672              $C$DW$355       .dwtag  DW_TAG_member
    4673                      .dwattr $C$DW$355, DW_AT_type(*$C$DW$T$63)
    4674                      .dwattr $C$DW$355, DW_AT_name("DCCCNTSEED1")
    4675                      .dwattr $C$DW$355, DW_AT_TI_symbol_name("_DCCCNTSEED1")
    4676                      .dwattr $C$DW$355, DW_AT_data_member_location[DW_OP_plus_uconst 0x10]
    4677                      .dwattr $C$DW$355, DW_AT_accessibility(DW_ACCESS_public)
    4678              
    4679              $C$DW$356       .dwtag  DW_TAG_member
    4680                      .dwattr $C$DW$356, DW_AT_type(*$C$DW$T$67)
    4681                      .dwattr $C$DW$356, DW_AT_name("DCCSTATUS")
    4682                      .dwattr $C$DW$356, DW_AT_TI_symbol_name("_DCCSTATUS")
    4683                      .dwattr $C$DW$356, DW_AT_data_member_location[DW_OP_plus_uconst 0x14]
TMS320C2000 Assembler PC v22.6.1 Wed May 21 09:51:55 2025

Copyright (c) 1996-2018 Texas Instruments Incorporated
C:\Users\Daniel\AppData\Local\Temp\{78ED34F4-3C3B-4D89-8F5D-B64BD43A86E6} PAGE   90

    4684                      .dwattr $C$DW$356, DW_AT_accessibility(DW_ACCESS_public)
    4685              
    4686              $C$DW$357       .dwtag  DW_TAG_member
    4687                      .dwattr $C$DW$357, DW_AT_type(*$C$DW$T$57)
    4688                      .dwattr $C$DW$357, DW_AT_name("DCCCNT0")
    4689                      .dwattr $C$DW$357, DW_AT_TI_symbol_name("_DCCCNT0")
    4690                      .dwattr $C$DW$357, DW_AT_data_member_location[DW_OP_plus_uconst 0x18]
    4691                      .dwattr $C$DW$357, DW_AT_accessibility(DW_ACCESS_public)
    4692              
    4693              $C$DW$358       .dwtag  DW_TAG_member
    4694                      .dwattr $C$DW$358, DW_AT_type(*$C$DW$T$69)
    4695                      .dwattr $C$DW$358, DW_AT_name("DCCVALID0")
    4696                      .dwattr $C$DW$358, DW_AT_TI_symbol_name("_DCCVALID0")
    4697                      .dwattr $C$DW$358, DW_AT_data_member_location[DW_OP_plus_uconst 0x1c]
    4698                      .dwattr $C$DW$358, DW_AT_accessibility(DW_ACCESS_public)
    4699              
    4700              $C$DW$359       .dwtag  DW_TAG_member
    4701                      .dwattr $C$DW$359, DW_AT_type(*$C$DW$T$59)
    4702                      .dwattr $C$DW$359, DW_AT_name("DCCCNT1")
    4703                      .dwattr $C$DW$359, DW_AT_TI_symbol_name("_DCCCNT1")
    4704                      .dwattr $C$DW$359, DW_AT_data_member_location[DW_OP_plus_uconst 0x20]
    4705                      .dwattr $C$DW$359, DW_AT_accessibility(DW_ACCESS_public)
    4706              
    4707              $C$DW$360       .dwtag  DW_TAG_member
    4708                      .dwattr $C$DW$360, DW_AT_type(*$C$DW$T$55)
    4709                      .dwattr $C$DW$360, DW_AT_name("DCCCLKSRC1")
    4710                      .dwattr $C$DW$360, DW_AT_TI_symbol_name("_DCCCLKSRC1")
    4711                      .dwattr $C$DW$360, DW_AT_data_member_location[DW_OP_plus_uconst 0x24]
    4712                      .dwattr $C$DW$360, DW_AT_accessibility(DW_ACCESS_public)
    4713              
    4714              $C$DW$361       .dwtag  DW_TAG_member
    4715                      .dwattr $C$DW$361, DW_AT_type(*$C$DW$T$53)
    4716                      .dwattr $C$DW$361, DW_AT_name("DCCCLKSRC0")
    4717                      .dwattr $C$DW$361, DW_AT_TI_symbol_name("_DCCCLKSRC0")
    4718                      .dwattr $C$DW$361, DW_AT_data_member_location[DW_OP_plus_uconst 0x28]
    4719                      .dwattr $C$DW$361, DW_AT_accessibility(DW_ACCESS_public)
    4720              
    4721                      .dwendtag $C$DW$T$75
    4722              
    4723              $C$DW$362       .dwtag  DW_TAG_TI_far_type
    4724                      .dwattr $C$DW$362, DW_AT_type(*$C$DW$T$75)
    4725              
    4726              $C$DW$T$227     .dwtag  DW_TAG_volatile_type
    4727                      .dwattr $C$DW$T$227, DW_AT_type(*$C$DW$362)
    4728              
    4729              $C$DW$T$228     .dwtag  DW_TAG_pointer_type
    4730                      .dwattr $C$DW$T$228, DW_AT_type(*$C$DW$T$227)
    4731                      .dwattr $C$DW$T$228, DW_AT_address_class(0x20)
    4732              
    4733              
    4734              $C$DW$T$76      .dwtag  DW_TAG_structure_type
    4735                      .dwattr $C$DW$T$76, DW_AT_name("ECC_ENABLE_BITS")
    4736                      .dwattr $C$DW$T$76, DW_AT_byte_size(0x02)
    4737              $C$DW$363       .dwtag  DW_TAG_member
    4738                      .dwattr $C$DW$363, DW_AT_type(*$C$DW$T$19)
TMS320C2000 Assembler PC v22.6.1 Wed May 21 09:51:55 2025

Copyright (c) 1996-2018 Texas Instruments Incorporated
C:\Users\Daniel\AppData\Local\Temp\{78ED34F4-3C3B-4D89-8F5D-B64BD43A86E6} PAGE   91

    4739                      .dwattr $C$DW$363, DW_AT_name("ENABLE")
    4740                      .dwattr $C$DW$363, DW_AT_TI_symbol_name("_ENABLE")
    4741                      .dwattr $C$DW$363, DW_AT_bit_offset(0x0c)
    4742                      .dwattr $C$DW$363, DW_AT_bit_size(0x04)
    4743                      .dwattr $C$DW$363, DW_AT_data_member_location[DW_OP_plus_uconst 0x0]
    4744                      .dwattr $C$DW$363, DW_AT_accessibility(DW_ACCESS_public)
    4745              
    4746              $C$DW$364       .dwtag  DW_TAG_member
    4747                      .dwattr $C$DW$364, DW_AT_type(*$C$DW$T$19)
    4748                      .dwattr $C$DW$364, DW_AT_name("rsvd1")
    4749                      .dwattr $C$DW$364, DW_AT_TI_symbol_name("_rsvd1")
    4750                      .dwattr $C$DW$364, DW_AT_bit_offset(0x00)
    4751                      .dwattr $C$DW$364, DW_AT_bit_size(0x0c)
    4752                      .dwattr $C$DW$364, DW_AT_data_member_location[DW_OP_plus_uconst 0x0]
    4753                      .dwattr $C$DW$364, DW_AT_accessibility(DW_ACCESS_public)
    4754              
    4755              $C$DW$365       .dwtag  DW_TAG_member
    4756                      .dwattr $C$DW$365, DW_AT_type(*$C$DW$T$19)
    4757                      .dwattr $C$DW$365, DW_AT_name("rsvd2")
    4758                      .dwattr $C$DW$365, DW_AT_TI_symbol_name("_rsvd2")
    4759                      .dwattr $C$DW$365, DW_AT_bit_offset(0x00)
    4760                      .dwattr $C$DW$365, DW_AT_bit_size(0x10)
    4761                      .dwattr $C$DW$365, DW_AT_data_member_location[DW_OP_plus_uconst 0x1]
    4762                      .dwattr $C$DW$365, DW_AT_accessibility(DW_ACCESS_public)
    4763              
    4764                      .dwendtag $C$DW$T$76
    4765              
    4766              
    4767              $C$DW$T$77      .dwtag  DW_TAG_union_type
    4768                      .dwattr $C$DW$T$77, DW_AT_name("ECC_ENABLE_REG")
    4769                      .dwattr $C$DW$T$77, DW_AT_byte_size(0x02)
    4770              $C$DW$366       .dwtag  DW_TAG_member
    4771                      .dwattr $C$DW$366, DW_AT_type(*$C$DW$T$21)
    4772                      .dwattr $C$DW$366, DW_AT_name("all")
    4773                      .dwattr $C$DW$366, DW_AT_TI_symbol_name("_all")
    4774                      .dwattr $C$DW$366, DW_AT_data_member_location[DW_OP_plus_uconst 0x0]
    4775                      .dwattr $C$DW$366, DW_AT_accessibility(DW_ACCESS_public)
    4776              
    4777              $C$DW$367       .dwtag  DW_TAG_member
    4778                      .dwattr $C$DW$367, DW_AT_type(*$C$DW$T$76)
    4779                      .dwattr $C$DW$367, DW_AT_name("bit")
    4780                      .dwattr $C$DW$367, DW_AT_TI_symbol_name("_bit")
    4781                      .dwattr $C$DW$367, DW_AT_data_member_location[DW_OP_plus_uconst 0x0]
    4782                      .dwattr $C$DW$367, DW_AT_accessibility(DW_ACCESS_public)
    4783              
    4784                      .dwendtag $C$DW$T$77
    4785              
    4786              
    4787              $C$DW$T$78      .dwtag  DW_TAG_structure_type
    4788                      .dwattr $C$DW$T$78, DW_AT_name("ERR_CNT_BITS")
    4789                      .dwattr $C$DW$T$78, DW_AT_byte_size(0x02)
    4790              $C$DW$368       .dwtag  DW_TAG_member
    4791                      .dwattr $C$DW$368, DW_AT_type(*$C$DW$T$19)
    4792                      .dwattr $C$DW$368, DW_AT_name("ERR_CNT")
    4793                      .dwattr $C$DW$368, DW_AT_TI_symbol_name("_ERR_CNT")
TMS320C2000 Assembler PC v22.6.1 Wed May 21 09:51:55 2025

Copyright (c) 1996-2018 Texas Instruments Incorporated
C:\Users\Daniel\AppData\Local\Temp\{78ED34F4-3C3B-4D89-8F5D-B64BD43A86E6} PAGE   92

    4794                      .dwattr $C$DW$368, DW_AT_bit_offset(0x00)
    4795                      .dwattr $C$DW$368, DW_AT_bit_size(0x10)
    4796                      .dwattr $C$DW$368, DW_AT_data_member_location[DW_OP_plus_uconst 0x0]
    4797                      .dwattr $C$DW$368, DW_AT_accessibility(DW_ACCESS_public)
    4798              
    4799              $C$DW$369       .dwtag  DW_TAG_member
    4800                      .dwattr $C$DW$369, DW_AT_type(*$C$DW$T$19)
    4801                      .dwattr $C$DW$369, DW_AT_name("rsvd1")
    4802                      .dwattr $C$DW$369, DW_AT_TI_symbol_name("_rsvd1")
    4803                      .dwattr $C$DW$369, DW_AT_bit_offset(0x00)
    4804                      .dwattr $C$DW$369, DW_AT_bit_size(0x10)
    4805                      .dwattr $C$DW$369, DW_AT_data_member_location[DW_OP_plus_uconst 0x1]
    4806                      .dwattr $C$DW$369, DW_AT_accessibility(DW_ACCESS_public)
    4807              
    4808                      .dwendtag $C$DW$T$78
    4809              
    4810              
    4811              $C$DW$T$79      .dwtag  DW_TAG_union_type
    4812                      .dwattr $C$DW$T$79, DW_AT_name("ERR_CNT_REG")
    4813                      .dwattr $C$DW$T$79, DW_AT_byte_size(0x02)
    4814              $C$DW$370       .dwtag  DW_TAG_member
    4815                      .dwattr $C$DW$370, DW_AT_type(*$C$DW$T$21)
    4816                      .dwattr $C$DW$370, DW_AT_name("all")
    4817                      .dwattr $C$DW$370, DW_AT_TI_symbol_name("_all")
    4818                      .dwattr $C$DW$370, DW_AT_data_member_location[DW_OP_plus_uconst 0x0]
    4819                      .dwattr $C$DW$370, DW_AT_accessibility(DW_ACCESS_public)
    4820              
    4821              $C$DW$371       .dwtag  DW_TAG_member
    4822                      .dwattr $C$DW$371, DW_AT_type(*$C$DW$T$78)
    4823                      .dwattr $C$DW$371, DW_AT_name("bit")
    4824                      .dwattr $C$DW$371, DW_AT_TI_symbol_name("_bit")
    4825                      .dwattr $C$DW$371, DW_AT_data_member_location[DW_OP_plus_uconst 0x0]
    4826                      .dwattr $C$DW$371, DW_AT_accessibility(DW_ACCESS_public)
    4827              
    4828                      .dwendtag $C$DW$T$79
    4829              
    4830              
    4831              $C$DW$T$80      .dwtag  DW_TAG_structure_type
    4832                      .dwattr $C$DW$T$80, DW_AT_name("ERR_INTCLR_BITS")
    4833                      .dwattr $C$DW$T$80, DW_AT_byte_size(0x02)
    4834              $C$DW$372       .dwtag  DW_TAG_member
    4835                      .dwattr $C$DW$372, DW_AT_type(*$C$DW$T$19)
    4836                      .dwattr $C$DW$372, DW_AT_name("SINGLE_ERR_INTCLR")
    4837                      .dwattr $C$DW$372, DW_AT_TI_symbol_name("_SINGLE_ERR_INTCLR")
    4838                      .dwattr $C$DW$372, DW_AT_bit_offset(0x0f)
    4839                      .dwattr $C$DW$372, DW_AT_bit_size(0x01)
    4840                      .dwattr $C$DW$372, DW_AT_data_member_location[DW_OP_plus_uconst 0x0]
    4841                      .dwattr $C$DW$372, DW_AT_accessibility(DW_ACCESS_public)
    4842              
    4843              $C$DW$373       .dwtag  DW_TAG_member
    4844                      .dwattr $C$DW$373, DW_AT_type(*$C$DW$T$19)
    4845                      .dwattr $C$DW$373, DW_AT_name("UNC_ERR_INTCLR")
    4846                      .dwattr $C$DW$373, DW_AT_TI_symbol_name("_UNC_ERR_INTCLR")
    4847                      .dwattr $C$DW$373, DW_AT_bit_offset(0x0e)
    4848                      .dwattr $C$DW$373, DW_AT_bit_size(0x01)
TMS320C2000 Assembler PC v22.6.1 Wed May 21 09:51:55 2025

Copyright (c) 1996-2018 Texas Instruments Incorporated
C:\Users\Daniel\AppData\Local\Temp\{78ED34F4-3C3B-4D89-8F5D-B64BD43A86E6} PAGE   93

    4849                      .dwattr $C$DW$373, DW_AT_data_member_location[DW_OP_plus_uconst 0x0]
    4850                      .dwattr $C$DW$373, DW_AT_accessibility(DW_ACCESS_public)
    4851              
    4852              $C$DW$374       .dwtag  DW_TAG_member
    4853                      .dwattr $C$DW$374, DW_AT_type(*$C$DW$T$19)
    4854                      .dwattr $C$DW$374, DW_AT_name("rsvd1")
    4855                      .dwattr $C$DW$374, DW_AT_TI_symbol_name("_rsvd1")
    4856                      .dwattr $C$DW$374, DW_AT_bit_offset(0x00)
    4857                      .dwattr $C$DW$374, DW_AT_bit_size(0x0e)
    4858                      .dwattr $C$DW$374, DW_AT_data_member_location[DW_OP_plus_uconst 0x0]
    4859                      .dwattr $C$DW$374, DW_AT_accessibility(DW_ACCESS_public)
    4860              
    4861              $C$DW$375       .dwtag  DW_TAG_member
    4862                      .dwattr $C$DW$375, DW_AT_type(*$C$DW$T$19)
    4863                      .dwattr $C$DW$375, DW_AT_name("rsvd2")
    4864                      .dwattr $C$DW$375, DW_AT_TI_symbol_name("_rsvd2")
    4865                      .dwattr $C$DW$375, DW_AT_bit_offset(0x00)
    4866                      .dwattr $C$DW$375, DW_AT_bit_size(0x10)
    4867                      .dwattr $C$DW$375, DW_AT_data_member_location[DW_OP_plus_uconst 0x1]
    4868                      .dwattr $C$DW$375, DW_AT_accessibility(DW_ACCESS_public)
    4869              
    4870                      .dwendtag $C$DW$T$80
    4871              
    4872              
    4873              $C$DW$T$81      .dwtag  DW_TAG_union_type
    4874                      .dwattr $C$DW$T$81, DW_AT_name("ERR_INTCLR_REG")
    4875                      .dwattr $C$DW$T$81, DW_AT_byte_size(0x02)
    4876              $C$DW$376       .dwtag  DW_TAG_member
    4877                      .dwattr $C$DW$376, DW_AT_type(*$C$DW$T$21)
    4878                      .dwattr $C$DW$376, DW_AT_name("all")
    4879                      .dwattr $C$DW$376, DW_AT_TI_symbol_name("_all")
    4880                      .dwattr $C$DW$376, DW_AT_data_member_location[DW_OP_plus_uconst 0x0]
    4881                      .dwattr $C$DW$376, DW_AT_accessibility(DW_ACCESS_public)
    4882              
    4883              $C$DW$377       .dwtag  DW_TAG_member
    4884                      .dwattr $C$DW$377, DW_AT_type(*$C$DW$T$80)
    4885                      .dwattr $C$DW$377, DW_AT_name("bit")
    4886                      .dwattr $C$DW$377, DW_AT_TI_symbol_name("_bit")
    4887                      .dwattr $C$DW$377, DW_AT_data_member_location[DW_OP_plus_uconst 0x0]
    4888                      .dwattr $C$DW$377, DW_AT_accessibility(DW_ACCESS_public)
    4889              
    4890                      .dwendtag $C$DW$T$81
    4891              
    4892              
    4893              $C$DW$T$82      .dwtag  DW_TAG_structure_type
    4894                      .dwattr $C$DW$T$82, DW_AT_name("ERR_INTFLG_BITS")
    4895                      .dwattr $C$DW$T$82, DW_AT_byte_size(0x02)
    4896              $C$DW$378       .dwtag  DW_TAG_member
    4897                      .dwattr $C$DW$378, DW_AT_type(*$C$DW$T$19)
    4898                      .dwattr $C$DW$378, DW_AT_name("SINGLE_ERR_INTFLG")
    4899                      .dwattr $C$DW$378, DW_AT_TI_symbol_name("_SINGLE_ERR_INTFLG")
    4900                      .dwattr $C$DW$378, DW_AT_bit_offset(0x0f)
    4901                      .dwattr $C$DW$378, DW_AT_bit_size(0x01)
    4902                      .dwattr $C$DW$378, DW_AT_data_member_location[DW_OP_plus_uconst 0x0]
    4903                      .dwattr $C$DW$378, DW_AT_accessibility(DW_ACCESS_public)
TMS320C2000 Assembler PC v22.6.1 Wed May 21 09:51:55 2025

Copyright (c) 1996-2018 Texas Instruments Incorporated
C:\Users\Daniel\AppData\Local\Temp\{78ED34F4-3C3B-4D89-8F5D-B64BD43A86E6} PAGE   94

    4904              
    4905              $C$DW$379       .dwtag  DW_TAG_member
    4906                      .dwattr $C$DW$379, DW_AT_type(*$C$DW$T$19)
    4907                      .dwattr $C$DW$379, DW_AT_name("UNC_ERR_INTFLG")
    4908                      .dwattr $C$DW$379, DW_AT_TI_symbol_name("_UNC_ERR_INTFLG")
    4909                      .dwattr $C$DW$379, DW_AT_bit_offset(0x0e)
    4910                      .dwattr $C$DW$379, DW_AT_bit_size(0x01)
    4911                      .dwattr $C$DW$379, DW_AT_data_member_location[DW_OP_plus_uconst 0x0]
    4912                      .dwattr $C$DW$379, DW_AT_accessibility(DW_ACCESS_public)
    4913              
    4914              $C$DW$380       .dwtag  DW_TAG_member
    4915                      .dwattr $C$DW$380, DW_AT_type(*$C$DW$T$19)
    4916                      .dwattr $C$DW$380, DW_AT_name("rsvd1")
    4917                      .dwattr $C$DW$380, DW_AT_TI_symbol_name("_rsvd1")
    4918                      .dwattr $C$DW$380, DW_AT_bit_offset(0x00)
    4919                      .dwattr $C$DW$380, DW_AT_bit_size(0x0e)
    4920                      .dwattr $C$DW$380, DW_AT_data_member_location[DW_OP_plus_uconst 0x0]
    4921                      .dwattr $C$DW$380, DW_AT_accessibility(DW_ACCESS_public)
    4922              
    4923              $C$DW$381       .dwtag  DW_TAG_member
    4924                      .dwattr $C$DW$381, DW_AT_type(*$C$DW$T$19)
    4925                      .dwattr $C$DW$381, DW_AT_name("rsvd2")
    4926                      .dwattr $C$DW$381, DW_AT_TI_symbol_name("_rsvd2")
    4927                      .dwattr $C$DW$381, DW_AT_bit_offset(0x00)
    4928                      .dwattr $C$DW$381, DW_AT_bit_size(0x10)
    4929                      .dwattr $C$DW$381, DW_AT_data_member_location[DW_OP_plus_uconst 0x1]
    4930                      .dwattr $C$DW$381, DW_AT_accessibility(DW_ACCESS_public)
    4931              
    4932                      .dwendtag $C$DW$T$82
    4933              
    4934              
    4935              $C$DW$T$83      .dwtag  DW_TAG_union_type
    4936                      .dwattr $C$DW$T$83, DW_AT_name("ERR_INTFLG_REG")
    4937                      .dwattr $C$DW$T$83, DW_AT_byte_size(0x02)
    4938              $C$DW$382       .dwtag  DW_TAG_member
    4939                      .dwattr $C$DW$382, DW_AT_type(*$C$DW$T$21)
    4940                      .dwattr $C$DW$382, DW_AT_name("all")
    4941                      .dwattr $C$DW$382, DW_AT_TI_symbol_name("_all")
    4942                      .dwattr $C$DW$382, DW_AT_data_member_location[DW_OP_plus_uconst 0x0]
    4943                      .dwattr $C$DW$382, DW_AT_accessibility(DW_ACCESS_public)
    4944              
    4945              $C$DW$383       .dwtag  DW_TAG_member
    4946                      .dwattr $C$DW$383, DW_AT_type(*$C$DW$T$82)
    4947                      .dwattr $C$DW$383, DW_AT_name("bit")
    4948                      .dwattr $C$DW$383, DW_AT_TI_symbol_name("_bit")
    4949                      .dwattr $C$DW$383, DW_AT_data_member_location[DW_OP_plus_uconst 0x0]
    4950                      .dwattr $C$DW$383, DW_AT_accessibility(DW_ACCESS_public)
    4951              
    4952                      .dwendtag $C$DW$T$83
    4953              
    4954              
    4955              $C$DW$T$84      .dwtag  DW_TAG_structure_type
    4956                      .dwattr $C$DW$T$84, DW_AT_name("ERR_POS_BITS")
    4957                      .dwattr $C$DW$T$84, DW_AT_byte_size(0x02)
    4958              $C$DW$384       .dwtag  DW_TAG_member
TMS320C2000 Assembler PC v22.6.1 Wed May 21 09:51:55 2025

Copyright (c) 1996-2018 Texas Instruments Incorporated
C:\Users\Daniel\AppData\Local\Temp\{78ED34F4-3C3B-4D89-8F5D-B64BD43A86E6} PAGE   95

    4959                      .dwattr $C$DW$384, DW_AT_type(*$C$DW$T$19)
    4960                      .dwattr $C$DW$384, DW_AT_name("ERR_POS_L")
    4961                      .dwattr $C$DW$384, DW_AT_TI_symbol_name("_ERR_POS_L")
    4962                      .dwattr $C$DW$384, DW_AT_bit_offset(0x0a)
    4963                      .dwattr $C$DW$384, DW_AT_bit_size(0x06)
    4964                      .dwattr $C$DW$384, DW_AT_data_member_location[DW_OP_plus_uconst 0x0]
    4965                      .dwattr $C$DW$384, DW_AT_accessibility(DW_ACCESS_public)
    4966              
    4967              $C$DW$385       .dwtag  DW_TAG_member
    4968                      .dwattr $C$DW$385, DW_AT_type(*$C$DW$T$19)
    4969                      .dwattr $C$DW$385, DW_AT_name("rsvd1")
    4970                      .dwattr $C$DW$385, DW_AT_TI_symbol_name("_rsvd1")
    4971                      .dwattr $C$DW$385, DW_AT_bit_offset(0x08)
    4972                      .dwattr $C$DW$385, DW_AT_bit_size(0x02)
    4973                      .dwattr $C$DW$385, DW_AT_data_member_location[DW_OP_plus_uconst 0x0]
    4974                      .dwattr $C$DW$385, DW_AT_accessibility(DW_ACCESS_public)
    4975              
    4976              $C$DW$386       .dwtag  DW_TAG_member
    4977                      .dwattr $C$DW$386, DW_AT_type(*$C$DW$T$19)
    4978                      .dwattr $C$DW$386, DW_AT_name("ERR_TYPE_L")
    4979                      .dwattr $C$DW$386, DW_AT_TI_symbol_name("_ERR_TYPE_L")
    4980                      .dwattr $C$DW$386, DW_AT_bit_offset(0x07)
    4981                      .dwattr $C$DW$386, DW_AT_bit_size(0x01)
    4982                      .dwattr $C$DW$386, DW_AT_data_member_location[DW_OP_plus_uconst 0x0]
    4983                      .dwattr $C$DW$386, DW_AT_accessibility(DW_ACCESS_public)
    4984              
    4985              $C$DW$387       .dwtag  DW_TAG_member
    4986                      .dwattr $C$DW$387, DW_AT_type(*$C$DW$T$19)
    4987                      .dwattr $C$DW$387, DW_AT_name("rsvd2")
    4988                      .dwattr $C$DW$387, DW_AT_TI_symbol_name("_rsvd2")
    4989                      .dwattr $C$DW$387, DW_AT_bit_offset(0x00)
    4990                      .dwattr $C$DW$387, DW_AT_bit_size(0x07)
    4991                      .dwattr $C$DW$387, DW_AT_data_member_location[DW_OP_plus_uconst 0x0]
    4992                      .dwattr $C$DW$387, DW_AT_accessibility(DW_ACCESS_public)
    4993              
    4994              $C$DW$388       .dwtag  DW_TAG_member
    4995                      .dwattr $C$DW$388, DW_AT_type(*$C$DW$T$19)
    4996                      .dwattr $C$DW$388, DW_AT_name("ERR_POS_H")
    4997                      .dwattr $C$DW$388, DW_AT_TI_symbol_name("_ERR_POS_H")
    4998                      .dwattr $C$DW$388, DW_AT_bit_offset(0x0a)
    4999                      .dwattr $C$DW$388, DW_AT_bit_size(0x06)
    5000                      .dwattr $C$DW$388, DW_AT_data_member_location[DW_OP_plus_uconst 0x1]
    5001                      .dwattr $C$DW$388, DW_AT_accessibility(DW_ACCESS_public)
    5002              
    5003              $C$DW$389       .dwtag  DW_TAG_member
    5004                      .dwattr $C$DW$389, DW_AT_type(*$C$DW$T$19)
    5005                      .dwattr $C$DW$389, DW_AT_name("rsvd3")
    5006                      .dwattr $C$DW$389, DW_AT_TI_symbol_name("_rsvd3")
    5007                      .dwattr $C$DW$389, DW_AT_bit_offset(0x08)
    5008                      .dwattr $C$DW$389, DW_AT_bit_size(0x02)
    5009                      .dwattr $C$DW$389, DW_AT_data_member_location[DW_OP_plus_uconst 0x1]
    5010                      .dwattr $C$DW$389, DW_AT_accessibility(DW_ACCESS_public)
    5011              
    5012              $C$DW$390       .dwtag  DW_TAG_member
    5013                      .dwattr $C$DW$390, DW_AT_type(*$C$DW$T$19)
TMS320C2000 Assembler PC v22.6.1 Wed May 21 09:51:55 2025

Copyright (c) 1996-2018 Texas Instruments Incorporated
C:\Users\Daniel\AppData\Local\Temp\{78ED34F4-3C3B-4D89-8F5D-B64BD43A86E6} PAGE   96

    5014                      .dwattr $C$DW$390, DW_AT_name("ERR_TYPE_H")
    5015                      .dwattr $C$DW$390, DW_AT_TI_symbol_name("_ERR_TYPE_H")
    5016                      .dwattr $C$DW$390, DW_AT_bit_offset(0x07)
    5017                      .dwattr $C$DW$390, DW_AT_bit_size(0x01)
    5018                      .dwattr $C$DW$390, DW_AT_data_member_location[DW_OP_plus_uconst 0x1]
    5019                      .dwattr $C$DW$390, DW_AT_accessibility(DW_ACCESS_public)
    5020              
    5021              $C$DW$391       .dwtag  DW_TAG_member
    5022                      .dwattr $C$DW$391, DW_AT_type(*$C$DW$T$19)
    5023                      .dwattr $C$DW$391, DW_AT_name("rsvd4")
    5024                      .dwattr $C$DW$391, DW_AT_TI_symbol_name("_rsvd4")
    5025                      .dwattr $C$DW$391, DW_AT_bit_offset(0x00)
    5026                      .dwattr $C$DW$391, DW_AT_bit_size(0x07)
    5027                      .dwattr $C$DW$391, DW_AT_data_member_location[DW_OP_plus_uconst 0x1]
    5028                      .dwattr $C$DW$391, DW_AT_accessibility(DW_ACCESS_public)
    5029              
    5030                      .dwendtag $C$DW$T$84
    5031              
    5032              
    5033              $C$DW$T$85      .dwtag  DW_TAG_union_type
    5034                      .dwattr $C$DW$T$85, DW_AT_name("ERR_POS_REG")
    5035                      .dwattr $C$DW$T$85, DW_AT_byte_size(0x02)
    5036              $C$DW$392       .dwtag  DW_TAG_member
    5037                      .dwattr $C$DW$392, DW_AT_type(*$C$DW$T$21)
    5038                      .dwattr $C$DW$392, DW_AT_name("all")
    5039                      .dwattr $C$DW$392, DW_AT_TI_symbol_name("_all")
    5040                      .dwattr $C$DW$392, DW_AT_data_member_location[DW_OP_plus_uconst 0x0]
    5041                      .dwattr $C$DW$392, DW_AT_accessibility(DW_ACCESS_public)
    5042              
    5043              $C$DW$393       .dwtag  DW_TAG_member
    5044                      .dwattr $C$DW$393, DW_AT_type(*$C$DW$T$84)
    5045                      .dwattr $C$DW$393, DW_AT_name("bit")
    5046                      .dwattr $C$DW$393, DW_AT_TI_symbol_name("_bit")
    5047                      .dwattr $C$DW$393, DW_AT_data_member_location[DW_OP_plus_uconst 0x0]
    5048                      .dwattr $C$DW$393, DW_AT_accessibility(DW_ACCESS_public)
    5049              
    5050                      .dwendtag $C$DW$T$85
    5051              
    5052              
    5053              $C$DW$T$86      .dwtag  DW_TAG_structure_type
    5054                      .dwattr $C$DW$T$86, DW_AT_name("ERR_STATUS_BITS")
    5055                      .dwattr $C$DW$T$86, DW_AT_byte_size(0x02)
    5056              $C$DW$394       .dwtag  DW_TAG_member
    5057                      .dwattr $C$DW$394, DW_AT_type(*$C$DW$T$19)
    5058                      .dwattr $C$DW$394, DW_AT_name("FAIL_0_L")
    5059                      .dwattr $C$DW$394, DW_AT_TI_symbol_name("_FAIL_0_L")
    5060                      .dwattr $C$DW$394, DW_AT_bit_offset(0x0f)
    5061                      .dwattr $C$DW$394, DW_AT_bit_size(0x01)
    5062                      .dwattr $C$DW$394, DW_AT_data_member_location[DW_OP_plus_uconst 0x0]
    5063                      .dwattr $C$DW$394, DW_AT_accessibility(DW_ACCESS_public)
    5064              
    5065              $C$DW$395       .dwtag  DW_TAG_member
    5066                      .dwattr $C$DW$395, DW_AT_type(*$C$DW$T$19)
    5067                      .dwattr $C$DW$395, DW_AT_name("FAIL_1_L")
    5068                      .dwattr $C$DW$395, DW_AT_TI_symbol_name("_FAIL_1_L")
TMS320C2000 Assembler PC v22.6.1 Wed May 21 09:51:55 2025

Copyright (c) 1996-2018 Texas Instruments Incorporated
C:\Users\Daniel\AppData\Local\Temp\{78ED34F4-3C3B-4D89-8F5D-B64BD43A86E6} PAGE   97

    5069                      .dwattr $C$DW$395, DW_AT_bit_offset(0x0e)
    5070                      .dwattr $C$DW$395, DW_AT_bit_size(0x01)
    5071                      .dwattr $C$DW$395, DW_AT_data_member_location[DW_OP_plus_uconst 0x0]
    5072                      .dwattr $C$DW$395, DW_AT_accessibility(DW_ACCESS_public)
    5073              
    5074              $C$DW$396       .dwtag  DW_TAG_member
    5075                      .dwattr $C$DW$396, DW_AT_type(*$C$DW$T$19)
    5076                      .dwattr $C$DW$396, DW_AT_name("UNC_ERR_L")
    5077                      .dwattr $C$DW$396, DW_AT_TI_symbol_name("_UNC_ERR_L")
    5078                      .dwattr $C$DW$396, DW_AT_bit_offset(0x0d)
    5079                      .dwattr $C$DW$396, DW_AT_bit_size(0x01)
    5080                      .dwattr $C$DW$396, DW_AT_data_member_location[DW_OP_plus_uconst 0x0]
    5081                      .dwattr $C$DW$396, DW_AT_accessibility(DW_ACCESS_public)
    5082              
    5083              $C$DW$397       .dwtag  DW_TAG_member
    5084                      .dwattr $C$DW$397, DW_AT_type(*$C$DW$T$19)
    5085                      .dwattr $C$DW$397, DW_AT_name("rsvd1")
    5086                      .dwattr $C$DW$397, DW_AT_TI_symbol_name("_rsvd1")
    5087                      .dwattr $C$DW$397, DW_AT_bit_offset(0x00)
    5088                      .dwattr $C$DW$397, DW_AT_bit_size(0x0d)
    5089                      .dwattr $C$DW$397, DW_AT_data_member_location[DW_OP_plus_uconst 0x0]
    5090                      .dwattr $C$DW$397, DW_AT_accessibility(DW_ACCESS_public)
    5091              
    5092              $C$DW$398       .dwtag  DW_TAG_member
    5093                      .dwattr $C$DW$398, DW_AT_type(*$C$DW$T$19)
    5094                      .dwattr $C$DW$398, DW_AT_name("FAIL_0_H")
    5095                      .dwattr $C$DW$398, DW_AT_TI_symbol_name("_FAIL_0_H")
    5096                      .dwattr $C$DW$398, DW_AT_bit_offset(0x0f)
    5097                      .dwattr $C$DW$398, DW_AT_bit_size(0x01)
    5098                      .dwattr $C$DW$398, DW_AT_data_member_location[DW_OP_plus_uconst 0x1]
    5099                      .dwattr $C$DW$398, DW_AT_accessibility(DW_ACCESS_public)
    5100              
    5101              $C$DW$399       .dwtag  DW_TAG_member
    5102                      .dwattr $C$DW$399, DW_AT_type(*$C$DW$T$19)
    5103                      .dwattr $C$DW$399, DW_AT_name("FAIL_1_H")
    5104                      .dwattr $C$DW$399, DW_AT_TI_symbol_name("_FAIL_1_H")
    5105                      .dwattr $C$DW$399, DW_AT_bit_offset(0x0e)
    5106                      .dwattr $C$DW$399, DW_AT_bit_size(0x01)
    5107                      .dwattr $C$DW$399, DW_AT_data_member_location[DW_OP_plus_uconst 0x1]
    5108                      .dwattr $C$DW$399, DW_AT_accessibility(DW_ACCESS_public)
    5109              
    5110              $C$DW$400       .dwtag  DW_TAG_member
    5111                      .dwattr $C$DW$400, DW_AT_type(*$C$DW$T$19)
    5112                      .dwattr $C$DW$400, DW_AT_name("UNC_ERR_H")
    5113                      .dwattr $C$DW$400, DW_AT_TI_symbol_name("_UNC_ERR_H")
    5114                      .dwattr $C$DW$400, DW_AT_bit_offset(0x0d)
    5115                      .dwattr $C$DW$400, DW_AT_bit_size(0x01)
    5116                      .dwattr $C$DW$400, DW_AT_data_member_location[DW_OP_plus_uconst 0x1]
    5117                      .dwattr $C$DW$400, DW_AT_accessibility(DW_ACCESS_public)
    5118              
    5119              $C$DW$401       .dwtag  DW_TAG_member
    5120                      .dwattr $C$DW$401, DW_AT_type(*$C$DW$T$19)
    5121                      .dwattr $C$DW$401, DW_AT_name("rsvd2")
    5122                      .dwattr $C$DW$401, DW_AT_TI_symbol_name("_rsvd2")
    5123                      .dwattr $C$DW$401, DW_AT_bit_offset(0x00)
TMS320C2000 Assembler PC v22.6.1 Wed May 21 09:51:55 2025

Copyright (c) 1996-2018 Texas Instruments Incorporated
C:\Users\Daniel\AppData\Local\Temp\{78ED34F4-3C3B-4D89-8F5D-B64BD43A86E6} PAGE   98

    5124                      .dwattr $C$DW$401, DW_AT_bit_size(0x0d)
    5125                      .dwattr $C$DW$401, DW_AT_data_member_location[DW_OP_plus_uconst 0x1]
    5126                      .dwattr $C$DW$401, DW_AT_accessibility(DW_ACCESS_public)
    5127              
    5128                      .dwendtag $C$DW$T$86
    5129              
    5130              
    5131              $C$DW$T$87      .dwtag  DW_TAG_structure_type
    5132                      .dwattr $C$DW$T$87, DW_AT_name("ERR_STATUS_CLR_BITS")
    5133                      .dwattr $C$DW$T$87, DW_AT_byte_size(0x02)
    5134              $C$DW$402       .dwtag  DW_TAG_member
    5135                      .dwattr $C$DW$402, DW_AT_type(*$C$DW$T$19)
    5136                      .dwattr $C$DW$402, DW_AT_name("FAIL_0_L_CLR")
    5137                      .dwattr $C$DW$402, DW_AT_TI_symbol_name("_FAIL_0_L_CLR")
    5138                      .dwattr $C$DW$402, DW_AT_bit_offset(0x0f)
    5139                      .dwattr $C$DW$402, DW_AT_bit_size(0x01)
    5140                      .dwattr $C$DW$402, DW_AT_data_member_location[DW_OP_plus_uconst 0x0]
    5141                      .dwattr $C$DW$402, DW_AT_accessibility(DW_ACCESS_public)
    5142              
    5143              $C$DW$403       .dwtag  DW_TAG_member
    5144                      .dwattr $C$DW$403, DW_AT_type(*$C$DW$T$19)
    5145                      .dwattr $C$DW$403, DW_AT_name("FAIL_1_L_CLR")
    5146                      .dwattr $C$DW$403, DW_AT_TI_symbol_name("_FAIL_1_L_CLR")
    5147                      .dwattr $C$DW$403, DW_AT_bit_offset(0x0e)
    5148                      .dwattr $C$DW$403, DW_AT_bit_size(0x01)
    5149                      .dwattr $C$DW$403, DW_AT_data_member_location[DW_OP_plus_uconst 0x0]
    5150                      .dwattr $C$DW$403, DW_AT_accessibility(DW_ACCESS_public)
    5151              
    5152              $C$DW$404       .dwtag  DW_TAG_member
    5153                      .dwattr $C$DW$404, DW_AT_type(*$C$DW$T$19)
    5154                      .dwattr $C$DW$404, DW_AT_name("UNC_ERR_L_CLR")
    5155                      .dwattr $C$DW$404, DW_AT_TI_symbol_name("_UNC_ERR_L_CLR")
    5156                      .dwattr $C$DW$404, DW_AT_bit_offset(0x0d)
    5157                      .dwattr $C$DW$404, DW_AT_bit_size(0x01)
    5158                      .dwattr $C$DW$404, DW_AT_data_member_location[DW_OP_plus_uconst 0x0]
    5159                      .dwattr $C$DW$404, DW_AT_accessibility(DW_ACCESS_public)
    5160              
    5161              $C$DW$405       .dwtag  DW_TAG_member
    5162                      .dwattr $C$DW$405, DW_AT_type(*$C$DW$T$19)
    5163                      .dwattr $C$DW$405, DW_AT_name("rsvd1")
    5164                      .dwattr $C$DW$405, DW_AT_TI_symbol_name("_rsvd1")
    5165                      .dwattr $C$DW$405, DW_AT_bit_offset(0x00)
    5166                      .dwattr $C$DW$405, DW_AT_bit_size(0x0d)
    5167                      .dwattr $C$DW$405, DW_AT_data_member_location[DW_OP_plus_uconst 0x0]
    5168                      .dwattr $C$DW$405, DW_AT_accessibility(DW_ACCESS_public)
    5169              
    5170              $C$DW$406       .dwtag  DW_TAG_member
    5171                      .dwattr $C$DW$406, DW_AT_type(*$C$DW$T$19)
    5172                      .dwattr $C$DW$406, DW_AT_name("FAIL_0_H_CLR")
    5173                      .dwattr $C$DW$406, DW_AT_TI_symbol_name("_FAIL_0_H_CLR")
    5174                      .dwattr $C$DW$406, DW_AT_bit_offset(0x0f)
    5175                      .dwattr $C$DW$406, DW_AT_bit_size(0x01)
    5176                      .dwattr $C$DW$406, DW_AT_data_member_location[DW_OP_plus_uconst 0x1]
    5177                      .dwattr $C$DW$406, DW_AT_accessibility(DW_ACCESS_public)
    5178              
TMS320C2000 Assembler PC v22.6.1 Wed May 21 09:51:55 2025

Copyright (c) 1996-2018 Texas Instruments Incorporated
C:\Users\Daniel\AppData\Local\Temp\{78ED34F4-3C3B-4D89-8F5D-B64BD43A86E6} PAGE   99

    5179              $C$DW$407       .dwtag  DW_TAG_member
    5180                      .dwattr $C$DW$407, DW_AT_type(*$C$DW$T$19)
    5181                      .dwattr $C$DW$407, DW_AT_name("FAIL_1_H_CLR")
    5182                      .dwattr $C$DW$407, DW_AT_TI_symbol_name("_FAIL_1_H_CLR")
    5183                      .dwattr $C$DW$407, DW_AT_bit_offset(0x0e)
    5184                      .dwattr $C$DW$407, DW_AT_bit_size(0x01)
    5185                      .dwattr $C$DW$407, DW_AT_data_member_location[DW_OP_plus_uconst 0x1]
    5186                      .dwattr $C$DW$407, DW_AT_accessibility(DW_ACCESS_public)
    5187              
    5188              $C$DW$408       .dwtag  DW_TAG_member
    5189                      .dwattr $C$DW$408, DW_AT_type(*$C$DW$T$19)
    5190                      .dwattr $C$DW$408, DW_AT_name("UNC_ERR_H_CLR")
    5191                      .dwattr $C$DW$408, DW_AT_TI_symbol_name("_UNC_ERR_H_CLR")
    5192                      .dwattr $C$DW$408, DW_AT_bit_offset(0x0d)
    5193                      .dwattr $C$DW$408, DW_AT_bit_size(0x01)
    5194                      .dwattr $C$DW$408, DW_AT_data_member_location[DW_OP_plus_uconst 0x1]
    5195                      .dwattr $C$DW$408, DW_AT_accessibility(DW_ACCESS_public)
    5196              
    5197              $C$DW$409       .dwtag  DW_TAG_member
    5198                      .dwattr $C$DW$409, DW_AT_type(*$C$DW$T$19)
    5199                      .dwattr $C$DW$409, DW_AT_name("rsvd2")
    5200                      .dwattr $C$DW$409, DW_AT_TI_symbol_name("_rsvd2")
    5201                      .dwattr $C$DW$409, DW_AT_bit_offset(0x00)
    5202                      .dwattr $C$DW$409, DW_AT_bit_size(0x0d)
    5203                      .dwattr $C$DW$409, DW_AT_data_member_location[DW_OP_plus_uconst 0x1]
    5204                      .dwattr $C$DW$409, DW_AT_accessibility(DW_ACCESS_public)
    5205              
    5206                      .dwendtag $C$DW$T$87
    5207              
    5208              
    5209              $C$DW$T$88      .dwtag  DW_TAG_union_type
    5210                      .dwattr $C$DW$T$88, DW_AT_name("ERR_STATUS_CLR_REG")
    5211                      .dwattr $C$DW$T$88, DW_AT_byte_size(0x02)
    5212              $C$DW$410       .dwtag  DW_TAG_member
    5213                      .dwattr $C$DW$410, DW_AT_type(*$C$DW$T$21)
    5214                      .dwattr $C$DW$410, DW_AT_name("all")
    5215                      .dwattr $C$DW$410, DW_AT_TI_symbol_name("_all")
    5216                      .dwattr $C$DW$410, DW_AT_data_member_location[DW_OP_plus_uconst 0x0]
    5217                      .dwattr $C$DW$410, DW_AT_accessibility(DW_ACCESS_public)
    5218              
    5219              $C$DW$411       .dwtag  DW_TAG_member
    5220                      .dwattr $C$DW$411, DW_AT_type(*$C$DW$T$87)
    5221                      .dwattr $C$DW$411, DW_AT_name("bit")
    5222                      .dwattr $C$DW$411, DW_AT_TI_symbol_name("_bit")
    5223                      .dwattr $C$DW$411, DW_AT_data_member_location[DW_OP_plus_uconst 0x0]
    5224                      .dwattr $C$DW$411, DW_AT_accessibility(DW_ACCESS_public)
    5225              
    5226                      .dwendtag $C$DW$T$88
    5227              
    5228              
    5229              $C$DW$T$89      .dwtag  DW_TAG_union_type
    5230                      .dwattr $C$DW$T$89, DW_AT_name("ERR_STATUS_REG")
    5231                      .dwattr $C$DW$T$89, DW_AT_byte_size(0x02)
    5232              $C$DW$412       .dwtag  DW_TAG_member
    5233                      .dwattr $C$DW$412, DW_AT_type(*$C$DW$T$21)
TMS320C2000 Assembler PC v22.6.1 Wed May 21 09:51:55 2025

Copyright (c) 1996-2018 Texas Instruments Incorporated
C:\Users\Daniel\AppData\Local\Temp\{78ED34F4-3C3B-4D89-8F5D-B64BD43A86E6} PAGE  100

    5234                      .dwattr $C$DW$412, DW_AT_name("all")
    5235                      .dwattr $C$DW$412, DW_AT_TI_symbol_name("_all")
    5236                      .dwattr $C$DW$412, DW_AT_data_member_location[DW_OP_plus_uconst 0x0]
    5237                      .dwattr $C$DW$412, DW_AT_accessibility(DW_ACCESS_public)
    5238              
    5239              $C$DW$413       .dwtag  DW_TAG_member
    5240                      .dwattr $C$DW$413, DW_AT_type(*$C$DW$T$86)
    5241                      .dwattr $C$DW$413, DW_AT_name("bit")
    5242                      .dwattr $C$DW$413, DW_AT_TI_symbol_name("_bit")
    5243                      .dwattr $C$DW$413, DW_AT_data_member_location[DW_OP_plus_uconst 0x0]
    5244                      .dwattr $C$DW$413, DW_AT_accessibility(DW_ACCESS_public)
    5245              
    5246                      .dwendtag $C$DW$T$89
    5247              
    5248              
    5249              $C$DW$T$90      .dwtag  DW_TAG_structure_type
    5250                      .dwattr $C$DW$T$90, DW_AT_name("ERR_THRESHOLD_BITS")
    5251                      .dwattr $C$DW$T$90, DW_AT_byte_size(0x02)
    5252              $C$DW$414       .dwtag  DW_TAG_member
    5253                      .dwattr $C$DW$414, DW_AT_type(*$C$DW$T$19)
    5254                      .dwattr $C$DW$414, DW_AT_name("ERR_THRESHOLD")
    5255                      .dwattr $C$DW$414, DW_AT_TI_symbol_name("_ERR_THRESHOLD")
    5256                      .dwattr $C$DW$414, DW_AT_bit_offset(0x00)
    5257                      .dwattr $C$DW$414, DW_AT_bit_size(0x10)
    5258                      .dwattr $C$DW$414, DW_AT_data_member_location[DW_OP_plus_uconst 0x0]
    5259                      .dwattr $C$DW$414, DW_AT_accessibility(DW_ACCESS_public)
    5260              
    5261              $C$DW$415       .dwtag  DW_TAG_member
    5262                      .dwattr $C$DW$415, DW_AT_type(*$C$DW$T$19)
    5263                      .dwattr $C$DW$415, DW_AT_name("rsvd1")
    5264                      .dwattr $C$DW$415, DW_AT_TI_symbol_name("_rsvd1")
    5265                      .dwattr $C$DW$415, DW_AT_bit_offset(0x00)
    5266                      .dwattr $C$DW$415, DW_AT_bit_size(0x10)
    5267                      .dwattr $C$DW$415, DW_AT_data_member_location[DW_OP_plus_uconst 0x1]
    5268                      .dwattr $C$DW$415, DW_AT_accessibility(DW_ACCESS_public)
    5269              
    5270                      .dwendtag $C$DW$T$90
    5271              
    5272              
    5273              $C$DW$T$91      .dwtag  DW_TAG_union_type
    5274                      .dwattr $C$DW$T$91, DW_AT_name("ERR_THRESHOLD_REG")
    5275                      .dwattr $C$DW$T$91, DW_AT_byte_size(0x02)
    5276              $C$DW$416       .dwtag  DW_TAG_member
    5277                      .dwattr $C$DW$416, DW_AT_type(*$C$DW$T$21)
    5278                      .dwattr $C$DW$416, DW_AT_name("all")
    5279                      .dwattr $C$DW$416, DW_AT_TI_symbol_name("_all")
    5280                      .dwattr $C$DW$416, DW_AT_data_member_location[DW_OP_plus_uconst 0x0]
    5281                      .dwattr $C$DW$416, DW_AT_accessibility(DW_ACCESS_public)
    5282              
    5283              $C$DW$417       .dwtag  DW_TAG_member
    5284                      .dwattr $C$DW$417, DW_AT_type(*$C$DW$T$90)
    5285                      .dwattr $C$DW$417, DW_AT_name("bit")
    5286                      .dwattr $C$DW$417, DW_AT_TI_symbol_name("_bit")
    5287                      .dwattr $C$DW$417, DW_AT_data_member_location[DW_OP_plus_uconst 0x0]
    5288                      .dwattr $C$DW$417, DW_AT_accessibility(DW_ACCESS_public)
TMS320C2000 Assembler PC v22.6.1 Wed May 21 09:51:55 2025

Copyright (c) 1996-2018 Texas Instruments Incorporated
C:\Users\Daniel\AppData\Local\Temp\{78ED34F4-3C3B-4D89-8F5D-B64BD43A86E6} PAGE  101

    5289              
    5290                      .dwendtag $C$DW$T$91
    5291              
    5292              
    5293              $C$DW$T$92      .dwtag  DW_TAG_structure_type
    5294                      .dwattr $C$DW$T$92, DW_AT_name("FADDR_TEST_BITS")
    5295                      .dwattr $C$DW$T$92, DW_AT_byte_size(0x02)
    5296              $C$DW$418       .dwtag  DW_TAG_member
    5297                      .dwattr $C$DW$418, DW_AT_type(*$C$DW$T$19)
    5298                      .dwattr $C$DW$418, DW_AT_name("rsvd1")
    5299                      .dwattr $C$DW$418, DW_AT_TI_symbol_name("_rsvd1")
    5300                      .dwattr $C$DW$418, DW_AT_bit_offset(0x0d)
    5301                      .dwattr $C$DW$418, DW_AT_bit_size(0x03)
    5302                      .dwattr $C$DW$418, DW_AT_data_member_location[DW_OP_plus_uconst 0x0]
    5303                      .dwattr $C$DW$418, DW_AT_accessibility(DW_ACCESS_public)
    5304              
    5305              $C$DW$419       .dwtag  DW_TAG_member
    5306                      .dwattr $C$DW$419, DW_AT_type(*$C$DW$T$19)
    5307                      .dwattr $C$DW$419, DW_AT_name("ADDRL")
    5308                      .dwattr $C$DW$419, DW_AT_TI_symbol_name("_ADDRL")
    5309                      .dwattr $C$DW$419, DW_AT_bit_offset(0x00)
    5310                      .dwattr $C$DW$419, DW_AT_bit_size(0x0d)
    5311                      .dwattr $C$DW$419, DW_AT_data_member_location[DW_OP_plus_uconst 0x0]
    5312                      .dwattr $C$DW$419, DW_AT_accessibility(DW_ACCESS_public)
    5313              
    5314              $C$DW$420       .dwtag  DW_TAG_member
    5315                      .dwattr $C$DW$420, DW_AT_type(*$C$DW$T$19)
    5316                      .dwattr $C$DW$420, DW_AT_name("ADDRH")
    5317                      .dwattr $C$DW$420, DW_AT_TI_symbol_name("_ADDRH")
    5318                      .dwattr $C$DW$420, DW_AT_bit_offset(0x0a)
    5319                      .dwattr $C$DW$420, DW_AT_bit_size(0x06)
    5320                      .dwattr $C$DW$420, DW_AT_data_member_location[DW_OP_plus_uconst 0x1]
    5321                      .dwattr $C$DW$420, DW_AT_accessibility(DW_ACCESS_public)
    5322              
    5323              $C$DW$421       .dwtag  DW_TAG_member
    5324                      .dwattr $C$DW$421, DW_AT_type(*$C$DW$T$19)
    5325                      .dwattr $C$DW$421, DW_AT_name("rsvd2")
    5326                      .dwattr $C$DW$421, DW_AT_TI_symbol_name("_rsvd2")
    5327                      .dwattr $C$DW$421, DW_AT_bit_offset(0x00)
    5328                      .dwattr $C$DW$421, DW_AT_bit_size(0x0a)
    5329                      .dwattr $C$DW$421, DW_AT_data_member_location[DW_OP_plus_uconst 0x1]
    5330                      .dwattr $C$DW$421, DW_AT_accessibility(DW_ACCESS_public)
    5331              
    5332                      .dwendtag $C$DW$T$92
    5333              
    5334              
    5335              $C$DW$T$93      .dwtag  DW_TAG_union_type
    5336                      .dwattr $C$DW$T$93, DW_AT_name("FADDR_TEST_REG")
    5337                      .dwattr $C$DW$T$93, DW_AT_byte_size(0x02)
    5338              $C$DW$422       .dwtag  DW_TAG_member
    5339                      .dwattr $C$DW$422, DW_AT_type(*$C$DW$T$21)
    5340                      .dwattr $C$DW$422, DW_AT_name("all")
    5341                      .dwattr $C$DW$422, DW_AT_TI_symbol_name("_all")
    5342                      .dwattr $C$DW$422, DW_AT_data_member_location[DW_OP_plus_uconst 0x0]
    5343                      .dwattr $C$DW$422, DW_AT_accessibility(DW_ACCESS_public)
TMS320C2000 Assembler PC v22.6.1 Wed May 21 09:51:55 2025

Copyright (c) 1996-2018 Texas Instruments Incorporated
C:\Users\Daniel\AppData\Local\Temp\{78ED34F4-3C3B-4D89-8F5D-B64BD43A86E6} PAGE  102

    5344              
    5345              $C$DW$423       .dwtag  DW_TAG_member
    5346                      .dwattr $C$DW$423, DW_AT_type(*$C$DW$T$92)
    5347                      .dwattr $C$DW$423, DW_AT_name("bit")
    5348                      .dwattr $C$DW$423, DW_AT_TI_symbol_name("_bit")
    5349                      .dwattr $C$DW$423, DW_AT_data_member_location[DW_OP_plus_uconst 0x0]
    5350                      .dwattr $C$DW$423, DW_AT_accessibility(DW_ACCESS_public)
    5351              
    5352                      .dwendtag $C$DW$T$93
    5353              
    5354              
    5355              $C$DW$T$94      .dwtag  DW_TAG_structure_type
    5356                      .dwattr $C$DW$T$94, DW_AT_name("FBAC_BITS")
    5357                      .dwattr $C$DW$T$94, DW_AT_byte_size(0x02)
    5358              $C$DW$424       .dwtag  DW_TAG_member
    5359                      .dwattr $C$DW$424, DW_AT_type(*$C$DW$T$19)
    5360                      .dwattr $C$DW$424, DW_AT_name("rsvd1")
    5361                      .dwattr $C$DW$424, DW_AT_TI_symbol_name("_rsvd1")
    5362                      .dwattr $C$DW$424, DW_AT_bit_offset(0x08)
    5363                      .dwattr $C$DW$424, DW_AT_bit_size(0x08)
    5364                      .dwattr $C$DW$424, DW_AT_data_member_location[DW_OP_plus_uconst 0x0]
    5365                      .dwattr $C$DW$424, DW_AT_accessibility(DW_ACCESS_public)
    5366              
    5367              $C$DW$425       .dwtag  DW_TAG_member
    5368                      .dwattr $C$DW$425, DW_AT_type(*$C$DW$T$19)
    5369                      .dwattr $C$DW$425, DW_AT_name("BAGP")
    5370                      .dwattr $C$DW$425, DW_AT_TI_symbol_name("_BAGP")
    5371                      .dwattr $C$DW$425, DW_AT_bit_offset(0x00)
    5372                      .dwattr $C$DW$425, DW_AT_bit_size(0x08)
    5373                      .dwattr $C$DW$425, DW_AT_data_member_location[DW_OP_plus_uconst 0x0]
    5374                      .dwattr $C$DW$425, DW_AT_accessibility(DW_ACCESS_public)
    5375              
    5376              $C$DW$426       .dwtag  DW_TAG_member
    5377                      .dwattr $C$DW$426, DW_AT_type(*$C$DW$T$19)
    5378                      .dwattr $C$DW$426, DW_AT_name("rsvd2")
    5379                      .dwattr $C$DW$426, DW_AT_TI_symbol_name("_rsvd2")
    5380                      .dwattr $C$DW$426, DW_AT_bit_offset(0x00)
    5381                      .dwattr $C$DW$426, DW_AT_bit_size(0x10)
    5382                      .dwattr $C$DW$426, DW_AT_data_member_location[DW_OP_plus_uconst 0x1]
    5383                      .dwattr $C$DW$426, DW_AT_accessibility(DW_ACCESS_public)
    5384              
    5385                      .dwendtag $C$DW$T$94
    5386              
    5387              
    5388              $C$DW$T$95      .dwtag  DW_TAG_union_type
    5389                      .dwattr $C$DW$T$95, DW_AT_name("FBAC_REG")
    5390                      .dwattr $C$DW$T$95, DW_AT_byte_size(0x02)
    5391              $C$DW$427       .dwtag  DW_TAG_member
    5392                      .dwattr $C$DW$427, DW_AT_type(*$C$DW$T$21)
    5393                      .dwattr $C$DW$427, DW_AT_name("all")
    5394                      .dwattr $C$DW$427, DW_AT_TI_symbol_name("_all")
    5395                      .dwattr $C$DW$427, DW_AT_data_member_location[DW_OP_plus_uconst 0x0]
    5396                      .dwattr $C$DW$427, DW_AT_accessibility(DW_ACCESS_public)
    5397              
    5398              $C$DW$428       .dwtag  DW_TAG_member
TMS320C2000 Assembler PC v22.6.1 Wed May 21 09:51:55 2025

Copyright (c) 1996-2018 Texas Instruments Incorporated
C:\Users\Daniel\AppData\Local\Temp\{78ED34F4-3C3B-4D89-8F5D-B64BD43A86E6} PAGE  103

    5399                      .dwattr $C$DW$428, DW_AT_type(*$C$DW$T$94)
    5400                      .dwattr $C$DW$428, DW_AT_name("bit")
    5401                      .dwattr $C$DW$428, DW_AT_TI_symbol_name("_bit")
    5402                      .dwattr $C$DW$428, DW_AT_data_member_location[DW_OP_plus_uconst 0x0]
    5403                      .dwattr $C$DW$428, DW_AT_accessibility(DW_ACCESS_public)
    5404              
    5405                      .dwendtag $C$DW$T$95
    5406              
    5407              
    5408              $C$DW$T$96      .dwtag  DW_TAG_structure_type
    5409                      .dwattr $C$DW$T$96, DW_AT_name("FBFALLBACK_BITS")
    5410                      .dwattr $C$DW$T$96, DW_AT_byte_size(0x02)
    5411              $C$DW$429       .dwtag  DW_TAG_member
    5412                      .dwattr $C$DW$429, DW_AT_type(*$C$DW$T$19)
    5413                      .dwattr $C$DW$429, DW_AT_name("BNKPWR0")
    5414                      .dwattr $C$DW$429, DW_AT_TI_symbol_name("_BNKPWR0")
    5415                      .dwattr $C$DW$429, DW_AT_bit_offset(0x0e)
    5416                      .dwattr $C$DW$429, DW_AT_bit_size(0x02)
    5417                      .dwattr $C$DW$429, DW_AT_data_member_location[DW_OP_plus_uconst 0x0]
    5418                      .dwattr $C$DW$429, DW_AT_accessibility(DW_ACCESS_public)
    5419              
    5420              $C$DW$430       .dwtag  DW_TAG_member
    5421                      .dwattr $C$DW$430, DW_AT_type(*$C$DW$T$19)
    5422                      .dwattr $C$DW$430, DW_AT_name("BNKPWR1")
    5423                      .dwattr $C$DW$430, DW_AT_TI_symbol_name("_BNKPWR1")
    5424                      .dwattr $C$DW$430, DW_AT_bit_offset(0x0c)
    5425                      .dwattr $C$DW$430, DW_AT_bit_size(0x02)
    5426                      .dwattr $C$DW$430, DW_AT_data_member_location[DW_OP_plus_uconst 0x0]
    5427                      .dwattr $C$DW$430, DW_AT_accessibility(DW_ACCESS_public)
    5428              
    5429              $C$DW$431       .dwtag  DW_TAG_member
    5430                      .dwattr $C$DW$431, DW_AT_type(*$C$DW$T$19)
    5431                      .dwattr $C$DW$431, DW_AT_name("BNKPWR2")
    5432                      .dwattr $C$DW$431, DW_AT_TI_symbol_name("_BNKPWR2")
    5433                      .dwattr $C$DW$431, DW_AT_bit_offset(0x0a)
    5434                      .dwattr $C$DW$431, DW_AT_bit_size(0x02)
    5435                      .dwattr $C$DW$431, DW_AT_data_member_location[DW_OP_plus_uconst 0x0]
    5436                      .dwattr $C$DW$431, DW_AT_accessibility(DW_ACCESS_public)
    5437              
    5438              $C$DW$432       .dwtag  DW_TAG_member
    5439                      .dwattr $C$DW$432, DW_AT_type(*$C$DW$T$19)
    5440                      .dwattr $C$DW$432, DW_AT_name("rsvd1")
    5441                      .dwattr $C$DW$432, DW_AT_TI_symbol_name("_rsvd1")
    5442                      .dwattr $C$DW$432, DW_AT_bit_offset(0x00)
    5443                      .dwattr $C$DW$432, DW_AT_bit_size(0x0a)
    5444                      .dwattr $C$DW$432, DW_AT_data_member_location[DW_OP_plus_uconst 0x0]
    5445                      .dwattr $C$DW$432, DW_AT_accessibility(DW_ACCESS_public)
    5446              
    5447              $C$DW$433       .dwtag  DW_TAG_member
    5448                      .dwattr $C$DW$433, DW_AT_type(*$C$DW$T$19)
    5449                      .dwattr $C$DW$433, DW_AT_name("rsvd2")
    5450                      .dwattr $C$DW$433, DW_AT_TI_symbol_name("_rsvd2")
    5451                      .dwattr $C$DW$433, DW_AT_bit_offset(0x00)
    5452                      .dwattr $C$DW$433, DW_AT_bit_size(0x10)
    5453                      .dwattr $C$DW$433, DW_AT_data_member_location[DW_OP_plus_uconst 0x1]
TMS320C2000 Assembler PC v22.6.1 Wed May 21 09:51:55 2025

Copyright (c) 1996-2018 Texas Instruments Incorporated
C:\Users\Daniel\AppData\Local\Temp\{78ED34F4-3C3B-4D89-8F5D-B64BD43A86E6} PAGE  104

    5454                      .dwattr $C$DW$433, DW_AT_accessibility(DW_ACCESS_public)
    5455              
    5456                      .dwendtag $C$DW$T$96
    5457              
    5458              
    5459              $C$DW$T$97      .dwtag  DW_TAG_union_type
    5460                      .dwattr $C$DW$T$97, DW_AT_name("FBFALLBACK_REG")
    5461                      .dwattr $C$DW$T$97, DW_AT_byte_size(0x02)
    5462              $C$DW$434       .dwtag  DW_TAG_member
    5463                      .dwattr $C$DW$434, DW_AT_type(*$C$DW$T$21)
    5464                      .dwattr $C$DW$434, DW_AT_name("all")
    5465                      .dwattr $C$DW$434, DW_AT_TI_symbol_name("_all")
    5466                      .dwattr $C$DW$434, DW_AT_data_member_location[DW_OP_plus_uconst 0x0]
    5467                      .dwattr $C$DW$434, DW_AT_accessibility(DW_ACCESS_public)
    5468              
    5469              $C$DW$435       .dwtag  DW_TAG_member
    5470                      .dwattr $C$DW$435, DW_AT_type(*$C$DW$T$96)
    5471                      .dwattr $C$DW$435, DW_AT_name("bit")
    5472                      .dwattr $C$DW$435, DW_AT_TI_symbol_name("_bit")
    5473                      .dwattr $C$DW$435, DW_AT_data_member_location[DW_OP_plus_uconst 0x0]
    5474                      .dwattr $C$DW$435, DW_AT_accessibility(DW_ACCESS_public)
    5475              
    5476                      .dwendtag $C$DW$T$97
    5477              
    5478              
    5479              $C$DW$T$98      .dwtag  DW_TAG_structure_type
    5480                      .dwattr $C$DW$T$98, DW_AT_name("FBPRDY_BITS")
    5481                      .dwattr $C$DW$T$98, DW_AT_byte_size(0x02)
    5482              $C$DW$436       .dwtag  DW_TAG_member
    5483                      .dwattr $C$DW$436, DW_AT_type(*$C$DW$T$19)
    5484                      .dwattr $C$DW$436, DW_AT_name("BANK0RDY")
    5485                      .dwattr $C$DW$436, DW_AT_TI_symbol_name("_BANK0RDY")
    5486                      .dwattr $C$DW$436, DW_AT_bit_offset(0x0f)
    5487                      .dwattr $C$DW$436, DW_AT_bit_size(0x01)
    5488                      .dwattr $C$DW$436, DW_AT_data_member_location[DW_OP_plus_uconst 0x0]
    5489                      .dwattr $C$DW$436, DW_AT_accessibility(DW_ACCESS_public)
    5490              
    5491              $C$DW$437       .dwtag  DW_TAG_member
    5492                      .dwattr $C$DW$437, DW_AT_type(*$C$DW$T$19)
    5493                      .dwattr $C$DW$437, DW_AT_name("BANK1RDY")
    5494                      .dwattr $C$DW$437, DW_AT_TI_symbol_name("_BANK1RDY")
    5495                      .dwattr $C$DW$437, DW_AT_bit_offset(0x0e)
    5496                      .dwattr $C$DW$437, DW_AT_bit_size(0x01)
    5497                      .dwattr $C$DW$437, DW_AT_data_member_location[DW_OP_plus_uconst 0x0]
    5498                      .dwattr $C$DW$437, DW_AT_accessibility(DW_ACCESS_public)
    5499              
    5500              $C$DW$438       .dwtag  DW_TAG_member
    5501                      .dwattr $C$DW$438, DW_AT_type(*$C$DW$T$19)
    5502                      .dwattr $C$DW$438, DW_AT_name("BANK2RDY")
    5503                      .dwattr $C$DW$438, DW_AT_TI_symbol_name("_BANK2RDY")
    5504                      .dwattr $C$DW$438, DW_AT_bit_offset(0x0d)
    5505                      .dwattr $C$DW$438, DW_AT_bit_size(0x01)
    5506                      .dwattr $C$DW$438, DW_AT_data_member_location[DW_OP_plus_uconst 0x0]
    5507                      .dwattr $C$DW$438, DW_AT_accessibility(DW_ACCESS_public)
    5508              
TMS320C2000 Assembler PC v22.6.1 Wed May 21 09:51:55 2025

Copyright (c) 1996-2018 Texas Instruments Incorporated
C:\Users\Daniel\AppData\Local\Temp\{78ED34F4-3C3B-4D89-8F5D-B64BD43A86E6} PAGE  105

    5509              $C$DW$439       .dwtag  DW_TAG_member
    5510                      .dwattr $C$DW$439, DW_AT_type(*$C$DW$T$19)
    5511                      .dwattr $C$DW$439, DW_AT_name("rsvd1")
    5512                      .dwattr $C$DW$439, DW_AT_TI_symbol_name("_rsvd1")
    5513                      .dwattr $C$DW$439, DW_AT_bit_offset(0x01)
    5514                      .dwattr $C$DW$439, DW_AT_bit_size(0x0c)
    5515                      .dwattr $C$DW$439, DW_AT_data_member_location[DW_OP_plus_uconst 0x0]
    5516                      .dwattr $C$DW$439, DW_AT_accessibility(DW_ACCESS_public)
    5517              
    5518              $C$DW$440       .dwtag  DW_TAG_member
    5519                      .dwattr $C$DW$440, DW_AT_type(*$C$DW$T$19)
    5520                      .dwattr $C$DW$440, DW_AT_name("PUMPRDY")
    5521                      .dwattr $C$DW$440, DW_AT_TI_symbol_name("_PUMPRDY")
    5522                      .dwattr $C$DW$440, DW_AT_bit_offset(0x00)
    5523                      .dwattr $C$DW$440, DW_AT_bit_size(0x01)
    5524                      .dwattr $C$DW$440, DW_AT_data_member_location[DW_OP_plus_uconst 0x0]
    5525                      .dwattr $C$DW$440, DW_AT_accessibility(DW_ACCESS_public)
    5526              
    5527              $C$DW$441       .dwtag  DW_TAG_member
    5528                      .dwattr $C$DW$441, DW_AT_type(*$C$DW$T$19)
    5529                      .dwattr $C$DW$441, DW_AT_name("rsvd2")
    5530                      .dwattr $C$DW$441, DW_AT_TI_symbol_name("_rsvd2")
    5531                      .dwattr $C$DW$441, DW_AT_bit_offset(0x00)
    5532                      .dwattr $C$DW$441, DW_AT_bit_size(0x10)
    5533                      .dwattr $C$DW$441, DW_AT_data_member_location[DW_OP_plus_uconst 0x1]
    5534                      .dwattr $C$DW$441, DW_AT_accessibility(DW_ACCESS_public)
    5535              
    5536                      .dwendtag $C$DW$T$98
    5537              
    5538              
    5539              $C$DW$T$99      .dwtag  DW_TAG_union_type
    5540                      .dwattr $C$DW$T$99, DW_AT_name("FBPRDY_REG")
    5541                      .dwattr $C$DW$T$99, DW_AT_byte_size(0x02)
    5542              $C$DW$442       .dwtag  DW_TAG_member
    5543                      .dwattr $C$DW$442, DW_AT_type(*$C$DW$T$21)
    5544                      .dwattr $C$DW$442, DW_AT_name("all")
    5545                      .dwattr $C$DW$442, DW_AT_TI_symbol_name("_all")
    5546                      .dwattr $C$DW$442, DW_AT_data_member_location[DW_OP_plus_uconst 0x0]
    5547                      .dwattr $C$DW$442, DW_AT_accessibility(DW_ACCESS_public)
    5548              
    5549              $C$DW$443       .dwtag  DW_TAG_member
    5550                      .dwattr $C$DW$443, DW_AT_type(*$C$DW$T$98)
    5551                      .dwattr $C$DW$443, DW_AT_name("bit")
    5552                      .dwattr $C$DW$443, DW_AT_TI_symbol_name("_bit")
    5553                      .dwattr $C$DW$443, DW_AT_data_member_location[DW_OP_plus_uconst 0x0]
    5554                      .dwattr $C$DW$443, DW_AT_accessibility(DW_ACCESS_public)
    5555              
    5556                      .dwendtag $C$DW$T$99
    5557              
    5558              
    5559              $C$DW$T$100     .dwtag  DW_TAG_structure_type
    5560                      .dwattr $C$DW$T$100, DW_AT_name("FECC_CTRL_BITS")
    5561                      .dwattr $C$DW$T$100, DW_AT_byte_size(0x02)
    5562              $C$DW$444       .dwtag  DW_TAG_member
    5563                      .dwattr $C$DW$444, DW_AT_type(*$C$DW$T$19)
TMS320C2000 Assembler PC v22.6.1 Wed May 21 09:51:55 2025

Copyright (c) 1996-2018 Texas Instruments Incorporated
C:\Users\Daniel\AppData\Local\Temp\{78ED34F4-3C3B-4D89-8F5D-B64BD43A86E6} PAGE  106

    5564                      .dwattr $C$DW$444, DW_AT_name("ECC_TEST_EN")
    5565                      .dwattr $C$DW$444, DW_AT_TI_symbol_name("_ECC_TEST_EN")
    5566                      .dwattr $C$DW$444, DW_AT_bit_offset(0x0f)
    5567                      .dwattr $C$DW$444, DW_AT_bit_size(0x01)
    5568                      .dwattr $C$DW$444, DW_AT_data_member_location[DW_OP_plus_uconst 0x0]
    5569                      .dwattr $C$DW$444, DW_AT_accessibility(DW_ACCESS_public)
    5570              
    5571              $C$DW$445       .dwtag  DW_TAG_member
    5572                      .dwattr $C$DW$445, DW_AT_type(*$C$DW$T$19)
    5573                      .dwattr $C$DW$445, DW_AT_name("ECC_SELECT")
    5574                      .dwattr $C$DW$445, DW_AT_TI_symbol_name("_ECC_SELECT")
    5575                      .dwattr $C$DW$445, DW_AT_bit_offset(0x0e)
    5576                      .dwattr $C$DW$445, DW_AT_bit_size(0x01)
    5577                      .dwattr $C$DW$445, DW_AT_data_member_location[DW_OP_plus_uconst 0x0]
    5578                      .dwattr $C$DW$445, DW_AT_accessibility(DW_ACCESS_public)
    5579              
    5580              $C$DW$446       .dwtag  DW_TAG_member
    5581                      .dwattr $C$DW$446, DW_AT_type(*$C$DW$T$19)
    5582                      .dwattr $C$DW$446, DW_AT_name("DO_ECC_CALC")
    5583                      .dwattr $C$DW$446, DW_AT_TI_symbol_name("_DO_ECC_CALC")
    5584                      .dwattr $C$DW$446, DW_AT_bit_offset(0x0d)
    5585                      .dwattr $C$DW$446, DW_AT_bit_size(0x01)
    5586                      .dwattr $C$DW$446, DW_AT_data_member_location[DW_OP_plus_uconst 0x0]
    5587                      .dwattr $C$DW$446, DW_AT_accessibility(DW_ACCESS_public)
    5588              
    5589              $C$DW$447       .dwtag  DW_TAG_member
    5590                      .dwattr $C$DW$447, DW_AT_type(*$C$DW$T$19)
    5591                      .dwattr $C$DW$447, DW_AT_name("rsvd1")
    5592                      .dwattr $C$DW$447, DW_AT_TI_symbol_name("_rsvd1")
    5593                      .dwattr $C$DW$447, DW_AT_bit_offset(0x00)
    5594                      .dwattr $C$DW$447, DW_AT_bit_size(0x0d)
    5595                      .dwattr $C$DW$447, DW_AT_data_member_location[DW_OP_plus_uconst 0x0]
    5596                      .dwattr $C$DW$447, DW_AT_accessibility(DW_ACCESS_public)
    5597              
    5598              $C$DW$448       .dwtag  DW_TAG_member
    5599                      .dwattr $C$DW$448, DW_AT_type(*$C$DW$T$19)
    5600                      .dwattr $C$DW$448, DW_AT_name("rsvd2")
    5601                      .dwattr $C$DW$448, DW_AT_TI_symbol_name("_rsvd2")
    5602                      .dwattr $C$DW$448, DW_AT_bit_offset(0x00)
    5603                      .dwattr $C$DW$448, DW_AT_bit_size(0x10)
    5604                      .dwattr $C$DW$448, DW_AT_data_member_location[DW_OP_plus_uconst 0x1]
    5605                      .dwattr $C$DW$448, DW_AT_accessibility(DW_ACCESS_public)
    5606              
    5607                      .dwendtag $C$DW$T$100
    5608              
    5609              
    5610              $C$DW$T$101     .dwtag  DW_TAG_union_type
    5611                      .dwattr $C$DW$T$101, DW_AT_name("FECC_CTRL_REG")
    5612                      .dwattr $C$DW$T$101, DW_AT_byte_size(0x02)
    5613              $C$DW$449       .dwtag  DW_TAG_member
    5614                      .dwattr $C$DW$449, DW_AT_type(*$C$DW$T$21)
    5615                      .dwattr $C$DW$449, DW_AT_name("all")
    5616                      .dwattr $C$DW$449, DW_AT_TI_symbol_name("_all")
    5617                      .dwattr $C$DW$449, DW_AT_data_member_location[DW_OP_plus_uconst 0x0]
    5618                      .dwattr $C$DW$449, DW_AT_accessibility(DW_ACCESS_public)
TMS320C2000 Assembler PC v22.6.1 Wed May 21 09:51:55 2025

Copyright (c) 1996-2018 Texas Instruments Incorporated
C:\Users\Daniel\AppData\Local\Temp\{78ED34F4-3C3B-4D89-8F5D-B64BD43A86E6} PAGE  107

    5619              
    5620              $C$DW$450       .dwtag  DW_TAG_member
    5621                      .dwattr $C$DW$450, DW_AT_type(*$C$DW$T$100)
    5622                      .dwattr $C$DW$450, DW_AT_name("bit")
    5623                      .dwattr $C$DW$450, DW_AT_TI_symbol_name("_bit")
    5624                      .dwattr $C$DW$450, DW_AT_data_member_location[DW_OP_plus_uconst 0x0]
    5625                      .dwattr $C$DW$450, DW_AT_accessibility(DW_ACCESS_public)
    5626              
    5627                      .dwendtag $C$DW$T$101
    5628              
    5629              
    5630              $C$DW$T$102     .dwtag  DW_TAG_structure_type
    5631                      .dwattr $C$DW$T$102, DW_AT_name("FECC_STATUS_BITS")
    5632                      .dwattr $C$DW$T$102, DW_AT_byte_size(0x02)
    5633              $C$DW$451       .dwtag  DW_TAG_member
    5634                      .dwattr $C$DW$451, DW_AT_type(*$C$DW$T$19)
    5635                      .dwattr $C$DW$451, DW_AT_name("SINGLE_ERR")
    5636                      .dwattr $C$DW$451, DW_AT_TI_symbol_name("_SINGLE_ERR")
    5637                      .dwattr $C$DW$451, DW_AT_bit_offset(0x0f)
    5638                      .dwattr $C$DW$451, DW_AT_bit_size(0x01)
    5639                      .dwattr $C$DW$451, DW_AT_data_member_location[DW_OP_plus_uconst 0x0]
    5640                      .dwattr $C$DW$451, DW_AT_accessibility(DW_ACCESS_public)
    5641              
    5642              $C$DW$452       .dwtag  DW_TAG_member
    5643                      .dwattr $C$DW$452, DW_AT_type(*$C$DW$T$19)
    5644                      .dwattr $C$DW$452, DW_AT_name("UNC_ERR")
    5645                      .dwattr $C$DW$452, DW_AT_TI_symbol_name("_UNC_ERR")
    5646                      .dwattr $C$DW$452, DW_AT_bit_offset(0x0e)
    5647                      .dwattr $C$DW$452, DW_AT_bit_size(0x01)
    5648                      .dwattr $C$DW$452, DW_AT_data_member_location[DW_OP_plus_uconst 0x0]
    5649                      .dwattr $C$DW$452, DW_AT_accessibility(DW_ACCESS_public)
    5650              
    5651              $C$DW$453       .dwtag  DW_TAG_member
    5652                      .dwattr $C$DW$453, DW_AT_type(*$C$DW$T$19)
    5653                      .dwattr $C$DW$453, DW_AT_name("DATA_ERR_POS")
    5654                      .dwattr $C$DW$453, DW_AT_TI_symbol_name("_DATA_ERR_POS")
    5655                      .dwattr $C$DW$453, DW_AT_bit_offset(0x08)
    5656                      .dwattr $C$DW$453, DW_AT_bit_size(0x06)
    5657                      .dwattr $C$DW$453, DW_AT_data_member_location[DW_OP_plus_uconst 0x0]
    5658                      .dwattr $C$DW$453, DW_AT_accessibility(DW_ACCESS_public)
    5659              
    5660              $C$DW$454       .dwtag  DW_TAG_member
    5661                      .dwattr $C$DW$454, DW_AT_type(*$C$DW$T$19)
    5662                      .dwattr $C$DW$454, DW_AT_name("ERR_TYPE")
    5663                      .dwattr $C$DW$454, DW_AT_TI_symbol_name("_ERR_TYPE")
    5664                      .dwattr $C$DW$454, DW_AT_bit_offset(0x07)
    5665                      .dwattr $C$DW$454, DW_AT_bit_size(0x01)
    5666                      .dwattr $C$DW$454, DW_AT_data_member_location[DW_OP_plus_uconst 0x0]
    5667                      .dwattr $C$DW$454, DW_AT_accessibility(DW_ACCESS_public)
    5668              
    5669              $C$DW$455       .dwtag  DW_TAG_member
    5670                      .dwattr $C$DW$455, DW_AT_type(*$C$DW$T$19)
    5671                      .dwattr $C$DW$455, DW_AT_name("rsvd1")
    5672                      .dwattr $C$DW$455, DW_AT_TI_symbol_name("_rsvd1")
    5673                      .dwattr $C$DW$455, DW_AT_bit_offset(0x00)
TMS320C2000 Assembler PC v22.6.1 Wed May 21 09:51:55 2025

Copyright (c) 1996-2018 Texas Instruments Incorporated
C:\Users\Daniel\AppData\Local\Temp\{78ED34F4-3C3B-4D89-8F5D-B64BD43A86E6} PAGE  108

    5674                      .dwattr $C$DW$455, DW_AT_bit_size(0x07)
    5675                      .dwattr $C$DW$455, DW_AT_data_member_location[DW_OP_plus_uconst 0x0]
    5676                      .dwattr $C$DW$455, DW_AT_accessibility(DW_ACCESS_public)
    5677              
    5678              $C$DW$456       .dwtag  DW_TAG_member
    5679                      .dwattr $C$DW$456, DW_AT_type(*$C$DW$T$19)
    5680                      .dwattr $C$DW$456, DW_AT_name("rsvd2")
    5681                      .dwattr $C$DW$456, DW_AT_TI_symbol_name("_rsvd2")
    5682                      .dwattr $C$DW$456, DW_AT_bit_offset(0x00)
    5683                      .dwattr $C$DW$456, DW_AT_bit_size(0x10)
    5684                      .dwattr $C$DW$456, DW_AT_data_member_location[DW_OP_plus_uconst 0x1]
    5685                      .dwattr $C$DW$456, DW_AT_accessibility(DW_ACCESS_public)
    5686              
    5687                      .dwendtag $C$DW$T$102
    5688              
    5689              
    5690              $C$DW$T$103     .dwtag  DW_TAG_union_type
    5691                      .dwattr $C$DW$T$103, DW_AT_name("FECC_STATUS_REG")
    5692                      .dwattr $C$DW$T$103, DW_AT_byte_size(0x02)
    5693              $C$DW$457       .dwtag  DW_TAG_member
    5694                      .dwattr $C$DW$457, DW_AT_type(*$C$DW$T$21)
    5695                      .dwattr $C$DW$457, DW_AT_name("all")
    5696                      .dwattr $C$DW$457, DW_AT_TI_symbol_name("_all")
    5697                      .dwattr $C$DW$457, DW_AT_data_member_location[DW_OP_plus_uconst 0x0]
    5698                      .dwattr $C$DW$457, DW_AT_accessibility(DW_ACCESS_public)
    5699              
    5700              $C$DW$458       .dwtag  DW_TAG_member
    5701                      .dwattr $C$DW$458, DW_AT_type(*$C$DW$T$102)
    5702                      .dwattr $C$DW$458, DW_AT_name("bit")
    5703                      .dwattr $C$DW$458, DW_AT_TI_symbol_name("_bit")
    5704                      .dwattr $C$DW$458, DW_AT_data_member_location[DW_OP_plus_uconst 0x0]
    5705                      .dwattr $C$DW$458, DW_AT_accessibility(DW_ACCESS_public)
    5706              
    5707                      .dwendtag $C$DW$T$103
    5708              
    5709              
    5710              $C$DW$T$104     .dwtag  DW_TAG_structure_type
    5711                      .dwattr $C$DW$T$104, DW_AT_name("FECC_TEST_BITS")
    5712                      .dwattr $C$DW$T$104, DW_AT_byte_size(0x02)
    5713              $C$DW$459       .dwtag  DW_TAG_member
    5714                      .dwattr $C$DW$459, DW_AT_type(*$C$DW$T$19)
    5715                      .dwattr $C$DW$459, DW_AT_name("ECC")
    5716                      .dwattr $C$DW$459, DW_AT_TI_symbol_name("_ECC")
    5717                      .dwattr $C$DW$459, DW_AT_bit_offset(0x08)
    5718                      .dwattr $C$DW$459, DW_AT_bit_size(0x08)
    5719                      .dwattr $C$DW$459, DW_AT_data_member_location[DW_OP_plus_uconst 0x0]
    5720                      .dwattr $C$DW$459, DW_AT_accessibility(DW_ACCESS_public)
    5721              
    5722              $C$DW$460       .dwtag  DW_TAG_member
    5723                      .dwattr $C$DW$460, DW_AT_type(*$C$DW$T$19)
    5724                      .dwattr $C$DW$460, DW_AT_name("rsvd1")
    5725                      .dwattr $C$DW$460, DW_AT_TI_symbol_name("_rsvd1")
    5726                      .dwattr $C$DW$460, DW_AT_bit_offset(0x00)
    5727                      .dwattr $C$DW$460, DW_AT_bit_size(0x08)
    5728                      .dwattr $C$DW$460, DW_AT_data_member_location[DW_OP_plus_uconst 0x0]
TMS320C2000 Assembler PC v22.6.1 Wed May 21 09:51:55 2025

Copyright (c) 1996-2018 Texas Instruments Incorporated
C:\Users\Daniel\AppData\Local\Temp\{78ED34F4-3C3B-4D89-8F5D-B64BD43A86E6} PAGE  109

    5729                      .dwattr $C$DW$460, DW_AT_accessibility(DW_ACCESS_public)
    5730              
    5731              $C$DW$461       .dwtag  DW_TAG_member
    5732                      .dwattr $C$DW$461, DW_AT_type(*$C$DW$T$19)
    5733                      .dwattr $C$DW$461, DW_AT_name("rsvd2")
    5734                      .dwattr $C$DW$461, DW_AT_TI_symbol_name("_rsvd2")
    5735                      .dwattr $C$DW$461, DW_AT_bit_offset(0x00)
    5736                      .dwattr $C$DW$461, DW_AT_bit_size(0x10)
    5737                      .dwattr $C$DW$461, DW_AT_data_member_location[DW_OP_plus_uconst 0x1]
    5738                      .dwattr $C$DW$461, DW_AT_accessibility(DW_ACCESS_public)
    5739              
    5740                      .dwendtag $C$DW$T$104
    5741              
    5742              
    5743              $C$DW$T$105     .dwtag  DW_TAG_union_type
    5744                      .dwattr $C$DW$T$105, DW_AT_name("FECC_TEST_REG")
    5745                      .dwattr $C$DW$T$105, DW_AT_byte_size(0x02)
    5746              $C$DW$462       .dwtag  DW_TAG_member
    5747                      .dwattr $C$DW$462, DW_AT_type(*$C$DW$T$21)
    5748                      .dwattr $C$DW$462, DW_AT_name("all")
    5749                      .dwattr $C$DW$462, DW_AT_TI_symbol_name("_all")
    5750                      .dwattr $C$DW$462, DW_AT_data_member_location[DW_OP_plus_uconst 0x0]
    5751                      .dwattr $C$DW$462, DW_AT_accessibility(DW_ACCESS_public)
    5752              
    5753              $C$DW$463       .dwtag  DW_TAG_member
    5754                      .dwattr $C$DW$463, DW_AT_type(*$C$DW$T$104)
    5755                      .dwattr $C$DW$463, DW_AT_name("bit")
    5756                      .dwattr $C$DW$463, DW_AT_TI_symbol_name("_bit")
    5757                      .dwattr $C$DW$463, DW_AT_data_member_location[DW_OP_plus_uconst 0x0]
    5758                      .dwattr $C$DW$463, DW_AT_accessibility(DW_ACCESS_public)
    5759              
    5760                      .dwendtag $C$DW$T$105
    5761              
    5762              
    5763              $C$DW$T$108     .dwtag  DW_TAG_structure_type
    5764                      .dwattr $C$DW$T$108, DW_AT_name("FLASH_CTRL_REGS")
    5765                      .dwattr $C$DW$T$108, DW_AT_byte_size(0x182)
    5766              $C$DW$464       .dwtag  DW_TAG_member
    5767                      .dwattr $C$DW$464, DW_AT_type(*$C$DW$T$117)
    5768                      .dwattr $C$DW$464, DW_AT_name("FRDCNTL")
    5769                      .dwattr $C$DW$464, DW_AT_TI_symbol_name("_FRDCNTL")
    5770                      .dwattr $C$DW$464, DW_AT_data_member_location[DW_OP_plus_uconst 0x0]
    5771                      .dwattr $C$DW$464, DW_AT_accessibility(DW_ACCESS_public)
    5772              
    5773              $C$DW$465       .dwtag  DW_TAG_member
    5774                      .dwattr $C$DW$465, DW_AT_type(*$C$DW$T$106)
    5775                      .dwattr $C$DW$465, DW_AT_name("rsvd1")
    5776                      .dwattr $C$DW$465, DW_AT_TI_symbol_name("_rsvd1")
    5777                      .dwattr $C$DW$465, DW_AT_data_member_location[DW_OP_plus_uconst 0x2]
    5778                      .dwattr $C$DW$465, DW_AT_accessibility(DW_ACCESS_public)
    5779              
    5780              $C$DW$466       .dwtag  DW_TAG_member
    5781                      .dwattr $C$DW$466, DW_AT_type(*$C$DW$T$95)
    5782                      .dwattr $C$DW$466, DW_AT_name("FBAC")
    5783                      .dwattr $C$DW$466, DW_AT_TI_symbol_name("_FBAC")
TMS320C2000 Assembler PC v22.6.1 Wed May 21 09:51:55 2025

Copyright (c) 1996-2018 Texas Instruments Incorporated
C:\Users\Daniel\AppData\Local\Temp\{78ED34F4-3C3B-4D89-8F5D-B64BD43A86E6} PAGE  110

    5784                      .dwattr $C$DW$466, DW_AT_data_member_location[DW_OP_plus_uconst 0x1e]
    5785                      .dwattr $C$DW$466, DW_AT_accessibility(DW_ACCESS_public)
    5786              
    5787              $C$DW$467       .dwtag  DW_TAG_member
    5788                      .dwattr $C$DW$467, DW_AT_type(*$C$DW$T$97)
    5789                      .dwattr $C$DW$467, DW_AT_name("FBFALLBACK")
    5790                      .dwattr $C$DW$467, DW_AT_TI_symbol_name("_FBFALLBACK")
    5791                      .dwattr $C$DW$467, DW_AT_data_member_location[DW_OP_plus_uconst 0x20]
    5792                      .dwattr $C$DW$467, DW_AT_accessibility(DW_ACCESS_public)
    5793              
    5794              $C$DW$468       .dwtag  DW_TAG_member
    5795                      .dwattr $C$DW$468, DW_AT_type(*$C$DW$T$99)
    5796                      .dwattr $C$DW$468, DW_AT_name("FBPRDY")
    5797                      .dwattr $C$DW$468, DW_AT_TI_symbol_name("_FBPRDY")
    5798                      .dwattr $C$DW$468, DW_AT_data_member_location[DW_OP_plus_uconst 0x22]
    5799                      .dwattr $C$DW$468, DW_AT_accessibility(DW_ACCESS_public)
    5800              
    5801              $C$DW$469       .dwtag  DW_TAG_member
    5802                      .dwattr $C$DW$469, DW_AT_type(*$C$DW$T$113)
    5803                      .dwattr $C$DW$469, DW_AT_name("FPAC1")
    5804                      .dwattr $C$DW$469, DW_AT_TI_symbol_name("_FPAC1")
    5805                      .dwattr $C$DW$469, DW_AT_data_member_location[DW_OP_plus_uconst 0x24]
    5806                      .dwattr $C$DW$469, DW_AT_accessibility(DW_ACCESS_public)
    5807              
    5808              $C$DW$470       .dwtag  DW_TAG_member
    5809                      .dwattr $C$DW$470, DW_AT_type(*$C$DW$T$115)
    5810                      .dwattr $C$DW$470, DW_AT_name("FPAC2")
    5811                      .dwattr $C$DW$470, DW_AT_TI_symbol_name("_FPAC2")
    5812                      .dwattr $C$DW$470, DW_AT_data_member_location[DW_OP_plus_uconst 0x26]
    5813                      .dwattr $C$DW$470, DW_AT_accessibility(DW_ACCESS_public)
    5814              
    5815              $C$DW$471       .dwtag  DW_TAG_member
    5816                      .dwattr $C$DW$471, DW_AT_type(*$C$DW$T$37)
    5817                      .dwattr $C$DW$471, DW_AT_name("rsvd2")
    5818                      .dwattr $C$DW$471, DW_AT_TI_symbol_name("_rsvd2")
    5819                      .dwattr $C$DW$471, DW_AT_data_member_location[DW_OP_plus_uconst 0x28]
    5820                      .dwattr $C$DW$471, DW_AT_accessibility(DW_ACCESS_public)
    5821              
    5822              $C$DW$472       .dwtag  DW_TAG_member
    5823                      .dwattr $C$DW$472, DW_AT_type(*$C$DW$T$111)
    5824                      .dwattr $C$DW$472, DW_AT_name("FMSTAT")
    5825                      .dwattr $C$DW$472, DW_AT_TI_symbol_name("_FMSTAT")
    5826                      .dwattr $C$DW$472, DW_AT_data_member_location[DW_OP_plus_uconst 0x2a]
    5827                      .dwattr $C$DW$472, DW_AT_accessibility(DW_ACCESS_public)
    5828              
    5829              $C$DW$473       .dwtag  DW_TAG_member
    5830                      .dwattr $C$DW$473, DW_AT_type(*$C$DW$T$107)
    5831                      .dwattr $C$DW$473, DW_AT_name("rsvd3")
    5832                      .dwattr $C$DW$473, DW_AT_TI_symbol_name("_rsvd3")
    5833                      .dwattr $C$DW$473, DW_AT_data_member_location[DW_OP_plus_uconst 0x2c]
    5834                      .dwattr $C$DW$473, DW_AT_accessibility(DW_ACCESS_public)
    5835              
    5836              $C$DW$474       .dwtag  DW_TAG_member
    5837                      .dwattr $C$DW$474, DW_AT_type(*$C$DW$T$119)
    5838                      .dwattr $C$DW$474, DW_AT_name("FRD_INTF_CTRL")
TMS320C2000 Assembler PC v22.6.1 Wed May 21 09:51:55 2025

Copyright (c) 1996-2018 Texas Instruments Incorporated
C:\Users\Daniel\AppData\Local\Temp\{78ED34F4-3C3B-4D89-8F5D-B64BD43A86E6} PAGE  111

    5839                      .dwattr $C$DW$474, DW_AT_TI_symbol_name("_FRD_INTF_CTRL")
    5840                      .dwattr $C$DW$474, DW_AT_data_member_location[DW_OP_plus_uconst 0x180]
    5841                      .dwattr $C$DW$474, DW_AT_accessibility(DW_ACCESS_public)
    5842              
    5843                      .dwendtag $C$DW$T$108
    5844              
    5845              $C$DW$475       .dwtag  DW_TAG_TI_far_type
    5846                      .dwattr $C$DW$475, DW_AT_type(*$C$DW$T$108)
    5847              
    5848              $C$DW$T$231     .dwtag  DW_TAG_volatile_type
    5849                      .dwattr $C$DW$T$231, DW_AT_type(*$C$DW$475)
    5850              
    5851              
    5852              $C$DW$T$109     .dwtag  DW_TAG_structure_type
    5853                      .dwattr $C$DW$T$109, DW_AT_name("FLASH_ECC_REGS")
    5854                      .dwattr $C$DW$T$109, DW_AT_byte_size(0x28)
    5855              $C$DW$476       .dwtag  DW_TAG_member
    5856                      .dwattr $C$DW$476, DW_AT_type(*$C$DW$T$77)
    5857                      .dwattr $C$DW$476, DW_AT_name("ECC_ENABLE")
    5858                      .dwattr $C$DW$476, DW_AT_TI_symbol_name("_ECC_ENABLE")
    5859                      .dwattr $C$DW$476, DW_AT_data_member_location[DW_OP_plus_uconst 0x0]
    5860                      .dwattr $C$DW$476, DW_AT_accessibility(DW_ACCESS_public)
    5861              
    5862              $C$DW$477       .dwtag  DW_TAG_member
    5863                      .dwattr $C$DW$477, DW_AT_type(*$C$DW$T$21)
    5864                      .dwattr $C$DW$477, DW_AT_name("SINGLE_ERR_ADDR_LOW")
    5865                      .dwattr $C$DW$477, DW_AT_TI_symbol_name("_SINGLE_ERR_ADDR_LOW")
    5866                      .dwattr $C$DW$477, DW_AT_data_member_location[DW_OP_plus_uconst 0x2]
    5867                      .dwattr $C$DW$477, DW_AT_accessibility(DW_ACCESS_public)
    5868              
    5869              $C$DW$478       .dwtag  DW_TAG_member
    5870                      .dwattr $C$DW$478, DW_AT_type(*$C$DW$T$21)
    5871                      .dwattr $C$DW$478, DW_AT_name("SINGLE_ERR_ADDR_HIGH")
    5872                      .dwattr $C$DW$478, DW_AT_TI_symbol_name("_SINGLE_ERR_ADDR_HIGH")
    5873                      .dwattr $C$DW$478, DW_AT_data_member_location[DW_OP_plus_uconst 0x4]
    5874                      .dwattr $C$DW$478, DW_AT_accessibility(DW_ACCESS_public)
    5875              
    5876              $C$DW$479       .dwtag  DW_TAG_member
    5877                      .dwattr $C$DW$479, DW_AT_type(*$C$DW$T$21)
    5878                      .dwattr $C$DW$479, DW_AT_name("UNC_ERR_ADDR_LOW")
    5879                      .dwattr $C$DW$479, DW_AT_TI_symbol_name("_UNC_ERR_ADDR_LOW")
    5880                      .dwattr $C$DW$479, DW_AT_data_member_location[DW_OP_plus_uconst 0x6]
    5881                      .dwattr $C$DW$479, DW_AT_accessibility(DW_ACCESS_public)
    5882              
    5883              $C$DW$480       .dwtag  DW_TAG_member
    5884                      .dwattr $C$DW$480, DW_AT_type(*$C$DW$T$21)
    5885                      .dwattr $C$DW$480, DW_AT_name("UNC_ERR_ADDR_HIGH")
    5886                      .dwattr $C$DW$480, DW_AT_TI_symbol_name("_UNC_ERR_ADDR_HIGH")
    5887                      .dwattr $C$DW$480, DW_AT_data_member_location[DW_OP_plus_uconst 0x8]
    5888                      .dwattr $C$DW$480, DW_AT_accessibility(DW_ACCESS_public)
    5889              
    5890              $C$DW$481       .dwtag  DW_TAG_member
    5891                      .dwattr $C$DW$481, DW_AT_type(*$C$DW$T$89)
    5892                      .dwattr $C$DW$481, DW_AT_name("ERR_STATUS")
    5893                      .dwattr $C$DW$481, DW_AT_TI_symbol_name("_ERR_STATUS")
TMS320C2000 Assembler PC v22.6.1 Wed May 21 09:51:55 2025

Copyright (c) 1996-2018 Texas Instruments Incorporated
C:\Users\Daniel\AppData\Local\Temp\{78ED34F4-3C3B-4D89-8F5D-B64BD43A86E6} PAGE  112

    5894                      .dwattr $C$DW$481, DW_AT_data_member_location[DW_OP_plus_uconst 0xa]
    5895                      .dwattr $C$DW$481, DW_AT_accessibility(DW_ACCESS_public)
    5896              
    5897              $C$DW$482       .dwtag  DW_TAG_member
    5898                      .dwattr $C$DW$482, DW_AT_type(*$C$DW$T$85)
    5899                      .dwattr $C$DW$482, DW_AT_name("ERR_POS")
    5900                      .dwattr $C$DW$482, DW_AT_TI_symbol_name("_ERR_POS")
    5901                      .dwattr $C$DW$482, DW_AT_data_member_location[DW_OP_plus_uconst 0xc]
    5902                      .dwattr $C$DW$482, DW_AT_accessibility(DW_ACCESS_public)
    5903              
    5904              $C$DW$483       .dwtag  DW_TAG_member
    5905                      .dwattr $C$DW$483, DW_AT_type(*$C$DW$T$88)
    5906                      .dwattr $C$DW$483, DW_AT_name("ERR_STATUS_CLR")
    5907                      .dwattr $C$DW$483, DW_AT_TI_symbol_name("_ERR_STATUS_CLR")
    5908                      .dwattr $C$DW$483, DW_AT_data_member_location[DW_OP_plus_uconst 0xe]
    5909                      .dwattr $C$DW$483, DW_AT_accessibility(DW_ACCESS_public)
    5910              
    5911              $C$DW$484       .dwtag  DW_TAG_member
    5912                      .dwattr $C$DW$484, DW_AT_type(*$C$DW$T$79)
    5913                      .dwattr $C$DW$484, DW_AT_name("ERR_CNT")
    5914                      .dwattr $C$DW$484, DW_AT_TI_symbol_name("_ERR_CNT")
    5915                      .dwattr $C$DW$484, DW_AT_data_member_location[DW_OP_plus_uconst 0x10]
    5916                      .dwattr $C$DW$484, DW_AT_accessibility(DW_ACCESS_public)
    5917              
    5918              $C$DW$485       .dwtag  DW_TAG_member
    5919                      .dwattr $C$DW$485, DW_AT_type(*$C$DW$T$91)
    5920                      .dwattr $C$DW$485, DW_AT_name("ERR_THRESHOLD")
    5921                      .dwattr $C$DW$485, DW_AT_TI_symbol_name("_ERR_THRESHOLD")
    5922                      .dwattr $C$DW$485, DW_AT_data_member_location[DW_OP_plus_uconst 0x12]
    5923                      .dwattr $C$DW$485, DW_AT_accessibility(DW_ACCESS_public)
    5924              
    5925              $C$DW$486       .dwtag  DW_TAG_member
    5926                      .dwattr $C$DW$486, DW_AT_type(*$C$DW$T$83)
    5927                      .dwattr $C$DW$486, DW_AT_name("ERR_INTFLG")
    5928                      .dwattr $C$DW$486, DW_AT_TI_symbol_name("_ERR_INTFLG")
    5929                      .dwattr $C$DW$486, DW_AT_data_member_location[DW_OP_plus_uconst 0x14]
    5930                      .dwattr $C$DW$486, DW_AT_accessibility(DW_ACCESS_public)
    5931              
    5932              $C$DW$487       .dwtag  DW_TAG_member
    5933                      .dwattr $C$DW$487, DW_AT_type(*$C$DW$T$81)
    5934                      .dwattr $C$DW$487, DW_AT_name("ERR_INTCLR")
    5935                      .dwattr $C$DW$487, DW_AT_TI_symbol_name("_ERR_INTCLR")
    5936                      .dwattr $C$DW$487, DW_AT_data_member_location[DW_OP_plus_uconst 0x16]
    5937                      .dwattr $C$DW$487, DW_AT_accessibility(DW_ACCESS_public)
    5938              
    5939              $C$DW$488       .dwtag  DW_TAG_member
    5940                      .dwattr $C$DW$488, DW_AT_type(*$C$DW$T$21)
    5941                      .dwattr $C$DW$488, DW_AT_name("FDATAH_TEST")
    5942                      .dwattr $C$DW$488, DW_AT_TI_symbol_name("_FDATAH_TEST")
    5943                      .dwattr $C$DW$488, DW_AT_data_member_location[DW_OP_plus_uconst 0x18]
    5944                      .dwattr $C$DW$488, DW_AT_accessibility(DW_ACCESS_public)
    5945              
    5946              $C$DW$489       .dwtag  DW_TAG_member
    5947                      .dwattr $C$DW$489, DW_AT_type(*$C$DW$T$21)
    5948                      .dwattr $C$DW$489, DW_AT_name("FDATAL_TEST")
TMS320C2000 Assembler PC v22.6.1 Wed May 21 09:51:55 2025

Copyright (c) 1996-2018 Texas Instruments Incorporated
C:\Users\Daniel\AppData\Local\Temp\{78ED34F4-3C3B-4D89-8F5D-B64BD43A86E6} PAGE  113

    5949                      .dwattr $C$DW$489, DW_AT_TI_symbol_name("_FDATAL_TEST")
    5950                      .dwattr $C$DW$489, DW_AT_data_member_location[DW_OP_plus_uconst 0x1a]
    5951                      .dwattr $C$DW$489, DW_AT_accessibility(DW_ACCESS_public)
    5952              
    5953              $C$DW$490       .dwtag  DW_TAG_member
    5954                      .dwattr $C$DW$490, DW_AT_type(*$C$DW$T$93)
    5955                      .dwattr $C$DW$490, DW_AT_name("FADDR_TEST")
    5956                      .dwattr $C$DW$490, DW_AT_TI_symbol_name("_FADDR_TEST")
    5957                      .dwattr $C$DW$490, DW_AT_data_member_location[DW_OP_plus_uconst 0x1c]
    5958                      .dwattr $C$DW$490, DW_AT_accessibility(DW_ACCESS_public)
    5959              
    5960              $C$DW$491       .dwtag  DW_TAG_member
    5961                      .dwattr $C$DW$491, DW_AT_type(*$C$DW$T$105)
    5962                      .dwattr $C$DW$491, DW_AT_name("FECC_TEST")
    5963                      .dwattr $C$DW$491, DW_AT_TI_symbol_name("_FECC_TEST")
    5964                      .dwattr $C$DW$491, DW_AT_data_member_location[DW_OP_plus_uconst 0x1e]
    5965                      .dwattr $C$DW$491, DW_AT_accessibility(DW_ACCESS_public)
    5966              
    5967              $C$DW$492       .dwtag  DW_TAG_member
    5968                      .dwattr $C$DW$492, DW_AT_type(*$C$DW$T$101)
    5969                      .dwattr $C$DW$492, DW_AT_name("FECC_CTRL")
    5970                      .dwattr $C$DW$492, DW_AT_TI_symbol_name("_FECC_CTRL")
    5971                      .dwattr $C$DW$492, DW_AT_data_member_location[DW_OP_plus_uconst 0x20]
    5972                      .dwattr $C$DW$492, DW_AT_accessibility(DW_ACCESS_public)
    5973              
    5974              $C$DW$493       .dwtag  DW_TAG_member
    5975                      .dwattr $C$DW$493, DW_AT_type(*$C$DW$T$21)
    5976                      .dwattr $C$DW$493, DW_AT_name("FOUTH_TEST")
    5977                      .dwattr $C$DW$493, DW_AT_TI_symbol_name("_FOUTH_TEST")
    5978                      .dwattr $C$DW$493, DW_AT_data_member_location[DW_OP_plus_uconst 0x22]
    5979                      .dwattr $C$DW$493, DW_AT_accessibility(DW_ACCESS_public)
    5980              
    5981              $C$DW$494       .dwtag  DW_TAG_member
    5982                      .dwattr $C$DW$494, DW_AT_type(*$C$DW$T$21)
    5983                      .dwattr $C$DW$494, DW_AT_name("FOUTL_TEST")
    5984                      .dwattr $C$DW$494, DW_AT_TI_symbol_name("_FOUTL_TEST")
    5985                      .dwattr $C$DW$494, DW_AT_data_member_location[DW_OP_plus_uconst 0x24]
    5986                      .dwattr $C$DW$494, DW_AT_accessibility(DW_ACCESS_public)
    5987              
    5988              $C$DW$495       .dwtag  DW_TAG_member
    5989                      .dwattr $C$DW$495, DW_AT_type(*$C$DW$T$103)
    5990                      .dwattr $C$DW$495, DW_AT_name("FECC_STATUS")
    5991                      .dwattr $C$DW$495, DW_AT_TI_symbol_name("_FECC_STATUS")
    5992                      .dwattr $C$DW$495, DW_AT_data_member_location[DW_OP_plus_uconst 0x26]
    5993                      .dwattr $C$DW$495, DW_AT_accessibility(DW_ACCESS_public)
    5994              
    5995                      .dwendtag $C$DW$T$109
    5996              
    5997              $C$DW$496       .dwtag  DW_TAG_TI_far_type
    5998                      .dwattr $C$DW$496, DW_AT_type(*$C$DW$T$109)
    5999              
    6000              $C$DW$T$233     .dwtag  DW_TAG_volatile_type
    6001                      .dwattr $C$DW$T$233, DW_AT_type(*$C$DW$496)
    6002              
    6003              
TMS320C2000 Assembler PC v22.6.1 Wed May 21 09:51:55 2025

Copyright (c) 1996-2018 Texas Instruments Incorporated
C:\Users\Daniel\AppData\Local\Temp\{78ED34F4-3C3B-4D89-8F5D-B64BD43A86E6} PAGE  114

    6004              $C$DW$T$110     .dwtag  DW_TAG_structure_type
    6005                      .dwattr $C$DW$T$110, DW_AT_name("FMSTAT_BITS")
    6006                      .dwattr $C$DW$T$110, DW_AT_byte_size(0x02)
    6007              $C$DW$497       .dwtag  DW_TAG_member
    6008                      .dwattr $C$DW$497, DW_AT_type(*$C$DW$T$19)
    6009                      .dwattr $C$DW$497, DW_AT_name("rsvd1")
    6010                      .dwattr $C$DW$497, DW_AT_TI_symbol_name("_rsvd1")
    6011                      .dwattr $C$DW$497, DW_AT_bit_offset(0x0f)
    6012                      .dwattr $C$DW$497, DW_AT_bit_size(0x01)
    6013                      .dwattr $C$DW$497, DW_AT_data_member_location[DW_OP_plus_uconst 0x0]
    6014                      .dwattr $C$DW$497, DW_AT_accessibility(DW_ACCESS_public)
    6015              
    6016              $C$DW$498       .dwtag  DW_TAG_member
    6017                      .dwattr $C$DW$498, DW_AT_type(*$C$DW$T$19)
    6018                      .dwattr $C$DW$498, DW_AT_name("PSUSP")
    6019                      .dwattr $C$DW$498, DW_AT_TI_symbol_name("_PSUSP")
    6020                      .dwattr $C$DW$498, DW_AT_bit_offset(0x0e)
    6021                      .dwattr $C$DW$498, DW_AT_bit_size(0x01)
    6022                      .dwattr $C$DW$498, DW_AT_data_member_location[DW_OP_plus_uconst 0x0]
    6023                      .dwattr $C$DW$498, DW_AT_accessibility(DW_ACCESS_public)
    6024              
    6025              $C$DW$499       .dwtag  DW_TAG_member
    6026                      .dwattr $C$DW$499, DW_AT_type(*$C$DW$T$19)
    6027                      .dwattr $C$DW$499, DW_AT_name("ESUSP")
    6028                      .dwattr $C$DW$499, DW_AT_TI_symbol_name("_ESUSP")
    6029                      .dwattr $C$DW$499, DW_AT_bit_offset(0x0d)
    6030                      .dwattr $C$DW$499, DW_AT_bit_size(0x01)
    6031                      .dwattr $C$DW$499, DW_AT_data_member_location[DW_OP_plus_uconst 0x0]
    6032                      .dwattr $C$DW$499, DW_AT_accessibility(DW_ACCESS_public)
    6033              
    6034              $C$DW$500       .dwtag  DW_TAG_member
    6035                      .dwattr $C$DW$500, DW_AT_type(*$C$DW$T$19)
    6036                      .dwattr $C$DW$500, DW_AT_name("VOLTSTAT")
    6037                      .dwattr $C$DW$500, DW_AT_TI_symbol_name("_VOLTSTAT")
    6038                      .dwattr $C$DW$500, DW_AT_bit_offset(0x0c)
    6039                      .dwattr $C$DW$500, DW_AT_bit_size(0x01)
    6040                      .dwattr $C$DW$500, DW_AT_data_member_location[DW_OP_plus_uconst 0x0]
    6041                      .dwattr $C$DW$500, DW_AT_accessibility(DW_ACCESS_public)
    6042              
    6043              $C$DW$501       .dwtag  DW_TAG_member
    6044                      .dwattr $C$DW$501, DW_AT_type(*$C$DW$T$19)
    6045                      .dwattr $C$DW$501, DW_AT_name("CSTAT")
    6046                      .dwattr $C$DW$501, DW_AT_TI_symbol_name("_CSTAT")
    6047                      .dwattr $C$DW$501, DW_AT_bit_offset(0x0b)
    6048                      .dwattr $C$DW$501, DW_AT_bit_size(0x01)
    6049                      .dwattr $C$DW$501, DW_AT_data_member_location[DW_OP_plus_uconst 0x0]
    6050                      .dwattr $C$DW$501, DW_AT_accessibility(DW_ACCESS_public)
    6051              
    6052              $C$DW$502       .dwtag  DW_TAG_member
    6053                      .dwattr $C$DW$502, DW_AT_type(*$C$DW$T$19)
    6054                      .dwattr $C$DW$502, DW_AT_name("INVDAT")
    6055                      .dwattr $C$DW$502, DW_AT_TI_symbol_name("_INVDAT")
    6056                      .dwattr $C$DW$502, DW_AT_bit_offset(0x0a)
    6057                      .dwattr $C$DW$502, DW_AT_bit_size(0x01)
    6058                      .dwattr $C$DW$502, DW_AT_data_member_location[DW_OP_plus_uconst 0x0]
TMS320C2000 Assembler PC v22.6.1 Wed May 21 09:51:55 2025

Copyright (c) 1996-2018 Texas Instruments Incorporated
C:\Users\Daniel\AppData\Local\Temp\{78ED34F4-3C3B-4D89-8F5D-B64BD43A86E6} PAGE  115

    6059                      .dwattr $C$DW$502, DW_AT_accessibility(DW_ACCESS_public)
    6060              
    6061              $C$DW$503       .dwtag  DW_TAG_member
    6062                      .dwattr $C$DW$503, DW_AT_type(*$C$DW$T$19)
    6063                      .dwattr $C$DW$503, DW_AT_name("PGM")
    6064                      .dwattr $C$DW$503, DW_AT_TI_symbol_name("_PGM")
    6065                      .dwattr $C$DW$503, DW_AT_bit_offset(0x09)
    6066                      .dwattr $C$DW$503, DW_AT_bit_size(0x01)
    6067                      .dwattr $C$DW$503, DW_AT_data_member_location[DW_OP_plus_uconst 0x0]
    6068                      .dwattr $C$DW$503, DW_AT_accessibility(DW_ACCESS_public)
    6069              
    6070              $C$DW$504       .dwtag  DW_TAG_member
    6071                      .dwattr $C$DW$504, DW_AT_type(*$C$DW$T$19)
    6072                      .dwattr $C$DW$504, DW_AT_name("ERS")
    6073                      .dwattr $C$DW$504, DW_AT_TI_symbol_name("_ERS")
    6074                      .dwattr $C$DW$504, DW_AT_bit_offset(0x08)
    6075                      .dwattr $C$DW$504, DW_AT_bit_size(0x01)
    6076                      .dwattr $C$DW$504, DW_AT_data_member_location[DW_OP_plus_uconst 0x0]
    6077                      .dwattr $C$DW$504, DW_AT_accessibility(DW_ACCESS_public)
    6078              
    6079              $C$DW$505       .dwtag  DW_TAG_member
    6080                      .dwattr $C$DW$505, DW_AT_type(*$C$DW$T$19)
    6081                      .dwattr $C$DW$505, DW_AT_name("BUSY")
    6082                      .dwattr $C$DW$505, DW_AT_TI_symbol_name("_BUSY")
    6083                      .dwattr $C$DW$505, DW_AT_bit_offset(0x07)
    6084                      .dwattr $C$DW$505, DW_AT_bit_size(0x01)
    6085                      .dwattr $C$DW$505, DW_AT_data_member_location[DW_OP_plus_uconst 0x0]
    6086                      .dwattr $C$DW$505, DW_AT_accessibility(DW_ACCESS_public)
    6087              
    6088              $C$DW$506       .dwtag  DW_TAG_member
    6089                      .dwattr $C$DW$506, DW_AT_type(*$C$DW$T$19)
    6090                      .dwattr $C$DW$506, DW_AT_name("rsvd2")
    6091                      .dwattr $C$DW$506, DW_AT_TI_symbol_name("_rsvd2")
    6092                      .dwattr $C$DW$506, DW_AT_bit_offset(0x06)
    6093                      .dwattr $C$DW$506, DW_AT_bit_size(0x01)
    6094                      .dwattr $C$DW$506, DW_AT_data_member_location[DW_OP_plus_uconst 0x0]
    6095                      .dwattr $C$DW$506, DW_AT_accessibility(DW_ACCESS_public)
    6096              
    6097              $C$DW$507       .dwtag  DW_TAG_member
    6098                      .dwattr $C$DW$507, DW_AT_type(*$C$DW$T$19)
    6099                      .dwattr $C$DW$507, DW_AT_name("EV")
    6100                      .dwattr $C$DW$507, DW_AT_TI_symbol_name("_EV")
    6101                      .dwattr $C$DW$507, DW_AT_bit_offset(0x05)
    6102                      .dwattr $C$DW$507, DW_AT_bit_size(0x01)
    6103                      .dwattr $C$DW$507, DW_AT_data_member_location[DW_OP_plus_uconst 0x0]
    6104                      .dwattr $C$DW$507, DW_AT_accessibility(DW_ACCESS_public)
    6105              
    6106              $C$DW$508       .dwtag  DW_TAG_member
    6107                      .dwattr $C$DW$508, DW_AT_type(*$C$DW$T$19)
    6108                      .dwattr $C$DW$508, DW_AT_name("rsvd3")
    6109                      .dwattr $C$DW$508, DW_AT_TI_symbol_name("_rsvd3")
    6110                      .dwattr $C$DW$508, DW_AT_bit_offset(0x04)
    6111                      .dwattr $C$DW$508, DW_AT_bit_size(0x01)
    6112                      .dwattr $C$DW$508, DW_AT_data_member_location[DW_OP_plus_uconst 0x0]
    6113                      .dwattr $C$DW$508, DW_AT_accessibility(DW_ACCESS_public)
TMS320C2000 Assembler PC v22.6.1 Wed May 21 09:51:55 2025

Copyright (c) 1996-2018 Texas Instruments Incorporated
C:\Users\Daniel\AppData\Local\Temp\{78ED34F4-3C3B-4D89-8F5D-B64BD43A86E6} PAGE  116

    6114              
    6115              $C$DW$509       .dwtag  DW_TAG_member
    6116                      .dwattr $C$DW$509, DW_AT_type(*$C$DW$T$19)
    6117                      .dwattr $C$DW$509, DW_AT_name("PGV")
    6118                      .dwattr $C$DW$509, DW_AT_TI_symbol_name("_PGV")
    6119                      .dwattr $C$DW$509, DW_AT_bit_offset(0x03)
    6120                      .dwattr $C$DW$509, DW_AT_bit_size(0x01)
    6121                      .dwattr $C$DW$509, DW_AT_data_member_location[DW_OP_plus_uconst 0x0]
    6122                      .dwattr $C$DW$509, DW_AT_accessibility(DW_ACCESS_public)
    6123              
    6124              $C$DW$510       .dwtag  DW_TAG_member
    6125                      .dwattr $C$DW$510, DW_AT_type(*$C$DW$T$19)
    6126                      .dwattr $C$DW$510, DW_AT_name("rsvd4")
    6127                      .dwattr $C$DW$510, DW_AT_TI_symbol_name("_rsvd4")
    6128                      .dwattr $C$DW$510, DW_AT_bit_offset(0x02)
    6129                      .dwattr $C$DW$510, DW_AT_bit_size(0x01)
    6130                      .dwattr $C$DW$510, DW_AT_data_member_location[DW_OP_plus_uconst 0x0]
    6131                      .dwattr $C$DW$510, DW_AT_accessibility(DW_ACCESS_public)
    6132              
    6133              $C$DW$511       .dwtag  DW_TAG_member
    6134                      .dwattr $C$DW$511, DW_AT_type(*$C$DW$T$19)
    6135                      .dwattr $C$DW$511, DW_AT_name("rsvd5")
    6136                      .dwattr $C$DW$511, DW_AT_TI_symbol_name("_rsvd5")
    6137                      .dwattr $C$DW$511, DW_AT_bit_offset(0x01)
    6138                      .dwattr $C$DW$511, DW_AT_bit_size(0x01)
    6139                      .dwattr $C$DW$511, DW_AT_data_member_location[DW_OP_plus_uconst 0x0]
    6140                      .dwattr $C$DW$511, DW_AT_accessibility(DW_ACCESS_public)
    6141              
    6142              $C$DW$512       .dwtag  DW_TAG_member
    6143                      .dwattr $C$DW$512, DW_AT_type(*$C$DW$T$19)
    6144                      .dwattr $C$DW$512, DW_AT_name("rsvd6")
    6145                      .dwattr $C$DW$512, DW_AT_TI_symbol_name("_rsvd6")
    6146                      .dwattr $C$DW$512, DW_AT_bit_offset(0x00)
    6147                      .dwattr $C$DW$512, DW_AT_bit_size(0x01)
    6148                      .dwattr $C$DW$512, DW_AT_data_member_location[DW_OP_plus_uconst 0x0]
    6149                      .dwattr $C$DW$512, DW_AT_accessibility(DW_ACCESS_public)
    6150              
    6151              $C$DW$513       .dwtag  DW_TAG_member
    6152                      .dwattr $C$DW$513, DW_AT_type(*$C$DW$T$19)
    6153                      .dwattr $C$DW$513, DW_AT_name("rsvd7")
    6154                      .dwattr $C$DW$513, DW_AT_TI_symbol_name("_rsvd7")
    6155                      .dwattr $C$DW$513, DW_AT_bit_offset(0x0f)
    6156                      .dwattr $C$DW$513, DW_AT_bit_size(0x01)
    6157                      .dwattr $C$DW$513, DW_AT_data_member_location[DW_OP_plus_uconst 0x1]
    6158                      .dwattr $C$DW$513, DW_AT_accessibility(DW_ACCESS_public)
    6159              
    6160              $C$DW$514       .dwtag  DW_TAG_member
    6161                      .dwattr $C$DW$514, DW_AT_type(*$C$DW$T$19)
    6162                      .dwattr $C$DW$514, DW_AT_name("rsvd8")
    6163                      .dwattr $C$DW$514, DW_AT_TI_symbol_name("_rsvd8")
    6164                      .dwattr $C$DW$514, DW_AT_bit_offset(0x0e)
    6165                      .dwattr $C$DW$514, DW_AT_bit_size(0x01)
    6166                      .dwattr $C$DW$514, DW_AT_data_member_location[DW_OP_plus_uconst 0x1]
    6167                      .dwattr $C$DW$514, DW_AT_accessibility(DW_ACCESS_public)
    6168              
TMS320C2000 Assembler PC v22.6.1 Wed May 21 09:51:55 2025

Copyright (c) 1996-2018 Texas Instruments Incorporated
C:\Users\Daniel\AppData\Local\Temp\{78ED34F4-3C3B-4D89-8F5D-B64BD43A86E6} PAGE  117

    6169              $C$DW$515       .dwtag  DW_TAG_member
    6170                      .dwattr $C$DW$515, DW_AT_type(*$C$DW$T$19)
    6171                      .dwattr $C$DW$515, DW_AT_name("rsvd9")
    6172                      .dwattr $C$DW$515, DW_AT_TI_symbol_name("_rsvd9")
    6173                      .dwattr $C$DW$515, DW_AT_bit_offset(0x00)
    6174                      .dwattr $C$DW$515, DW_AT_bit_size(0x0e)
    6175                      .dwattr $C$DW$515, DW_AT_data_member_location[DW_OP_plus_uconst 0x1]
    6176                      .dwattr $C$DW$515, DW_AT_accessibility(DW_ACCESS_public)
    6177              
    6178                      .dwendtag $C$DW$T$110
    6179              
    6180              
    6181              $C$DW$T$111     .dwtag  DW_TAG_union_type
    6182                      .dwattr $C$DW$T$111, DW_AT_name("FMSTAT_REG")
    6183                      .dwattr $C$DW$T$111, DW_AT_byte_size(0x02)
    6184              $C$DW$516       .dwtag  DW_TAG_member
    6185                      .dwattr $C$DW$516, DW_AT_type(*$C$DW$T$21)
    6186                      .dwattr $C$DW$516, DW_AT_name("all")
    6187                      .dwattr $C$DW$516, DW_AT_TI_symbol_name("_all")
    6188                      .dwattr $C$DW$516, DW_AT_data_member_location[DW_OP_plus_uconst 0x0]
    6189                      .dwattr $C$DW$516, DW_AT_accessibility(DW_ACCESS_public)
    6190              
    6191              $C$DW$517       .dwtag  DW_TAG_member
    6192                      .dwattr $C$DW$517, DW_AT_type(*$C$DW$T$110)
    6193                      .dwattr $C$DW$517, DW_AT_name("bit")
    6194                      .dwattr $C$DW$517, DW_AT_TI_symbol_name("_bit")
    6195                      .dwattr $C$DW$517, DW_AT_data_member_location[DW_OP_plus_uconst 0x0]
    6196                      .dwattr $C$DW$517, DW_AT_accessibility(DW_ACCESS_public)
    6197              
    6198                      .dwendtag $C$DW$T$111
    6199              
    6200              
    6201              $C$DW$T$112     .dwtag  DW_TAG_structure_type
    6202                      .dwattr $C$DW$T$112, DW_AT_name("FPAC1_BITS")
    6203                      .dwattr $C$DW$T$112, DW_AT_byte_size(0x02)
    6204              $C$DW$518       .dwtag  DW_TAG_member
    6205                      .dwattr $C$DW$518, DW_AT_type(*$C$DW$T$19)
    6206                      .dwattr $C$DW$518, DW_AT_name("PMPPWR")
    6207                      .dwattr $C$DW$518, DW_AT_TI_symbol_name("_PMPPWR")
    6208                      .dwattr $C$DW$518, DW_AT_bit_offset(0x0f)
    6209                      .dwattr $C$DW$518, DW_AT_bit_size(0x01)
    6210                      .dwattr $C$DW$518, DW_AT_data_member_location[DW_OP_plus_uconst 0x0]
    6211                      .dwattr $C$DW$518, DW_AT_accessibility(DW_ACCESS_public)
    6212              
    6213              $C$DW$519       .dwtag  DW_TAG_member
    6214                      .dwattr $C$DW$519, DW_AT_type(*$C$DW$T$19)
    6215                      .dwattr $C$DW$519, DW_AT_name("rsvd1")
    6216                      .dwattr $C$DW$519, DW_AT_TI_symbol_name("_rsvd1")
    6217                      .dwattr $C$DW$519, DW_AT_bit_offset(0x00)
    6218                      .dwattr $C$DW$519, DW_AT_bit_size(0x0f)
    6219                      .dwattr $C$DW$519, DW_AT_data_member_location[DW_OP_plus_uconst 0x0]
    6220                      .dwattr $C$DW$519, DW_AT_accessibility(DW_ACCESS_public)
    6221              
    6222              $C$DW$520       .dwtag  DW_TAG_member
    6223                      .dwattr $C$DW$520, DW_AT_type(*$C$DW$T$19)
TMS320C2000 Assembler PC v22.6.1 Wed May 21 09:51:55 2025

Copyright (c) 1996-2018 Texas Instruments Incorporated
C:\Users\Daniel\AppData\Local\Temp\{78ED34F4-3C3B-4D89-8F5D-B64BD43A86E6} PAGE  118

    6224                      .dwattr $C$DW$520, DW_AT_name("PSLEEP")
    6225                      .dwattr $C$DW$520, DW_AT_TI_symbol_name("_PSLEEP")
    6226                      .dwattr $C$DW$520, DW_AT_bit_offset(0x04)
    6227                      .dwattr $C$DW$520, DW_AT_bit_size(0x0c)
    6228                      .dwattr $C$DW$520, DW_AT_data_member_location[DW_OP_plus_uconst 0x1]
    6229                      .dwattr $C$DW$520, DW_AT_accessibility(DW_ACCESS_public)
    6230              
    6231              $C$DW$521       .dwtag  DW_TAG_member
    6232                      .dwattr $C$DW$521, DW_AT_type(*$C$DW$T$19)
    6233                      .dwattr $C$DW$521, DW_AT_name("rsvd2")
    6234                      .dwattr $C$DW$521, DW_AT_TI_symbol_name("_rsvd2")
    6235                      .dwattr $C$DW$521, DW_AT_bit_offset(0x00)
    6236                      .dwattr $C$DW$521, DW_AT_bit_size(0x04)
    6237                      .dwattr $C$DW$521, DW_AT_data_member_location[DW_OP_plus_uconst 0x1]
    6238                      .dwattr $C$DW$521, DW_AT_accessibility(DW_ACCESS_public)
    6239              
    6240                      .dwendtag $C$DW$T$112
    6241              
    6242              
    6243              $C$DW$T$113     .dwtag  DW_TAG_union_type
    6244                      .dwattr $C$DW$T$113, DW_AT_name("FPAC1_REG")
    6245                      .dwattr $C$DW$T$113, DW_AT_byte_size(0x02)
    6246              $C$DW$522       .dwtag  DW_TAG_member
    6247                      .dwattr $C$DW$522, DW_AT_type(*$C$DW$T$21)
    6248                      .dwattr $C$DW$522, DW_AT_name("all")
    6249                      .dwattr $C$DW$522, DW_AT_TI_symbol_name("_all")
    6250                      .dwattr $C$DW$522, DW_AT_data_member_location[DW_OP_plus_uconst 0x0]
    6251                      .dwattr $C$DW$522, DW_AT_accessibility(DW_ACCESS_public)
    6252              
    6253              $C$DW$523       .dwtag  DW_TAG_member
    6254                      .dwattr $C$DW$523, DW_AT_type(*$C$DW$T$112)
    6255                      .dwattr $C$DW$523, DW_AT_name("bit")
    6256                      .dwattr $C$DW$523, DW_AT_TI_symbol_name("_bit")
    6257                      .dwattr $C$DW$523, DW_AT_data_member_location[DW_OP_plus_uconst 0x0]
    6258                      .dwattr $C$DW$523, DW_AT_accessibility(DW_ACCESS_public)
    6259              
    6260                      .dwendtag $C$DW$T$113
    6261              
    6262              
    6263              $C$DW$T$114     .dwtag  DW_TAG_structure_type
    6264                      .dwattr $C$DW$T$114, DW_AT_name("FPAC2_BITS")
    6265                      .dwattr $C$DW$T$114, DW_AT_byte_size(0x02)
    6266              $C$DW$524       .dwtag  DW_TAG_member
    6267                      .dwattr $C$DW$524, DW_AT_type(*$C$DW$T$19)
    6268                      .dwattr $C$DW$524, DW_AT_name("PAGP")
    6269                      .dwattr $C$DW$524, DW_AT_TI_symbol_name("_PAGP")
    6270                      .dwattr $C$DW$524, DW_AT_bit_offset(0x00)
    6271                      .dwattr $C$DW$524, DW_AT_bit_size(0x10)
    6272                      .dwattr $C$DW$524, DW_AT_data_member_location[DW_OP_plus_uconst 0x0]
    6273                      .dwattr $C$DW$524, DW_AT_accessibility(DW_ACCESS_public)
    6274              
    6275              $C$DW$525       .dwtag  DW_TAG_member
    6276                      .dwattr $C$DW$525, DW_AT_type(*$C$DW$T$19)
    6277                      .dwattr $C$DW$525, DW_AT_name("rsvd1")
    6278                      .dwattr $C$DW$525, DW_AT_TI_symbol_name("_rsvd1")
TMS320C2000 Assembler PC v22.6.1 Wed May 21 09:51:55 2025

Copyright (c) 1996-2018 Texas Instruments Incorporated
C:\Users\Daniel\AppData\Local\Temp\{78ED34F4-3C3B-4D89-8F5D-B64BD43A86E6} PAGE  119

    6279                      .dwattr $C$DW$525, DW_AT_bit_offset(0x00)
    6280                      .dwattr $C$DW$525, DW_AT_bit_size(0x10)
    6281                      .dwattr $C$DW$525, DW_AT_data_member_location[DW_OP_plus_uconst 0x1]
    6282                      .dwattr $C$DW$525, DW_AT_accessibility(DW_ACCESS_public)
    6283              
    6284                      .dwendtag $C$DW$T$114
    6285              
    6286              
    6287              $C$DW$T$115     .dwtag  DW_TAG_union_type
    6288                      .dwattr $C$DW$T$115, DW_AT_name("FPAC2_REG")
    6289                      .dwattr $C$DW$T$115, DW_AT_byte_size(0x02)
    6290              $C$DW$526       .dwtag  DW_TAG_member
    6291                      .dwattr $C$DW$526, DW_AT_type(*$C$DW$T$21)
    6292                      .dwattr $C$DW$526, DW_AT_name("all")
    6293                      .dwattr $C$DW$526, DW_AT_TI_symbol_name("_all")
    6294                      .dwattr $C$DW$526, DW_AT_data_member_location[DW_OP_plus_uconst 0x0]
    6295                      .dwattr $C$DW$526, DW_AT_accessibility(DW_ACCESS_public)
    6296              
    6297              $C$DW$527       .dwtag  DW_TAG_member
    6298                      .dwattr $C$DW$527, DW_AT_type(*$C$DW$T$114)
    6299                      .dwattr $C$DW$527, DW_AT_name("bit")
    6300                      .dwattr $C$DW$527, DW_AT_TI_symbol_name("_bit")
    6301                      .dwattr $C$DW$527, DW_AT_data_member_location[DW_OP_plus_uconst 0x0]
    6302                      .dwattr $C$DW$527, DW_AT_accessibility(DW_ACCESS_public)
    6303              
    6304                      .dwendtag $C$DW$T$115
    6305              
    6306              
    6307              $C$DW$T$116     .dwtag  DW_TAG_structure_type
    6308                      .dwattr $C$DW$T$116, DW_AT_name("FRDCNTL_BITS")
    6309                      .dwattr $C$DW$T$116, DW_AT_byte_size(0x02)
    6310              $C$DW$528       .dwtag  DW_TAG_member
    6311                      .dwattr $C$DW$528, DW_AT_type(*$C$DW$T$19)
    6312                      .dwattr $C$DW$528, DW_AT_name("rsvd1")
    6313                      .dwattr $C$DW$528, DW_AT_TI_symbol_name("_rsvd1")
    6314                      .dwattr $C$DW$528, DW_AT_bit_offset(0x08)
    6315                      .dwattr $C$DW$528, DW_AT_bit_size(0x08)
    6316                      .dwattr $C$DW$528, DW_AT_data_member_location[DW_OP_plus_uconst 0x0]
    6317                      .dwattr $C$DW$528, DW_AT_accessibility(DW_ACCESS_public)
    6318              
    6319              $C$DW$529       .dwtag  DW_TAG_member
    6320                      .dwattr $C$DW$529, DW_AT_type(*$C$DW$T$19)
    6321                      .dwattr $C$DW$529, DW_AT_name("RWAIT")
    6322                      .dwattr $C$DW$529, DW_AT_TI_symbol_name("_RWAIT")
    6323                      .dwattr $C$DW$529, DW_AT_bit_offset(0x04)
    6324                      .dwattr $C$DW$529, DW_AT_bit_size(0x04)
    6325                      .dwattr $C$DW$529, DW_AT_data_member_location[DW_OP_plus_uconst 0x0]
    6326                      .dwattr $C$DW$529, DW_AT_accessibility(DW_ACCESS_public)
    6327              
    6328              $C$DW$530       .dwtag  DW_TAG_member
    6329                      .dwattr $C$DW$530, DW_AT_type(*$C$DW$T$19)
    6330                      .dwattr $C$DW$530, DW_AT_name("rsvd2")
    6331                      .dwattr $C$DW$530, DW_AT_TI_symbol_name("_rsvd2")
    6332                      .dwattr $C$DW$530, DW_AT_bit_offset(0x00)
    6333                      .dwattr $C$DW$530, DW_AT_bit_size(0x04)
TMS320C2000 Assembler PC v22.6.1 Wed May 21 09:51:55 2025

Copyright (c) 1996-2018 Texas Instruments Incorporated
C:\Users\Daniel\AppData\Local\Temp\{78ED34F4-3C3B-4D89-8F5D-B64BD43A86E6} PAGE  120

    6334                      .dwattr $C$DW$530, DW_AT_data_member_location[DW_OP_plus_uconst 0x0]
    6335                      .dwattr $C$DW$530, DW_AT_accessibility(DW_ACCESS_public)
    6336              
    6337              $C$DW$531       .dwtag  DW_TAG_member
    6338                      .dwattr $C$DW$531, DW_AT_type(*$C$DW$T$19)
    6339                      .dwattr $C$DW$531, DW_AT_name("rsvd3")
    6340                      .dwattr $C$DW$531, DW_AT_TI_symbol_name("_rsvd3")
    6341                      .dwattr $C$DW$531, DW_AT_bit_offset(0x00)
    6342                      .dwattr $C$DW$531, DW_AT_bit_size(0x10)
    6343                      .dwattr $C$DW$531, DW_AT_data_member_location[DW_OP_plus_uconst 0x1]
    6344                      .dwattr $C$DW$531, DW_AT_accessibility(DW_ACCESS_public)
    6345              
    6346                      .dwendtag $C$DW$T$116
    6347              
    6348              
    6349              $C$DW$T$117     .dwtag  DW_TAG_union_type
    6350                      .dwattr $C$DW$T$117, DW_AT_name("FRDCNTL_REG")
    6351                      .dwattr $C$DW$T$117, DW_AT_byte_size(0x02)
    6352              $C$DW$532       .dwtag  DW_TAG_member
    6353                      .dwattr $C$DW$532, DW_AT_type(*$C$DW$T$21)
    6354                      .dwattr $C$DW$532, DW_AT_name("all")
    6355                      .dwattr $C$DW$532, DW_AT_TI_symbol_name("_all")
    6356                      .dwattr $C$DW$532, DW_AT_data_member_location[DW_OP_plus_uconst 0x0]
    6357                      .dwattr $C$DW$532, DW_AT_accessibility(DW_ACCESS_public)
    6358              
    6359              $C$DW$533       .dwtag  DW_TAG_member
    6360                      .dwattr $C$DW$533, DW_AT_type(*$C$DW$T$116)
    6361                      .dwattr $C$DW$533, DW_AT_name("bit")
    6362                      .dwattr $C$DW$533, DW_AT_TI_symbol_name("_bit")
    6363                      .dwattr $C$DW$533, DW_AT_data_member_location[DW_OP_plus_uconst 0x0]
    6364                      .dwattr $C$DW$533, DW_AT_accessibility(DW_ACCESS_public)
    6365              
    6366                      .dwendtag $C$DW$T$117
    6367              
    6368              
    6369              $C$DW$T$118     .dwtag  DW_TAG_structure_type
    6370                      .dwattr $C$DW$T$118, DW_AT_name("FRD_INTF_CTRL_BITS")
    6371                      .dwattr $C$DW$T$118, DW_AT_byte_size(0x02)
    6372              $C$DW$534       .dwtag  DW_TAG_member
    6373                      .dwattr $C$DW$534, DW_AT_type(*$C$DW$T$19)
    6374                      .dwattr $C$DW$534, DW_AT_name("PREFETCH_EN")
    6375                      .dwattr $C$DW$534, DW_AT_TI_symbol_name("_PREFETCH_EN")
    6376                      .dwattr $C$DW$534, DW_AT_bit_offset(0x0f)
    6377                      .dwattr $C$DW$534, DW_AT_bit_size(0x01)
    6378                      .dwattr $C$DW$534, DW_AT_data_member_location[DW_OP_plus_uconst 0x0]
    6379                      .dwattr $C$DW$534, DW_AT_accessibility(DW_ACCESS_public)
    6380              
    6381              $C$DW$535       .dwtag  DW_TAG_member
    6382                      .dwattr $C$DW$535, DW_AT_type(*$C$DW$T$19)
    6383                      .dwattr $C$DW$535, DW_AT_name("DATA_CACHE_EN")
    6384                      .dwattr $C$DW$535, DW_AT_TI_symbol_name("_DATA_CACHE_EN")
    6385                      .dwattr $C$DW$535, DW_AT_bit_offset(0x0e)
    6386                      .dwattr $C$DW$535, DW_AT_bit_size(0x01)
    6387                      .dwattr $C$DW$535, DW_AT_data_member_location[DW_OP_plus_uconst 0x0]
    6388                      .dwattr $C$DW$535, DW_AT_accessibility(DW_ACCESS_public)
TMS320C2000 Assembler PC v22.6.1 Wed May 21 09:51:55 2025

Copyright (c) 1996-2018 Texas Instruments Incorporated
C:\Users\Daniel\AppData\Local\Temp\{78ED34F4-3C3B-4D89-8F5D-B64BD43A86E6} PAGE  121

    6389              
    6390              $C$DW$536       .dwtag  DW_TAG_member
    6391                      .dwattr $C$DW$536, DW_AT_type(*$C$DW$T$19)
    6392                      .dwattr $C$DW$536, DW_AT_name("rsvd1")
    6393                      .dwattr $C$DW$536, DW_AT_TI_symbol_name("_rsvd1")
    6394                      .dwattr $C$DW$536, DW_AT_bit_offset(0x00)
    6395                      .dwattr $C$DW$536, DW_AT_bit_size(0x0e)
    6396                      .dwattr $C$DW$536, DW_AT_data_member_location[DW_OP_plus_uconst 0x0]
    6397                      .dwattr $C$DW$536, DW_AT_accessibility(DW_ACCESS_public)
    6398              
    6399              $C$DW$537       .dwtag  DW_TAG_member
    6400                      .dwattr $C$DW$537, DW_AT_type(*$C$DW$T$19)
    6401                      .dwattr $C$DW$537, DW_AT_name("rsvd2")
    6402                      .dwattr $C$DW$537, DW_AT_TI_symbol_name("_rsvd2")
    6403                      .dwattr $C$DW$537, DW_AT_bit_offset(0x00)
    6404                      .dwattr $C$DW$537, DW_AT_bit_size(0x10)
    6405                      .dwattr $C$DW$537, DW_AT_data_member_location[DW_OP_plus_uconst 0x1]
    6406                      .dwattr $C$DW$537, DW_AT_accessibility(DW_ACCESS_public)
    6407              
    6408                      .dwendtag $C$DW$T$118
    6409              
    6410              
    6411              $C$DW$T$119     .dwtag  DW_TAG_union_type
    6412                      .dwattr $C$DW$T$119, DW_AT_name("FRD_INTF_CTRL_REG")
    6413                      .dwattr $C$DW$T$119, DW_AT_byte_size(0x02)
    6414              $C$DW$538       .dwtag  DW_TAG_member
    6415                      .dwattr $C$DW$538, DW_AT_type(*$C$DW$T$21)
    6416                      .dwattr $C$DW$538, DW_AT_name("all")
    6417                      .dwattr $C$DW$538, DW_AT_TI_symbol_name("_all")
    6418                      .dwattr $C$DW$538, DW_AT_data_member_location[DW_OP_plus_uconst 0x0]
    6419                      .dwattr $C$DW$538, DW_AT_accessibility(DW_ACCESS_public)
    6420              
    6421              $C$DW$539       .dwtag  DW_TAG_member
    6422                      .dwattr $C$DW$539, DW_AT_type(*$C$DW$T$118)
    6423                      .dwattr $C$DW$539, DW_AT_name("bit")
    6424                      .dwattr $C$DW$539, DW_AT_TI_symbol_name("_bit")
    6425                      .dwattr $C$DW$539, DW_AT_data_member_location[DW_OP_plus_uconst 0x0]
    6426                      .dwattr $C$DW$539, DW_AT_accessibility(DW_ACCESS_public)
    6427              
    6428                      .dwendtag $C$DW$T$119
    6429              
    6430              
    6431              $C$DW$T$120     .dwtag  DW_TAG_structure_type
    6432                      .dwattr $C$DW$T$120, DW_AT_name("GPIOLPMSEL0_BITS")
    6433                      .dwattr $C$DW$T$120, DW_AT_byte_size(0x02)
    6434              $C$DW$540       .dwtag  DW_TAG_member
    6435                      .dwattr $C$DW$540, DW_AT_type(*$C$DW$T$19)
    6436                      .dwattr $C$DW$540, DW_AT_name("GPIO0")
    6437                      .dwattr $C$DW$540, DW_AT_TI_symbol_name("_GPIO0")
    6438                      .dwattr $C$DW$540, DW_AT_bit_offset(0x0f)
    6439                      .dwattr $C$DW$540, DW_AT_bit_size(0x01)
    6440                      .dwattr $C$DW$540, DW_AT_data_member_location[DW_OP_plus_uconst 0x0]
    6441                      .dwattr $C$DW$540, DW_AT_accessibility(DW_ACCESS_public)
    6442              
    6443              $C$DW$541       .dwtag  DW_TAG_member
TMS320C2000 Assembler PC v22.6.1 Wed May 21 09:51:55 2025

Copyright (c) 1996-2018 Texas Instruments Incorporated
C:\Users\Daniel\AppData\Local\Temp\{78ED34F4-3C3B-4D89-8F5D-B64BD43A86E6} PAGE  122

    6444                      .dwattr $C$DW$541, DW_AT_type(*$C$DW$T$19)
    6445                      .dwattr $C$DW$541, DW_AT_name("GPIO1")
    6446                      .dwattr $C$DW$541, DW_AT_TI_symbol_name("_GPIO1")
    6447                      .dwattr $C$DW$541, DW_AT_bit_offset(0x0e)
    6448                      .dwattr $C$DW$541, DW_AT_bit_size(0x01)
    6449                      .dwattr $C$DW$541, DW_AT_data_member_location[DW_OP_plus_uconst 0x0]
    6450                      .dwattr $C$DW$541, DW_AT_accessibility(DW_ACCESS_public)
    6451              
    6452              $C$DW$542       .dwtag  DW_TAG_member
    6453                      .dwattr $C$DW$542, DW_AT_type(*$C$DW$T$19)
    6454                      .dwattr $C$DW$542, DW_AT_name("GPIO2")
    6455                      .dwattr $C$DW$542, DW_AT_TI_symbol_name("_GPIO2")
    6456                      .dwattr $C$DW$542, DW_AT_bit_offset(0x0d)
    6457                      .dwattr $C$DW$542, DW_AT_bit_size(0x01)
    6458                      .dwattr $C$DW$542, DW_AT_data_member_location[DW_OP_plus_uconst 0x0]
    6459                      .dwattr $C$DW$542, DW_AT_accessibility(DW_ACCESS_public)
    6460              
    6461              $C$DW$543       .dwtag  DW_TAG_member
    6462                      .dwattr $C$DW$543, DW_AT_type(*$C$DW$T$19)
    6463                      .dwattr $C$DW$543, DW_AT_name("GPIO3")
    6464                      .dwattr $C$DW$543, DW_AT_TI_symbol_name("_GPIO3")
    6465                      .dwattr $C$DW$543, DW_AT_bit_offset(0x0c)
    6466                      .dwattr $C$DW$543, DW_AT_bit_size(0x01)
    6467                      .dwattr $C$DW$543, DW_AT_data_member_location[DW_OP_plus_uconst 0x0]
    6468                      .dwattr $C$DW$543, DW_AT_accessibility(DW_ACCESS_public)
    6469              
    6470              $C$DW$544       .dwtag  DW_TAG_member
    6471                      .dwattr $C$DW$544, DW_AT_type(*$C$DW$T$19)
    6472                      .dwattr $C$DW$544, DW_AT_name("GPIO4")
    6473                      .dwattr $C$DW$544, DW_AT_TI_symbol_name("_GPIO4")
    6474                      .dwattr $C$DW$544, DW_AT_bit_offset(0x0b)
    6475                      .dwattr $C$DW$544, DW_AT_bit_size(0x01)
    6476                      .dwattr $C$DW$544, DW_AT_data_member_location[DW_OP_plus_uconst 0x0]
    6477                      .dwattr $C$DW$544, DW_AT_accessibility(DW_ACCESS_public)
    6478              
    6479              $C$DW$545       .dwtag  DW_TAG_member
    6480                      .dwattr $C$DW$545, DW_AT_type(*$C$DW$T$19)
    6481                      .dwattr $C$DW$545, DW_AT_name("GPIO5")
    6482                      .dwattr $C$DW$545, DW_AT_TI_symbol_name("_GPIO5")
    6483                      .dwattr $C$DW$545, DW_AT_bit_offset(0x0a)
    6484                      .dwattr $C$DW$545, DW_AT_bit_size(0x01)
    6485                      .dwattr $C$DW$545, DW_AT_data_member_location[DW_OP_plus_uconst 0x0]
    6486                      .dwattr $C$DW$545, DW_AT_accessibility(DW_ACCESS_public)
    6487              
    6488              $C$DW$546       .dwtag  DW_TAG_member
    6489                      .dwattr $C$DW$546, DW_AT_type(*$C$DW$T$19)
    6490                      .dwattr $C$DW$546, DW_AT_name("GPIO6")
    6491                      .dwattr $C$DW$546, DW_AT_TI_symbol_name("_GPIO6")
    6492                      .dwattr $C$DW$546, DW_AT_bit_offset(0x09)
    6493                      .dwattr $C$DW$546, DW_AT_bit_size(0x01)
    6494                      .dwattr $C$DW$546, DW_AT_data_member_location[DW_OP_plus_uconst 0x0]
    6495                      .dwattr $C$DW$546, DW_AT_accessibility(DW_ACCESS_public)
    6496              
    6497              $C$DW$547       .dwtag  DW_TAG_member
    6498                      .dwattr $C$DW$547, DW_AT_type(*$C$DW$T$19)
TMS320C2000 Assembler PC v22.6.1 Wed May 21 09:51:55 2025

Copyright (c) 1996-2018 Texas Instruments Incorporated
C:\Users\Daniel\AppData\Local\Temp\{78ED34F4-3C3B-4D89-8F5D-B64BD43A86E6} PAGE  123

    6499                      .dwattr $C$DW$547, DW_AT_name("GPIO7")
    6500                      .dwattr $C$DW$547, DW_AT_TI_symbol_name("_GPIO7")
    6501                      .dwattr $C$DW$547, DW_AT_bit_offset(0x08)
    6502                      .dwattr $C$DW$547, DW_AT_bit_size(0x01)
    6503                      .dwattr $C$DW$547, DW_AT_data_member_location[DW_OP_plus_uconst 0x0]
    6504                      .dwattr $C$DW$547, DW_AT_accessibility(DW_ACCESS_public)
    6505              
    6506              $C$DW$548       .dwtag  DW_TAG_member
    6507                      .dwattr $C$DW$548, DW_AT_type(*$C$DW$T$19)
    6508                      .dwattr $C$DW$548, DW_AT_name("GPIO8")
    6509                      .dwattr $C$DW$548, DW_AT_TI_symbol_name("_GPIO8")
    6510                      .dwattr $C$DW$548, DW_AT_bit_offset(0x07)
    6511                      .dwattr $C$DW$548, DW_AT_bit_size(0x01)
    6512                      .dwattr $C$DW$548, DW_AT_data_member_location[DW_OP_plus_uconst 0x0]
    6513                      .dwattr $C$DW$548, DW_AT_accessibility(DW_ACCESS_public)
    6514              
    6515              $C$DW$549       .dwtag  DW_TAG_member
    6516                      .dwattr $C$DW$549, DW_AT_type(*$C$DW$T$19)
    6517                      .dwattr $C$DW$549, DW_AT_name("GPIO9")
    6518                      .dwattr $C$DW$549, DW_AT_TI_symbol_name("_GPIO9")
    6519                      .dwattr $C$DW$549, DW_AT_bit_offset(0x06)
    6520                      .dwattr $C$DW$549, DW_AT_bit_size(0x01)
    6521                      .dwattr $C$DW$549, DW_AT_data_member_location[DW_OP_plus_uconst 0x0]
    6522                      .dwattr $C$DW$549, DW_AT_accessibility(DW_ACCESS_public)
    6523              
    6524              $C$DW$550       .dwtag  DW_TAG_member
    6525                      .dwattr $C$DW$550, DW_AT_type(*$C$DW$T$19)
    6526                      .dwattr $C$DW$550, DW_AT_name("GPIO10")
    6527                      .dwattr $C$DW$550, DW_AT_TI_symbol_name("_GPIO10")
    6528                      .dwattr $C$DW$550, DW_AT_bit_offset(0x05)
    6529                      .dwattr $C$DW$550, DW_AT_bit_size(0x01)
    6530                      .dwattr $C$DW$550, DW_AT_data_member_location[DW_OP_plus_uconst 0x0]
    6531                      .dwattr $C$DW$550, DW_AT_accessibility(DW_ACCESS_public)
    6532              
    6533              $C$DW$551       .dwtag  DW_TAG_member
    6534                      .dwattr $C$DW$551, DW_AT_type(*$C$DW$T$19)
    6535                      .dwattr $C$DW$551, DW_AT_name("GPIO11")
    6536                      .dwattr $C$DW$551, DW_AT_TI_symbol_name("_GPIO11")
    6537                      .dwattr $C$DW$551, DW_AT_bit_offset(0x04)
    6538                      .dwattr $C$DW$551, DW_AT_bit_size(0x01)
    6539                      .dwattr $C$DW$551, DW_AT_data_member_location[DW_OP_plus_uconst 0x0]
    6540                      .dwattr $C$DW$551, DW_AT_accessibility(DW_ACCESS_public)
    6541              
    6542              $C$DW$552       .dwtag  DW_TAG_member
    6543                      .dwattr $C$DW$552, DW_AT_type(*$C$DW$T$19)
    6544                      .dwattr $C$DW$552, DW_AT_name("GPIO12")
    6545                      .dwattr $C$DW$552, DW_AT_TI_symbol_name("_GPIO12")
    6546                      .dwattr $C$DW$552, DW_AT_bit_offset(0x03)
    6547                      .dwattr $C$DW$552, DW_AT_bit_size(0x01)
    6548                      .dwattr $C$DW$552, DW_AT_data_member_location[DW_OP_plus_uconst 0x0]
    6549                      .dwattr $C$DW$552, DW_AT_accessibility(DW_ACCESS_public)
    6550              
    6551              $C$DW$553       .dwtag  DW_TAG_member
    6552                      .dwattr $C$DW$553, DW_AT_type(*$C$DW$T$19)
    6553                      .dwattr $C$DW$553, DW_AT_name("GPIO13")
TMS320C2000 Assembler PC v22.6.1 Wed May 21 09:51:55 2025

Copyright (c) 1996-2018 Texas Instruments Incorporated
C:\Users\Daniel\AppData\Local\Temp\{78ED34F4-3C3B-4D89-8F5D-B64BD43A86E6} PAGE  124

    6554                      .dwattr $C$DW$553, DW_AT_TI_symbol_name("_GPIO13")
    6555                      .dwattr $C$DW$553, DW_AT_bit_offset(0x02)
    6556                      .dwattr $C$DW$553, DW_AT_bit_size(0x01)
    6557                      .dwattr $C$DW$553, DW_AT_data_member_location[DW_OP_plus_uconst 0x0]
    6558                      .dwattr $C$DW$553, DW_AT_accessibility(DW_ACCESS_public)
    6559              
    6560              $C$DW$554       .dwtag  DW_TAG_member
    6561                      .dwattr $C$DW$554, DW_AT_type(*$C$DW$T$19)
    6562                      .dwattr $C$DW$554, DW_AT_name("GPIO14")
    6563                      .dwattr $C$DW$554, DW_AT_TI_symbol_name("_GPIO14")
    6564                      .dwattr $C$DW$554, DW_AT_bit_offset(0x01)
    6565                      .dwattr $C$DW$554, DW_AT_bit_size(0x01)
    6566                      .dwattr $C$DW$554, DW_AT_data_member_location[DW_OP_plus_uconst 0x0]
    6567                      .dwattr $C$DW$554, DW_AT_accessibility(DW_ACCESS_public)
    6568              
    6569              $C$DW$555       .dwtag  DW_TAG_member
    6570                      .dwattr $C$DW$555, DW_AT_type(*$C$DW$T$19)
    6571                      .dwattr $C$DW$555, DW_AT_name("GPIO15")
    6572                      .dwattr $C$DW$555, DW_AT_TI_symbol_name("_GPIO15")
    6573                      .dwattr $C$DW$555, DW_AT_bit_offset(0x00)
    6574                      .dwattr $C$DW$555, DW_AT_bit_size(0x01)
    6575                      .dwattr $C$DW$555, DW_AT_data_member_location[DW_OP_plus_uconst 0x0]
    6576                      .dwattr $C$DW$555, DW_AT_accessibility(DW_ACCESS_public)
    6577              
    6578              $C$DW$556       .dwtag  DW_TAG_member
    6579                      .dwattr $C$DW$556, DW_AT_type(*$C$DW$T$19)
    6580                      .dwattr $C$DW$556, DW_AT_name("GPIO16")
    6581                      .dwattr $C$DW$556, DW_AT_TI_symbol_name("_GPIO16")
    6582                      .dwattr $C$DW$556, DW_AT_bit_offset(0x0f)
    6583                      .dwattr $C$DW$556, DW_AT_bit_size(0x01)
    6584                      .dwattr $C$DW$556, DW_AT_data_member_location[DW_OP_plus_uconst 0x1]
    6585                      .dwattr $C$DW$556, DW_AT_accessibility(DW_ACCESS_public)
    6586              
    6587              $C$DW$557       .dwtag  DW_TAG_member
    6588                      .dwattr $C$DW$557, DW_AT_type(*$C$DW$T$19)
    6589                      .dwattr $C$DW$557, DW_AT_name("GPIO17")
    6590                      .dwattr $C$DW$557, DW_AT_TI_symbol_name("_GPIO17")
    6591                      .dwattr $C$DW$557, DW_AT_bit_offset(0x0e)
    6592                      .dwattr $C$DW$557, DW_AT_bit_size(0x01)
    6593                      .dwattr $C$DW$557, DW_AT_data_member_location[DW_OP_plus_uconst 0x1]
    6594                      .dwattr $C$DW$557, DW_AT_accessibility(DW_ACCESS_public)
    6595              
    6596              $C$DW$558       .dwtag  DW_TAG_member
    6597                      .dwattr $C$DW$558, DW_AT_type(*$C$DW$T$19)
    6598                      .dwattr $C$DW$558, DW_AT_name("GPIO18")
    6599                      .dwattr $C$DW$558, DW_AT_TI_symbol_name("_GPIO18")
    6600                      .dwattr $C$DW$558, DW_AT_bit_offset(0x0d)
    6601                      .dwattr $C$DW$558, DW_AT_bit_size(0x01)
    6602                      .dwattr $C$DW$558, DW_AT_data_member_location[DW_OP_plus_uconst 0x1]
    6603                      .dwattr $C$DW$558, DW_AT_accessibility(DW_ACCESS_public)
    6604              
    6605              $C$DW$559       .dwtag  DW_TAG_member
    6606                      .dwattr $C$DW$559, DW_AT_type(*$C$DW$T$19)
    6607                      .dwattr $C$DW$559, DW_AT_name("GPIO19")
    6608                      .dwattr $C$DW$559, DW_AT_TI_symbol_name("_GPIO19")
TMS320C2000 Assembler PC v22.6.1 Wed May 21 09:51:55 2025

Copyright (c) 1996-2018 Texas Instruments Incorporated
C:\Users\Daniel\AppData\Local\Temp\{78ED34F4-3C3B-4D89-8F5D-B64BD43A86E6} PAGE  125

    6609                      .dwattr $C$DW$559, DW_AT_bit_offset(0x0c)
    6610                      .dwattr $C$DW$559, DW_AT_bit_size(0x01)
    6611                      .dwattr $C$DW$559, DW_AT_data_member_location[DW_OP_plus_uconst 0x1]
    6612                      .dwattr $C$DW$559, DW_AT_accessibility(DW_ACCESS_public)
    6613              
    6614              $C$DW$560       .dwtag  DW_TAG_member
    6615                      .dwattr $C$DW$560, DW_AT_type(*$C$DW$T$19)
    6616                      .dwattr $C$DW$560, DW_AT_name("GPIO20")
    6617                      .dwattr $C$DW$560, DW_AT_TI_symbol_name("_GPIO20")
    6618                      .dwattr $C$DW$560, DW_AT_bit_offset(0x0b)
    6619                      .dwattr $C$DW$560, DW_AT_bit_size(0x01)
    6620                      .dwattr $C$DW$560, DW_AT_data_member_location[DW_OP_plus_uconst 0x1]
    6621                      .dwattr $C$DW$560, DW_AT_accessibility(DW_ACCESS_public)
    6622              
    6623              $C$DW$561       .dwtag  DW_TAG_member
    6624                      .dwattr $C$DW$561, DW_AT_type(*$C$DW$T$19)
    6625                      .dwattr $C$DW$561, DW_AT_name("GPIO21")
    6626                      .dwattr $C$DW$561, DW_AT_TI_symbol_name("_GPIO21")
    6627                      .dwattr $C$DW$561, DW_AT_bit_offset(0x0a)
    6628                      .dwattr $C$DW$561, DW_AT_bit_size(0x01)
    6629                      .dwattr $C$DW$561, DW_AT_data_member_location[DW_OP_plus_uconst 0x1]
    6630                      .dwattr $C$DW$561, DW_AT_accessibility(DW_ACCESS_public)
    6631              
    6632              $C$DW$562       .dwtag  DW_TAG_member
    6633                      .dwattr $C$DW$562, DW_AT_type(*$C$DW$T$19)
    6634                      .dwattr $C$DW$562, DW_AT_name("GPIO22")
    6635                      .dwattr $C$DW$562, DW_AT_TI_symbol_name("_GPIO22")
    6636                      .dwattr $C$DW$562, DW_AT_bit_offset(0x09)
    6637                      .dwattr $C$DW$562, DW_AT_bit_size(0x01)
    6638                      .dwattr $C$DW$562, DW_AT_data_member_location[DW_OP_plus_uconst 0x1]
    6639                      .dwattr $C$DW$562, DW_AT_accessibility(DW_ACCESS_public)
    6640              
    6641              $C$DW$563       .dwtag  DW_TAG_member
    6642                      .dwattr $C$DW$563, DW_AT_type(*$C$DW$T$19)
    6643                      .dwattr $C$DW$563, DW_AT_name("GPIO23")
    6644                      .dwattr $C$DW$563, DW_AT_TI_symbol_name("_GPIO23")
    6645                      .dwattr $C$DW$563, DW_AT_bit_offset(0x08)
    6646                      .dwattr $C$DW$563, DW_AT_bit_size(0x01)
    6647                      .dwattr $C$DW$563, DW_AT_data_member_location[DW_OP_plus_uconst 0x1]
    6648                      .dwattr $C$DW$563, DW_AT_accessibility(DW_ACCESS_public)
    6649              
    6650              $C$DW$564       .dwtag  DW_TAG_member
    6651                      .dwattr $C$DW$564, DW_AT_type(*$C$DW$T$19)
    6652                      .dwattr $C$DW$564, DW_AT_name("GPIO24")
    6653                      .dwattr $C$DW$564, DW_AT_TI_symbol_name("_GPIO24")
    6654                      .dwattr $C$DW$564, DW_AT_bit_offset(0x07)
    6655                      .dwattr $C$DW$564, DW_AT_bit_size(0x01)
    6656                      .dwattr $C$DW$564, DW_AT_data_member_location[DW_OP_plus_uconst 0x1]
    6657                      .dwattr $C$DW$564, DW_AT_accessibility(DW_ACCESS_public)
    6658              
    6659              $C$DW$565       .dwtag  DW_TAG_member
    6660                      .dwattr $C$DW$565, DW_AT_type(*$C$DW$T$19)
    6661                      .dwattr $C$DW$565, DW_AT_name("GPIO25")
    6662                      .dwattr $C$DW$565, DW_AT_TI_symbol_name("_GPIO25")
    6663                      .dwattr $C$DW$565, DW_AT_bit_offset(0x06)
TMS320C2000 Assembler PC v22.6.1 Wed May 21 09:51:55 2025

Copyright (c) 1996-2018 Texas Instruments Incorporated
C:\Users\Daniel\AppData\Local\Temp\{78ED34F4-3C3B-4D89-8F5D-B64BD43A86E6} PAGE  126

    6664                      .dwattr $C$DW$565, DW_AT_bit_size(0x01)
    6665                      .dwattr $C$DW$565, DW_AT_data_member_location[DW_OP_plus_uconst 0x1]
    6666                      .dwattr $C$DW$565, DW_AT_accessibility(DW_ACCESS_public)
    6667              
    6668              $C$DW$566       .dwtag  DW_TAG_member
    6669                      .dwattr $C$DW$566, DW_AT_type(*$C$DW$T$19)
    6670                      .dwattr $C$DW$566, DW_AT_name("GPIO26")
    6671                      .dwattr $C$DW$566, DW_AT_TI_symbol_name("_GPIO26")
    6672                      .dwattr $C$DW$566, DW_AT_bit_offset(0x05)
    6673                      .dwattr $C$DW$566, DW_AT_bit_size(0x01)
    6674                      .dwattr $C$DW$566, DW_AT_data_member_location[DW_OP_plus_uconst 0x1]
    6675                      .dwattr $C$DW$566, DW_AT_accessibility(DW_ACCESS_public)
    6676              
    6677              $C$DW$567       .dwtag  DW_TAG_member
    6678                      .dwattr $C$DW$567, DW_AT_type(*$C$DW$T$19)
    6679                      .dwattr $C$DW$567, DW_AT_name("GPIO27")
    6680                      .dwattr $C$DW$567, DW_AT_TI_symbol_name("_GPIO27")
    6681                      .dwattr $C$DW$567, DW_AT_bit_offset(0x04)
    6682                      .dwattr $C$DW$567, DW_AT_bit_size(0x01)
    6683                      .dwattr $C$DW$567, DW_AT_data_member_location[DW_OP_plus_uconst 0x1]
    6684                      .dwattr $C$DW$567, DW_AT_accessibility(DW_ACCESS_public)
    6685              
    6686              $C$DW$568       .dwtag  DW_TAG_member
    6687                      .dwattr $C$DW$568, DW_AT_type(*$C$DW$T$19)
    6688                      .dwattr $C$DW$568, DW_AT_name("GPIO28")
    6689                      .dwattr $C$DW$568, DW_AT_TI_symbol_name("_GPIO28")
    6690                      .dwattr $C$DW$568, DW_AT_bit_offset(0x03)
    6691                      .dwattr $C$DW$568, DW_AT_bit_size(0x01)
    6692                      .dwattr $C$DW$568, DW_AT_data_member_location[DW_OP_plus_uconst 0x1]
    6693                      .dwattr $C$DW$568, DW_AT_accessibility(DW_ACCESS_public)
    6694              
    6695              $C$DW$569       .dwtag  DW_TAG_member
    6696                      .dwattr $C$DW$569, DW_AT_type(*$C$DW$T$19)
    6697                      .dwattr $C$DW$569, DW_AT_name("GPIO29")
    6698                      .dwattr $C$DW$569, DW_AT_TI_symbol_name("_GPIO29")
    6699                      .dwattr $C$DW$569, DW_AT_bit_offset(0x02)
    6700                      .dwattr $C$DW$569, DW_AT_bit_size(0x01)
    6701                      .dwattr $C$DW$569, DW_AT_data_member_location[DW_OP_plus_uconst 0x1]
    6702                      .dwattr $C$DW$569, DW_AT_accessibility(DW_ACCESS_public)
    6703              
    6704              $C$DW$570       .dwtag  DW_TAG_member
    6705                      .dwattr $C$DW$570, DW_AT_type(*$C$DW$T$19)
    6706                      .dwattr $C$DW$570, DW_AT_name("GPIO30")
    6707                      .dwattr $C$DW$570, DW_AT_TI_symbol_name("_GPIO30")
    6708                      .dwattr $C$DW$570, DW_AT_bit_offset(0x01)
    6709                      .dwattr $C$DW$570, DW_AT_bit_size(0x01)
    6710                      .dwattr $C$DW$570, DW_AT_data_member_location[DW_OP_plus_uconst 0x1]
    6711                      .dwattr $C$DW$570, DW_AT_accessibility(DW_ACCESS_public)
    6712              
    6713              $C$DW$571       .dwtag  DW_TAG_member
    6714                      .dwattr $C$DW$571, DW_AT_type(*$C$DW$T$19)
    6715                      .dwattr $C$DW$571, DW_AT_name("GPIO31")
    6716                      .dwattr $C$DW$571, DW_AT_TI_symbol_name("_GPIO31")
    6717                      .dwattr $C$DW$571, DW_AT_bit_offset(0x00)
    6718                      .dwattr $C$DW$571, DW_AT_bit_size(0x01)
TMS320C2000 Assembler PC v22.6.1 Wed May 21 09:51:55 2025

Copyright (c) 1996-2018 Texas Instruments Incorporated
C:\Users\Daniel\AppData\Local\Temp\{78ED34F4-3C3B-4D89-8F5D-B64BD43A86E6} PAGE  127

    6719                      .dwattr $C$DW$571, DW_AT_data_member_location[DW_OP_plus_uconst 0x1]
    6720                      .dwattr $C$DW$571, DW_AT_accessibility(DW_ACCESS_public)
    6721              
    6722                      .dwendtag $C$DW$T$120
    6723              
    6724              
    6725              $C$DW$T$121     .dwtag  DW_TAG_union_type
    6726                      .dwattr $C$DW$T$121, DW_AT_name("GPIOLPMSEL0_REG")
    6727                      .dwattr $C$DW$T$121, DW_AT_byte_size(0x02)
    6728              $C$DW$572       .dwtag  DW_TAG_member
    6729                      .dwattr $C$DW$572, DW_AT_type(*$C$DW$T$21)
    6730                      .dwattr $C$DW$572, DW_AT_name("all")
    6731                      .dwattr $C$DW$572, DW_AT_TI_symbol_name("_all")
    6732                      .dwattr $C$DW$572, DW_AT_data_member_location[DW_OP_plus_uconst 0x0]
    6733                      .dwattr $C$DW$572, DW_AT_accessibility(DW_ACCESS_public)
    6734              
    6735              $C$DW$573       .dwtag  DW_TAG_member
    6736                      .dwattr $C$DW$573, DW_AT_type(*$C$DW$T$120)
    6737                      .dwattr $C$DW$573, DW_AT_name("bit")
    6738                      .dwattr $C$DW$573, DW_AT_TI_symbol_name("_bit")
    6739                      .dwattr $C$DW$573, DW_AT_data_member_location[DW_OP_plus_uconst 0x0]
    6740                      .dwattr $C$DW$573, DW_AT_accessibility(DW_ACCESS_public)
    6741              
    6742                      .dwendtag $C$DW$T$121
    6743              
    6744              
    6745              $C$DW$T$122     .dwtag  DW_TAG_structure_type
    6746                      .dwattr $C$DW$T$122, DW_AT_name("GPIOLPMSEL1_BITS")
    6747                      .dwattr $C$DW$T$122, DW_AT_byte_size(0x02)
    6748              $C$DW$574       .dwtag  DW_TAG_member
    6749                      .dwattr $C$DW$574, DW_AT_type(*$C$DW$T$19)
    6750                      .dwattr $C$DW$574, DW_AT_name("GPIO32")
    6751                      .dwattr $C$DW$574, DW_AT_TI_symbol_name("_GPIO32")
    6752                      .dwattr $C$DW$574, DW_AT_bit_offset(0x0f)
    6753                      .dwattr $C$DW$574, DW_AT_bit_size(0x01)
    6754                      .dwattr $C$DW$574, DW_AT_data_member_location[DW_OP_plus_uconst 0x0]
    6755                      .dwattr $C$DW$574, DW_AT_accessibility(DW_ACCESS_public)
    6756              
    6757              $C$DW$575       .dwtag  DW_TAG_member
    6758                      .dwattr $C$DW$575, DW_AT_type(*$C$DW$T$19)
    6759                      .dwattr $C$DW$575, DW_AT_name("GPIO33")
    6760                      .dwattr $C$DW$575, DW_AT_TI_symbol_name("_GPIO33")
    6761                      .dwattr $C$DW$575, DW_AT_bit_offset(0x0e)
    6762                      .dwattr $C$DW$575, DW_AT_bit_size(0x01)
    6763                      .dwattr $C$DW$575, DW_AT_data_member_location[DW_OP_plus_uconst 0x0]
    6764                      .dwattr $C$DW$575, DW_AT_accessibility(DW_ACCESS_public)
    6765              
    6766              $C$DW$576       .dwtag  DW_TAG_member
    6767                      .dwattr $C$DW$576, DW_AT_type(*$C$DW$T$19)
    6768                      .dwattr $C$DW$576, DW_AT_name("GPIO34")
    6769                      .dwattr $C$DW$576, DW_AT_TI_symbol_name("_GPIO34")
    6770                      .dwattr $C$DW$576, DW_AT_bit_offset(0x0d)
    6771                      .dwattr $C$DW$576, DW_AT_bit_size(0x01)
    6772                      .dwattr $C$DW$576, DW_AT_data_member_location[DW_OP_plus_uconst 0x0]
    6773                      .dwattr $C$DW$576, DW_AT_accessibility(DW_ACCESS_public)
TMS320C2000 Assembler PC v22.6.1 Wed May 21 09:51:55 2025

Copyright (c) 1996-2018 Texas Instruments Incorporated
C:\Users\Daniel\AppData\Local\Temp\{78ED34F4-3C3B-4D89-8F5D-B64BD43A86E6} PAGE  128

    6774              
    6775              $C$DW$577       .dwtag  DW_TAG_member
    6776                      .dwattr $C$DW$577, DW_AT_type(*$C$DW$T$19)
    6777                      .dwattr $C$DW$577, DW_AT_name("GPIO35")
    6778                      .dwattr $C$DW$577, DW_AT_TI_symbol_name("_GPIO35")
    6779                      .dwattr $C$DW$577, DW_AT_bit_offset(0x0c)
    6780                      .dwattr $C$DW$577, DW_AT_bit_size(0x01)
    6781                      .dwattr $C$DW$577, DW_AT_data_member_location[DW_OP_plus_uconst 0x0]
    6782                      .dwattr $C$DW$577, DW_AT_accessibility(DW_ACCESS_public)
    6783              
    6784              $C$DW$578       .dwtag  DW_TAG_member
    6785                      .dwattr $C$DW$578, DW_AT_type(*$C$DW$T$19)
    6786                      .dwattr $C$DW$578, DW_AT_name("rsvd1")
    6787                      .dwattr $C$DW$578, DW_AT_TI_symbol_name("_rsvd1")
    6788                      .dwattr $C$DW$578, DW_AT_bit_offset(0x0b)
    6789                      .dwattr $C$DW$578, DW_AT_bit_size(0x01)
    6790                      .dwattr $C$DW$578, DW_AT_data_member_location[DW_OP_plus_uconst 0x0]
    6791                      .dwattr $C$DW$578, DW_AT_accessibility(DW_ACCESS_public)
    6792              
    6793              $C$DW$579       .dwtag  DW_TAG_member
    6794                      .dwattr $C$DW$579, DW_AT_type(*$C$DW$T$19)
    6795                      .dwattr $C$DW$579, DW_AT_name("GPIO37")
    6796                      .dwattr $C$DW$579, DW_AT_TI_symbol_name("_GPIO37")
    6797                      .dwattr $C$DW$579, DW_AT_bit_offset(0x0a)
    6798                      .dwattr $C$DW$579, DW_AT_bit_size(0x01)
    6799                      .dwattr $C$DW$579, DW_AT_data_member_location[DW_OP_plus_uconst 0x0]
    6800                      .dwattr $C$DW$579, DW_AT_accessibility(DW_ACCESS_public)
    6801              
    6802              $C$DW$580       .dwtag  DW_TAG_member
    6803                      .dwattr $C$DW$580, DW_AT_type(*$C$DW$T$19)
    6804                      .dwattr $C$DW$580, DW_AT_name("rsvd2")
    6805                      .dwattr $C$DW$580, DW_AT_TI_symbol_name("_rsvd2")
    6806                      .dwattr $C$DW$580, DW_AT_bit_offset(0x09)
    6807                      .dwattr $C$DW$580, DW_AT_bit_size(0x01)
    6808                      .dwattr $C$DW$580, DW_AT_data_member_location[DW_OP_plus_uconst 0x0]
    6809                      .dwattr $C$DW$580, DW_AT_accessibility(DW_ACCESS_public)
    6810              
    6811              $C$DW$581       .dwtag  DW_TAG_member
    6812                      .dwattr $C$DW$581, DW_AT_type(*$C$DW$T$19)
    6813                      .dwattr $C$DW$581, DW_AT_name("GPIO39")
    6814                      .dwattr $C$DW$581, DW_AT_TI_symbol_name("_GPIO39")
    6815                      .dwattr $C$DW$581, DW_AT_bit_offset(0x08)
    6816                      .dwattr $C$DW$581, DW_AT_bit_size(0x01)
    6817                      .dwattr $C$DW$581, DW_AT_data_member_location[DW_OP_plus_uconst 0x0]
    6818                      .dwattr $C$DW$581, DW_AT_accessibility(DW_ACCESS_public)
    6819              
    6820              $C$DW$582       .dwtag  DW_TAG_member
    6821                      .dwattr $C$DW$582, DW_AT_type(*$C$DW$T$19)
    6822                      .dwattr $C$DW$582, DW_AT_name("GPIO40")
    6823                      .dwattr $C$DW$582, DW_AT_TI_symbol_name("_GPIO40")
    6824                      .dwattr $C$DW$582, DW_AT_bit_offset(0x07)
    6825                      .dwattr $C$DW$582, DW_AT_bit_size(0x01)
    6826                      .dwattr $C$DW$582, DW_AT_data_member_location[DW_OP_plus_uconst 0x0]
    6827                      .dwattr $C$DW$582, DW_AT_accessibility(DW_ACCESS_public)
    6828              
TMS320C2000 Assembler PC v22.6.1 Wed May 21 09:51:55 2025

Copyright (c) 1996-2018 Texas Instruments Incorporated
C:\Users\Daniel\AppData\Local\Temp\{78ED34F4-3C3B-4D89-8F5D-B64BD43A86E6} PAGE  129

    6829              $C$DW$583       .dwtag  DW_TAG_member
    6830                      .dwattr $C$DW$583, DW_AT_type(*$C$DW$T$19)
    6831                      .dwattr $C$DW$583, DW_AT_name("GPIO41")
    6832                      .dwattr $C$DW$583, DW_AT_TI_symbol_name("_GPIO41")
    6833                      .dwattr $C$DW$583, DW_AT_bit_offset(0x06)
    6834                      .dwattr $C$DW$583, DW_AT_bit_size(0x01)
    6835                      .dwattr $C$DW$583, DW_AT_data_member_location[DW_OP_plus_uconst 0x0]
    6836                      .dwattr $C$DW$583, DW_AT_accessibility(DW_ACCESS_public)
    6837              
    6838              $C$DW$584       .dwtag  DW_TAG_member
    6839                      .dwattr $C$DW$584, DW_AT_type(*$C$DW$T$19)
    6840                      .dwattr $C$DW$584, DW_AT_name("GPIO42")
    6841                      .dwattr $C$DW$584, DW_AT_TI_symbol_name("_GPIO42")
    6842                      .dwattr $C$DW$584, DW_AT_bit_offset(0x05)
    6843                      .dwattr $C$DW$584, DW_AT_bit_size(0x01)
    6844                      .dwattr $C$DW$584, DW_AT_data_member_location[DW_OP_plus_uconst 0x0]
    6845                      .dwattr $C$DW$584, DW_AT_accessibility(DW_ACCESS_public)
    6846              
    6847              $C$DW$585       .dwtag  DW_TAG_member
    6848                      .dwattr $C$DW$585, DW_AT_type(*$C$DW$T$19)
    6849                      .dwattr $C$DW$585, DW_AT_name("GPIO43")
    6850                      .dwattr $C$DW$585, DW_AT_TI_symbol_name("_GPIO43")
    6851                      .dwattr $C$DW$585, DW_AT_bit_offset(0x04)
    6852                      .dwattr $C$DW$585, DW_AT_bit_size(0x01)
    6853                      .dwattr $C$DW$585, DW_AT_data_member_location[DW_OP_plus_uconst 0x0]
    6854                      .dwattr $C$DW$585, DW_AT_accessibility(DW_ACCESS_public)
    6855              
    6856              $C$DW$586       .dwtag  DW_TAG_member
    6857                      .dwattr $C$DW$586, DW_AT_type(*$C$DW$T$19)
    6858                      .dwattr $C$DW$586, DW_AT_name("GPIO44")
    6859                      .dwattr $C$DW$586, DW_AT_TI_symbol_name("_GPIO44")
    6860                      .dwattr $C$DW$586, DW_AT_bit_offset(0x03)
    6861                      .dwattr $C$DW$586, DW_AT_bit_size(0x01)
    6862                      .dwattr $C$DW$586, DW_AT_data_member_location[DW_OP_plus_uconst 0x0]
    6863                      .dwattr $C$DW$586, DW_AT_accessibility(DW_ACCESS_public)
    6864              
    6865              $C$DW$587       .dwtag  DW_TAG_member
    6866                      .dwattr $C$DW$587, DW_AT_type(*$C$DW$T$19)
    6867                      .dwattr $C$DW$587, DW_AT_name("GPIO45")
    6868                      .dwattr $C$DW$587, DW_AT_TI_symbol_name("_GPIO45")
    6869                      .dwattr $C$DW$587, DW_AT_bit_offset(0x02)
    6870                      .dwattr $C$DW$587, DW_AT_bit_size(0x01)
    6871                      .dwattr $C$DW$587, DW_AT_data_member_location[DW_OP_plus_uconst 0x0]
    6872                      .dwattr $C$DW$587, DW_AT_accessibility(DW_ACCESS_public)
    6873              
    6874              $C$DW$588       .dwtag  DW_TAG_member
    6875                      .dwattr $C$DW$588, DW_AT_type(*$C$DW$T$19)
    6876                      .dwattr $C$DW$588, DW_AT_name("GPIO46")
    6877                      .dwattr $C$DW$588, DW_AT_TI_symbol_name("_GPIO46")
    6878                      .dwattr $C$DW$588, DW_AT_bit_offset(0x01)
    6879                      .dwattr $C$DW$588, DW_AT_bit_size(0x01)
    6880                      .dwattr $C$DW$588, DW_AT_data_member_location[DW_OP_plus_uconst 0x0]
    6881                      .dwattr $C$DW$588, DW_AT_accessibility(DW_ACCESS_public)
    6882              
    6883              $C$DW$589       .dwtag  DW_TAG_member
TMS320C2000 Assembler PC v22.6.1 Wed May 21 09:51:55 2025

Copyright (c) 1996-2018 Texas Instruments Incorporated
C:\Users\Daniel\AppData\Local\Temp\{78ED34F4-3C3B-4D89-8F5D-B64BD43A86E6} PAGE  130

    6884                      .dwattr $C$DW$589, DW_AT_type(*$C$DW$T$19)
    6885                      .dwattr $C$DW$589, DW_AT_name("GPIO47")
    6886                      .dwattr $C$DW$589, DW_AT_TI_symbol_name("_GPIO47")
    6887                      .dwattr $C$DW$589, DW_AT_bit_offset(0x00)
    6888                      .dwattr $C$DW$589, DW_AT_bit_size(0x01)
    6889                      .dwattr $C$DW$589, DW_AT_data_member_location[DW_OP_plus_uconst 0x0]
    6890                      .dwattr $C$DW$589, DW_AT_accessibility(DW_ACCESS_public)
    6891              
    6892              $C$DW$590       .dwtag  DW_TAG_member
    6893                      .dwattr $C$DW$590, DW_AT_type(*$C$DW$T$19)
    6894                      .dwattr $C$DW$590, DW_AT_name("GPIO48")
    6895                      .dwattr $C$DW$590, DW_AT_TI_symbol_name("_GPIO48")
    6896                      .dwattr $C$DW$590, DW_AT_bit_offset(0x0f)
    6897                      .dwattr $C$DW$590, DW_AT_bit_size(0x01)
    6898                      .dwattr $C$DW$590, DW_AT_data_member_location[DW_OP_plus_uconst 0x1]
    6899                      .dwattr $C$DW$590, DW_AT_accessibility(DW_ACCESS_public)
    6900              
    6901              $C$DW$591       .dwtag  DW_TAG_member
    6902                      .dwattr $C$DW$591, DW_AT_type(*$C$DW$T$19)
    6903                      .dwattr $C$DW$591, DW_AT_name("GPIO49")
    6904                      .dwattr $C$DW$591, DW_AT_TI_symbol_name("_GPIO49")
    6905                      .dwattr $C$DW$591, DW_AT_bit_offset(0x0e)
    6906                      .dwattr $C$DW$591, DW_AT_bit_size(0x01)
    6907                      .dwattr $C$DW$591, DW_AT_data_member_location[DW_OP_plus_uconst 0x1]
    6908                      .dwattr $C$DW$591, DW_AT_accessibility(DW_ACCESS_public)
    6909              
    6910              $C$DW$592       .dwtag  DW_TAG_member
    6911                      .dwattr $C$DW$592, DW_AT_type(*$C$DW$T$19)
    6912                      .dwattr $C$DW$592, DW_AT_name("GPIO50")
    6913                      .dwattr $C$DW$592, DW_AT_TI_symbol_name("_GPIO50")
    6914                      .dwattr $C$DW$592, DW_AT_bit_offset(0x0d)
    6915                      .dwattr $C$DW$592, DW_AT_bit_size(0x01)
    6916                      .dwattr $C$DW$592, DW_AT_data_member_location[DW_OP_plus_uconst 0x1]
    6917                      .dwattr $C$DW$592, DW_AT_accessibility(DW_ACCESS_public)
    6918              
    6919              $C$DW$593       .dwtag  DW_TAG_member
    6920                      .dwattr $C$DW$593, DW_AT_type(*$C$DW$T$19)
    6921                      .dwattr $C$DW$593, DW_AT_name("GPIO51")
    6922                      .dwattr $C$DW$593, DW_AT_TI_symbol_name("_GPIO51")
    6923                      .dwattr $C$DW$593, DW_AT_bit_offset(0x0c)
    6924                      .dwattr $C$DW$593, DW_AT_bit_size(0x01)
    6925                      .dwattr $C$DW$593, DW_AT_data_member_location[DW_OP_plus_uconst 0x1]
    6926                      .dwattr $C$DW$593, DW_AT_accessibility(DW_ACCESS_public)
    6927              
    6928              $C$DW$594       .dwtag  DW_TAG_member
    6929                      .dwattr $C$DW$594, DW_AT_type(*$C$DW$T$19)
    6930                      .dwattr $C$DW$594, DW_AT_name("GPIO52")
    6931                      .dwattr $C$DW$594, DW_AT_TI_symbol_name("_GPIO52")
    6932                      .dwattr $C$DW$594, DW_AT_bit_offset(0x0b)
    6933                      .dwattr $C$DW$594, DW_AT_bit_size(0x01)
    6934                      .dwattr $C$DW$594, DW_AT_data_member_location[DW_OP_plus_uconst 0x1]
    6935                      .dwattr $C$DW$594, DW_AT_accessibility(DW_ACCESS_public)
    6936              
    6937              $C$DW$595       .dwtag  DW_TAG_member
    6938                      .dwattr $C$DW$595, DW_AT_type(*$C$DW$T$19)
TMS320C2000 Assembler PC v22.6.1 Wed May 21 09:51:55 2025

Copyright (c) 1996-2018 Texas Instruments Incorporated
C:\Users\Daniel\AppData\Local\Temp\{78ED34F4-3C3B-4D89-8F5D-B64BD43A86E6} PAGE  131

    6939                      .dwattr $C$DW$595, DW_AT_name("GPIO53")
    6940                      .dwattr $C$DW$595, DW_AT_TI_symbol_name("_GPIO53")
    6941                      .dwattr $C$DW$595, DW_AT_bit_offset(0x0a)
    6942                      .dwattr $C$DW$595, DW_AT_bit_size(0x01)
    6943                      .dwattr $C$DW$595, DW_AT_data_member_location[DW_OP_plus_uconst 0x1]
    6944                      .dwattr $C$DW$595, DW_AT_accessibility(DW_ACCESS_public)
    6945              
    6946              $C$DW$596       .dwtag  DW_TAG_member
    6947                      .dwattr $C$DW$596, DW_AT_type(*$C$DW$T$19)
    6948                      .dwattr $C$DW$596, DW_AT_name("GPIO54")
    6949                      .dwattr $C$DW$596, DW_AT_TI_symbol_name("_GPIO54")
    6950                      .dwattr $C$DW$596, DW_AT_bit_offset(0x09)
    6951                      .dwattr $C$DW$596, DW_AT_bit_size(0x01)
    6952                      .dwattr $C$DW$596, DW_AT_data_member_location[DW_OP_plus_uconst 0x1]
    6953                      .dwattr $C$DW$596, DW_AT_accessibility(DW_ACCESS_public)
    6954              
    6955              $C$DW$597       .dwtag  DW_TAG_member
    6956                      .dwattr $C$DW$597, DW_AT_type(*$C$DW$T$19)
    6957                      .dwattr $C$DW$597, DW_AT_name("GPIO55")
    6958                      .dwattr $C$DW$597, DW_AT_TI_symbol_name("_GPIO55")
    6959                      .dwattr $C$DW$597, DW_AT_bit_offset(0x08)
    6960                      .dwattr $C$DW$597, DW_AT_bit_size(0x01)
    6961                      .dwattr $C$DW$597, DW_AT_data_member_location[DW_OP_plus_uconst 0x1]
    6962                      .dwattr $C$DW$597, DW_AT_accessibility(DW_ACCESS_public)
    6963              
    6964              $C$DW$598       .dwtag  DW_TAG_member
    6965                      .dwattr $C$DW$598, DW_AT_type(*$C$DW$T$19)
    6966                      .dwattr $C$DW$598, DW_AT_name("GPIO56")
    6967                      .dwattr $C$DW$598, DW_AT_TI_symbol_name("_GPIO56")
    6968                      .dwattr $C$DW$598, DW_AT_bit_offset(0x07)
    6969                      .dwattr $C$DW$598, DW_AT_bit_size(0x01)
    6970                      .dwattr $C$DW$598, DW_AT_data_member_location[DW_OP_plus_uconst 0x1]
    6971                      .dwattr $C$DW$598, DW_AT_accessibility(DW_ACCESS_public)
    6972              
    6973              $C$DW$599       .dwtag  DW_TAG_member
    6974                      .dwattr $C$DW$599, DW_AT_type(*$C$DW$T$19)
    6975                      .dwattr $C$DW$599, DW_AT_name("GPIO57")
    6976                      .dwattr $C$DW$599, DW_AT_TI_symbol_name("_GPIO57")
    6977                      .dwattr $C$DW$599, DW_AT_bit_offset(0x06)
    6978                      .dwattr $C$DW$599, DW_AT_bit_size(0x01)
    6979                      .dwattr $C$DW$599, DW_AT_data_member_location[DW_OP_plus_uconst 0x1]
    6980                      .dwattr $C$DW$599, DW_AT_accessibility(DW_ACCESS_public)
    6981              
    6982              $C$DW$600       .dwtag  DW_TAG_member
    6983                      .dwattr $C$DW$600, DW_AT_type(*$C$DW$T$19)
    6984                      .dwattr $C$DW$600, DW_AT_name("GPIO58")
    6985                      .dwattr $C$DW$600, DW_AT_TI_symbol_name("_GPIO58")
    6986                      .dwattr $C$DW$600, DW_AT_bit_offset(0x05)
    6987                      .dwattr $C$DW$600, DW_AT_bit_size(0x01)
    6988                      .dwattr $C$DW$600, DW_AT_data_member_location[DW_OP_plus_uconst 0x1]
    6989                      .dwattr $C$DW$600, DW_AT_accessibility(DW_ACCESS_public)
    6990              
    6991              $C$DW$601       .dwtag  DW_TAG_member
    6992                      .dwattr $C$DW$601, DW_AT_type(*$C$DW$T$19)
    6993                      .dwattr $C$DW$601, DW_AT_name("GPIO59")
TMS320C2000 Assembler PC v22.6.1 Wed May 21 09:51:55 2025

Copyright (c) 1996-2018 Texas Instruments Incorporated
C:\Users\Daniel\AppData\Local\Temp\{78ED34F4-3C3B-4D89-8F5D-B64BD43A86E6} PAGE  132

    6994                      .dwattr $C$DW$601, DW_AT_TI_symbol_name("_GPIO59")
    6995                      .dwattr $C$DW$601, DW_AT_bit_offset(0x04)
    6996                      .dwattr $C$DW$601, DW_AT_bit_size(0x01)
    6997                      .dwattr $C$DW$601, DW_AT_data_member_location[DW_OP_plus_uconst 0x1]
    6998                      .dwattr $C$DW$601, DW_AT_accessibility(DW_ACCESS_public)
    6999              
    7000              $C$DW$602       .dwtag  DW_TAG_member
    7001                      .dwattr $C$DW$602, DW_AT_type(*$C$DW$T$19)
    7002                      .dwattr $C$DW$602, DW_AT_name("GPIO60")
    7003                      .dwattr $C$DW$602, DW_AT_TI_symbol_name("_GPIO60")
    7004                      .dwattr $C$DW$602, DW_AT_bit_offset(0x03)
    7005                      .dwattr $C$DW$602, DW_AT_bit_size(0x01)
    7006                      .dwattr $C$DW$602, DW_AT_data_member_location[DW_OP_plus_uconst 0x1]
    7007                      .dwattr $C$DW$602, DW_AT_accessibility(DW_ACCESS_public)
    7008              
    7009              $C$DW$603       .dwtag  DW_TAG_member
    7010                      .dwattr $C$DW$603, DW_AT_type(*$C$DW$T$19)
    7011                      .dwattr $C$DW$603, DW_AT_name("rsvd3")
    7012                      .dwattr $C$DW$603, DW_AT_TI_symbol_name("_rsvd3")
    7013                      .dwattr $C$DW$603, DW_AT_bit_offset(0x02)
    7014                      .dwattr $C$DW$603, DW_AT_bit_size(0x01)
    7015                      .dwattr $C$DW$603, DW_AT_data_member_location[DW_OP_plus_uconst 0x1]
    7016                      .dwattr $C$DW$603, DW_AT_accessibility(DW_ACCESS_public)
    7017              
    7018              $C$DW$604       .dwtag  DW_TAG_member
    7019                      .dwattr $C$DW$604, DW_AT_type(*$C$DW$T$19)
    7020                      .dwattr $C$DW$604, DW_AT_name("rsvd4")
    7021                      .dwattr $C$DW$604, DW_AT_TI_symbol_name("_rsvd4")
    7022                      .dwattr $C$DW$604, DW_AT_bit_offset(0x01)
    7023                      .dwattr $C$DW$604, DW_AT_bit_size(0x01)
    7024                      .dwattr $C$DW$604, DW_AT_data_member_location[DW_OP_plus_uconst 0x1]
    7025                      .dwattr $C$DW$604, DW_AT_accessibility(DW_ACCESS_public)
    7026              
    7027              $C$DW$605       .dwtag  DW_TAG_member
    7028                      .dwattr $C$DW$605, DW_AT_type(*$C$DW$T$19)
    7029                      .dwattr $C$DW$605, DW_AT_name("rsvd5")
    7030                      .dwattr $C$DW$605, DW_AT_TI_symbol_name("_rsvd5")
    7031                      .dwattr $C$DW$605, DW_AT_bit_offset(0x00)
    7032                      .dwattr $C$DW$605, DW_AT_bit_size(0x01)
    7033                      .dwattr $C$DW$605, DW_AT_data_member_location[DW_OP_plus_uconst 0x1]
    7034                      .dwattr $C$DW$605, DW_AT_accessibility(DW_ACCESS_public)
    7035              
    7036                      .dwendtag $C$DW$T$122
    7037              
    7038              
    7039              $C$DW$T$123     .dwtag  DW_TAG_union_type
    7040                      .dwattr $C$DW$T$123, DW_AT_name("GPIOLPMSEL1_REG")
    7041                      .dwattr $C$DW$T$123, DW_AT_byte_size(0x02)
    7042              $C$DW$606       .dwtag  DW_TAG_member
    7043                      .dwattr $C$DW$606, DW_AT_type(*$C$DW$T$21)
    7044                      .dwattr $C$DW$606, DW_AT_name("all")
    7045                      .dwattr $C$DW$606, DW_AT_TI_symbol_name("_all")
    7046                      .dwattr $C$DW$606, DW_AT_data_member_location[DW_OP_plus_uconst 0x0]
    7047                      .dwattr $C$DW$606, DW_AT_accessibility(DW_ACCESS_public)
    7048              
TMS320C2000 Assembler PC v22.6.1 Wed May 21 09:51:55 2025

Copyright (c) 1996-2018 Texas Instruments Incorporated
C:\Users\Daniel\AppData\Local\Temp\{78ED34F4-3C3B-4D89-8F5D-B64BD43A86E6} PAGE  133

    7049              $C$DW$607       .dwtag  DW_TAG_member
    7050                      .dwattr $C$DW$607, DW_AT_type(*$C$DW$T$122)
    7051                      .dwattr $C$DW$607, DW_AT_name("bit")
    7052                      .dwattr $C$DW$607, DW_AT_TI_symbol_name("_bit")
    7053                      .dwattr $C$DW$607, DW_AT_data_member_location[DW_OP_plus_uconst 0x0]
    7054                      .dwattr $C$DW$607, DW_AT_accessibility(DW_ACCESS_public)
    7055              
    7056                      .dwendtag $C$DW$T$123
    7057              
    7058              
    7059              $C$DW$T$124     .dwtag  DW_TAG_structure_type
    7060                      .dwattr $C$DW$T$124, DW_AT_name("LOSPCP_BITS")
    7061                      .dwattr $C$DW$T$124, DW_AT_byte_size(0x02)
    7062              $C$DW$608       .dwtag  DW_TAG_member
    7063                      .dwattr $C$DW$608, DW_AT_type(*$C$DW$T$19)
    7064                      .dwattr $C$DW$608, DW_AT_name("LSPCLKDIV")
    7065                      .dwattr $C$DW$608, DW_AT_TI_symbol_name("_LSPCLKDIV")
    7066                      .dwattr $C$DW$608, DW_AT_bit_offset(0x0d)
    7067                      .dwattr $C$DW$608, DW_AT_bit_size(0x03)
    7068                      .dwattr $C$DW$608, DW_AT_data_member_location[DW_OP_plus_uconst 0x0]
    7069                      .dwattr $C$DW$608, DW_AT_accessibility(DW_ACCESS_public)
    7070              
    7071              $C$DW$609       .dwtag  DW_TAG_member
    7072                      .dwattr $C$DW$609, DW_AT_type(*$C$DW$T$19)
    7073                      .dwattr $C$DW$609, DW_AT_name("rsvd1")
    7074                      .dwattr $C$DW$609, DW_AT_TI_symbol_name("_rsvd1")
    7075                      .dwattr $C$DW$609, DW_AT_bit_offset(0x00)
    7076                      .dwattr $C$DW$609, DW_AT_bit_size(0x0d)
    7077                      .dwattr $C$DW$609, DW_AT_data_member_location[DW_OP_plus_uconst 0x0]
    7078                      .dwattr $C$DW$609, DW_AT_accessibility(DW_ACCESS_public)
    7079              
    7080              $C$DW$610       .dwtag  DW_TAG_member
    7081                      .dwattr $C$DW$610, DW_AT_type(*$C$DW$T$19)
    7082                      .dwattr $C$DW$610, DW_AT_name("rsvd2")
    7083                      .dwattr $C$DW$610, DW_AT_TI_symbol_name("_rsvd2")
    7084                      .dwattr $C$DW$610, DW_AT_bit_offset(0x00)
    7085                      .dwattr $C$DW$610, DW_AT_bit_size(0x10)
    7086                      .dwattr $C$DW$610, DW_AT_data_member_location[DW_OP_plus_uconst 0x1]
    7087                      .dwattr $C$DW$610, DW_AT_accessibility(DW_ACCESS_public)
    7088              
    7089                      .dwendtag $C$DW$T$124
    7090              
    7091              
    7092              $C$DW$T$125     .dwtag  DW_TAG_union_type
    7093                      .dwattr $C$DW$T$125, DW_AT_name("LOSPCP_REG")
    7094                      .dwattr $C$DW$T$125, DW_AT_byte_size(0x02)
    7095              $C$DW$611       .dwtag  DW_TAG_member
    7096                      .dwattr $C$DW$611, DW_AT_type(*$C$DW$T$21)
    7097                      .dwattr $C$DW$611, DW_AT_name("all")
    7098                      .dwattr $C$DW$611, DW_AT_TI_symbol_name("_all")
    7099                      .dwattr $C$DW$611, DW_AT_data_member_location[DW_OP_plus_uconst 0x0]
    7100                      .dwattr $C$DW$611, DW_AT_accessibility(DW_ACCESS_public)
    7101              
    7102              $C$DW$612       .dwtag  DW_TAG_member
    7103                      .dwattr $C$DW$612, DW_AT_type(*$C$DW$T$124)
TMS320C2000 Assembler PC v22.6.1 Wed May 21 09:51:55 2025

Copyright (c) 1996-2018 Texas Instruments Incorporated
C:\Users\Daniel\AppData\Local\Temp\{78ED34F4-3C3B-4D89-8F5D-B64BD43A86E6} PAGE  134

    7104                      .dwattr $C$DW$612, DW_AT_name("bit")
    7105                      .dwattr $C$DW$612, DW_AT_TI_symbol_name("_bit")
    7106                      .dwattr $C$DW$612, DW_AT_data_member_location[DW_OP_plus_uconst 0x0]
    7107                      .dwattr $C$DW$612, DW_AT_accessibility(DW_ACCESS_public)
    7108              
    7109                      .dwendtag $C$DW$T$125
    7110              
    7111              
    7112              $C$DW$T$126     .dwtag  DW_TAG_structure_type
    7113                      .dwattr $C$DW$T$126, DW_AT_name("LPMCR_BITS")
    7114                      .dwattr $C$DW$T$126, DW_AT_byte_size(0x02)
    7115              $C$DW$613       .dwtag  DW_TAG_member
    7116                      .dwattr $C$DW$613, DW_AT_type(*$C$DW$T$19)
    7117                      .dwattr $C$DW$613, DW_AT_name("LPM")
    7118                      .dwattr $C$DW$613, DW_AT_TI_symbol_name("_LPM")
    7119                      .dwattr $C$DW$613, DW_AT_bit_offset(0x0e)
    7120                      .dwattr $C$DW$613, DW_AT_bit_size(0x02)
    7121                      .dwattr $C$DW$613, DW_AT_data_member_location[DW_OP_plus_uconst 0x0]
    7122                      .dwattr $C$DW$613, DW_AT_accessibility(DW_ACCESS_public)
    7123              
    7124              $C$DW$614       .dwtag  DW_TAG_member
    7125                      .dwattr $C$DW$614, DW_AT_type(*$C$DW$T$19)
    7126                      .dwattr $C$DW$614, DW_AT_name("QUALSTDBY")
    7127                      .dwattr $C$DW$614, DW_AT_TI_symbol_name("_QUALSTDBY")
    7128                      .dwattr $C$DW$614, DW_AT_bit_offset(0x08)
    7129                      .dwattr $C$DW$614, DW_AT_bit_size(0x06)
    7130                      .dwattr $C$DW$614, DW_AT_data_member_location[DW_OP_plus_uconst 0x0]
    7131                      .dwattr $C$DW$614, DW_AT_accessibility(DW_ACCESS_public)
    7132              
    7133              $C$DW$615       .dwtag  DW_TAG_member
    7134                      .dwattr $C$DW$615, DW_AT_type(*$C$DW$T$19)
    7135                      .dwattr $C$DW$615, DW_AT_name("rsvd1")
    7136                      .dwattr $C$DW$615, DW_AT_TI_symbol_name("_rsvd1")
    7137                      .dwattr $C$DW$615, DW_AT_bit_offset(0x01)
    7138                      .dwattr $C$DW$615, DW_AT_bit_size(0x07)
    7139                      .dwattr $C$DW$615, DW_AT_data_member_location[DW_OP_plus_uconst 0x0]
    7140                      .dwattr $C$DW$615, DW_AT_accessibility(DW_ACCESS_public)
    7141              
    7142              $C$DW$616       .dwtag  DW_TAG_member
    7143                      .dwattr $C$DW$616, DW_AT_type(*$C$DW$T$19)
    7144                      .dwattr $C$DW$616, DW_AT_name("WDINTE")
    7145                      .dwattr $C$DW$616, DW_AT_TI_symbol_name("_WDINTE")
    7146                      .dwattr $C$DW$616, DW_AT_bit_offset(0x00)
    7147                      .dwattr $C$DW$616, DW_AT_bit_size(0x01)
    7148                      .dwattr $C$DW$616, DW_AT_data_member_location[DW_OP_plus_uconst 0x0]
    7149                      .dwattr $C$DW$616, DW_AT_accessibility(DW_ACCESS_public)
    7150              
    7151              $C$DW$617       .dwtag  DW_TAG_member
    7152                      .dwattr $C$DW$617, DW_AT_type(*$C$DW$T$19)
    7153                      .dwattr $C$DW$617, DW_AT_name("rsvd2")
    7154                      .dwattr $C$DW$617, DW_AT_TI_symbol_name("_rsvd2")
    7155                      .dwattr $C$DW$617, DW_AT_bit_offset(0x0e)
    7156                      .dwattr $C$DW$617, DW_AT_bit_size(0x02)
    7157                      .dwattr $C$DW$617, DW_AT_data_member_location[DW_OP_plus_uconst 0x1]
    7158                      .dwattr $C$DW$617, DW_AT_accessibility(DW_ACCESS_public)
TMS320C2000 Assembler PC v22.6.1 Wed May 21 09:51:55 2025

Copyright (c) 1996-2018 Texas Instruments Incorporated
C:\Users\Daniel\AppData\Local\Temp\{78ED34F4-3C3B-4D89-8F5D-B64BD43A86E6} PAGE  135

    7159              
    7160              $C$DW$618       .dwtag  DW_TAG_member
    7161                      .dwattr $C$DW$618, DW_AT_type(*$C$DW$T$19)
    7162                      .dwattr $C$DW$618, DW_AT_name("rsvd3")
    7163                      .dwattr $C$DW$618, DW_AT_TI_symbol_name("_rsvd3")
    7164                      .dwattr $C$DW$618, DW_AT_bit_offset(0x01)
    7165                      .dwattr $C$DW$618, DW_AT_bit_size(0x0d)
    7166                      .dwattr $C$DW$618, DW_AT_data_member_location[DW_OP_plus_uconst 0x1]
    7167                      .dwattr $C$DW$618, DW_AT_accessibility(DW_ACCESS_public)
    7168              
    7169              $C$DW$619       .dwtag  DW_TAG_member
    7170                      .dwattr $C$DW$619, DW_AT_type(*$C$DW$T$19)
    7171                      .dwattr $C$DW$619, DW_AT_name("rsvd4")
    7172                      .dwattr $C$DW$619, DW_AT_TI_symbol_name("_rsvd4")
    7173                      .dwattr $C$DW$619, DW_AT_bit_offset(0x00)
    7174                      .dwattr $C$DW$619, DW_AT_bit_size(0x01)
    7175                      .dwattr $C$DW$619, DW_AT_data_member_location[DW_OP_plus_uconst 0x1]
    7176                      .dwattr $C$DW$619, DW_AT_accessibility(DW_ACCESS_public)
    7177              
    7178                      .dwendtag $C$DW$T$126
    7179              
    7180              
    7181              $C$DW$T$127     .dwtag  DW_TAG_union_type
    7182                      .dwattr $C$DW$T$127, DW_AT_name("LPMCR_REG")
    7183                      .dwattr $C$DW$T$127, DW_AT_byte_size(0x02)
    7184              $C$DW$620       .dwtag  DW_TAG_member
    7185                      .dwattr $C$DW$620, DW_AT_type(*$C$DW$T$21)
    7186                      .dwattr $C$DW$620, DW_AT_name("all")
    7187                      .dwattr $C$DW$620, DW_AT_TI_symbol_name("_all")
    7188                      .dwattr $C$DW$620, DW_AT_data_member_location[DW_OP_plus_uconst 0x0]
    7189                      .dwattr $C$DW$620, DW_AT_accessibility(DW_ACCESS_public)
    7190              
    7191              $C$DW$621       .dwtag  DW_TAG_member
    7192                      .dwattr $C$DW$621, DW_AT_type(*$C$DW$T$126)
    7193                      .dwattr $C$DW$621, DW_AT_name("bit")
    7194                      .dwattr $C$DW$621, DW_AT_TI_symbol_name("_bit")
    7195                      .dwattr $C$DW$621, DW_AT_data_member_location[DW_OP_plus_uconst 0x0]
    7196                      .dwattr $C$DW$621, DW_AT_accessibility(DW_ACCESS_public)
    7197              
    7198                      .dwendtag $C$DW$T$127
    7199              
    7200              
    7201              $C$DW$T$128     .dwtag  DW_TAG_structure_type
    7202                      .dwattr $C$DW$T$128, DW_AT_name("MCANWAKESTATUSCLR_BITS")
    7203                      .dwattr $C$DW$T$128, DW_AT_byte_size(0x02)
    7204              $C$DW$622       .dwtag  DW_TAG_member
    7205                      .dwattr $C$DW$622, DW_AT_type(*$C$DW$T$19)
    7206                      .dwattr $C$DW$622, DW_AT_name("WAKE")
    7207                      .dwattr $C$DW$622, DW_AT_TI_symbol_name("_WAKE")
    7208                      .dwattr $C$DW$622, DW_AT_bit_offset(0x0f)
    7209                      .dwattr $C$DW$622, DW_AT_bit_size(0x01)
    7210                      .dwattr $C$DW$622, DW_AT_data_member_location[DW_OP_plus_uconst 0x0]
    7211                      .dwattr $C$DW$622, DW_AT_accessibility(DW_ACCESS_public)
    7212              
    7213              $C$DW$623       .dwtag  DW_TAG_member
TMS320C2000 Assembler PC v22.6.1 Wed May 21 09:51:55 2025

Copyright (c) 1996-2018 Texas Instruments Incorporated
C:\Users\Daniel\AppData\Local\Temp\{78ED34F4-3C3B-4D89-8F5D-B64BD43A86E6} PAGE  136

    7214                      .dwattr $C$DW$623, DW_AT_type(*$C$DW$T$19)
    7215                      .dwattr $C$DW$623, DW_AT_name("rsvd1")
    7216                      .dwattr $C$DW$623, DW_AT_TI_symbol_name("_rsvd1")
    7217                      .dwattr $C$DW$623, DW_AT_bit_offset(0x00)
    7218                      .dwattr $C$DW$623, DW_AT_bit_size(0x0f)
    7219                      .dwattr $C$DW$623, DW_AT_data_member_location[DW_OP_plus_uconst 0x0]
    7220                      .dwattr $C$DW$623, DW_AT_accessibility(DW_ACCESS_public)
    7221              
    7222              $C$DW$624       .dwtag  DW_TAG_member
    7223                      .dwattr $C$DW$624, DW_AT_type(*$C$DW$T$19)
    7224                      .dwattr $C$DW$624, DW_AT_name("rsvd2")
    7225                      .dwattr $C$DW$624, DW_AT_TI_symbol_name("_rsvd2")
    7226                      .dwattr $C$DW$624, DW_AT_bit_offset(0x00)
    7227                      .dwattr $C$DW$624, DW_AT_bit_size(0x10)
    7228                      .dwattr $C$DW$624, DW_AT_data_member_location[DW_OP_plus_uconst 0x1]
    7229                      .dwattr $C$DW$624, DW_AT_accessibility(DW_ACCESS_public)
    7230              
    7231                      .dwendtag $C$DW$T$128
    7232              
    7233              
    7234              $C$DW$T$129     .dwtag  DW_TAG_union_type
    7235                      .dwattr $C$DW$T$129, DW_AT_name("MCANWAKESTATUSCLR_REG")
    7236                      .dwattr $C$DW$T$129, DW_AT_byte_size(0x02)
    7237              $C$DW$625       .dwtag  DW_TAG_member
    7238                      .dwattr $C$DW$625, DW_AT_type(*$C$DW$T$21)
    7239                      .dwattr $C$DW$625, DW_AT_name("all")
    7240                      .dwattr $C$DW$625, DW_AT_TI_symbol_name("_all")
    7241                      .dwattr $C$DW$625, DW_AT_data_member_location[DW_OP_plus_uconst 0x0]
    7242                      .dwattr $C$DW$625, DW_AT_accessibility(DW_ACCESS_public)
    7243              
    7244              $C$DW$626       .dwtag  DW_TAG_member
    7245                      .dwattr $C$DW$626, DW_AT_type(*$C$DW$T$128)
    7246                      .dwattr $C$DW$626, DW_AT_name("bit")
    7247                      .dwattr $C$DW$626, DW_AT_TI_symbol_name("_bit")
    7248                      .dwattr $C$DW$626, DW_AT_data_member_location[DW_OP_plus_uconst 0x0]
    7249                      .dwattr $C$DW$626, DW_AT_accessibility(DW_ACCESS_public)
    7250              
    7251                      .dwendtag $C$DW$T$129
    7252              
    7253              
    7254              $C$DW$T$130     .dwtag  DW_TAG_structure_type
    7255                      .dwattr $C$DW$T$130, DW_AT_name("MCANWAKESTATUS_BITS")
    7256                      .dwattr $C$DW$T$130, DW_AT_byte_size(0x02)
    7257              $C$DW$627       .dwtag  DW_TAG_member
    7258                      .dwattr $C$DW$627, DW_AT_type(*$C$DW$T$19)
    7259                      .dwattr $C$DW$627, DW_AT_name("WAKE")
    7260                      .dwattr $C$DW$627, DW_AT_TI_symbol_name("_WAKE")
    7261                      .dwattr $C$DW$627, DW_AT_bit_offset(0x0f)
    7262                      .dwattr $C$DW$627, DW_AT_bit_size(0x01)
    7263                      .dwattr $C$DW$627, DW_AT_data_member_location[DW_OP_plus_uconst 0x0]
    7264                      .dwattr $C$DW$627, DW_AT_accessibility(DW_ACCESS_public)
    7265              
    7266              $C$DW$628       .dwtag  DW_TAG_member
    7267                      .dwattr $C$DW$628, DW_AT_type(*$C$DW$T$19)
    7268                      .dwattr $C$DW$628, DW_AT_name("rsvd1")
TMS320C2000 Assembler PC v22.6.1 Wed May 21 09:51:55 2025

Copyright (c) 1996-2018 Texas Instruments Incorporated
C:\Users\Daniel\AppData\Local\Temp\{78ED34F4-3C3B-4D89-8F5D-B64BD43A86E6} PAGE  137

    7269                      .dwattr $C$DW$628, DW_AT_TI_symbol_name("_rsvd1")
    7270                      .dwattr $C$DW$628, DW_AT_bit_offset(0x00)
    7271                      .dwattr $C$DW$628, DW_AT_bit_size(0x0f)
    7272                      .dwattr $C$DW$628, DW_AT_data_member_location[DW_OP_plus_uconst 0x0]
    7273                      .dwattr $C$DW$628, DW_AT_accessibility(DW_ACCESS_public)
    7274              
    7275              $C$DW$629       .dwtag  DW_TAG_member
    7276                      .dwattr $C$DW$629, DW_AT_type(*$C$DW$T$19)
    7277                      .dwattr $C$DW$629, DW_AT_name("rsvd2")
    7278                      .dwattr $C$DW$629, DW_AT_TI_symbol_name("_rsvd2")
    7279                      .dwattr $C$DW$629, DW_AT_bit_offset(0x00)
    7280                      .dwattr $C$DW$629, DW_AT_bit_size(0x10)
    7281                      .dwattr $C$DW$629, DW_AT_data_member_location[DW_OP_plus_uconst 0x1]
    7282                      .dwattr $C$DW$629, DW_AT_accessibility(DW_ACCESS_public)
    7283              
    7284                      .dwendtag $C$DW$T$130
    7285              
    7286              
    7287              $C$DW$T$131     .dwtag  DW_TAG_union_type
    7288                      .dwattr $C$DW$T$131, DW_AT_name("MCANWAKESTATUS_REG")
    7289                      .dwattr $C$DW$T$131, DW_AT_byte_size(0x02)
    7290              $C$DW$630       .dwtag  DW_TAG_member
    7291                      .dwattr $C$DW$630, DW_AT_type(*$C$DW$T$21)
    7292                      .dwattr $C$DW$630, DW_AT_name("all")
    7293                      .dwattr $C$DW$630, DW_AT_TI_symbol_name("_all")
    7294                      .dwattr $C$DW$630, DW_AT_data_member_location[DW_OP_plus_uconst 0x0]
    7295                      .dwattr $C$DW$630, DW_AT_accessibility(DW_ACCESS_public)
    7296              
    7297              $C$DW$631       .dwtag  DW_TAG_member
    7298                      .dwattr $C$DW$631, DW_AT_type(*$C$DW$T$130)
    7299                      .dwattr $C$DW$631, DW_AT_name("bit")
    7300                      .dwattr $C$DW$631, DW_AT_TI_symbol_name("_bit")
    7301                      .dwattr $C$DW$631, DW_AT_data_member_location[DW_OP_plus_uconst 0x0]
    7302                      .dwattr $C$DW$631, DW_AT_accessibility(DW_ACCESS_public)
    7303              
    7304                      .dwendtag $C$DW$T$131
    7305              
    7306              
    7307              $C$DW$T$132     .dwtag  DW_TAG_structure_type
    7308                      .dwattr $C$DW$T$132, DW_AT_name("MCDCR_BITS")
    7309                      .dwattr $C$DW$T$132, DW_AT_byte_size(0x02)
    7310              $C$DW$632       .dwtag  DW_TAG_member
    7311                      .dwattr $C$DW$632, DW_AT_type(*$C$DW$T$19)
    7312                      .dwattr $C$DW$632, DW_AT_name("MCLKSTS")
    7313                      .dwattr $C$DW$632, DW_AT_TI_symbol_name("_MCLKSTS")
    7314                      .dwattr $C$DW$632, DW_AT_bit_offset(0x0f)
    7315                      .dwattr $C$DW$632, DW_AT_bit_size(0x01)
    7316                      .dwattr $C$DW$632, DW_AT_data_member_location[DW_OP_plus_uconst 0x0]
    7317                      .dwattr $C$DW$632, DW_AT_accessibility(DW_ACCESS_public)
    7318              
    7319              $C$DW$633       .dwtag  DW_TAG_member
    7320                      .dwattr $C$DW$633, DW_AT_type(*$C$DW$T$19)
    7321                      .dwattr $C$DW$633, DW_AT_name("MCLKCLR")
    7322                      .dwattr $C$DW$633, DW_AT_TI_symbol_name("_MCLKCLR")
    7323                      .dwattr $C$DW$633, DW_AT_bit_offset(0x0e)
TMS320C2000 Assembler PC v22.6.1 Wed May 21 09:51:55 2025

Copyright (c) 1996-2018 Texas Instruments Incorporated
C:\Users\Daniel\AppData\Local\Temp\{78ED34F4-3C3B-4D89-8F5D-B64BD43A86E6} PAGE  138

    7324                      .dwattr $C$DW$633, DW_AT_bit_size(0x01)
    7325                      .dwattr $C$DW$633, DW_AT_data_member_location[DW_OP_plus_uconst 0x0]
    7326                      .dwattr $C$DW$633, DW_AT_accessibility(DW_ACCESS_public)
    7327              
    7328              $C$DW$634       .dwtag  DW_TAG_member
    7329                      .dwattr $C$DW$634, DW_AT_type(*$C$DW$T$19)
    7330                      .dwattr $C$DW$634, DW_AT_name("MCLKOFF")
    7331                      .dwattr $C$DW$634, DW_AT_TI_symbol_name("_MCLKOFF")
    7332                      .dwattr $C$DW$634, DW_AT_bit_offset(0x0d)
    7333                      .dwattr $C$DW$634, DW_AT_bit_size(0x01)
    7334                      .dwattr $C$DW$634, DW_AT_data_member_location[DW_OP_plus_uconst 0x0]
    7335                      .dwattr $C$DW$634, DW_AT_accessibility(DW_ACCESS_public)
    7336              
    7337              $C$DW$635       .dwtag  DW_TAG_member
    7338                      .dwattr $C$DW$635, DW_AT_type(*$C$DW$T$19)
    7339                      .dwattr $C$DW$635, DW_AT_name("OSCOFF")
    7340                      .dwattr $C$DW$635, DW_AT_TI_symbol_name("_OSCOFF")
    7341                      .dwattr $C$DW$635, DW_AT_bit_offset(0x0c)
    7342                      .dwattr $C$DW$635, DW_AT_bit_size(0x01)
    7343                      .dwattr $C$DW$635, DW_AT_data_member_location[DW_OP_plus_uconst 0x0]
    7344                      .dwattr $C$DW$635, DW_AT_accessibility(DW_ACCESS_public)
    7345              
    7346              $C$DW$636       .dwtag  DW_TAG_member
    7347                      .dwattr $C$DW$636, DW_AT_type(*$C$DW$T$19)
    7348                      .dwattr $C$DW$636, DW_AT_name("SYSREF_LOSTS")
    7349                      .dwattr $C$DW$636, DW_AT_TI_symbol_name("_SYSREF_LOSTS")
    7350                      .dwattr $C$DW$636, DW_AT_bit_offset(0x0b)
    7351                      .dwattr $C$DW$636, DW_AT_bit_size(0x01)
    7352                      .dwattr $C$DW$636, DW_AT_data_member_location[DW_OP_plus_uconst 0x0]
    7353                      .dwattr $C$DW$636, DW_AT_accessibility(DW_ACCESS_public)
    7354              
    7355              $C$DW$637       .dwtag  DW_TAG_member
    7356                      .dwattr $C$DW$637, DW_AT_type(*$C$DW$T$19)
    7357                      .dwattr $C$DW$637, DW_AT_name("SYSREF_LOSTSCLR")
    7358                      .dwattr $C$DW$637, DW_AT_TI_symbol_name("_SYSREF_LOSTSCLR")
    7359                      .dwattr $C$DW$637, DW_AT_bit_offset(0x0a)
    7360                      .dwattr $C$DW$637, DW_AT_bit_size(0x01)
    7361                      .dwattr $C$DW$637, DW_AT_data_member_location[DW_OP_plus_uconst 0x0]
    7362                      .dwattr $C$DW$637, DW_AT_accessibility(DW_ACCESS_public)
    7363              
    7364              $C$DW$638       .dwtag  DW_TAG_member
    7365                      .dwattr $C$DW$638, DW_AT_type(*$C$DW$T$19)
    7366                      .dwattr $C$DW$638, DW_AT_name("SYSREF_LOST_MCD_EN")
    7367                      .dwattr $C$DW$638, DW_AT_TI_symbol_name("_SYSREF_LOST_MCD_EN")
    7368                      .dwattr $C$DW$638, DW_AT_bit_offset(0x09)
    7369                      .dwattr $C$DW$638, DW_AT_bit_size(0x01)
    7370                      .dwattr $C$DW$638, DW_AT_data_member_location[DW_OP_plus_uconst 0x0]
    7371                      .dwattr $C$DW$638, DW_AT_accessibility(DW_ACCESS_public)
    7372              
    7373              $C$DW$639       .dwtag  DW_TAG_member
    7374                      .dwattr $C$DW$639, DW_AT_type(*$C$DW$T$19)
    7375                      .dwattr $C$DW$639, DW_AT_name("rsvd1")
    7376                      .dwattr $C$DW$639, DW_AT_TI_symbol_name("_rsvd1")
    7377                      .dwattr $C$DW$639, DW_AT_bit_offset(0x08)
    7378                      .dwattr $C$DW$639, DW_AT_bit_size(0x01)
TMS320C2000 Assembler PC v22.6.1 Wed May 21 09:51:55 2025

Copyright (c) 1996-2018 Texas Instruments Incorporated
C:\Users\Daniel\AppData\Local\Temp\{78ED34F4-3C3B-4D89-8F5D-B64BD43A86E6} PAGE  139

    7379                      .dwattr $C$DW$639, DW_AT_data_member_location[DW_OP_plus_uconst 0x0]
    7380                      .dwattr $C$DW$639, DW_AT_accessibility(DW_ACCESS_public)
    7381              
    7382              $C$DW$640       .dwtag  DW_TAG_member
    7383                      .dwattr $C$DW$640, DW_AT_type(*$C$DW$T$19)
    7384                      .dwattr $C$DW$640, DW_AT_name("rsvd2")
    7385                      .dwattr $C$DW$640, DW_AT_TI_symbol_name("_rsvd2")
    7386                      .dwattr $C$DW$640, DW_AT_bit_offset(0x07)
    7387                      .dwattr $C$DW$640, DW_AT_bit_size(0x01)
    7388                      .dwattr $C$DW$640, DW_AT_data_member_location[DW_OP_plus_uconst 0x0]
    7389                      .dwattr $C$DW$640, DW_AT_accessibility(DW_ACCESS_public)
    7390              
    7391              $C$DW$641       .dwtag  DW_TAG_member
    7392                      .dwattr $C$DW$641, DW_AT_type(*$C$DW$T$19)
    7393                      .dwattr $C$DW$641, DW_AT_name("rsvd3")
    7394                      .dwattr $C$DW$641, DW_AT_TI_symbol_name("_rsvd3")
    7395                      .dwattr $C$DW$641, DW_AT_bit_offset(0x06)
    7396                      .dwattr $C$DW$641, DW_AT_bit_size(0x01)
    7397                      .dwattr $C$DW$641, DW_AT_data_member_location[DW_OP_plus_uconst 0x0]
    7398                      .dwattr $C$DW$641, DW_AT_accessibility(DW_ACCESS_public)
    7399              
    7400              $C$DW$642       .dwtag  DW_TAG_member
    7401                      .dwattr $C$DW$642, DW_AT_type(*$C$DW$T$19)
    7402                      .dwattr $C$DW$642, DW_AT_name("rsvd4")
    7403                      .dwattr $C$DW$642, DW_AT_TI_symbol_name("_rsvd4")
    7404                      .dwattr $C$DW$642, DW_AT_bit_offset(0x00)
    7405                      .dwattr $C$DW$642, DW_AT_bit_size(0x06)
    7406                      .dwattr $C$DW$642, DW_AT_data_member_location[DW_OP_plus_uconst 0x0]
    7407                      .dwattr $C$DW$642, DW_AT_accessibility(DW_ACCESS_public)
    7408              
    7409              $C$DW$643       .dwtag  DW_TAG_member
    7410                      .dwattr $C$DW$643, DW_AT_type(*$C$DW$T$19)
    7411                      .dwattr $C$DW$643, DW_AT_name("rsvd5")
    7412                      .dwattr $C$DW$643, DW_AT_TI_symbol_name("_rsvd5")
    7413                      .dwattr $C$DW$643, DW_AT_bit_offset(0x00)
    7414                      .dwattr $C$DW$643, DW_AT_bit_size(0x10)
    7415                      .dwattr $C$DW$643, DW_AT_data_member_location[DW_OP_plus_uconst 0x1]
    7416                      .dwattr $C$DW$643, DW_AT_accessibility(DW_ACCESS_public)
    7417              
    7418                      .dwendtag $C$DW$T$132
    7419              
    7420              
    7421              $C$DW$T$133     .dwtag  DW_TAG_union_type
    7422                      .dwattr $C$DW$T$133, DW_AT_name("MCDCR_REG")
    7423                      .dwattr $C$DW$T$133, DW_AT_byte_size(0x02)
    7424              $C$DW$644       .dwtag  DW_TAG_member
    7425                      .dwattr $C$DW$644, DW_AT_type(*$C$DW$T$21)
    7426                      .dwattr $C$DW$644, DW_AT_name("all")
    7427                      .dwattr $C$DW$644, DW_AT_TI_symbol_name("_all")
    7428                      .dwattr $C$DW$644, DW_AT_data_member_location[DW_OP_plus_uconst 0x0]
    7429                      .dwattr $C$DW$644, DW_AT_accessibility(DW_ACCESS_public)
    7430              
    7431              $C$DW$645       .dwtag  DW_TAG_member
    7432                      .dwattr $C$DW$645, DW_AT_type(*$C$DW$T$132)
    7433                      .dwattr $C$DW$645, DW_AT_name("bit")
TMS320C2000 Assembler PC v22.6.1 Wed May 21 09:51:55 2025

Copyright (c) 1996-2018 Texas Instruments Incorporated
C:\Users\Daniel\AppData\Local\Temp\{78ED34F4-3C3B-4D89-8F5D-B64BD43A86E6} PAGE  140

    7434                      .dwattr $C$DW$645, DW_AT_TI_symbol_name("_bit")
    7435                      .dwattr $C$DW$645, DW_AT_data_member_location[DW_OP_plus_uconst 0x0]
    7436                      .dwattr $C$DW$645, DW_AT_accessibility(DW_ACCESS_public)
    7437              
    7438                      .dwendtag $C$DW$T$133
    7439              
    7440              
    7441              $C$DW$T$134     .dwtag  DW_TAG_structure_type
    7442                      .dwattr $C$DW$T$134, DW_AT_name("PCLKCR0_BITS")
    7443                      .dwattr $C$DW$T$134, DW_AT_byte_size(0x02)
    7444              $C$DW$646       .dwtag  DW_TAG_member
    7445                      .dwattr $C$DW$646, DW_AT_type(*$C$DW$T$19)
    7446                      .dwattr $C$DW$646, DW_AT_name("CLA1")
    7447                      .dwattr $C$DW$646, DW_AT_TI_symbol_name("_CLA1")
    7448                      .dwattr $C$DW$646, DW_AT_bit_offset(0x0f)
    7449                      .dwattr $C$DW$646, DW_AT_bit_size(0x01)
    7450                      .dwattr $C$DW$646, DW_AT_data_member_location[DW_OP_plus_uconst 0x0]
    7451                      .dwattr $C$DW$646, DW_AT_accessibility(DW_ACCESS_public)
    7452              
    7453              $C$DW$647       .dwtag  DW_TAG_member
    7454                      .dwattr $C$DW$647, DW_AT_type(*$C$DW$T$19)
    7455                      .dwattr $C$DW$647, DW_AT_name("rsvd1")
    7456                      .dwattr $C$DW$647, DW_AT_TI_symbol_name("_rsvd1")
    7457                      .dwattr $C$DW$647, DW_AT_bit_offset(0x0e)
    7458                      .dwattr $C$DW$647, DW_AT_bit_size(0x01)
    7459                      .dwattr $C$DW$647, DW_AT_data_member_location[DW_OP_plus_uconst 0x0]
    7460                      .dwattr $C$DW$647, DW_AT_accessibility(DW_ACCESS_public)
    7461              
    7462              $C$DW$648       .dwtag  DW_TAG_member
    7463                      .dwattr $C$DW$648, DW_AT_type(*$C$DW$T$19)
    7464                      .dwattr $C$DW$648, DW_AT_name("DMA")
    7465                      .dwattr $C$DW$648, DW_AT_TI_symbol_name("_DMA")
    7466                      .dwattr $C$DW$648, DW_AT_bit_offset(0x0d)
    7467                      .dwattr $C$DW$648, DW_AT_bit_size(0x01)
    7468                      .dwattr $C$DW$648, DW_AT_data_member_location[DW_OP_plus_uconst 0x0]
    7469                      .dwattr $C$DW$648, DW_AT_accessibility(DW_ACCESS_public)
    7470              
    7471              $C$DW$649       .dwtag  DW_TAG_member
    7472                      .dwattr $C$DW$649, DW_AT_type(*$C$DW$T$19)
    7473                      .dwattr $C$DW$649, DW_AT_name("CPUTIMER0")
    7474                      .dwattr $C$DW$649, DW_AT_TI_symbol_name("_CPUTIMER0")
    7475                      .dwattr $C$DW$649, DW_AT_bit_offset(0x0c)
    7476                      .dwattr $C$DW$649, DW_AT_bit_size(0x01)
    7477                      .dwattr $C$DW$649, DW_AT_data_member_location[DW_OP_plus_uconst 0x0]
    7478                      .dwattr $C$DW$649, DW_AT_accessibility(DW_ACCESS_public)
    7479              
    7480              $C$DW$650       .dwtag  DW_TAG_member
    7481                      .dwattr $C$DW$650, DW_AT_type(*$C$DW$T$19)
    7482                      .dwattr $C$DW$650, DW_AT_name("CPUTIMER1")
    7483                      .dwattr $C$DW$650, DW_AT_TI_symbol_name("_CPUTIMER1")
    7484                      .dwattr $C$DW$650, DW_AT_bit_offset(0x0b)
    7485                      .dwattr $C$DW$650, DW_AT_bit_size(0x01)
    7486                      .dwattr $C$DW$650, DW_AT_data_member_location[DW_OP_plus_uconst 0x0]
    7487                      .dwattr $C$DW$650, DW_AT_accessibility(DW_ACCESS_public)
    7488              
TMS320C2000 Assembler PC v22.6.1 Wed May 21 09:51:55 2025

Copyright (c) 1996-2018 Texas Instruments Incorporated
C:\Users\Daniel\AppData\Local\Temp\{78ED34F4-3C3B-4D89-8F5D-B64BD43A86E6} PAGE  141

    7489              $C$DW$651       .dwtag  DW_TAG_member
    7490                      .dwattr $C$DW$651, DW_AT_type(*$C$DW$T$19)
    7491                      .dwattr $C$DW$651, DW_AT_name("CPUTIMER2")
    7492                      .dwattr $C$DW$651, DW_AT_TI_symbol_name("_CPUTIMER2")
    7493                      .dwattr $C$DW$651, DW_AT_bit_offset(0x0a)
    7494                      .dwattr $C$DW$651, DW_AT_bit_size(0x01)
    7495                      .dwattr $C$DW$651, DW_AT_data_member_location[DW_OP_plus_uconst 0x0]
    7496                      .dwattr $C$DW$651, DW_AT_accessibility(DW_ACCESS_public)
    7497              
    7498              $C$DW$652       .dwtag  DW_TAG_member
    7499                      .dwattr $C$DW$652, DW_AT_type(*$C$DW$T$19)
    7500                      .dwattr $C$DW$652, DW_AT_name("rsvd2")
    7501                      .dwattr $C$DW$652, DW_AT_TI_symbol_name("_rsvd2")
    7502                      .dwattr $C$DW$652, DW_AT_bit_offset(0x03)
    7503                      .dwattr $C$DW$652, DW_AT_bit_size(0x07)
    7504                      .dwattr $C$DW$652, DW_AT_data_member_location[DW_OP_plus_uconst 0x0]
    7505                      .dwattr $C$DW$652, DW_AT_accessibility(DW_ACCESS_public)
    7506              
    7507              $C$DW$653       .dwtag  DW_TAG_member
    7508                      .dwattr $C$DW$653, DW_AT_type(*$C$DW$T$19)
    7509                      .dwattr $C$DW$653, DW_AT_name("CPUBGCRC")
    7510                      .dwattr $C$DW$653, DW_AT_TI_symbol_name("_CPUBGCRC")
    7511                      .dwattr $C$DW$653, DW_AT_bit_offset(0x02)
    7512                      .dwattr $C$DW$653, DW_AT_bit_size(0x01)
    7513                      .dwattr $C$DW$653, DW_AT_data_member_location[DW_OP_plus_uconst 0x0]
    7514                      .dwattr $C$DW$653, DW_AT_accessibility(DW_ACCESS_public)
    7515              
    7516              $C$DW$654       .dwtag  DW_TAG_member
    7517                      .dwattr $C$DW$654, DW_AT_type(*$C$DW$T$19)
    7518                      .dwattr $C$DW$654, DW_AT_name("CLA1BGCRC")
    7519                      .dwattr $C$DW$654, DW_AT_TI_symbol_name("_CLA1BGCRC")
    7520                      .dwattr $C$DW$654, DW_AT_bit_offset(0x01)
    7521                      .dwattr $C$DW$654, DW_AT_bit_size(0x01)
    7522                      .dwattr $C$DW$654, DW_AT_data_member_location[DW_OP_plus_uconst 0x0]
    7523                      .dwattr $C$DW$654, DW_AT_accessibility(DW_ACCESS_public)
    7524              
    7525              $C$DW$655       .dwtag  DW_TAG_member
    7526                      .dwattr $C$DW$655, DW_AT_type(*$C$DW$T$19)
    7527                      .dwattr $C$DW$655, DW_AT_name("rsvd3")
    7528                      .dwattr $C$DW$655, DW_AT_TI_symbol_name("_rsvd3")
    7529                      .dwattr $C$DW$655, DW_AT_bit_offset(0x00)
    7530                      .dwattr $C$DW$655, DW_AT_bit_size(0x01)
    7531                      .dwattr $C$DW$655, DW_AT_data_member_location[DW_OP_plus_uconst 0x0]
    7532                      .dwattr $C$DW$655, DW_AT_accessibility(DW_ACCESS_public)
    7533              
    7534              $C$DW$656       .dwtag  DW_TAG_member
    7535                      .dwattr $C$DW$656, DW_AT_type(*$C$DW$T$19)
    7536                      .dwattr $C$DW$656, DW_AT_name("HRCAL")
    7537                      .dwattr $C$DW$656, DW_AT_TI_symbol_name("_HRCAL")
    7538                      .dwattr $C$DW$656, DW_AT_bit_offset(0x0f)
    7539                      .dwattr $C$DW$656, DW_AT_bit_size(0x01)
    7540                      .dwattr $C$DW$656, DW_AT_data_member_location[DW_OP_plus_uconst 0x1]
    7541                      .dwattr $C$DW$656, DW_AT_accessibility(DW_ACCESS_public)
    7542              
    7543              $C$DW$657       .dwtag  DW_TAG_member
TMS320C2000 Assembler PC v22.6.1 Wed May 21 09:51:55 2025

Copyright (c) 1996-2018 Texas Instruments Incorporated
C:\Users\Daniel\AppData\Local\Temp\{78ED34F4-3C3B-4D89-8F5D-B64BD43A86E6} PAGE  142

    7544                      .dwattr $C$DW$657, DW_AT_type(*$C$DW$T$19)
    7545                      .dwattr $C$DW$657, DW_AT_name("rsvd4")
    7546                      .dwattr $C$DW$657, DW_AT_TI_symbol_name("_rsvd4")
    7547                      .dwattr $C$DW$657, DW_AT_bit_offset(0x0e)
    7548                      .dwattr $C$DW$657, DW_AT_bit_size(0x01)
    7549                      .dwattr $C$DW$657, DW_AT_data_member_location[DW_OP_plus_uconst 0x1]
    7550                      .dwattr $C$DW$657, DW_AT_accessibility(DW_ACCESS_public)
    7551              
    7552              $C$DW$658       .dwtag  DW_TAG_member
    7553                      .dwattr $C$DW$658, DW_AT_type(*$C$DW$T$19)
    7554                      .dwattr $C$DW$658, DW_AT_name("TBCLKSYNC")
    7555                      .dwattr $C$DW$658, DW_AT_TI_symbol_name("_TBCLKSYNC")
    7556                      .dwattr $C$DW$658, DW_AT_bit_offset(0x0d)
    7557                      .dwattr $C$DW$658, DW_AT_bit_size(0x01)
    7558                      .dwattr $C$DW$658, DW_AT_data_member_location[DW_OP_plus_uconst 0x1]
    7559                      .dwattr $C$DW$658, DW_AT_accessibility(DW_ACCESS_public)
    7560              
    7561              $C$DW$659       .dwtag  DW_TAG_member
    7562                      .dwattr $C$DW$659, DW_AT_type(*$C$DW$T$19)
    7563                      .dwattr $C$DW$659, DW_AT_name("rsvd5")
    7564                      .dwattr $C$DW$659, DW_AT_TI_symbol_name("_rsvd5")
    7565                      .dwattr $C$DW$659, DW_AT_bit_offset(0x0c)
    7566                      .dwattr $C$DW$659, DW_AT_bit_size(0x01)
    7567                      .dwattr $C$DW$659, DW_AT_data_member_location[DW_OP_plus_uconst 0x1]
    7568                      .dwattr $C$DW$659, DW_AT_accessibility(DW_ACCESS_public)
    7569              
    7570              $C$DW$660       .dwtag  DW_TAG_member
    7571                      .dwattr $C$DW$660, DW_AT_type(*$C$DW$T$19)
    7572                      .dwattr $C$DW$660, DW_AT_name("rsvd6")
    7573                      .dwattr $C$DW$660, DW_AT_TI_symbol_name("_rsvd6")
    7574                      .dwattr $C$DW$660, DW_AT_bit_offset(0x08)
    7575                      .dwattr $C$DW$660, DW_AT_bit_size(0x04)
    7576                      .dwattr $C$DW$660, DW_AT_data_member_location[DW_OP_plus_uconst 0x1]
    7577                      .dwattr $C$DW$660, DW_AT_accessibility(DW_ACCESS_public)
    7578              
    7579              $C$DW$661       .dwtag  DW_TAG_member
    7580                      .dwattr $C$DW$661, DW_AT_type(*$C$DW$T$19)
    7581                      .dwattr $C$DW$661, DW_AT_name("ERAD")
    7582                      .dwattr $C$DW$661, DW_AT_TI_symbol_name("_ERAD")
    7583                      .dwattr $C$DW$661, DW_AT_bit_offset(0x07)
    7584                      .dwattr $C$DW$661, DW_AT_bit_size(0x01)
    7585                      .dwattr $C$DW$661, DW_AT_data_member_location[DW_OP_plus_uconst 0x1]
    7586                      .dwattr $C$DW$661, DW_AT_accessibility(DW_ACCESS_public)
    7587              
    7588              $C$DW$662       .dwtag  DW_TAG_member
    7589                      .dwattr $C$DW$662, DW_AT_type(*$C$DW$T$19)
    7590                      .dwattr $C$DW$662, DW_AT_name("rsvd7")
    7591                      .dwattr $C$DW$662, DW_AT_TI_symbol_name("_rsvd7")
    7592                      .dwattr $C$DW$662, DW_AT_bit_offset(0x00)
    7593                      .dwattr $C$DW$662, DW_AT_bit_size(0x07)
    7594                      .dwattr $C$DW$662, DW_AT_data_member_location[DW_OP_plus_uconst 0x1]
    7595                      .dwattr $C$DW$662, DW_AT_accessibility(DW_ACCESS_public)
    7596              
    7597                      .dwendtag $C$DW$T$134
    7598              
TMS320C2000 Assembler PC v22.6.1 Wed May 21 09:51:55 2025

Copyright (c) 1996-2018 Texas Instruments Incorporated
C:\Users\Daniel\AppData\Local\Temp\{78ED34F4-3C3B-4D89-8F5D-B64BD43A86E6} PAGE  143

    7599              
    7600              $C$DW$T$135     .dwtag  DW_TAG_union_type
    7601                      .dwattr $C$DW$T$135, DW_AT_name("PCLKCR0_REG")
    7602                      .dwattr $C$DW$T$135, DW_AT_byte_size(0x02)
    7603              $C$DW$663       .dwtag  DW_TAG_member
    7604                      .dwattr $C$DW$663, DW_AT_type(*$C$DW$T$21)
    7605                      .dwattr $C$DW$663, DW_AT_name("all")
    7606                      .dwattr $C$DW$663, DW_AT_TI_symbol_name("_all")
    7607                      .dwattr $C$DW$663, DW_AT_data_member_location[DW_OP_plus_uconst 0x0]
    7608                      .dwattr $C$DW$663, DW_AT_accessibility(DW_ACCESS_public)
    7609              
    7610              $C$DW$664       .dwtag  DW_TAG_member
    7611                      .dwattr $C$DW$664, DW_AT_type(*$C$DW$T$134)
    7612                      .dwattr $C$DW$664, DW_AT_name("bit")
    7613                      .dwattr $C$DW$664, DW_AT_TI_symbol_name("_bit")
    7614                      .dwattr $C$DW$664, DW_AT_data_member_location[DW_OP_plus_uconst 0x0]
    7615                      .dwattr $C$DW$664, DW_AT_accessibility(DW_ACCESS_public)
    7616              
    7617                      .dwendtag $C$DW$T$135
    7618              
    7619              
    7620              $C$DW$T$136     .dwtag  DW_TAG_structure_type
    7621                      .dwattr $C$DW$T$136, DW_AT_name("PCLKCR10_BITS")
    7622                      .dwattr $C$DW$T$136, DW_AT_byte_size(0x02)
    7623              $C$DW$665       .dwtag  DW_TAG_member
    7624                      .dwattr $C$DW$665, DW_AT_type(*$C$DW$T$19)
    7625                      .dwattr $C$DW$665, DW_AT_name("CAN_A")
    7626                      .dwattr $C$DW$665, DW_AT_TI_symbol_name("_CAN_A")
    7627                      .dwattr $C$DW$665, DW_AT_bit_offset(0x0f)
    7628                      .dwattr $C$DW$665, DW_AT_bit_size(0x01)
    7629                      .dwattr $C$DW$665, DW_AT_data_member_location[DW_OP_plus_uconst 0x0]
    7630                      .dwattr $C$DW$665, DW_AT_accessibility(DW_ACCESS_public)
    7631              
    7632              $C$DW$666       .dwtag  DW_TAG_member
    7633                      .dwattr $C$DW$666, DW_AT_type(*$C$DW$T$19)
    7634                      .dwattr $C$DW$666, DW_AT_name("rsvd1")
    7635                      .dwattr $C$DW$666, DW_AT_TI_symbol_name("_rsvd1")
    7636                      .dwattr $C$DW$666, DW_AT_bit_offset(0x0e)
    7637                      .dwattr $C$DW$666, DW_AT_bit_size(0x01)
    7638                      .dwattr $C$DW$666, DW_AT_data_member_location[DW_OP_plus_uconst 0x0]
    7639                      .dwattr $C$DW$666, DW_AT_accessibility(DW_ACCESS_public)
    7640              
    7641              $C$DW$667       .dwtag  DW_TAG_member
    7642                      .dwattr $C$DW$667, DW_AT_type(*$C$DW$T$19)
    7643                      .dwattr $C$DW$667, DW_AT_name("rsvd2")
    7644                      .dwattr $C$DW$667, DW_AT_TI_symbol_name("_rsvd2")
    7645                      .dwattr $C$DW$667, DW_AT_bit_offset(0x0d)
    7646                      .dwattr $C$DW$667, DW_AT_bit_size(0x01)
    7647                      .dwattr $C$DW$667, DW_AT_data_member_location[DW_OP_plus_uconst 0x0]
    7648                      .dwattr $C$DW$667, DW_AT_accessibility(DW_ACCESS_public)
    7649              
    7650              $C$DW$668       .dwtag  DW_TAG_member
    7651                      .dwattr $C$DW$668, DW_AT_type(*$C$DW$T$19)
    7652                      .dwattr $C$DW$668, DW_AT_name("rsvd3")
    7653                      .dwattr $C$DW$668, DW_AT_TI_symbol_name("_rsvd3")
TMS320C2000 Assembler PC v22.6.1 Wed May 21 09:51:55 2025

Copyright (c) 1996-2018 Texas Instruments Incorporated
C:\Users\Daniel\AppData\Local\Temp\{78ED34F4-3C3B-4D89-8F5D-B64BD43A86E6} PAGE  144

    7654                      .dwattr $C$DW$668, DW_AT_bit_offset(0x0c)
    7655                      .dwattr $C$DW$668, DW_AT_bit_size(0x01)
    7656                      .dwattr $C$DW$668, DW_AT_data_member_location[DW_OP_plus_uconst 0x0]
    7657                      .dwattr $C$DW$668, DW_AT_accessibility(DW_ACCESS_public)
    7658              
    7659              $C$DW$669       .dwtag  DW_TAG_member
    7660                      .dwattr $C$DW$669, DW_AT_type(*$C$DW$T$19)
    7661                      .dwattr $C$DW$669, DW_AT_name("MCAN_A")
    7662                      .dwattr $C$DW$669, DW_AT_TI_symbol_name("_MCAN_A")
    7663                      .dwattr $C$DW$669, DW_AT_bit_offset(0x0b)
    7664                      .dwattr $C$DW$669, DW_AT_bit_size(0x01)
    7665                      .dwattr $C$DW$669, DW_AT_data_member_location[DW_OP_plus_uconst 0x0]
    7666                      .dwattr $C$DW$669, DW_AT_accessibility(DW_ACCESS_public)
    7667              
    7668              $C$DW$670       .dwtag  DW_TAG_member
    7669                      .dwattr $C$DW$670, DW_AT_type(*$C$DW$T$19)
    7670                      .dwattr $C$DW$670, DW_AT_name("rsvd4")
    7671                      .dwattr $C$DW$670, DW_AT_TI_symbol_name("_rsvd4")
    7672                      .dwattr $C$DW$670, DW_AT_bit_offset(0x0a)
    7673                      .dwattr $C$DW$670, DW_AT_bit_size(0x01)
    7674                      .dwattr $C$DW$670, DW_AT_data_member_location[DW_OP_plus_uconst 0x0]
    7675                      .dwattr $C$DW$670, DW_AT_accessibility(DW_ACCESS_public)
    7676              
    7677              $C$DW$671       .dwtag  DW_TAG_member
    7678                      .dwattr $C$DW$671, DW_AT_type(*$C$DW$T$19)
    7679                      .dwattr $C$DW$671, DW_AT_name("rsvd5")
    7680                      .dwattr $C$DW$671, DW_AT_TI_symbol_name("_rsvd5")
    7681                      .dwattr $C$DW$671, DW_AT_bit_offset(0x09)
    7682                      .dwattr $C$DW$671, DW_AT_bit_size(0x01)
    7683                      .dwattr $C$DW$671, DW_AT_data_member_location[DW_OP_plus_uconst 0x0]
    7684                      .dwattr $C$DW$671, DW_AT_accessibility(DW_ACCESS_public)
    7685              
    7686              $C$DW$672       .dwtag  DW_TAG_member
    7687                      .dwattr $C$DW$672, DW_AT_type(*$C$DW$T$19)
    7688                      .dwattr $C$DW$672, DW_AT_name("rsvd6")
    7689                      .dwattr $C$DW$672, DW_AT_TI_symbol_name("_rsvd6")
    7690                      .dwattr $C$DW$672, DW_AT_bit_offset(0x08)
    7691                      .dwattr $C$DW$672, DW_AT_bit_size(0x01)
    7692                      .dwattr $C$DW$672, DW_AT_data_member_location[DW_OP_plus_uconst 0x0]
    7693                      .dwattr $C$DW$672, DW_AT_accessibility(DW_ACCESS_public)
    7694              
    7695              $C$DW$673       .dwtag  DW_TAG_member
    7696                      .dwattr $C$DW$673, DW_AT_type(*$C$DW$T$19)
    7697                      .dwattr $C$DW$673, DW_AT_name("rsvd7")
    7698                      .dwattr $C$DW$673, DW_AT_TI_symbol_name("_rsvd7")
    7699                      .dwattr $C$DW$673, DW_AT_bit_offset(0x00)
    7700                      .dwattr $C$DW$673, DW_AT_bit_size(0x08)
    7701                      .dwattr $C$DW$673, DW_AT_data_member_location[DW_OP_plus_uconst 0x0]
    7702                      .dwattr $C$DW$673, DW_AT_accessibility(DW_ACCESS_public)
    7703              
    7704              $C$DW$674       .dwtag  DW_TAG_member
    7705                      .dwattr $C$DW$674, DW_AT_type(*$C$DW$T$19)
    7706                      .dwattr $C$DW$674, DW_AT_name("rsvd8")
    7707                      .dwattr $C$DW$674, DW_AT_TI_symbol_name("_rsvd8")
    7708                      .dwattr $C$DW$674, DW_AT_bit_offset(0x00)
TMS320C2000 Assembler PC v22.6.1 Wed May 21 09:51:55 2025

Copyright (c) 1996-2018 Texas Instruments Incorporated
C:\Users\Daniel\AppData\Local\Temp\{78ED34F4-3C3B-4D89-8F5D-B64BD43A86E6} PAGE  145

    7709                      .dwattr $C$DW$674, DW_AT_bit_size(0x10)
    7710                      .dwattr $C$DW$674, DW_AT_data_member_location[DW_OP_plus_uconst 0x1]
    7711                      .dwattr $C$DW$674, DW_AT_accessibility(DW_ACCESS_public)
    7712              
    7713                      .dwendtag $C$DW$T$136
    7714              
    7715              
    7716              $C$DW$T$137     .dwtag  DW_TAG_union_type
    7717                      .dwattr $C$DW$T$137, DW_AT_name("PCLKCR10_REG")
    7718                      .dwattr $C$DW$T$137, DW_AT_byte_size(0x02)
    7719              $C$DW$675       .dwtag  DW_TAG_member
    7720                      .dwattr $C$DW$675, DW_AT_type(*$C$DW$T$21)
    7721                      .dwattr $C$DW$675, DW_AT_name("all")
    7722                      .dwattr $C$DW$675, DW_AT_TI_symbol_name("_all")
    7723                      .dwattr $C$DW$675, DW_AT_data_member_location[DW_OP_plus_uconst 0x0]
    7724                      .dwattr $C$DW$675, DW_AT_accessibility(DW_ACCESS_public)
    7725              
    7726              $C$DW$676       .dwtag  DW_TAG_member
    7727                      .dwattr $C$DW$676, DW_AT_type(*$C$DW$T$136)
    7728                      .dwattr $C$DW$676, DW_AT_name("bit")
    7729                      .dwattr $C$DW$676, DW_AT_TI_symbol_name("_bit")
    7730                      .dwattr $C$DW$676, DW_AT_data_member_location[DW_OP_plus_uconst 0x0]
    7731                      .dwattr $C$DW$676, DW_AT_accessibility(DW_ACCESS_public)
    7732              
    7733                      .dwendtag $C$DW$T$137
    7734              
    7735              
    7736              $C$DW$T$138     .dwtag  DW_TAG_structure_type
    7737                      .dwattr $C$DW$T$138, DW_AT_name("PCLKCR13_BITS")
    7738                      .dwattr $C$DW$T$138, DW_AT_byte_size(0x02)
    7739              $C$DW$677       .dwtag  DW_TAG_member
    7740                      .dwattr $C$DW$677, DW_AT_type(*$C$DW$T$19)
    7741                      .dwattr $C$DW$677, DW_AT_name("ADC_A")
    7742                      .dwattr $C$DW$677, DW_AT_TI_symbol_name("_ADC_A")
    7743                      .dwattr $C$DW$677, DW_AT_bit_offset(0x0f)
    7744                      .dwattr $C$DW$677, DW_AT_bit_size(0x01)
    7745                      .dwattr $C$DW$677, DW_AT_data_member_location[DW_OP_plus_uconst 0x0]
    7746                      .dwattr $C$DW$677, DW_AT_accessibility(DW_ACCESS_public)
    7747              
    7748              $C$DW$678       .dwtag  DW_TAG_member
    7749                      .dwattr $C$DW$678, DW_AT_type(*$C$DW$T$19)
    7750                      .dwattr $C$DW$678, DW_AT_name("ADC_B")
    7751                      .dwattr $C$DW$678, DW_AT_TI_symbol_name("_ADC_B")
    7752                      .dwattr $C$DW$678, DW_AT_bit_offset(0x0e)
    7753                      .dwattr $C$DW$678, DW_AT_bit_size(0x01)
    7754                      .dwattr $C$DW$678, DW_AT_data_member_location[DW_OP_plus_uconst 0x0]
    7755                      .dwattr $C$DW$678, DW_AT_accessibility(DW_ACCESS_public)
    7756              
    7757              $C$DW$679       .dwtag  DW_TAG_member
    7758                      .dwattr $C$DW$679, DW_AT_type(*$C$DW$T$19)
    7759                      .dwattr $C$DW$679, DW_AT_name("ADC_C")
    7760                      .dwattr $C$DW$679, DW_AT_TI_symbol_name("_ADC_C")
    7761                      .dwattr $C$DW$679, DW_AT_bit_offset(0x0d)
    7762                      .dwattr $C$DW$679, DW_AT_bit_size(0x01)
    7763                      .dwattr $C$DW$679, DW_AT_data_member_location[DW_OP_plus_uconst 0x0]
TMS320C2000 Assembler PC v22.6.1 Wed May 21 09:51:55 2025

Copyright (c) 1996-2018 Texas Instruments Incorporated
C:\Users\Daniel\AppData\Local\Temp\{78ED34F4-3C3B-4D89-8F5D-B64BD43A86E6} PAGE  146

    7764                      .dwattr $C$DW$679, DW_AT_accessibility(DW_ACCESS_public)
    7765              
    7766              $C$DW$680       .dwtag  DW_TAG_member
    7767                      .dwattr $C$DW$680, DW_AT_type(*$C$DW$T$19)
    7768                      .dwattr $C$DW$680, DW_AT_name("rsvd1")
    7769                      .dwattr $C$DW$680, DW_AT_TI_symbol_name("_rsvd1")
    7770                      .dwattr $C$DW$680, DW_AT_bit_offset(0x0c)
    7771                      .dwattr $C$DW$680, DW_AT_bit_size(0x01)
    7772                      .dwattr $C$DW$680, DW_AT_data_member_location[DW_OP_plus_uconst 0x0]
    7773                      .dwattr $C$DW$680, DW_AT_accessibility(DW_ACCESS_public)
    7774              
    7775              $C$DW$681       .dwtag  DW_TAG_member
    7776                      .dwattr $C$DW$681, DW_AT_type(*$C$DW$T$19)
    7777                      .dwattr $C$DW$681, DW_AT_name("rsvd2")
    7778                      .dwattr $C$DW$681, DW_AT_TI_symbol_name("_rsvd2")
    7779                      .dwattr $C$DW$681, DW_AT_bit_offset(0x00)
    7780                      .dwattr $C$DW$681, DW_AT_bit_size(0x0c)
    7781                      .dwattr $C$DW$681, DW_AT_data_member_location[DW_OP_plus_uconst 0x0]
    7782                      .dwattr $C$DW$681, DW_AT_accessibility(DW_ACCESS_public)
    7783              
    7784              $C$DW$682       .dwtag  DW_TAG_member
    7785                      .dwattr $C$DW$682, DW_AT_type(*$C$DW$T$19)
    7786                      .dwattr $C$DW$682, DW_AT_name("rsvd3")
    7787                      .dwattr $C$DW$682, DW_AT_TI_symbol_name("_rsvd3")
    7788                      .dwattr $C$DW$682, DW_AT_bit_offset(0x00)
    7789                      .dwattr $C$DW$682, DW_AT_bit_size(0x10)
    7790                      .dwattr $C$DW$682, DW_AT_data_member_location[DW_OP_plus_uconst 0x1]
    7791                      .dwattr $C$DW$682, DW_AT_accessibility(DW_ACCESS_public)
    7792              
    7793                      .dwendtag $C$DW$T$138
    7794              
    7795              
    7796              $C$DW$T$139     .dwtag  DW_TAG_union_type
    7797                      .dwattr $C$DW$T$139, DW_AT_name("PCLKCR13_REG")
    7798                      .dwattr $C$DW$T$139, DW_AT_byte_size(0x02)
    7799              $C$DW$683       .dwtag  DW_TAG_member
    7800                      .dwattr $C$DW$683, DW_AT_type(*$C$DW$T$21)
    7801                      .dwattr $C$DW$683, DW_AT_name("all")
    7802                      .dwattr $C$DW$683, DW_AT_TI_symbol_name("_all")
    7803                      .dwattr $C$DW$683, DW_AT_data_member_location[DW_OP_plus_uconst 0x0]
    7804                      .dwattr $C$DW$683, DW_AT_accessibility(DW_ACCESS_public)
    7805              
    7806              $C$DW$684       .dwtag  DW_TAG_member
    7807                      .dwattr $C$DW$684, DW_AT_type(*$C$DW$T$138)
    7808                      .dwattr $C$DW$684, DW_AT_name("bit")
    7809                      .dwattr $C$DW$684, DW_AT_TI_symbol_name("_bit")
    7810                      .dwattr $C$DW$684, DW_AT_data_member_location[DW_OP_plus_uconst 0x0]
    7811                      .dwattr $C$DW$684, DW_AT_accessibility(DW_ACCESS_public)
    7812              
    7813                      .dwendtag $C$DW$T$139
    7814              
    7815              
    7816              $C$DW$T$140     .dwtag  DW_TAG_structure_type
    7817                      .dwattr $C$DW$T$140, DW_AT_name("PCLKCR14_BITS")
    7818                      .dwattr $C$DW$T$140, DW_AT_byte_size(0x02)
TMS320C2000 Assembler PC v22.6.1 Wed May 21 09:51:55 2025

Copyright (c) 1996-2018 Texas Instruments Incorporated
C:\Users\Daniel\AppData\Local\Temp\{78ED34F4-3C3B-4D89-8F5D-B64BD43A86E6} PAGE  147

    7819              $C$DW$685       .dwtag  DW_TAG_member
    7820                      .dwattr $C$DW$685, DW_AT_type(*$C$DW$T$19)
    7821                      .dwattr $C$DW$685, DW_AT_name("CMPSS1")
    7822                      .dwattr $C$DW$685, DW_AT_TI_symbol_name("_CMPSS1")
    7823                      .dwattr $C$DW$685, DW_AT_bit_offset(0x0f)
    7824                      .dwattr $C$DW$685, DW_AT_bit_size(0x01)
    7825                      .dwattr $C$DW$685, DW_AT_data_member_location[DW_OP_plus_uconst 0x0]
    7826                      .dwattr $C$DW$685, DW_AT_accessibility(DW_ACCESS_public)
    7827              
    7828              $C$DW$686       .dwtag  DW_TAG_member
    7829                      .dwattr $C$DW$686, DW_AT_type(*$C$DW$T$19)
    7830                      .dwattr $C$DW$686, DW_AT_name("CMPSS2")
    7831                      .dwattr $C$DW$686, DW_AT_TI_symbol_name("_CMPSS2")
    7832                      .dwattr $C$DW$686, DW_AT_bit_offset(0x0e)
    7833                      .dwattr $C$DW$686, DW_AT_bit_size(0x01)
    7834                      .dwattr $C$DW$686, DW_AT_data_member_location[DW_OP_plus_uconst 0x0]
    7835                      .dwattr $C$DW$686, DW_AT_accessibility(DW_ACCESS_public)
    7836              
    7837              $C$DW$687       .dwtag  DW_TAG_member
    7838                      .dwattr $C$DW$687, DW_AT_type(*$C$DW$T$19)
    7839                      .dwattr $C$DW$687, DW_AT_name("CMPSS3")
    7840                      .dwattr $C$DW$687, DW_AT_TI_symbol_name("_CMPSS3")
    7841                      .dwattr $C$DW$687, DW_AT_bit_offset(0x0d)
    7842                      .dwattr $C$DW$687, DW_AT_bit_size(0x01)
    7843                      .dwattr $C$DW$687, DW_AT_data_member_location[DW_OP_plus_uconst 0x0]
    7844                      .dwattr $C$DW$687, DW_AT_accessibility(DW_ACCESS_public)
    7845              
    7846              $C$DW$688       .dwtag  DW_TAG_member
    7847                      .dwattr $C$DW$688, DW_AT_type(*$C$DW$T$19)
    7848                      .dwattr $C$DW$688, DW_AT_name("CMPSS4")
    7849                      .dwattr $C$DW$688, DW_AT_TI_symbol_name("_CMPSS4")
    7850                      .dwattr $C$DW$688, DW_AT_bit_offset(0x0c)
    7851                      .dwattr $C$DW$688, DW_AT_bit_size(0x01)
    7852                      .dwattr $C$DW$688, DW_AT_data_member_location[DW_OP_plus_uconst 0x0]
    7853                      .dwattr $C$DW$688, DW_AT_accessibility(DW_ACCESS_public)
    7854              
    7855              $C$DW$689       .dwtag  DW_TAG_member
    7856                      .dwattr $C$DW$689, DW_AT_type(*$C$DW$T$19)
    7857                      .dwattr $C$DW$689, DW_AT_name("rsvd1")
    7858                      .dwattr $C$DW$689, DW_AT_TI_symbol_name("_rsvd1")
    7859                      .dwattr $C$DW$689, DW_AT_bit_offset(0x0b)
    7860                      .dwattr $C$DW$689, DW_AT_bit_size(0x01)
    7861                      .dwattr $C$DW$689, DW_AT_data_member_location[DW_OP_plus_uconst 0x0]
    7862                      .dwattr $C$DW$689, DW_AT_accessibility(DW_ACCESS_public)
    7863              
    7864              $C$DW$690       .dwtag  DW_TAG_member
    7865                      .dwattr $C$DW$690, DW_AT_type(*$C$DW$T$19)
    7866                      .dwattr $C$DW$690, DW_AT_name("rsvd2")
    7867                      .dwattr $C$DW$690, DW_AT_TI_symbol_name("_rsvd2")
    7868                      .dwattr $C$DW$690, DW_AT_bit_offset(0x0a)
    7869                      .dwattr $C$DW$690, DW_AT_bit_size(0x01)
    7870                      .dwattr $C$DW$690, DW_AT_data_member_location[DW_OP_plus_uconst 0x0]
    7871                      .dwattr $C$DW$690, DW_AT_accessibility(DW_ACCESS_public)
    7872              
    7873              $C$DW$691       .dwtag  DW_TAG_member
TMS320C2000 Assembler PC v22.6.1 Wed May 21 09:51:55 2025

Copyright (c) 1996-2018 Texas Instruments Incorporated
C:\Users\Daniel\AppData\Local\Temp\{78ED34F4-3C3B-4D89-8F5D-B64BD43A86E6} PAGE  148

    7874                      .dwattr $C$DW$691, DW_AT_type(*$C$DW$T$19)
    7875                      .dwattr $C$DW$691, DW_AT_name("rsvd3")
    7876                      .dwattr $C$DW$691, DW_AT_TI_symbol_name("_rsvd3")
    7877                      .dwattr $C$DW$691, DW_AT_bit_offset(0x09)
    7878                      .dwattr $C$DW$691, DW_AT_bit_size(0x01)
    7879                      .dwattr $C$DW$691, DW_AT_data_member_location[DW_OP_plus_uconst 0x0]
    7880                      .dwattr $C$DW$691, DW_AT_accessibility(DW_ACCESS_public)
    7881              
    7882              $C$DW$692       .dwtag  DW_TAG_member
    7883                      .dwattr $C$DW$692, DW_AT_type(*$C$DW$T$19)
    7884                      .dwattr $C$DW$692, DW_AT_name("rsvd4")
    7885                      .dwattr $C$DW$692, DW_AT_TI_symbol_name("_rsvd4")
    7886                      .dwattr $C$DW$692, DW_AT_bit_offset(0x08)
    7887                      .dwattr $C$DW$692, DW_AT_bit_size(0x01)
    7888                      .dwattr $C$DW$692, DW_AT_data_member_location[DW_OP_plus_uconst 0x0]
    7889                      .dwattr $C$DW$692, DW_AT_accessibility(DW_ACCESS_public)
    7890              
    7891              $C$DW$693       .dwtag  DW_TAG_member
    7892                      .dwattr $C$DW$693, DW_AT_type(*$C$DW$T$19)
    7893                      .dwattr $C$DW$693, DW_AT_name("rsvd5")
    7894                      .dwattr $C$DW$693, DW_AT_TI_symbol_name("_rsvd5")
    7895                      .dwattr $C$DW$693, DW_AT_bit_offset(0x00)
    7896                      .dwattr $C$DW$693, DW_AT_bit_size(0x08)
    7897                      .dwattr $C$DW$693, DW_AT_data_member_location[DW_OP_plus_uconst 0x0]
    7898                      .dwattr $C$DW$693, DW_AT_accessibility(DW_ACCESS_public)
    7899              
    7900              $C$DW$694       .dwtag  DW_TAG_member
    7901                      .dwattr $C$DW$694, DW_AT_type(*$C$DW$T$19)
    7902                      .dwattr $C$DW$694, DW_AT_name("rsvd6")
    7903                      .dwattr $C$DW$694, DW_AT_TI_symbol_name("_rsvd6")
    7904                      .dwattr $C$DW$694, DW_AT_bit_offset(0x00)
    7905                      .dwattr $C$DW$694, DW_AT_bit_size(0x10)
    7906                      .dwattr $C$DW$694, DW_AT_data_member_location[DW_OP_plus_uconst 0x1]
    7907                      .dwattr $C$DW$694, DW_AT_accessibility(DW_ACCESS_public)
    7908              
    7909                      .dwendtag $C$DW$T$140
    7910              
    7911              
    7912              $C$DW$T$141     .dwtag  DW_TAG_union_type
    7913                      .dwattr $C$DW$T$141, DW_AT_name("PCLKCR14_REG")
    7914                      .dwattr $C$DW$T$141, DW_AT_byte_size(0x02)
    7915              $C$DW$695       .dwtag  DW_TAG_member
    7916                      .dwattr $C$DW$695, DW_AT_type(*$C$DW$T$21)
    7917                      .dwattr $C$DW$695, DW_AT_name("all")
    7918                      .dwattr $C$DW$695, DW_AT_TI_symbol_name("_all")
    7919                      .dwattr $C$DW$695, DW_AT_data_member_location[DW_OP_plus_uconst 0x0]
    7920                      .dwattr $C$DW$695, DW_AT_accessibility(DW_ACCESS_public)
    7921              
    7922              $C$DW$696       .dwtag  DW_TAG_member
    7923                      .dwattr $C$DW$696, DW_AT_type(*$C$DW$T$140)
    7924                      .dwattr $C$DW$696, DW_AT_name("bit")
    7925                      .dwattr $C$DW$696, DW_AT_TI_symbol_name("_bit")
    7926                      .dwattr $C$DW$696, DW_AT_data_member_location[DW_OP_plus_uconst 0x0]
    7927                      .dwattr $C$DW$696, DW_AT_accessibility(DW_ACCESS_public)
    7928              
TMS320C2000 Assembler PC v22.6.1 Wed May 21 09:51:55 2025

Copyright (c) 1996-2018 Texas Instruments Incorporated
C:\Users\Daniel\AppData\Local\Temp\{78ED34F4-3C3B-4D89-8F5D-B64BD43A86E6} PAGE  149

    7929                      .dwendtag $C$DW$T$141
    7930              
    7931              
    7932              $C$DW$T$142     .dwtag  DW_TAG_structure_type
    7933                      .dwattr $C$DW$T$142, DW_AT_name("PCLKCR16_BITS")
    7934                      .dwattr $C$DW$T$142, DW_AT_byte_size(0x02)
    7935              $C$DW$697       .dwtag  DW_TAG_member
    7936                      .dwattr $C$DW$697, DW_AT_type(*$C$DW$T$19)
    7937                      .dwattr $C$DW$697, DW_AT_name("rsvd1")
    7938                      .dwattr $C$DW$697, DW_AT_TI_symbol_name("_rsvd1")
    7939                      .dwattr $C$DW$697, DW_AT_bit_offset(0x0f)
    7940                      .dwattr $C$DW$697, DW_AT_bit_size(0x01)
    7941                      .dwattr $C$DW$697, DW_AT_data_member_location[DW_OP_plus_uconst 0x0]
    7942                      .dwattr $C$DW$697, DW_AT_accessibility(DW_ACCESS_public)
    7943              
    7944              $C$DW$698       .dwtag  DW_TAG_member
    7945                      .dwattr $C$DW$698, DW_AT_type(*$C$DW$T$19)
    7946                      .dwattr $C$DW$698, DW_AT_name("rsvd2")
    7947                      .dwattr $C$DW$698, DW_AT_TI_symbol_name("_rsvd2")
    7948                      .dwattr $C$DW$698, DW_AT_bit_offset(0x0e)
    7949                      .dwattr $C$DW$698, DW_AT_bit_size(0x01)
    7950                      .dwattr $C$DW$698, DW_AT_data_member_location[DW_OP_plus_uconst 0x0]
    7951                      .dwattr $C$DW$698, DW_AT_accessibility(DW_ACCESS_public)
    7952              
    7953              $C$DW$699       .dwtag  DW_TAG_member
    7954                      .dwattr $C$DW$699, DW_AT_type(*$C$DW$T$19)
    7955                      .dwattr $C$DW$699, DW_AT_name("rsvd3")
    7956                      .dwattr $C$DW$699, DW_AT_TI_symbol_name("_rsvd3")
    7957                      .dwattr $C$DW$699, DW_AT_bit_offset(0x0d)
    7958                      .dwattr $C$DW$699, DW_AT_bit_size(0x01)
    7959                      .dwattr $C$DW$699, DW_AT_data_member_location[DW_OP_plus_uconst 0x0]
    7960                      .dwattr $C$DW$699, DW_AT_accessibility(DW_ACCESS_public)
    7961              
    7962              $C$DW$700       .dwtag  DW_TAG_member
    7963                      .dwattr $C$DW$700, DW_AT_type(*$C$DW$T$19)
    7964                      .dwattr $C$DW$700, DW_AT_name("rsvd4")
    7965                      .dwattr $C$DW$700, DW_AT_TI_symbol_name("_rsvd4")
    7966                      .dwattr $C$DW$700, DW_AT_bit_offset(0x0c)
    7967                      .dwattr $C$DW$700, DW_AT_bit_size(0x01)
    7968                      .dwattr $C$DW$700, DW_AT_data_member_location[DW_OP_plus_uconst 0x0]
    7969                      .dwattr $C$DW$700, DW_AT_accessibility(DW_ACCESS_public)
    7970              
    7971              $C$DW$701       .dwtag  DW_TAG_member
    7972                      .dwattr $C$DW$701, DW_AT_type(*$C$DW$T$19)
    7973                      .dwattr $C$DW$701, DW_AT_name("rsvd5")
    7974                      .dwattr $C$DW$701, DW_AT_TI_symbol_name("_rsvd5")
    7975                      .dwattr $C$DW$701, DW_AT_bit_offset(0x00)
    7976                      .dwattr $C$DW$701, DW_AT_bit_size(0x0c)
    7977                      .dwattr $C$DW$701, DW_AT_data_member_location[DW_OP_plus_uconst 0x0]
    7978                      .dwattr $C$DW$701, DW_AT_accessibility(DW_ACCESS_public)
    7979              
    7980              $C$DW$702       .dwtag  DW_TAG_member
    7981                      .dwattr $C$DW$702, DW_AT_type(*$C$DW$T$19)
    7982                      .dwattr $C$DW$702, DW_AT_name("DAC_A")
    7983                      .dwattr $C$DW$702, DW_AT_TI_symbol_name("_DAC_A")
TMS320C2000 Assembler PC v22.6.1 Wed May 21 09:51:55 2025

Copyright (c) 1996-2018 Texas Instruments Incorporated
C:\Users\Daniel\AppData\Local\Temp\{78ED34F4-3C3B-4D89-8F5D-B64BD43A86E6} PAGE  150

    7984                      .dwattr $C$DW$702, DW_AT_bit_offset(0x0f)
    7985                      .dwattr $C$DW$702, DW_AT_bit_size(0x01)
    7986                      .dwattr $C$DW$702, DW_AT_data_member_location[DW_OP_plus_uconst 0x1]
    7987                      .dwattr $C$DW$702, DW_AT_accessibility(DW_ACCESS_public)
    7988              
    7989              $C$DW$703       .dwtag  DW_TAG_member
    7990                      .dwattr $C$DW$703, DW_AT_type(*$C$DW$T$19)
    7991                      .dwattr $C$DW$703, DW_AT_name("DAC_B")
    7992                      .dwattr $C$DW$703, DW_AT_TI_symbol_name("_DAC_B")
    7993                      .dwattr $C$DW$703, DW_AT_bit_offset(0x0e)
    7994                      .dwattr $C$DW$703, DW_AT_bit_size(0x01)
    7995                      .dwattr $C$DW$703, DW_AT_data_member_location[DW_OP_plus_uconst 0x1]
    7996                      .dwattr $C$DW$703, DW_AT_accessibility(DW_ACCESS_public)
    7997              
    7998              $C$DW$704       .dwtag  DW_TAG_member
    7999                      .dwattr $C$DW$704, DW_AT_type(*$C$DW$T$19)
    8000                      .dwattr $C$DW$704, DW_AT_name("rsvd6")
    8001                      .dwattr $C$DW$704, DW_AT_TI_symbol_name("_rsvd6")
    8002                      .dwattr $C$DW$704, DW_AT_bit_offset(0x0d)
    8003                      .dwattr $C$DW$704, DW_AT_bit_size(0x01)
    8004                      .dwattr $C$DW$704, DW_AT_data_member_location[DW_OP_plus_uconst 0x1]
    8005                      .dwattr $C$DW$704, DW_AT_accessibility(DW_ACCESS_public)
    8006              
    8007              $C$DW$705       .dwtag  DW_TAG_member
    8008                      .dwattr $C$DW$705, DW_AT_type(*$C$DW$T$19)
    8009                      .dwattr $C$DW$705, DW_AT_name("rsvd7")
    8010                      .dwattr $C$DW$705, DW_AT_TI_symbol_name("_rsvd7")
    8011                      .dwattr $C$DW$705, DW_AT_bit_offset(0x0c)
    8012                      .dwattr $C$DW$705, DW_AT_bit_size(0x01)
    8013                      .dwattr $C$DW$705, DW_AT_data_member_location[DW_OP_plus_uconst 0x1]
    8014                      .dwattr $C$DW$705, DW_AT_accessibility(DW_ACCESS_public)
    8015              
    8016              $C$DW$706       .dwtag  DW_TAG_member
    8017                      .dwattr $C$DW$706, DW_AT_type(*$C$DW$T$19)
    8018                      .dwattr $C$DW$706, DW_AT_name("rsvd8")
    8019                      .dwattr $C$DW$706, DW_AT_TI_symbol_name("_rsvd8")
    8020                      .dwattr $C$DW$706, DW_AT_bit_offset(0x00)
    8021                      .dwattr $C$DW$706, DW_AT_bit_size(0x0c)
    8022                      .dwattr $C$DW$706, DW_AT_data_member_location[DW_OP_plus_uconst 0x1]
    8023                      .dwattr $C$DW$706, DW_AT_accessibility(DW_ACCESS_public)
    8024              
    8025                      .dwendtag $C$DW$T$142
    8026              
    8027              
    8028              $C$DW$T$143     .dwtag  DW_TAG_union_type
    8029                      .dwattr $C$DW$T$143, DW_AT_name("PCLKCR16_REG")
    8030                      .dwattr $C$DW$T$143, DW_AT_byte_size(0x02)
    8031              $C$DW$707       .dwtag  DW_TAG_member
    8032                      .dwattr $C$DW$707, DW_AT_type(*$C$DW$T$21)
    8033                      .dwattr $C$DW$707, DW_AT_name("all")
    8034                      .dwattr $C$DW$707, DW_AT_TI_symbol_name("_all")
    8035                      .dwattr $C$DW$707, DW_AT_data_member_location[DW_OP_plus_uconst 0x0]
    8036                      .dwattr $C$DW$707, DW_AT_accessibility(DW_ACCESS_public)
    8037              
    8038              $C$DW$708       .dwtag  DW_TAG_member
TMS320C2000 Assembler PC v22.6.1 Wed May 21 09:51:55 2025

Copyright (c) 1996-2018 Texas Instruments Incorporated
C:\Users\Daniel\AppData\Local\Temp\{78ED34F4-3C3B-4D89-8F5D-B64BD43A86E6} PAGE  151

    8039                      .dwattr $C$DW$708, DW_AT_type(*$C$DW$T$142)
    8040                      .dwattr $C$DW$708, DW_AT_name("bit")
    8041                      .dwattr $C$DW$708, DW_AT_TI_symbol_name("_bit")
    8042                      .dwattr $C$DW$708, DW_AT_data_member_location[DW_OP_plus_uconst 0x0]
    8043                      .dwattr $C$DW$708, DW_AT_accessibility(DW_ACCESS_public)
    8044              
    8045                      .dwendtag $C$DW$T$143
    8046              
    8047              
    8048              $C$DW$T$144     .dwtag  DW_TAG_structure_type
    8049                      .dwattr $C$DW$T$144, DW_AT_name("PCLKCR17_BITS")
    8050                      .dwattr $C$DW$T$144, DW_AT_byte_size(0x02)
    8051              $C$DW$709       .dwtag  DW_TAG_member
    8052                      .dwattr $C$DW$709, DW_AT_type(*$C$DW$T$19)
    8053                      .dwattr $C$DW$709, DW_AT_name("CLB1")
    8054                      .dwattr $C$DW$709, DW_AT_TI_symbol_name("_CLB1")
    8055                      .dwattr $C$DW$709, DW_AT_bit_offset(0x0f)
    8056                      .dwattr $C$DW$709, DW_AT_bit_size(0x01)
    8057                      .dwattr $C$DW$709, DW_AT_data_member_location[DW_OP_plus_uconst 0x0]
    8058                      .dwattr $C$DW$709, DW_AT_accessibility(DW_ACCESS_public)
    8059              
    8060              $C$DW$710       .dwtag  DW_TAG_member
    8061                      .dwattr $C$DW$710, DW_AT_type(*$C$DW$T$19)
    8062                      .dwattr $C$DW$710, DW_AT_name("CLB2")
    8063                      .dwattr $C$DW$710, DW_AT_TI_symbol_name("_CLB2")
    8064                      .dwattr $C$DW$710, DW_AT_bit_offset(0x0e)
    8065                      .dwattr $C$DW$710, DW_AT_bit_size(0x01)
    8066                      .dwattr $C$DW$710, DW_AT_data_member_location[DW_OP_plus_uconst 0x0]
    8067                      .dwattr $C$DW$710, DW_AT_accessibility(DW_ACCESS_public)
    8068              
    8069              $C$DW$711       .dwtag  DW_TAG_member
    8070                      .dwattr $C$DW$711, DW_AT_type(*$C$DW$T$19)
    8071                      .dwattr $C$DW$711, DW_AT_name("CLB3")
    8072                      .dwattr $C$DW$711, DW_AT_TI_symbol_name("_CLB3")
    8073                      .dwattr $C$DW$711, DW_AT_bit_offset(0x0d)
    8074                      .dwattr $C$DW$711, DW_AT_bit_size(0x01)
    8075                      .dwattr $C$DW$711, DW_AT_data_member_location[DW_OP_plus_uconst 0x0]
    8076                      .dwattr $C$DW$711, DW_AT_accessibility(DW_ACCESS_public)
    8077              
    8078              $C$DW$712       .dwtag  DW_TAG_member
    8079                      .dwattr $C$DW$712, DW_AT_type(*$C$DW$T$19)
    8080                      .dwattr $C$DW$712, DW_AT_name("CLB4")
    8081                      .dwattr $C$DW$712, DW_AT_TI_symbol_name("_CLB4")
    8082                      .dwattr $C$DW$712, DW_AT_bit_offset(0x0c)
    8083                      .dwattr $C$DW$712, DW_AT_bit_size(0x01)
    8084                      .dwattr $C$DW$712, DW_AT_data_member_location[DW_OP_plus_uconst 0x0]
    8085                      .dwattr $C$DW$712, DW_AT_accessibility(DW_ACCESS_public)
    8086              
    8087              $C$DW$713       .dwtag  DW_TAG_member
    8088                      .dwattr $C$DW$713, DW_AT_type(*$C$DW$T$19)
    8089                      .dwattr $C$DW$713, DW_AT_name("rsvd1")
    8090                      .dwattr $C$DW$713, DW_AT_TI_symbol_name("_rsvd1")
    8091                      .dwattr $C$DW$713, DW_AT_bit_offset(0x00)
    8092                      .dwattr $C$DW$713, DW_AT_bit_size(0x0c)
    8093                      .dwattr $C$DW$713, DW_AT_data_member_location[DW_OP_plus_uconst 0x0]
TMS320C2000 Assembler PC v22.6.1 Wed May 21 09:51:55 2025

Copyright (c) 1996-2018 Texas Instruments Incorporated
C:\Users\Daniel\AppData\Local\Temp\{78ED34F4-3C3B-4D89-8F5D-B64BD43A86E6} PAGE  152

    8094                      .dwattr $C$DW$713, DW_AT_accessibility(DW_ACCESS_public)
    8095              
    8096              $C$DW$714       .dwtag  DW_TAG_member
    8097                      .dwattr $C$DW$714, DW_AT_type(*$C$DW$T$19)
    8098                      .dwattr $C$DW$714, DW_AT_name("rsvd2")
    8099                      .dwattr $C$DW$714, DW_AT_TI_symbol_name("_rsvd2")
    8100                      .dwattr $C$DW$714, DW_AT_bit_offset(0x00)
    8101                      .dwattr $C$DW$714, DW_AT_bit_size(0x10)
    8102                      .dwattr $C$DW$714, DW_AT_data_member_location[DW_OP_plus_uconst 0x1]
    8103                      .dwattr $C$DW$714, DW_AT_accessibility(DW_ACCESS_public)
    8104              
    8105                      .dwendtag $C$DW$T$144
    8106              
    8107              
    8108              $C$DW$T$145     .dwtag  DW_TAG_union_type
    8109                      .dwattr $C$DW$T$145, DW_AT_name("PCLKCR17_REG")
    8110                      .dwattr $C$DW$T$145, DW_AT_byte_size(0x02)
    8111              $C$DW$715       .dwtag  DW_TAG_member
    8112                      .dwattr $C$DW$715, DW_AT_type(*$C$DW$T$21)
    8113                      .dwattr $C$DW$715, DW_AT_name("all")
    8114                      .dwattr $C$DW$715, DW_AT_TI_symbol_name("_all")
    8115                      .dwattr $C$DW$715, DW_AT_data_member_location[DW_OP_plus_uconst 0x0]
    8116                      .dwattr $C$DW$715, DW_AT_accessibility(DW_ACCESS_public)
    8117              
    8118              $C$DW$716       .dwtag  DW_TAG_member
    8119                      .dwattr $C$DW$716, DW_AT_type(*$C$DW$T$144)
    8120                      .dwattr $C$DW$716, DW_AT_name("bit")
    8121                      .dwattr $C$DW$716, DW_AT_TI_symbol_name("_bit")
    8122                      .dwattr $C$DW$716, DW_AT_data_member_location[DW_OP_plus_uconst 0x0]
    8123                      .dwattr $C$DW$716, DW_AT_accessibility(DW_ACCESS_public)
    8124              
    8125                      .dwendtag $C$DW$T$145
    8126              
    8127              
    8128              $C$DW$T$146     .dwtag  DW_TAG_structure_type
    8129                      .dwattr $C$DW$T$146, DW_AT_name("PCLKCR18_BITS")
    8130                      .dwattr $C$DW$T$146, DW_AT_byte_size(0x02)
    8131              $C$DW$717       .dwtag  DW_TAG_member
    8132                      .dwattr $C$DW$717, DW_AT_type(*$C$DW$T$19)
    8133                      .dwattr $C$DW$717, DW_AT_name("FSITX_A")
    8134                      .dwattr $C$DW$717, DW_AT_TI_symbol_name("_FSITX_A")
    8135                      .dwattr $C$DW$717, DW_AT_bit_offset(0x0f)
    8136                      .dwattr $C$DW$717, DW_AT_bit_size(0x01)
    8137                      .dwattr $C$DW$717, DW_AT_data_member_location[DW_OP_plus_uconst 0x0]
    8138                      .dwattr $C$DW$717, DW_AT_accessibility(DW_ACCESS_public)
    8139              
    8140              $C$DW$718       .dwtag  DW_TAG_member
    8141                      .dwattr $C$DW$718, DW_AT_type(*$C$DW$T$19)
    8142                      .dwattr $C$DW$718, DW_AT_name("FSIRX_A")
    8143                      .dwattr $C$DW$718, DW_AT_TI_symbol_name("_FSIRX_A")
    8144                      .dwattr $C$DW$718, DW_AT_bit_offset(0x0e)
    8145                      .dwattr $C$DW$718, DW_AT_bit_size(0x01)
    8146                      .dwattr $C$DW$718, DW_AT_data_member_location[DW_OP_plus_uconst 0x0]
    8147                      .dwattr $C$DW$718, DW_AT_accessibility(DW_ACCESS_public)
    8148              
TMS320C2000 Assembler PC v22.6.1 Wed May 21 09:51:55 2025

Copyright (c) 1996-2018 Texas Instruments Incorporated
C:\Users\Daniel\AppData\Local\Temp\{78ED34F4-3C3B-4D89-8F5D-B64BD43A86E6} PAGE  153

    8149              $C$DW$719       .dwtag  DW_TAG_member
    8150                      .dwattr $C$DW$719, DW_AT_type(*$C$DW$T$19)
    8151                      .dwattr $C$DW$719, DW_AT_name("rsvd1")
    8152                      .dwattr $C$DW$719, DW_AT_TI_symbol_name("_rsvd1")
    8153                      .dwattr $C$DW$719, DW_AT_bit_offset(0x0d)
    8154                      .dwattr $C$DW$719, DW_AT_bit_size(0x01)
    8155                      .dwattr $C$DW$719, DW_AT_data_member_location[DW_OP_plus_uconst 0x0]
    8156                      .dwattr $C$DW$719, DW_AT_accessibility(DW_ACCESS_public)
    8157              
    8158              $C$DW$720       .dwtag  DW_TAG_member
    8159                      .dwattr $C$DW$720, DW_AT_type(*$C$DW$T$19)
    8160                      .dwattr $C$DW$720, DW_AT_name("rsvd2")
    8161                      .dwattr $C$DW$720, DW_AT_TI_symbol_name("_rsvd2")
    8162                      .dwattr $C$DW$720, DW_AT_bit_offset(0x0c)
    8163                      .dwattr $C$DW$720, DW_AT_bit_size(0x01)
    8164                      .dwattr $C$DW$720, DW_AT_data_member_location[DW_OP_plus_uconst 0x0]
    8165                      .dwattr $C$DW$720, DW_AT_accessibility(DW_ACCESS_public)
    8166              
    8167              $C$DW$721       .dwtag  DW_TAG_member
    8168                      .dwattr $C$DW$721, DW_AT_type(*$C$DW$T$19)
    8169                      .dwattr $C$DW$721, DW_AT_name("rsvd3")
    8170                      .dwattr $C$DW$721, DW_AT_TI_symbol_name("_rsvd3")
    8171                      .dwattr $C$DW$721, DW_AT_bit_offset(0x00)
    8172                      .dwattr $C$DW$721, DW_AT_bit_size(0x0c)
    8173                      .dwattr $C$DW$721, DW_AT_data_member_location[DW_OP_plus_uconst 0x0]
    8174                      .dwattr $C$DW$721, DW_AT_accessibility(DW_ACCESS_public)
    8175              
    8176              $C$DW$722       .dwtag  DW_TAG_member
    8177                      .dwattr $C$DW$722, DW_AT_type(*$C$DW$T$19)
    8178                      .dwattr $C$DW$722, DW_AT_name("rsvd4")
    8179                      .dwattr $C$DW$722, DW_AT_TI_symbol_name("_rsvd4")
    8180                      .dwattr $C$DW$722, DW_AT_bit_offset(0x00)
    8181                      .dwattr $C$DW$722, DW_AT_bit_size(0x10)
    8182                      .dwattr $C$DW$722, DW_AT_data_member_location[DW_OP_plus_uconst 0x1]
    8183                      .dwattr $C$DW$722, DW_AT_accessibility(DW_ACCESS_public)
    8184              
    8185                      .dwendtag $C$DW$T$146
    8186              
    8187              
    8188              $C$DW$T$147     .dwtag  DW_TAG_union_type
    8189                      .dwattr $C$DW$T$147, DW_AT_name("PCLKCR18_REG")
    8190                      .dwattr $C$DW$T$147, DW_AT_byte_size(0x02)
    8191              $C$DW$723       .dwtag  DW_TAG_member
    8192                      .dwattr $C$DW$723, DW_AT_type(*$C$DW$T$21)
    8193                      .dwattr $C$DW$723, DW_AT_name("all")
    8194                      .dwattr $C$DW$723, DW_AT_TI_symbol_name("_all")
    8195                      .dwattr $C$DW$723, DW_AT_data_member_location[DW_OP_plus_uconst 0x0]
    8196                      .dwattr $C$DW$723, DW_AT_accessibility(DW_ACCESS_public)
    8197              
    8198              $C$DW$724       .dwtag  DW_TAG_member
    8199                      .dwattr $C$DW$724, DW_AT_type(*$C$DW$T$146)
    8200                      .dwattr $C$DW$724, DW_AT_name("bit")
    8201                      .dwattr $C$DW$724, DW_AT_TI_symbol_name("_bit")
    8202                      .dwattr $C$DW$724, DW_AT_data_member_location[DW_OP_plus_uconst 0x0]
    8203                      .dwattr $C$DW$724, DW_AT_accessibility(DW_ACCESS_public)
TMS320C2000 Assembler PC v22.6.1 Wed May 21 09:51:55 2025

Copyright (c) 1996-2018 Texas Instruments Incorporated
C:\Users\Daniel\AppData\Local\Temp\{78ED34F4-3C3B-4D89-8F5D-B64BD43A86E6} PAGE  154

    8204              
    8205                      .dwendtag $C$DW$T$147
    8206              
    8207              
    8208              $C$DW$T$148     .dwtag  DW_TAG_structure_type
    8209                      .dwattr $C$DW$T$148, DW_AT_name("PCLKCR19_BITS")
    8210                      .dwattr $C$DW$T$148, DW_AT_byte_size(0x02)
    8211              $C$DW$725       .dwtag  DW_TAG_member
    8212                      .dwattr $C$DW$725, DW_AT_type(*$C$DW$T$19)
    8213                      .dwattr $C$DW$725, DW_AT_name("LIN_A")
    8214                      .dwattr $C$DW$725, DW_AT_TI_symbol_name("_LIN_A")
    8215                      .dwattr $C$DW$725, DW_AT_bit_offset(0x0f)
    8216                      .dwattr $C$DW$725, DW_AT_bit_size(0x01)
    8217                      .dwattr $C$DW$725, DW_AT_data_member_location[DW_OP_plus_uconst 0x0]
    8218                      .dwattr $C$DW$725, DW_AT_accessibility(DW_ACCESS_public)
    8219              
    8220              $C$DW$726       .dwtag  DW_TAG_member
    8221                      .dwattr $C$DW$726, DW_AT_type(*$C$DW$T$19)
    8222                      .dwattr $C$DW$726, DW_AT_name("LIN_B")
    8223                      .dwattr $C$DW$726, DW_AT_TI_symbol_name("_LIN_B")
    8224                      .dwattr $C$DW$726, DW_AT_bit_offset(0x0e)
    8225                      .dwattr $C$DW$726, DW_AT_bit_size(0x01)
    8226                      .dwattr $C$DW$726, DW_AT_data_member_location[DW_OP_plus_uconst 0x0]
    8227                      .dwattr $C$DW$726, DW_AT_accessibility(DW_ACCESS_public)
    8228              
    8229              $C$DW$727       .dwtag  DW_TAG_member
    8230                      .dwattr $C$DW$727, DW_AT_type(*$C$DW$T$19)
    8231                      .dwattr $C$DW$727, DW_AT_name("rsvd1")
    8232                      .dwattr $C$DW$727, DW_AT_TI_symbol_name("_rsvd1")
    8233                      .dwattr $C$DW$727, DW_AT_bit_offset(0x0d)
    8234                      .dwattr $C$DW$727, DW_AT_bit_size(0x01)
    8235                      .dwattr $C$DW$727, DW_AT_data_member_location[DW_OP_plus_uconst 0x0]
    8236                      .dwattr $C$DW$727, DW_AT_accessibility(DW_ACCESS_public)
    8237              
    8238              $C$DW$728       .dwtag  DW_TAG_member
    8239                      .dwattr $C$DW$728, DW_AT_type(*$C$DW$T$19)
    8240                      .dwattr $C$DW$728, DW_AT_name("rsvd2")
    8241                      .dwattr $C$DW$728, DW_AT_TI_symbol_name("_rsvd2")
    8242                      .dwattr $C$DW$728, DW_AT_bit_offset(0x0c)
    8243                      .dwattr $C$DW$728, DW_AT_bit_size(0x01)
    8244                      .dwattr $C$DW$728, DW_AT_data_member_location[DW_OP_plus_uconst 0x0]
    8245                      .dwattr $C$DW$728, DW_AT_accessibility(DW_ACCESS_public)
    8246              
    8247              $C$DW$729       .dwtag  DW_TAG_member
    8248                      .dwattr $C$DW$729, DW_AT_type(*$C$DW$T$19)
    8249                      .dwattr $C$DW$729, DW_AT_name("rsvd3")
    8250                      .dwattr $C$DW$729, DW_AT_TI_symbol_name("_rsvd3")
    8251                      .dwattr $C$DW$729, DW_AT_bit_offset(0x00)
    8252                      .dwattr $C$DW$729, DW_AT_bit_size(0x0c)
    8253                      .dwattr $C$DW$729, DW_AT_data_member_location[DW_OP_plus_uconst 0x0]
    8254                      .dwattr $C$DW$729, DW_AT_accessibility(DW_ACCESS_public)
    8255              
    8256              $C$DW$730       .dwtag  DW_TAG_member
    8257                      .dwattr $C$DW$730, DW_AT_type(*$C$DW$T$19)
    8258                      .dwattr $C$DW$730, DW_AT_name("rsvd4")
TMS320C2000 Assembler PC v22.6.1 Wed May 21 09:51:55 2025

Copyright (c) 1996-2018 Texas Instruments Incorporated
C:\Users\Daniel\AppData\Local\Temp\{78ED34F4-3C3B-4D89-8F5D-B64BD43A86E6} PAGE  155

    8259                      .dwattr $C$DW$730, DW_AT_TI_symbol_name("_rsvd4")
    8260                      .dwattr $C$DW$730, DW_AT_bit_offset(0x00)
    8261                      .dwattr $C$DW$730, DW_AT_bit_size(0x10)
    8262                      .dwattr $C$DW$730, DW_AT_data_member_location[DW_OP_plus_uconst 0x1]
    8263                      .dwattr $C$DW$730, DW_AT_accessibility(DW_ACCESS_public)
    8264              
    8265                      .dwendtag $C$DW$T$148
    8266              
    8267              
    8268              $C$DW$T$149     .dwtag  DW_TAG_union_type
    8269                      .dwattr $C$DW$T$149, DW_AT_name("PCLKCR19_REG")
    8270                      .dwattr $C$DW$T$149, DW_AT_byte_size(0x02)
    8271              $C$DW$731       .dwtag  DW_TAG_member
    8272                      .dwattr $C$DW$731, DW_AT_type(*$C$DW$T$21)
    8273                      .dwattr $C$DW$731, DW_AT_name("all")
    8274                      .dwattr $C$DW$731, DW_AT_TI_symbol_name("_all")
    8275                      .dwattr $C$DW$731, DW_AT_data_member_location[DW_OP_plus_uconst 0x0]
    8276                      .dwattr $C$DW$731, DW_AT_accessibility(DW_ACCESS_public)
    8277              
    8278              $C$DW$732       .dwtag  DW_TAG_member
    8279                      .dwattr $C$DW$732, DW_AT_type(*$C$DW$T$148)
    8280                      .dwattr $C$DW$732, DW_AT_name("bit")
    8281                      .dwattr $C$DW$732, DW_AT_TI_symbol_name("_bit")
    8282                      .dwattr $C$DW$732, DW_AT_data_member_location[DW_OP_plus_uconst 0x0]
    8283                      .dwattr $C$DW$732, DW_AT_accessibility(DW_ACCESS_public)
    8284              
    8285                      .dwendtag $C$DW$T$149
    8286              
    8287              
    8288              $C$DW$T$150     .dwtag  DW_TAG_structure_type
    8289                      .dwattr $C$DW$T$150, DW_AT_name("PCLKCR20_BITS")
    8290                      .dwattr $C$DW$T$150, DW_AT_byte_size(0x02)
    8291              $C$DW$733       .dwtag  DW_TAG_member
    8292                      .dwattr $C$DW$733, DW_AT_type(*$C$DW$T$19)
    8293                      .dwattr $C$DW$733, DW_AT_name("PMBUS_A")
    8294                      .dwattr $C$DW$733, DW_AT_TI_symbol_name("_PMBUS_A")
    8295                      .dwattr $C$DW$733, DW_AT_bit_offset(0x0f)
    8296                      .dwattr $C$DW$733, DW_AT_bit_size(0x01)
    8297                      .dwattr $C$DW$733, DW_AT_data_member_location[DW_OP_plus_uconst 0x0]
    8298                      .dwattr $C$DW$733, DW_AT_accessibility(DW_ACCESS_public)
    8299              
    8300              $C$DW$734       .dwtag  DW_TAG_member
    8301                      .dwattr $C$DW$734, DW_AT_type(*$C$DW$T$19)
    8302                      .dwattr $C$DW$734, DW_AT_name("rsvd1")
    8303                      .dwattr $C$DW$734, DW_AT_TI_symbol_name("_rsvd1")
    8304                      .dwattr $C$DW$734, DW_AT_bit_offset(0x0e)
    8305                      .dwattr $C$DW$734, DW_AT_bit_size(0x01)
    8306                      .dwattr $C$DW$734, DW_AT_data_member_location[DW_OP_plus_uconst 0x0]
    8307                      .dwattr $C$DW$734, DW_AT_accessibility(DW_ACCESS_public)
    8308              
    8309              $C$DW$735       .dwtag  DW_TAG_member
    8310                      .dwattr $C$DW$735, DW_AT_type(*$C$DW$T$19)
    8311                      .dwattr $C$DW$735, DW_AT_name("rsvd2")
    8312                      .dwattr $C$DW$735, DW_AT_TI_symbol_name("_rsvd2")
    8313                      .dwattr $C$DW$735, DW_AT_bit_offset(0x00)
TMS320C2000 Assembler PC v22.6.1 Wed May 21 09:51:55 2025

Copyright (c) 1996-2018 Texas Instruments Incorporated
C:\Users\Daniel\AppData\Local\Temp\{78ED34F4-3C3B-4D89-8F5D-B64BD43A86E6} PAGE  156

    8314                      .dwattr $C$DW$735, DW_AT_bit_size(0x0e)
    8315                      .dwattr $C$DW$735, DW_AT_data_member_location[DW_OP_plus_uconst 0x0]
    8316                      .dwattr $C$DW$735, DW_AT_accessibility(DW_ACCESS_public)
    8317              
    8318              $C$DW$736       .dwtag  DW_TAG_member
    8319                      .dwattr $C$DW$736, DW_AT_type(*$C$DW$T$19)
    8320                      .dwattr $C$DW$736, DW_AT_name("rsvd3")
    8321                      .dwattr $C$DW$736, DW_AT_TI_symbol_name("_rsvd3")
    8322                      .dwattr $C$DW$736, DW_AT_bit_offset(0x00)
    8323                      .dwattr $C$DW$736, DW_AT_bit_size(0x10)
    8324                      .dwattr $C$DW$736, DW_AT_data_member_location[DW_OP_plus_uconst 0x1]
    8325                      .dwattr $C$DW$736, DW_AT_accessibility(DW_ACCESS_public)
    8326              
    8327                      .dwendtag $C$DW$T$150
    8328              
    8329              
    8330              $C$DW$T$151     .dwtag  DW_TAG_union_type
    8331                      .dwattr $C$DW$T$151, DW_AT_name("PCLKCR20_REG")
    8332                      .dwattr $C$DW$T$151, DW_AT_byte_size(0x02)
    8333              $C$DW$737       .dwtag  DW_TAG_member
    8334                      .dwattr $C$DW$737, DW_AT_type(*$C$DW$T$21)
    8335                      .dwattr $C$DW$737, DW_AT_name("all")
    8336                      .dwattr $C$DW$737, DW_AT_TI_symbol_name("_all")
    8337                      .dwattr $C$DW$737, DW_AT_data_member_location[DW_OP_plus_uconst 0x0]
    8338                      .dwattr $C$DW$737, DW_AT_accessibility(DW_ACCESS_public)
    8339              
    8340              $C$DW$738       .dwtag  DW_TAG_member
    8341                      .dwattr $C$DW$738, DW_AT_type(*$C$DW$T$150)
    8342                      .dwattr $C$DW$738, DW_AT_name("bit")
    8343                      .dwattr $C$DW$738, DW_AT_TI_symbol_name("_bit")
    8344                      .dwattr $C$DW$738, DW_AT_data_member_location[DW_OP_plus_uconst 0x0]
    8345                      .dwattr $C$DW$738, DW_AT_accessibility(DW_ACCESS_public)
    8346              
    8347                      .dwendtag $C$DW$T$151
    8348              
    8349              
    8350              $C$DW$T$152     .dwtag  DW_TAG_structure_type
    8351                      .dwattr $C$DW$T$152, DW_AT_name("PCLKCR21_BITS")
    8352                      .dwattr $C$DW$T$152, DW_AT_byte_size(0x02)
    8353              $C$DW$739       .dwtag  DW_TAG_member
    8354                      .dwattr $C$DW$739, DW_AT_type(*$C$DW$T$19)
    8355                      .dwattr $C$DW$739, DW_AT_name("DCC0")
    8356                      .dwattr $C$DW$739, DW_AT_TI_symbol_name("_DCC0")
    8357                      .dwattr $C$DW$739, DW_AT_bit_offset(0x0f)
    8358                      .dwattr $C$DW$739, DW_AT_bit_size(0x01)
    8359                      .dwattr $C$DW$739, DW_AT_data_member_location[DW_OP_plus_uconst 0x0]
    8360                      .dwattr $C$DW$739, DW_AT_accessibility(DW_ACCESS_public)
    8361              
    8362              $C$DW$740       .dwtag  DW_TAG_member
    8363                      .dwattr $C$DW$740, DW_AT_type(*$C$DW$T$19)
    8364                      .dwattr $C$DW$740, DW_AT_name("DCC1")
    8365                      .dwattr $C$DW$740, DW_AT_TI_symbol_name("_DCC1")
    8366                      .dwattr $C$DW$740, DW_AT_bit_offset(0x0e)
    8367                      .dwattr $C$DW$740, DW_AT_bit_size(0x01)
    8368                      .dwattr $C$DW$740, DW_AT_data_member_location[DW_OP_plus_uconst 0x0]
TMS320C2000 Assembler PC v22.6.1 Wed May 21 09:51:55 2025

Copyright (c) 1996-2018 Texas Instruments Incorporated
C:\Users\Daniel\AppData\Local\Temp\{78ED34F4-3C3B-4D89-8F5D-B64BD43A86E6} PAGE  157

    8369                      .dwattr $C$DW$740, DW_AT_accessibility(DW_ACCESS_public)
    8370              
    8371              $C$DW$741       .dwtag  DW_TAG_member
    8372                      .dwattr $C$DW$741, DW_AT_type(*$C$DW$T$19)
    8373                      .dwattr $C$DW$741, DW_AT_name("rsvd1")
    8374                      .dwattr $C$DW$741, DW_AT_TI_symbol_name("_rsvd1")
    8375                      .dwattr $C$DW$741, DW_AT_bit_offset(0x00)
    8376                      .dwattr $C$DW$741, DW_AT_bit_size(0x0e)
    8377                      .dwattr $C$DW$741, DW_AT_data_member_location[DW_OP_plus_uconst 0x0]
    8378                      .dwattr $C$DW$741, DW_AT_accessibility(DW_ACCESS_public)
    8379              
    8380              $C$DW$742       .dwtag  DW_TAG_member
    8381                      .dwattr $C$DW$742, DW_AT_type(*$C$DW$T$19)
    8382                      .dwattr $C$DW$742, DW_AT_name("rsvd2")
    8383                      .dwattr $C$DW$742, DW_AT_TI_symbol_name("_rsvd2")
    8384                      .dwattr $C$DW$742, DW_AT_bit_offset(0x00)
    8385                      .dwattr $C$DW$742, DW_AT_bit_size(0x10)
    8386                      .dwattr $C$DW$742, DW_AT_data_member_location[DW_OP_plus_uconst 0x1]
    8387                      .dwattr $C$DW$742, DW_AT_accessibility(DW_ACCESS_public)
    8388              
    8389                      .dwendtag $C$DW$T$152
    8390              
    8391              
    8392              $C$DW$T$153     .dwtag  DW_TAG_union_type
    8393                      .dwattr $C$DW$T$153, DW_AT_name("PCLKCR21_REG")
    8394                      .dwattr $C$DW$T$153, DW_AT_byte_size(0x02)
    8395              $C$DW$743       .dwtag  DW_TAG_member
    8396                      .dwattr $C$DW$743, DW_AT_type(*$C$DW$T$21)
    8397                      .dwattr $C$DW$743, DW_AT_name("all")
    8398                      .dwattr $C$DW$743, DW_AT_TI_symbol_name("_all")
    8399                      .dwattr $C$DW$743, DW_AT_data_member_location[DW_OP_plus_uconst 0x0]
    8400                      .dwattr $C$DW$743, DW_AT_accessibility(DW_ACCESS_public)
    8401              
    8402              $C$DW$744       .dwtag  DW_TAG_member
    8403                      .dwattr $C$DW$744, DW_AT_type(*$C$DW$T$152)
    8404                      .dwattr $C$DW$744, DW_AT_name("bit")
    8405                      .dwattr $C$DW$744, DW_AT_TI_symbol_name("_bit")
    8406                      .dwattr $C$DW$744, DW_AT_data_member_location[DW_OP_plus_uconst 0x0]
    8407                      .dwattr $C$DW$744, DW_AT_accessibility(DW_ACCESS_public)
    8408              
    8409                      .dwendtag $C$DW$T$153
    8410              
    8411              
    8412              $C$DW$T$154     .dwtag  DW_TAG_structure_type
    8413                      .dwattr $C$DW$T$154, DW_AT_name("PCLKCR25_BITS")
    8414                      .dwattr $C$DW$T$154, DW_AT_byte_size(0x02)
    8415              $C$DW$745       .dwtag  DW_TAG_member
    8416                      .dwattr $C$DW$745, DW_AT_type(*$C$DW$T$19)
    8417                      .dwattr $C$DW$745, DW_AT_name("HICA")
    8418                      .dwattr $C$DW$745, DW_AT_TI_symbol_name("_HICA")
    8419                      .dwattr $C$DW$745, DW_AT_bit_offset(0x0f)
    8420                      .dwattr $C$DW$745, DW_AT_bit_size(0x01)
    8421                      .dwattr $C$DW$745, DW_AT_data_member_location[DW_OP_plus_uconst 0x0]
    8422                      .dwattr $C$DW$745, DW_AT_accessibility(DW_ACCESS_public)
    8423              
TMS320C2000 Assembler PC v22.6.1 Wed May 21 09:51:55 2025

Copyright (c) 1996-2018 Texas Instruments Incorporated
C:\Users\Daniel\AppData\Local\Temp\{78ED34F4-3C3B-4D89-8F5D-B64BD43A86E6} PAGE  158

    8424              $C$DW$746       .dwtag  DW_TAG_member
    8425                      .dwattr $C$DW$746, DW_AT_type(*$C$DW$T$19)
    8426                      .dwattr $C$DW$746, DW_AT_name("rsvd1")
    8427                      .dwattr $C$DW$746, DW_AT_TI_symbol_name("_rsvd1")
    8428                      .dwattr $C$DW$746, DW_AT_bit_offset(0x00)
    8429                      .dwattr $C$DW$746, DW_AT_bit_size(0x0f)
    8430                      .dwattr $C$DW$746, DW_AT_data_member_location[DW_OP_plus_uconst 0x0]
    8431                      .dwattr $C$DW$746, DW_AT_accessibility(DW_ACCESS_public)
    8432              
    8433              $C$DW$747       .dwtag  DW_TAG_member
    8434                      .dwattr $C$DW$747, DW_AT_type(*$C$DW$T$19)
    8435                      .dwattr $C$DW$747, DW_AT_name("rsvd2")
    8436                      .dwattr $C$DW$747, DW_AT_TI_symbol_name("_rsvd2")
    8437                      .dwattr $C$DW$747, DW_AT_bit_offset(0x00)
    8438                      .dwattr $C$DW$747, DW_AT_bit_size(0x10)
    8439                      .dwattr $C$DW$747, DW_AT_data_member_location[DW_OP_plus_uconst 0x1]
    8440                      .dwattr $C$DW$747, DW_AT_accessibility(DW_ACCESS_public)
    8441              
    8442                      .dwendtag $C$DW$T$154
    8443              
    8444              
    8445              $C$DW$T$155     .dwtag  DW_TAG_union_type
    8446                      .dwattr $C$DW$T$155, DW_AT_name("PCLKCR25_REG")
    8447                      .dwattr $C$DW$T$155, DW_AT_byte_size(0x02)
    8448              $C$DW$748       .dwtag  DW_TAG_member
    8449                      .dwattr $C$DW$748, DW_AT_type(*$C$DW$T$21)
    8450                      .dwattr $C$DW$748, DW_AT_name("all")
    8451                      .dwattr $C$DW$748, DW_AT_TI_symbol_name("_all")
    8452                      .dwattr $C$DW$748, DW_AT_data_member_location[DW_OP_plus_uconst 0x0]
    8453                      .dwattr $C$DW$748, DW_AT_accessibility(DW_ACCESS_public)
    8454              
    8455              $C$DW$749       .dwtag  DW_TAG_member
    8456                      .dwattr $C$DW$749, DW_AT_type(*$C$DW$T$154)
    8457                      .dwattr $C$DW$749, DW_AT_name("bit")
    8458                      .dwattr $C$DW$749, DW_AT_TI_symbol_name("_bit")
    8459                      .dwattr $C$DW$749, DW_AT_data_member_location[DW_OP_plus_uconst 0x0]
    8460                      .dwattr $C$DW$749, DW_AT_accessibility(DW_ACCESS_public)
    8461              
    8462                      .dwendtag $C$DW$T$155
    8463              
    8464              
    8465              $C$DW$T$156     .dwtag  DW_TAG_structure_type
    8466                      .dwattr $C$DW$T$156, DW_AT_name("PCLKCR26_BITS")
    8467                      .dwattr $C$DW$T$156, DW_AT_byte_size(0x02)
    8468              $C$DW$750       .dwtag  DW_TAG_member
    8469                      .dwattr $C$DW$750, DW_AT_type(*$C$DW$T$19)
    8470                      .dwattr $C$DW$750, DW_AT_name("AESA")
    8471                      .dwattr $C$DW$750, DW_AT_TI_symbol_name("_AESA")
    8472                      .dwattr $C$DW$750, DW_AT_bit_offset(0x0f)
    8473                      .dwattr $C$DW$750, DW_AT_bit_size(0x01)
    8474                      .dwattr $C$DW$750, DW_AT_data_member_location[DW_OP_plus_uconst 0x0]
    8475                      .dwattr $C$DW$750, DW_AT_accessibility(DW_ACCESS_public)
    8476              
    8477              $C$DW$751       .dwtag  DW_TAG_member
    8478                      .dwattr $C$DW$751, DW_AT_type(*$C$DW$T$19)
TMS320C2000 Assembler PC v22.6.1 Wed May 21 09:51:55 2025

Copyright (c) 1996-2018 Texas Instruments Incorporated
C:\Users\Daniel\AppData\Local\Temp\{78ED34F4-3C3B-4D89-8F5D-B64BD43A86E6} PAGE  159

    8479                      .dwattr $C$DW$751, DW_AT_name("rsvd1")
    8480                      .dwattr $C$DW$751, DW_AT_TI_symbol_name("_rsvd1")
    8481                      .dwattr $C$DW$751, DW_AT_bit_offset(0x00)
    8482                      .dwattr $C$DW$751, DW_AT_bit_size(0x0f)
    8483                      .dwattr $C$DW$751, DW_AT_data_member_location[DW_OP_plus_uconst 0x0]
    8484                      .dwattr $C$DW$751, DW_AT_accessibility(DW_ACCESS_public)
    8485              
    8486              $C$DW$752       .dwtag  DW_TAG_member
    8487                      .dwattr $C$DW$752, DW_AT_type(*$C$DW$T$19)
    8488                      .dwattr $C$DW$752, DW_AT_name("rsvd2")
    8489                      .dwattr $C$DW$752, DW_AT_TI_symbol_name("_rsvd2")
    8490                      .dwattr $C$DW$752, DW_AT_bit_offset(0x00)
    8491                      .dwattr $C$DW$752, DW_AT_bit_size(0x10)
    8492                      .dwattr $C$DW$752, DW_AT_data_member_location[DW_OP_plus_uconst 0x1]
    8493                      .dwattr $C$DW$752, DW_AT_accessibility(DW_ACCESS_public)
    8494              
    8495                      .dwendtag $C$DW$T$156
    8496              
    8497              
    8498              $C$DW$T$157     .dwtag  DW_TAG_union_type
    8499                      .dwattr $C$DW$T$157, DW_AT_name("PCLKCR26_REG")
    8500                      .dwattr $C$DW$T$157, DW_AT_byte_size(0x02)
    8501              $C$DW$753       .dwtag  DW_TAG_member
    8502                      .dwattr $C$DW$753, DW_AT_type(*$C$DW$T$21)
    8503                      .dwattr $C$DW$753, DW_AT_name("all")
    8504                      .dwattr $C$DW$753, DW_AT_TI_symbol_name("_all")
    8505                      .dwattr $C$DW$753, DW_AT_data_member_location[DW_OP_plus_uconst 0x0]
    8506                      .dwattr $C$DW$753, DW_AT_accessibility(DW_ACCESS_public)
    8507              
    8508              $C$DW$754       .dwtag  DW_TAG_member
    8509                      .dwattr $C$DW$754, DW_AT_type(*$C$DW$T$156)
    8510                      .dwattr $C$DW$754, DW_AT_name("bit")
    8511                      .dwattr $C$DW$754, DW_AT_TI_symbol_name("_bit")
    8512                      .dwattr $C$DW$754, DW_AT_data_member_location[DW_OP_plus_uconst 0x0]
    8513                      .dwattr $C$DW$754, DW_AT_accessibility(DW_ACCESS_public)
    8514              
    8515                      .dwendtag $C$DW$T$157
    8516              
    8517              
    8518              $C$DW$T$158     .dwtag  DW_TAG_structure_type
    8519                      .dwattr $C$DW$T$158, DW_AT_name("PCLKCR27_BITS")
    8520                      .dwattr $C$DW$T$158, DW_AT_byte_size(0x02)
    8521              $C$DW$755       .dwtag  DW_TAG_member
    8522                      .dwattr $C$DW$755, DW_AT_type(*$C$DW$T$19)
    8523                      .dwattr $C$DW$755, DW_AT_name("EPG1")
    8524                      .dwattr $C$DW$755, DW_AT_TI_symbol_name("_EPG1")
    8525                      .dwattr $C$DW$755, DW_AT_bit_offset(0x0f)
    8526                      .dwattr $C$DW$755, DW_AT_bit_size(0x01)
    8527                      .dwattr $C$DW$755, DW_AT_data_member_location[DW_OP_plus_uconst 0x0]
    8528                      .dwattr $C$DW$755, DW_AT_accessibility(DW_ACCESS_public)
    8529              
    8530              $C$DW$756       .dwtag  DW_TAG_member
    8531                      .dwattr $C$DW$756, DW_AT_type(*$C$DW$T$19)
    8532                      .dwattr $C$DW$756, DW_AT_name("rsvd1")
    8533                      .dwattr $C$DW$756, DW_AT_TI_symbol_name("_rsvd1")
TMS320C2000 Assembler PC v22.6.1 Wed May 21 09:51:55 2025

Copyright (c) 1996-2018 Texas Instruments Incorporated
C:\Users\Daniel\AppData\Local\Temp\{78ED34F4-3C3B-4D89-8F5D-B64BD43A86E6} PAGE  160

    8534                      .dwattr $C$DW$756, DW_AT_bit_offset(0x00)
    8535                      .dwattr $C$DW$756, DW_AT_bit_size(0x0f)
    8536                      .dwattr $C$DW$756, DW_AT_data_member_location[DW_OP_plus_uconst 0x0]
    8537                      .dwattr $C$DW$756, DW_AT_accessibility(DW_ACCESS_public)
    8538              
    8539              $C$DW$757       .dwtag  DW_TAG_member
    8540                      .dwattr $C$DW$757, DW_AT_type(*$C$DW$T$19)
    8541                      .dwattr $C$DW$757, DW_AT_name("rsvd2")
    8542                      .dwattr $C$DW$757, DW_AT_TI_symbol_name("_rsvd2")
    8543                      .dwattr $C$DW$757, DW_AT_bit_offset(0x00)
    8544                      .dwattr $C$DW$757, DW_AT_bit_size(0x10)
    8545                      .dwattr $C$DW$757, DW_AT_data_member_location[DW_OP_plus_uconst 0x1]
    8546                      .dwattr $C$DW$757, DW_AT_accessibility(DW_ACCESS_public)
    8547              
    8548                      .dwendtag $C$DW$T$158
    8549              
    8550              
    8551              $C$DW$T$159     .dwtag  DW_TAG_union_type
    8552                      .dwattr $C$DW$T$159, DW_AT_name("PCLKCR27_REG")
    8553                      .dwattr $C$DW$T$159, DW_AT_byte_size(0x02)
    8554              $C$DW$758       .dwtag  DW_TAG_member
    8555                      .dwattr $C$DW$758, DW_AT_type(*$C$DW$T$21)
    8556                      .dwattr $C$DW$758, DW_AT_name("all")
    8557                      .dwattr $C$DW$758, DW_AT_TI_symbol_name("_all")
    8558                      .dwattr $C$DW$758, DW_AT_data_member_location[DW_OP_plus_uconst 0x0]
    8559                      .dwattr $C$DW$758, DW_AT_accessibility(DW_ACCESS_public)
    8560              
    8561              $C$DW$759       .dwtag  DW_TAG_member
    8562                      .dwattr $C$DW$759, DW_AT_type(*$C$DW$T$158)
    8563                      .dwattr $C$DW$759, DW_AT_name("bit")
    8564                      .dwattr $C$DW$759, DW_AT_TI_symbol_name("_bit")
    8565                      .dwattr $C$DW$759, DW_AT_data_member_location[DW_OP_plus_uconst 0x0]
    8566                      .dwattr $C$DW$759, DW_AT_accessibility(DW_ACCESS_public)
    8567              
    8568                      .dwendtag $C$DW$T$159
    8569              
    8570              
    8571              $C$DW$T$160     .dwtag  DW_TAG_structure_type
    8572                      .dwattr $C$DW$T$160, DW_AT_name("PCLKCR2_BITS")
    8573                      .dwattr $C$DW$T$160, DW_AT_byte_size(0x02)
    8574              $C$DW$760       .dwtag  DW_TAG_member
    8575                      .dwattr $C$DW$760, DW_AT_type(*$C$DW$T$19)
    8576                      .dwattr $C$DW$760, DW_AT_name("EPWM1")
    8577                      .dwattr $C$DW$760, DW_AT_TI_symbol_name("_EPWM1")
    8578                      .dwattr $C$DW$760, DW_AT_bit_offset(0x0f)
    8579                      .dwattr $C$DW$760, DW_AT_bit_size(0x01)
    8580                      .dwattr $C$DW$760, DW_AT_data_member_location[DW_OP_plus_uconst 0x0]
    8581                      .dwattr $C$DW$760, DW_AT_accessibility(DW_ACCESS_public)
    8582              
    8583              $C$DW$761       .dwtag  DW_TAG_member
    8584                      .dwattr $C$DW$761, DW_AT_type(*$C$DW$T$19)
    8585                      .dwattr $C$DW$761, DW_AT_name("EPWM2")
    8586                      .dwattr $C$DW$761, DW_AT_TI_symbol_name("_EPWM2")
    8587                      .dwattr $C$DW$761, DW_AT_bit_offset(0x0e)
    8588                      .dwattr $C$DW$761, DW_AT_bit_size(0x01)
TMS320C2000 Assembler PC v22.6.1 Wed May 21 09:51:55 2025

Copyright (c) 1996-2018 Texas Instruments Incorporated
C:\Users\Daniel\AppData\Local\Temp\{78ED34F4-3C3B-4D89-8F5D-B64BD43A86E6} PAGE  161

    8589                      .dwattr $C$DW$761, DW_AT_data_member_location[DW_OP_plus_uconst 0x0]
    8590                      .dwattr $C$DW$761, DW_AT_accessibility(DW_ACCESS_public)
    8591              
    8592              $C$DW$762       .dwtag  DW_TAG_member
    8593                      .dwattr $C$DW$762, DW_AT_type(*$C$DW$T$19)
    8594                      .dwattr $C$DW$762, DW_AT_name("EPWM3")
    8595                      .dwattr $C$DW$762, DW_AT_TI_symbol_name("_EPWM3")
    8596                      .dwattr $C$DW$762, DW_AT_bit_offset(0x0d)
    8597                      .dwattr $C$DW$762, DW_AT_bit_size(0x01)
    8598                      .dwattr $C$DW$762, DW_AT_data_member_location[DW_OP_plus_uconst 0x0]
    8599                      .dwattr $C$DW$762, DW_AT_accessibility(DW_ACCESS_public)
    8600              
    8601              $C$DW$763       .dwtag  DW_TAG_member
    8602                      .dwattr $C$DW$763, DW_AT_type(*$C$DW$T$19)
    8603                      .dwattr $C$DW$763, DW_AT_name("EPWM4")
    8604                      .dwattr $C$DW$763, DW_AT_TI_symbol_name("_EPWM4")
    8605                      .dwattr $C$DW$763, DW_AT_bit_offset(0x0c)
    8606                      .dwattr $C$DW$763, DW_AT_bit_size(0x01)
    8607                      .dwattr $C$DW$763, DW_AT_data_member_location[DW_OP_plus_uconst 0x0]
    8608                      .dwattr $C$DW$763, DW_AT_accessibility(DW_ACCESS_public)
    8609              
    8610              $C$DW$764       .dwtag  DW_TAG_member
    8611                      .dwattr $C$DW$764, DW_AT_type(*$C$DW$T$19)
    8612                      .dwattr $C$DW$764, DW_AT_name("EPWM5")
    8613                      .dwattr $C$DW$764, DW_AT_TI_symbol_name("_EPWM5")
    8614                      .dwattr $C$DW$764, DW_AT_bit_offset(0x0b)
    8615                      .dwattr $C$DW$764, DW_AT_bit_size(0x01)
    8616                      .dwattr $C$DW$764, DW_AT_data_member_location[DW_OP_plus_uconst 0x0]
    8617                      .dwattr $C$DW$764, DW_AT_accessibility(DW_ACCESS_public)
    8618              
    8619              $C$DW$765       .dwtag  DW_TAG_member
    8620                      .dwattr $C$DW$765, DW_AT_type(*$C$DW$T$19)
    8621                      .dwattr $C$DW$765, DW_AT_name("EPWM6")
    8622                      .dwattr $C$DW$765, DW_AT_TI_symbol_name("_EPWM6")
    8623                      .dwattr $C$DW$765, DW_AT_bit_offset(0x0a)
    8624                      .dwattr $C$DW$765, DW_AT_bit_size(0x01)
    8625                      .dwattr $C$DW$765, DW_AT_data_member_location[DW_OP_plus_uconst 0x0]
    8626                      .dwattr $C$DW$765, DW_AT_accessibility(DW_ACCESS_public)
    8627              
    8628              $C$DW$766       .dwtag  DW_TAG_member
    8629                      .dwattr $C$DW$766, DW_AT_type(*$C$DW$T$19)
    8630                      .dwattr $C$DW$766, DW_AT_name("EPWM7")
    8631                      .dwattr $C$DW$766, DW_AT_TI_symbol_name("_EPWM7")
    8632                      .dwattr $C$DW$766, DW_AT_bit_offset(0x09)
    8633                      .dwattr $C$DW$766, DW_AT_bit_size(0x01)
    8634                      .dwattr $C$DW$766, DW_AT_data_member_location[DW_OP_plus_uconst 0x0]
    8635                      .dwattr $C$DW$766, DW_AT_accessibility(DW_ACCESS_public)
    8636              
    8637              $C$DW$767       .dwtag  DW_TAG_member
    8638                      .dwattr $C$DW$767, DW_AT_type(*$C$DW$T$19)
    8639                      .dwattr $C$DW$767, DW_AT_name("EPWM8")
    8640                      .dwattr $C$DW$767, DW_AT_TI_symbol_name("_EPWM8")
    8641                      .dwattr $C$DW$767, DW_AT_bit_offset(0x08)
    8642                      .dwattr $C$DW$767, DW_AT_bit_size(0x01)
    8643                      .dwattr $C$DW$767, DW_AT_data_member_location[DW_OP_plus_uconst 0x0]
TMS320C2000 Assembler PC v22.6.1 Wed May 21 09:51:55 2025

Copyright (c) 1996-2018 Texas Instruments Incorporated
C:\Users\Daniel\AppData\Local\Temp\{78ED34F4-3C3B-4D89-8F5D-B64BD43A86E6} PAGE  162

    8644                      .dwattr $C$DW$767, DW_AT_accessibility(DW_ACCESS_public)
    8645              
    8646              $C$DW$768       .dwtag  DW_TAG_member
    8647                      .dwattr $C$DW$768, DW_AT_type(*$C$DW$T$19)
    8648                      .dwattr $C$DW$768, DW_AT_name("rsvd1")
    8649                      .dwattr $C$DW$768, DW_AT_TI_symbol_name("_rsvd1")
    8650                      .dwattr $C$DW$768, DW_AT_bit_offset(0x07)
    8651                      .dwattr $C$DW$768, DW_AT_bit_size(0x01)
    8652                      .dwattr $C$DW$768, DW_AT_data_member_location[DW_OP_plus_uconst 0x0]
    8653                      .dwattr $C$DW$768, DW_AT_accessibility(DW_ACCESS_public)
    8654              
    8655              $C$DW$769       .dwtag  DW_TAG_member
    8656                      .dwattr $C$DW$769, DW_AT_type(*$C$DW$T$19)
    8657                      .dwattr $C$DW$769, DW_AT_name("rsvd2")
    8658                      .dwattr $C$DW$769, DW_AT_TI_symbol_name("_rsvd2")
    8659                      .dwattr $C$DW$769, DW_AT_bit_offset(0x06)
    8660                      .dwattr $C$DW$769, DW_AT_bit_size(0x01)
    8661                      .dwattr $C$DW$769, DW_AT_data_member_location[DW_OP_plus_uconst 0x0]
    8662                      .dwattr $C$DW$769, DW_AT_accessibility(DW_ACCESS_public)
    8663              
    8664              $C$DW$770       .dwtag  DW_TAG_member
    8665                      .dwattr $C$DW$770, DW_AT_type(*$C$DW$T$19)
    8666                      .dwattr $C$DW$770, DW_AT_name("rsvd3")
    8667                      .dwattr $C$DW$770, DW_AT_TI_symbol_name("_rsvd3")
    8668                      .dwattr $C$DW$770, DW_AT_bit_offset(0x05)
    8669                      .dwattr $C$DW$770, DW_AT_bit_size(0x01)
    8670                      .dwattr $C$DW$770, DW_AT_data_member_location[DW_OP_plus_uconst 0x0]
    8671                      .dwattr $C$DW$770, DW_AT_accessibility(DW_ACCESS_public)
    8672              
    8673              $C$DW$771       .dwtag  DW_TAG_member
    8674                      .dwattr $C$DW$771, DW_AT_type(*$C$DW$T$19)
    8675                      .dwattr $C$DW$771, DW_AT_name("rsvd4")
    8676                      .dwattr $C$DW$771, DW_AT_TI_symbol_name("_rsvd4")
    8677                      .dwattr $C$DW$771, DW_AT_bit_offset(0x04)
    8678                      .dwattr $C$DW$771, DW_AT_bit_size(0x01)
    8679                      .dwattr $C$DW$771, DW_AT_data_member_location[DW_OP_plus_uconst 0x0]
    8680                      .dwattr $C$DW$771, DW_AT_accessibility(DW_ACCESS_public)
    8681              
    8682              $C$DW$772       .dwtag  DW_TAG_member
    8683                      .dwattr $C$DW$772, DW_AT_type(*$C$DW$T$19)
    8684                      .dwattr $C$DW$772, DW_AT_name("rsvd5")
    8685                      .dwattr $C$DW$772, DW_AT_TI_symbol_name("_rsvd5")
    8686                      .dwattr $C$DW$772, DW_AT_bit_offset(0x03)
    8687                      .dwattr $C$DW$772, DW_AT_bit_size(0x01)
    8688                      .dwattr $C$DW$772, DW_AT_data_member_location[DW_OP_plus_uconst 0x0]
    8689                      .dwattr $C$DW$772, DW_AT_accessibility(DW_ACCESS_public)
    8690              
    8691              $C$DW$773       .dwtag  DW_TAG_member
    8692                      .dwattr $C$DW$773, DW_AT_type(*$C$DW$T$19)
    8693                      .dwattr $C$DW$773, DW_AT_name("rsvd6")
    8694                      .dwattr $C$DW$773, DW_AT_TI_symbol_name("_rsvd6")
    8695                      .dwattr $C$DW$773, DW_AT_bit_offset(0x02)
    8696                      .dwattr $C$DW$773, DW_AT_bit_size(0x01)
    8697                      .dwattr $C$DW$773, DW_AT_data_member_location[DW_OP_plus_uconst 0x0]
    8698                      .dwattr $C$DW$773, DW_AT_accessibility(DW_ACCESS_public)
TMS320C2000 Assembler PC v22.6.1 Wed May 21 09:51:55 2025

Copyright (c) 1996-2018 Texas Instruments Incorporated
C:\Users\Daniel\AppData\Local\Temp\{78ED34F4-3C3B-4D89-8F5D-B64BD43A86E6} PAGE  163

    8699              
    8700              $C$DW$774       .dwtag  DW_TAG_member
    8701                      .dwattr $C$DW$774, DW_AT_type(*$C$DW$T$19)
    8702                      .dwattr $C$DW$774, DW_AT_name("rsvd7")
    8703                      .dwattr $C$DW$774, DW_AT_TI_symbol_name("_rsvd7")
    8704                      .dwattr $C$DW$774, DW_AT_bit_offset(0x01)
    8705                      .dwattr $C$DW$774, DW_AT_bit_size(0x01)
    8706                      .dwattr $C$DW$774, DW_AT_data_member_location[DW_OP_plus_uconst 0x0]
    8707                      .dwattr $C$DW$774, DW_AT_accessibility(DW_ACCESS_public)
    8708              
    8709              $C$DW$775       .dwtag  DW_TAG_member
    8710                      .dwattr $C$DW$775, DW_AT_type(*$C$DW$T$19)
    8711                      .dwattr $C$DW$775, DW_AT_name("rsvd8")
    8712                      .dwattr $C$DW$775, DW_AT_TI_symbol_name("_rsvd8")
    8713                      .dwattr $C$DW$775, DW_AT_bit_offset(0x00)
    8714                      .dwattr $C$DW$775, DW_AT_bit_size(0x01)
    8715                      .dwattr $C$DW$775, DW_AT_data_member_location[DW_OP_plus_uconst 0x0]
    8716                      .dwattr $C$DW$775, DW_AT_accessibility(DW_ACCESS_public)
    8717              
    8718              $C$DW$776       .dwtag  DW_TAG_member
    8719                      .dwattr $C$DW$776, DW_AT_type(*$C$DW$T$19)
    8720                      .dwattr $C$DW$776, DW_AT_name("rsvd9")
    8721                      .dwattr $C$DW$776, DW_AT_TI_symbol_name("_rsvd9")
    8722                      .dwattr $C$DW$776, DW_AT_bit_offset(0x00)
    8723                      .dwattr $C$DW$776, DW_AT_bit_size(0x10)
    8724                      .dwattr $C$DW$776, DW_AT_data_member_location[DW_OP_plus_uconst 0x1]
    8725                      .dwattr $C$DW$776, DW_AT_accessibility(DW_ACCESS_public)
    8726              
    8727                      .dwendtag $C$DW$T$160
    8728              
    8729              
    8730              $C$DW$T$161     .dwtag  DW_TAG_union_type
    8731                      .dwattr $C$DW$T$161, DW_AT_name("PCLKCR2_REG")
    8732                      .dwattr $C$DW$T$161, DW_AT_byte_size(0x02)
    8733              $C$DW$777       .dwtag  DW_TAG_member
    8734                      .dwattr $C$DW$777, DW_AT_type(*$C$DW$T$21)
    8735                      .dwattr $C$DW$777, DW_AT_name("all")
    8736                      .dwattr $C$DW$777, DW_AT_TI_symbol_name("_all")
    8737                      .dwattr $C$DW$777, DW_AT_data_member_location[DW_OP_plus_uconst 0x0]
    8738                      .dwattr $C$DW$777, DW_AT_accessibility(DW_ACCESS_public)
    8739              
    8740              $C$DW$778       .dwtag  DW_TAG_member
    8741                      .dwattr $C$DW$778, DW_AT_type(*$C$DW$T$160)
    8742                      .dwattr $C$DW$778, DW_AT_name("bit")
    8743                      .dwattr $C$DW$778, DW_AT_TI_symbol_name("_bit")
    8744                      .dwattr $C$DW$778, DW_AT_data_member_location[DW_OP_plus_uconst 0x0]
    8745                      .dwattr $C$DW$778, DW_AT_accessibility(DW_ACCESS_public)
    8746              
    8747                      .dwendtag $C$DW$T$161
    8748              
    8749              
    8750              $C$DW$T$162     .dwtag  DW_TAG_structure_type
    8751                      .dwattr $C$DW$T$162, DW_AT_name("PCLKCR3_BITS")
    8752                      .dwattr $C$DW$T$162, DW_AT_byte_size(0x02)
    8753              $C$DW$779       .dwtag  DW_TAG_member
TMS320C2000 Assembler PC v22.6.1 Wed May 21 09:51:55 2025

Copyright (c) 1996-2018 Texas Instruments Incorporated
C:\Users\Daniel\AppData\Local\Temp\{78ED34F4-3C3B-4D89-8F5D-B64BD43A86E6} PAGE  164

    8754                      .dwattr $C$DW$779, DW_AT_type(*$C$DW$T$19)
    8755                      .dwattr $C$DW$779, DW_AT_name("ECAP1")
    8756                      .dwattr $C$DW$779, DW_AT_TI_symbol_name("_ECAP1")
    8757                      .dwattr $C$DW$779, DW_AT_bit_offset(0x0f)
    8758                      .dwattr $C$DW$779, DW_AT_bit_size(0x01)
    8759                      .dwattr $C$DW$779, DW_AT_data_member_location[DW_OP_plus_uconst 0x0]
    8760                      .dwattr $C$DW$779, DW_AT_accessibility(DW_ACCESS_public)
    8761              
    8762              $C$DW$780       .dwtag  DW_TAG_member
    8763                      .dwattr $C$DW$780, DW_AT_type(*$C$DW$T$19)
    8764                      .dwattr $C$DW$780, DW_AT_name("ECAP2")
    8765                      .dwattr $C$DW$780, DW_AT_TI_symbol_name("_ECAP2")
    8766                      .dwattr $C$DW$780, DW_AT_bit_offset(0x0e)
    8767                      .dwattr $C$DW$780, DW_AT_bit_size(0x01)
    8768                      .dwattr $C$DW$780, DW_AT_data_member_location[DW_OP_plus_uconst 0x0]
    8769                      .dwattr $C$DW$780, DW_AT_accessibility(DW_ACCESS_public)
    8770              
    8771              $C$DW$781       .dwtag  DW_TAG_member
    8772                      .dwattr $C$DW$781, DW_AT_type(*$C$DW$T$19)
    8773                      .dwattr $C$DW$781, DW_AT_name("ECAP3")
    8774                      .dwattr $C$DW$781, DW_AT_TI_symbol_name("_ECAP3")
    8775                      .dwattr $C$DW$781, DW_AT_bit_offset(0x0d)
    8776                      .dwattr $C$DW$781, DW_AT_bit_size(0x01)
    8777                      .dwattr $C$DW$781, DW_AT_data_member_location[DW_OP_plus_uconst 0x0]
    8778                      .dwattr $C$DW$781, DW_AT_accessibility(DW_ACCESS_public)
    8779              
    8780              $C$DW$782       .dwtag  DW_TAG_member
    8781                      .dwattr $C$DW$782, DW_AT_type(*$C$DW$T$19)
    8782                      .dwattr $C$DW$782, DW_AT_name("rsvd1")
    8783                      .dwattr $C$DW$782, DW_AT_TI_symbol_name("_rsvd1")
    8784                      .dwattr $C$DW$782, DW_AT_bit_offset(0x0c)
    8785                      .dwattr $C$DW$782, DW_AT_bit_size(0x01)
    8786                      .dwattr $C$DW$782, DW_AT_data_member_location[DW_OP_plus_uconst 0x0]
    8787                      .dwattr $C$DW$782, DW_AT_accessibility(DW_ACCESS_public)
    8788              
    8789              $C$DW$783       .dwtag  DW_TAG_member
    8790                      .dwattr $C$DW$783, DW_AT_type(*$C$DW$T$19)
    8791                      .dwattr $C$DW$783, DW_AT_name("rsvd2")
    8792                      .dwattr $C$DW$783, DW_AT_TI_symbol_name("_rsvd2")
    8793                      .dwattr $C$DW$783, DW_AT_bit_offset(0x0b)
    8794                      .dwattr $C$DW$783, DW_AT_bit_size(0x01)
    8795                      .dwattr $C$DW$783, DW_AT_data_member_location[DW_OP_plus_uconst 0x0]
    8796                      .dwattr $C$DW$783, DW_AT_accessibility(DW_ACCESS_public)
    8797              
    8798              $C$DW$784       .dwtag  DW_TAG_member
    8799                      .dwattr $C$DW$784, DW_AT_type(*$C$DW$T$19)
    8800                      .dwattr $C$DW$784, DW_AT_name("rsvd3")
    8801                      .dwattr $C$DW$784, DW_AT_TI_symbol_name("_rsvd3")
    8802                      .dwattr $C$DW$784, DW_AT_bit_offset(0x0a)
    8803                      .dwattr $C$DW$784, DW_AT_bit_size(0x01)
    8804                      .dwattr $C$DW$784, DW_AT_data_member_location[DW_OP_plus_uconst 0x0]
    8805                      .dwattr $C$DW$784, DW_AT_accessibility(DW_ACCESS_public)
    8806              
    8807              $C$DW$785       .dwtag  DW_TAG_member
    8808                      .dwattr $C$DW$785, DW_AT_type(*$C$DW$T$19)
TMS320C2000 Assembler PC v22.6.1 Wed May 21 09:51:55 2025

Copyright (c) 1996-2018 Texas Instruments Incorporated
C:\Users\Daniel\AppData\Local\Temp\{78ED34F4-3C3B-4D89-8F5D-B64BD43A86E6} PAGE  165

    8809                      .dwattr $C$DW$785, DW_AT_name("rsvd4")
    8810                      .dwattr $C$DW$785, DW_AT_TI_symbol_name("_rsvd4")
    8811                      .dwattr $C$DW$785, DW_AT_bit_offset(0x09)
    8812                      .dwattr $C$DW$785, DW_AT_bit_size(0x01)
    8813                      .dwattr $C$DW$785, DW_AT_data_member_location[DW_OP_plus_uconst 0x0]
    8814                      .dwattr $C$DW$785, DW_AT_accessibility(DW_ACCESS_public)
    8815              
    8816              $C$DW$786       .dwtag  DW_TAG_member
    8817                      .dwattr $C$DW$786, DW_AT_type(*$C$DW$T$19)
    8818                      .dwattr $C$DW$786, DW_AT_name("rsvd5")
    8819                      .dwattr $C$DW$786, DW_AT_TI_symbol_name("_rsvd5")
    8820                      .dwattr $C$DW$786, DW_AT_bit_offset(0x08)
    8821                      .dwattr $C$DW$786, DW_AT_bit_size(0x01)
    8822                      .dwattr $C$DW$786, DW_AT_data_member_location[DW_OP_plus_uconst 0x0]
    8823                      .dwattr $C$DW$786, DW_AT_accessibility(DW_ACCESS_public)
    8824              
    8825              $C$DW$787       .dwtag  DW_TAG_member
    8826                      .dwattr $C$DW$787, DW_AT_type(*$C$DW$T$19)
    8827                      .dwattr $C$DW$787, DW_AT_name("rsvd6")
    8828                      .dwattr $C$DW$787, DW_AT_TI_symbol_name("_rsvd6")
    8829                      .dwattr $C$DW$787, DW_AT_bit_offset(0x00)
    8830                      .dwattr $C$DW$787, DW_AT_bit_size(0x08)
    8831                      .dwattr $C$DW$787, DW_AT_data_member_location[DW_OP_plus_uconst 0x0]
    8832                      .dwattr $C$DW$787, DW_AT_accessibility(DW_ACCESS_public)
    8833              
    8834              $C$DW$788       .dwtag  DW_TAG_member
    8835                      .dwattr $C$DW$788, DW_AT_type(*$C$DW$T$19)
    8836                      .dwattr $C$DW$788, DW_AT_name("rsvd7")
    8837                      .dwattr $C$DW$788, DW_AT_TI_symbol_name("_rsvd7")
    8838                      .dwattr $C$DW$788, DW_AT_bit_offset(0x00)
    8839                      .dwattr $C$DW$788, DW_AT_bit_size(0x10)
    8840                      .dwattr $C$DW$788, DW_AT_data_member_location[DW_OP_plus_uconst 0x1]
    8841                      .dwattr $C$DW$788, DW_AT_accessibility(DW_ACCESS_public)
    8842              
    8843                      .dwendtag $C$DW$T$162
    8844              
    8845              
    8846              $C$DW$T$163     .dwtag  DW_TAG_union_type
    8847                      .dwattr $C$DW$T$163, DW_AT_name("PCLKCR3_REG")
    8848                      .dwattr $C$DW$T$163, DW_AT_byte_size(0x02)
    8849              $C$DW$789       .dwtag  DW_TAG_member
    8850                      .dwattr $C$DW$789, DW_AT_type(*$C$DW$T$21)
    8851                      .dwattr $C$DW$789, DW_AT_name("all")
    8852                      .dwattr $C$DW$789, DW_AT_TI_symbol_name("_all")
    8853                      .dwattr $C$DW$789, DW_AT_data_member_location[DW_OP_plus_uconst 0x0]
    8854                      .dwattr $C$DW$789, DW_AT_accessibility(DW_ACCESS_public)
    8855              
    8856              $C$DW$790       .dwtag  DW_TAG_member
    8857                      .dwattr $C$DW$790, DW_AT_type(*$C$DW$T$162)
    8858                      .dwattr $C$DW$790, DW_AT_name("bit")
    8859                      .dwattr $C$DW$790, DW_AT_TI_symbol_name("_bit")
    8860                      .dwattr $C$DW$790, DW_AT_data_member_location[DW_OP_plus_uconst 0x0]
    8861                      .dwattr $C$DW$790, DW_AT_accessibility(DW_ACCESS_public)
    8862              
    8863                      .dwendtag $C$DW$T$163
TMS320C2000 Assembler PC v22.6.1 Wed May 21 09:51:55 2025

Copyright (c) 1996-2018 Texas Instruments Incorporated
C:\Users\Daniel\AppData\Local\Temp\{78ED34F4-3C3B-4D89-8F5D-B64BD43A86E6} PAGE  166

    8864              
    8865              
    8866              $C$DW$T$164     .dwtag  DW_TAG_structure_type
    8867                      .dwattr $C$DW$T$164, DW_AT_name("PCLKCR4_BITS")
    8868                      .dwattr $C$DW$T$164, DW_AT_byte_size(0x02)
    8869              $C$DW$791       .dwtag  DW_TAG_member
    8870                      .dwattr $C$DW$791, DW_AT_type(*$C$DW$T$19)
    8871                      .dwattr $C$DW$791, DW_AT_name("EQEP1")
    8872                      .dwattr $C$DW$791, DW_AT_TI_symbol_name("_EQEP1")
    8873                      .dwattr $C$DW$791, DW_AT_bit_offset(0x0f)
    8874                      .dwattr $C$DW$791, DW_AT_bit_size(0x01)
    8875                      .dwattr $C$DW$791, DW_AT_data_member_location[DW_OP_plus_uconst 0x0]
    8876                      .dwattr $C$DW$791, DW_AT_accessibility(DW_ACCESS_public)
    8877              
    8878              $C$DW$792       .dwtag  DW_TAG_member
    8879                      .dwattr $C$DW$792, DW_AT_type(*$C$DW$T$19)
    8880                      .dwattr $C$DW$792, DW_AT_name("EQEP2")
    8881                      .dwattr $C$DW$792, DW_AT_TI_symbol_name("_EQEP2")
    8882                      .dwattr $C$DW$792, DW_AT_bit_offset(0x0e)
    8883                      .dwattr $C$DW$792, DW_AT_bit_size(0x01)
    8884                      .dwattr $C$DW$792, DW_AT_data_member_location[DW_OP_plus_uconst 0x0]
    8885                      .dwattr $C$DW$792, DW_AT_accessibility(DW_ACCESS_public)
    8886              
    8887              $C$DW$793       .dwtag  DW_TAG_member
    8888                      .dwattr $C$DW$793, DW_AT_type(*$C$DW$T$19)
    8889                      .dwattr $C$DW$793, DW_AT_name("rsvd1")
    8890                      .dwattr $C$DW$793, DW_AT_TI_symbol_name("_rsvd1")
    8891                      .dwattr $C$DW$793, DW_AT_bit_offset(0x0d)
    8892                      .dwattr $C$DW$793, DW_AT_bit_size(0x01)
    8893                      .dwattr $C$DW$793, DW_AT_data_member_location[DW_OP_plus_uconst 0x0]
    8894                      .dwattr $C$DW$793, DW_AT_accessibility(DW_ACCESS_public)
    8895              
    8896              $C$DW$794       .dwtag  DW_TAG_member
    8897                      .dwattr $C$DW$794, DW_AT_type(*$C$DW$T$19)
    8898                      .dwattr $C$DW$794, DW_AT_name("rsvd2")
    8899                      .dwattr $C$DW$794, DW_AT_TI_symbol_name("_rsvd2")
    8900                      .dwattr $C$DW$794, DW_AT_bit_offset(0x0c)
    8901                      .dwattr $C$DW$794, DW_AT_bit_size(0x01)
    8902                      .dwattr $C$DW$794, DW_AT_data_member_location[DW_OP_plus_uconst 0x0]
    8903                      .dwattr $C$DW$794, DW_AT_accessibility(DW_ACCESS_public)
    8904              
    8905              $C$DW$795       .dwtag  DW_TAG_member
    8906                      .dwattr $C$DW$795, DW_AT_type(*$C$DW$T$19)
    8907                      .dwattr $C$DW$795, DW_AT_name("rsvd3")
    8908                      .dwattr $C$DW$795, DW_AT_TI_symbol_name("_rsvd3")
    8909                      .dwattr $C$DW$795, DW_AT_bit_offset(0x00)
    8910                      .dwattr $C$DW$795, DW_AT_bit_size(0x0c)
    8911                      .dwattr $C$DW$795, DW_AT_data_member_location[DW_OP_plus_uconst 0x0]
    8912                      .dwattr $C$DW$795, DW_AT_accessibility(DW_ACCESS_public)
    8913              
    8914              $C$DW$796       .dwtag  DW_TAG_member
    8915                      .dwattr $C$DW$796, DW_AT_type(*$C$DW$T$19)
    8916                      .dwattr $C$DW$796, DW_AT_name("rsvd4")
    8917                      .dwattr $C$DW$796, DW_AT_TI_symbol_name("_rsvd4")
    8918                      .dwattr $C$DW$796, DW_AT_bit_offset(0x00)
TMS320C2000 Assembler PC v22.6.1 Wed May 21 09:51:55 2025

Copyright (c) 1996-2018 Texas Instruments Incorporated
C:\Users\Daniel\AppData\Local\Temp\{78ED34F4-3C3B-4D89-8F5D-B64BD43A86E6} PAGE  167

    8919                      .dwattr $C$DW$796, DW_AT_bit_size(0x10)
    8920                      .dwattr $C$DW$796, DW_AT_data_member_location[DW_OP_plus_uconst 0x1]
    8921                      .dwattr $C$DW$796, DW_AT_accessibility(DW_ACCESS_public)
    8922              
    8923                      .dwendtag $C$DW$T$164
    8924              
    8925              
    8926              $C$DW$T$165     .dwtag  DW_TAG_union_type
    8927                      .dwattr $C$DW$T$165, DW_AT_name("PCLKCR4_REG")
    8928                      .dwattr $C$DW$T$165, DW_AT_byte_size(0x02)
    8929              $C$DW$797       .dwtag  DW_TAG_member
    8930                      .dwattr $C$DW$797, DW_AT_type(*$C$DW$T$21)
    8931                      .dwattr $C$DW$797, DW_AT_name("all")
    8932                      .dwattr $C$DW$797, DW_AT_TI_symbol_name("_all")
    8933                      .dwattr $C$DW$797, DW_AT_data_member_location[DW_OP_plus_uconst 0x0]
    8934                      .dwattr $C$DW$797, DW_AT_accessibility(DW_ACCESS_public)
    8935              
    8936              $C$DW$798       .dwtag  DW_TAG_member
    8937                      .dwattr $C$DW$798, DW_AT_type(*$C$DW$T$164)
    8938                      .dwattr $C$DW$798, DW_AT_name("bit")
    8939                      .dwattr $C$DW$798, DW_AT_TI_symbol_name("_bit")
    8940                      .dwattr $C$DW$798, DW_AT_data_member_location[DW_OP_plus_uconst 0x0]
    8941                      .dwattr $C$DW$798, DW_AT_accessibility(DW_ACCESS_public)
    8942              
    8943                      .dwendtag $C$DW$T$165
    8944              
    8945              
    8946              $C$DW$T$166     .dwtag  DW_TAG_structure_type
    8947                      .dwattr $C$DW$T$166, DW_AT_name("PCLKCR6_BITS")
    8948                      .dwattr $C$DW$T$166, DW_AT_byte_size(0x02)
    8949              $C$DW$799       .dwtag  DW_TAG_member
    8950                      .dwattr $C$DW$799, DW_AT_type(*$C$DW$T$19)
    8951                      .dwattr $C$DW$799, DW_AT_name("SD1")
    8952                      .dwattr $C$DW$799, DW_AT_TI_symbol_name("_SD1")
    8953                      .dwattr $C$DW$799, DW_AT_bit_offset(0x0f)
    8954                      .dwattr $C$DW$799, DW_AT_bit_size(0x01)
    8955                      .dwattr $C$DW$799, DW_AT_data_member_location[DW_OP_plus_uconst 0x0]
    8956                      .dwattr $C$DW$799, DW_AT_accessibility(DW_ACCESS_public)
    8957              
    8958              $C$DW$800       .dwtag  DW_TAG_member
    8959                      .dwattr $C$DW$800, DW_AT_type(*$C$DW$T$19)
    8960                      .dwattr $C$DW$800, DW_AT_name("SD2")
    8961                      .dwattr $C$DW$800, DW_AT_TI_symbol_name("_SD2")
    8962                      .dwattr $C$DW$800, DW_AT_bit_offset(0x0e)
    8963                      .dwattr $C$DW$800, DW_AT_bit_size(0x01)
    8964                      .dwattr $C$DW$800, DW_AT_data_member_location[DW_OP_plus_uconst 0x0]
    8965                      .dwattr $C$DW$800, DW_AT_accessibility(DW_ACCESS_public)
    8966              
    8967              $C$DW$801       .dwtag  DW_TAG_member
    8968                      .dwattr $C$DW$801, DW_AT_type(*$C$DW$T$19)
    8969                      .dwattr $C$DW$801, DW_AT_name("rsvd1")
    8970                      .dwattr $C$DW$801, DW_AT_TI_symbol_name("_rsvd1")
    8971                      .dwattr $C$DW$801, DW_AT_bit_offset(0x0d)
    8972                      .dwattr $C$DW$801, DW_AT_bit_size(0x01)
    8973                      .dwattr $C$DW$801, DW_AT_data_member_location[DW_OP_plus_uconst 0x0]
TMS320C2000 Assembler PC v22.6.1 Wed May 21 09:51:55 2025

Copyright (c) 1996-2018 Texas Instruments Incorporated
C:\Users\Daniel\AppData\Local\Temp\{78ED34F4-3C3B-4D89-8F5D-B64BD43A86E6} PAGE  168

    8974                      .dwattr $C$DW$801, DW_AT_accessibility(DW_ACCESS_public)
    8975              
    8976              $C$DW$802       .dwtag  DW_TAG_member
    8977                      .dwattr $C$DW$802, DW_AT_type(*$C$DW$T$19)
    8978                      .dwattr $C$DW$802, DW_AT_name("rsvd2")
    8979                      .dwattr $C$DW$802, DW_AT_TI_symbol_name("_rsvd2")
    8980                      .dwattr $C$DW$802, DW_AT_bit_offset(0x0c)
    8981                      .dwattr $C$DW$802, DW_AT_bit_size(0x01)
    8982                      .dwattr $C$DW$802, DW_AT_data_member_location[DW_OP_plus_uconst 0x0]
    8983                      .dwattr $C$DW$802, DW_AT_accessibility(DW_ACCESS_public)
    8984              
    8985              $C$DW$803       .dwtag  DW_TAG_member
    8986                      .dwattr $C$DW$803, DW_AT_type(*$C$DW$T$19)
    8987                      .dwattr $C$DW$803, DW_AT_name("rsvd3")
    8988                      .dwattr $C$DW$803, DW_AT_TI_symbol_name("_rsvd3")
    8989                      .dwattr $C$DW$803, DW_AT_bit_offset(0x0b)
    8990                      .dwattr $C$DW$803, DW_AT_bit_size(0x01)
    8991                      .dwattr $C$DW$803, DW_AT_data_member_location[DW_OP_plus_uconst 0x0]
    8992                      .dwattr $C$DW$803, DW_AT_accessibility(DW_ACCESS_public)
    8993              
    8994              $C$DW$804       .dwtag  DW_TAG_member
    8995                      .dwattr $C$DW$804, DW_AT_type(*$C$DW$T$19)
    8996                      .dwattr $C$DW$804, DW_AT_name("rsvd4")
    8997                      .dwattr $C$DW$804, DW_AT_TI_symbol_name("_rsvd4")
    8998                      .dwattr $C$DW$804, DW_AT_bit_offset(0x0a)
    8999                      .dwattr $C$DW$804, DW_AT_bit_size(0x01)
    9000                      .dwattr $C$DW$804, DW_AT_data_member_location[DW_OP_plus_uconst 0x0]
    9001                      .dwattr $C$DW$804, DW_AT_accessibility(DW_ACCESS_public)
    9002              
    9003              $C$DW$805       .dwtag  DW_TAG_member
    9004                      .dwattr $C$DW$805, DW_AT_type(*$C$DW$T$19)
    9005                      .dwattr $C$DW$805, DW_AT_name("rsvd5")
    9006                      .dwattr $C$DW$805, DW_AT_TI_symbol_name("_rsvd5")
    9007                      .dwattr $C$DW$805, DW_AT_bit_offset(0x09)
    9008                      .dwattr $C$DW$805, DW_AT_bit_size(0x01)
    9009                      .dwattr $C$DW$805, DW_AT_data_member_location[DW_OP_plus_uconst 0x0]
    9010                      .dwattr $C$DW$805, DW_AT_accessibility(DW_ACCESS_public)
    9011              
    9012              $C$DW$806       .dwtag  DW_TAG_member
    9013                      .dwattr $C$DW$806, DW_AT_type(*$C$DW$T$19)
    9014                      .dwattr $C$DW$806, DW_AT_name("rsvd6")
    9015                      .dwattr $C$DW$806, DW_AT_TI_symbol_name("_rsvd6")
    9016                      .dwattr $C$DW$806, DW_AT_bit_offset(0x08)
    9017                      .dwattr $C$DW$806, DW_AT_bit_size(0x01)
    9018                      .dwattr $C$DW$806, DW_AT_data_member_location[DW_OP_plus_uconst 0x0]
    9019                      .dwattr $C$DW$806, DW_AT_accessibility(DW_ACCESS_public)
    9020              
    9021              $C$DW$807       .dwtag  DW_TAG_member
    9022                      .dwattr $C$DW$807, DW_AT_type(*$C$DW$T$19)
    9023                      .dwattr $C$DW$807, DW_AT_name("rsvd7")
    9024                      .dwattr $C$DW$807, DW_AT_TI_symbol_name("_rsvd7")
    9025                      .dwattr $C$DW$807, DW_AT_bit_offset(0x00)
    9026                      .dwattr $C$DW$807, DW_AT_bit_size(0x08)
    9027                      .dwattr $C$DW$807, DW_AT_data_member_location[DW_OP_plus_uconst 0x0]
    9028                      .dwattr $C$DW$807, DW_AT_accessibility(DW_ACCESS_public)
TMS320C2000 Assembler PC v22.6.1 Wed May 21 09:51:55 2025

Copyright (c) 1996-2018 Texas Instruments Incorporated
C:\Users\Daniel\AppData\Local\Temp\{78ED34F4-3C3B-4D89-8F5D-B64BD43A86E6} PAGE  169

    9029              
    9030              $C$DW$808       .dwtag  DW_TAG_member
    9031                      .dwattr $C$DW$808, DW_AT_type(*$C$DW$T$19)
    9032                      .dwattr $C$DW$808, DW_AT_name("rsvd8")
    9033                      .dwattr $C$DW$808, DW_AT_TI_symbol_name("_rsvd8")
    9034                      .dwattr $C$DW$808, DW_AT_bit_offset(0x00)
    9035                      .dwattr $C$DW$808, DW_AT_bit_size(0x10)
    9036                      .dwattr $C$DW$808, DW_AT_data_member_location[DW_OP_plus_uconst 0x1]
    9037                      .dwattr $C$DW$808, DW_AT_accessibility(DW_ACCESS_public)
    9038              
    9039                      .dwendtag $C$DW$T$166
    9040              
    9041              
    9042              $C$DW$T$167     .dwtag  DW_TAG_union_type
    9043                      .dwattr $C$DW$T$167, DW_AT_name("PCLKCR6_REG")
    9044                      .dwattr $C$DW$T$167, DW_AT_byte_size(0x02)
    9045              $C$DW$809       .dwtag  DW_TAG_member
    9046                      .dwattr $C$DW$809, DW_AT_type(*$C$DW$T$21)
    9047                      .dwattr $C$DW$809, DW_AT_name("all")
    9048                      .dwattr $C$DW$809, DW_AT_TI_symbol_name("_all")
    9049                      .dwattr $C$DW$809, DW_AT_data_member_location[DW_OP_plus_uconst 0x0]
    9050                      .dwattr $C$DW$809, DW_AT_accessibility(DW_ACCESS_public)
    9051              
    9052              $C$DW$810       .dwtag  DW_TAG_member
    9053                      .dwattr $C$DW$810, DW_AT_type(*$C$DW$T$166)
    9054                      .dwattr $C$DW$810, DW_AT_name("bit")
    9055                      .dwattr $C$DW$810, DW_AT_TI_symbol_name("_bit")
    9056                      .dwattr $C$DW$810, DW_AT_data_member_location[DW_OP_plus_uconst 0x0]
    9057                      .dwattr $C$DW$810, DW_AT_accessibility(DW_ACCESS_public)
    9058              
    9059                      .dwendtag $C$DW$T$167
    9060              
    9061              
    9062              $C$DW$T$168     .dwtag  DW_TAG_structure_type
    9063                      .dwattr $C$DW$T$168, DW_AT_name("PCLKCR7_BITS")
    9064                      .dwattr $C$DW$T$168, DW_AT_byte_size(0x02)
    9065              $C$DW$811       .dwtag  DW_TAG_member
    9066                      .dwattr $C$DW$811, DW_AT_type(*$C$DW$T$19)
    9067                      .dwattr $C$DW$811, DW_AT_name("SCI_A")
    9068                      .dwattr $C$DW$811, DW_AT_TI_symbol_name("_SCI_A")
    9069                      .dwattr $C$DW$811, DW_AT_bit_offset(0x0f)
    9070                      .dwattr $C$DW$811, DW_AT_bit_size(0x01)
    9071                      .dwattr $C$DW$811, DW_AT_data_member_location[DW_OP_plus_uconst 0x0]
    9072                      .dwattr $C$DW$811, DW_AT_accessibility(DW_ACCESS_public)
    9073              
    9074              $C$DW$812       .dwtag  DW_TAG_member
    9075                      .dwattr $C$DW$812, DW_AT_type(*$C$DW$T$19)
    9076                      .dwattr $C$DW$812, DW_AT_name("SCI_B")
    9077                      .dwattr $C$DW$812, DW_AT_TI_symbol_name("_SCI_B")
    9078                      .dwattr $C$DW$812, DW_AT_bit_offset(0x0e)
    9079                      .dwattr $C$DW$812, DW_AT_bit_size(0x01)
    9080                      .dwattr $C$DW$812, DW_AT_data_member_location[DW_OP_plus_uconst 0x0]
    9081                      .dwattr $C$DW$812, DW_AT_accessibility(DW_ACCESS_public)
    9082              
    9083              $C$DW$813       .dwtag  DW_TAG_member
TMS320C2000 Assembler PC v22.6.1 Wed May 21 09:51:55 2025

Copyright (c) 1996-2018 Texas Instruments Incorporated
C:\Users\Daniel\AppData\Local\Temp\{78ED34F4-3C3B-4D89-8F5D-B64BD43A86E6} PAGE  170

    9084                      .dwattr $C$DW$813, DW_AT_type(*$C$DW$T$19)
    9085                      .dwattr $C$DW$813, DW_AT_name("rsvd1")
    9086                      .dwattr $C$DW$813, DW_AT_TI_symbol_name("_rsvd1")
    9087                      .dwattr $C$DW$813, DW_AT_bit_offset(0x0d)
    9088                      .dwattr $C$DW$813, DW_AT_bit_size(0x01)
    9089                      .dwattr $C$DW$813, DW_AT_data_member_location[DW_OP_plus_uconst 0x0]
    9090                      .dwattr $C$DW$813, DW_AT_accessibility(DW_ACCESS_public)
    9091              
    9092              $C$DW$814       .dwtag  DW_TAG_member
    9093                      .dwattr $C$DW$814, DW_AT_type(*$C$DW$T$19)
    9094                      .dwattr $C$DW$814, DW_AT_name("rsvd2")
    9095                      .dwattr $C$DW$814, DW_AT_TI_symbol_name("_rsvd2")
    9096                      .dwattr $C$DW$814, DW_AT_bit_offset(0x0c)
    9097                      .dwattr $C$DW$814, DW_AT_bit_size(0x01)
    9098                      .dwattr $C$DW$814, DW_AT_data_member_location[DW_OP_plus_uconst 0x0]
    9099                      .dwattr $C$DW$814, DW_AT_accessibility(DW_ACCESS_public)
    9100              
    9101              $C$DW$815       .dwtag  DW_TAG_member
    9102                      .dwattr $C$DW$815, DW_AT_type(*$C$DW$T$19)
    9103                      .dwattr $C$DW$815, DW_AT_name("rsvd3")
    9104                      .dwattr $C$DW$815, DW_AT_TI_symbol_name("_rsvd3")
    9105                      .dwattr $C$DW$815, DW_AT_bit_offset(0x00)
    9106                      .dwattr $C$DW$815, DW_AT_bit_size(0x0c)
    9107                      .dwattr $C$DW$815, DW_AT_data_member_location[DW_OP_plus_uconst 0x0]
    9108                      .dwattr $C$DW$815, DW_AT_accessibility(DW_ACCESS_public)
    9109              
    9110              $C$DW$816       .dwtag  DW_TAG_member
    9111                      .dwattr $C$DW$816, DW_AT_type(*$C$DW$T$19)
    9112                      .dwattr $C$DW$816, DW_AT_name("rsvd4")
    9113                      .dwattr $C$DW$816, DW_AT_TI_symbol_name("_rsvd4")
    9114                      .dwattr $C$DW$816, DW_AT_bit_offset(0x00)
    9115                      .dwattr $C$DW$816, DW_AT_bit_size(0x10)
    9116                      .dwattr $C$DW$816, DW_AT_data_member_location[DW_OP_plus_uconst 0x1]
    9117                      .dwattr $C$DW$816, DW_AT_accessibility(DW_ACCESS_public)
    9118              
    9119                      .dwendtag $C$DW$T$168
    9120              
    9121              
    9122              $C$DW$T$169     .dwtag  DW_TAG_union_type
    9123                      .dwattr $C$DW$T$169, DW_AT_name("PCLKCR7_REG")
    9124                      .dwattr $C$DW$T$169, DW_AT_byte_size(0x02)
    9125              $C$DW$817       .dwtag  DW_TAG_member
    9126                      .dwattr $C$DW$817, DW_AT_type(*$C$DW$T$21)
    9127                      .dwattr $C$DW$817, DW_AT_name("all")
    9128                      .dwattr $C$DW$817, DW_AT_TI_symbol_name("_all")
    9129                      .dwattr $C$DW$817, DW_AT_data_member_location[DW_OP_plus_uconst 0x0]
    9130                      .dwattr $C$DW$817, DW_AT_accessibility(DW_ACCESS_public)
    9131              
    9132              $C$DW$818       .dwtag  DW_TAG_member
    9133                      .dwattr $C$DW$818, DW_AT_type(*$C$DW$T$168)
    9134                      .dwattr $C$DW$818, DW_AT_name("bit")
    9135                      .dwattr $C$DW$818, DW_AT_TI_symbol_name("_bit")
    9136                      .dwattr $C$DW$818, DW_AT_data_member_location[DW_OP_plus_uconst 0x0]
    9137                      .dwattr $C$DW$818, DW_AT_accessibility(DW_ACCESS_public)
    9138              
TMS320C2000 Assembler PC v22.6.1 Wed May 21 09:51:55 2025

Copyright (c) 1996-2018 Texas Instruments Incorporated
C:\Users\Daniel\AppData\Local\Temp\{78ED34F4-3C3B-4D89-8F5D-B64BD43A86E6} PAGE  171

    9139                      .dwendtag $C$DW$T$169
    9140              
    9141              
    9142              $C$DW$T$170     .dwtag  DW_TAG_structure_type
    9143                      .dwattr $C$DW$T$170, DW_AT_name("PCLKCR8_BITS")
    9144                      .dwattr $C$DW$T$170, DW_AT_byte_size(0x02)
    9145              $C$DW$819       .dwtag  DW_TAG_member
    9146                      .dwattr $C$DW$819, DW_AT_type(*$C$DW$T$19)
    9147                      .dwattr $C$DW$819, DW_AT_name("SPI_A")
    9148                      .dwattr $C$DW$819, DW_AT_TI_symbol_name("_SPI_A")
    9149                      .dwattr $C$DW$819, DW_AT_bit_offset(0x0f)
    9150                      .dwattr $C$DW$819, DW_AT_bit_size(0x01)
    9151                      .dwattr $C$DW$819, DW_AT_data_member_location[DW_OP_plus_uconst 0x0]
    9152                      .dwattr $C$DW$819, DW_AT_accessibility(DW_ACCESS_public)
    9153              
    9154              $C$DW$820       .dwtag  DW_TAG_member
    9155                      .dwattr $C$DW$820, DW_AT_type(*$C$DW$T$19)
    9156                      .dwattr $C$DW$820, DW_AT_name("SPI_B")
    9157                      .dwattr $C$DW$820, DW_AT_TI_symbol_name("_SPI_B")
    9158                      .dwattr $C$DW$820, DW_AT_bit_offset(0x0e)
    9159                      .dwattr $C$DW$820, DW_AT_bit_size(0x01)
    9160                      .dwattr $C$DW$820, DW_AT_data_member_location[DW_OP_plus_uconst 0x0]
    9161                      .dwattr $C$DW$820, DW_AT_accessibility(DW_ACCESS_public)
    9162              
    9163              $C$DW$821       .dwtag  DW_TAG_member
    9164                      .dwattr $C$DW$821, DW_AT_type(*$C$DW$T$19)
    9165                      .dwattr $C$DW$821, DW_AT_name("rsvd1")
    9166                      .dwattr $C$DW$821, DW_AT_TI_symbol_name("_rsvd1")
    9167                      .dwattr $C$DW$821, DW_AT_bit_offset(0x0d)
    9168                      .dwattr $C$DW$821, DW_AT_bit_size(0x01)
    9169                      .dwattr $C$DW$821, DW_AT_data_member_location[DW_OP_plus_uconst 0x0]
    9170                      .dwattr $C$DW$821, DW_AT_accessibility(DW_ACCESS_public)
    9171              
    9172              $C$DW$822       .dwtag  DW_TAG_member
    9173                      .dwattr $C$DW$822, DW_AT_type(*$C$DW$T$19)
    9174                      .dwattr $C$DW$822, DW_AT_name("rsvd2")
    9175                      .dwattr $C$DW$822, DW_AT_TI_symbol_name("_rsvd2")
    9176                      .dwattr $C$DW$822, DW_AT_bit_offset(0x0c)
    9177                      .dwattr $C$DW$822, DW_AT_bit_size(0x01)
    9178                      .dwattr $C$DW$822, DW_AT_data_member_location[DW_OP_plus_uconst 0x0]
    9179                      .dwattr $C$DW$822, DW_AT_accessibility(DW_ACCESS_public)
    9180              
    9181              $C$DW$823       .dwtag  DW_TAG_member
    9182                      .dwattr $C$DW$823, DW_AT_type(*$C$DW$T$19)
    9183                      .dwattr $C$DW$823, DW_AT_name("rsvd3")
    9184                      .dwattr $C$DW$823, DW_AT_TI_symbol_name("_rsvd3")
    9185                      .dwattr $C$DW$823, DW_AT_bit_offset(0x00)
    9186                      .dwattr $C$DW$823, DW_AT_bit_size(0x0c)
    9187                      .dwattr $C$DW$823, DW_AT_data_member_location[DW_OP_plus_uconst 0x0]
    9188                      .dwattr $C$DW$823, DW_AT_accessibility(DW_ACCESS_public)
    9189              
    9190              $C$DW$824       .dwtag  DW_TAG_member
    9191                      .dwattr $C$DW$824, DW_AT_type(*$C$DW$T$19)
    9192                      .dwattr $C$DW$824, DW_AT_name("rsvd4")
    9193                      .dwattr $C$DW$824, DW_AT_TI_symbol_name("_rsvd4")
TMS320C2000 Assembler PC v22.6.1 Wed May 21 09:51:55 2025

Copyright (c) 1996-2018 Texas Instruments Incorporated
C:\Users\Daniel\AppData\Local\Temp\{78ED34F4-3C3B-4D89-8F5D-B64BD43A86E6} PAGE  172

    9194                      .dwattr $C$DW$824, DW_AT_bit_offset(0x0f)
    9195                      .dwattr $C$DW$824, DW_AT_bit_size(0x01)
    9196                      .dwattr $C$DW$824, DW_AT_data_member_location[DW_OP_plus_uconst 0x1]
    9197                      .dwattr $C$DW$824, DW_AT_accessibility(DW_ACCESS_public)
    9198              
    9199              $C$DW$825       .dwtag  DW_TAG_member
    9200                      .dwattr $C$DW$825, DW_AT_type(*$C$DW$T$19)
    9201                      .dwattr $C$DW$825, DW_AT_name("rsvd5")
    9202                      .dwattr $C$DW$825, DW_AT_TI_symbol_name("_rsvd5")
    9203                      .dwattr $C$DW$825, DW_AT_bit_offset(0x0e)
    9204                      .dwattr $C$DW$825, DW_AT_bit_size(0x01)
    9205                      .dwattr $C$DW$825, DW_AT_data_member_location[DW_OP_plus_uconst 0x1]
    9206                      .dwattr $C$DW$825, DW_AT_accessibility(DW_ACCESS_public)
    9207              
    9208              $C$DW$826       .dwtag  DW_TAG_member
    9209                      .dwattr $C$DW$826, DW_AT_type(*$C$DW$T$19)
    9210                      .dwattr $C$DW$826, DW_AT_name("rsvd6")
    9211                      .dwattr $C$DW$826, DW_AT_TI_symbol_name("_rsvd6")
    9212                      .dwattr $C$DW$826, DW_AT_bit_offset(0x00)
    9213                      .dwattr $C$DW$826, DW_AT_bit_size(0x0e)
    9214                      .dwattr $C$DW$826, DW_AT_data_member_location[DW_OP_plus_uconst 0x1]
    9215                      .dwattr $C$DW$826, DW_AT_accessibility(DW_ACCESS_public)
    9216              
    9217                      .dwendtag $C$DW$T$170
    9218              
    9219              
    9220              $C$DW$T$171     .dwtag  DW_TAG_union_type
    9221                      .dwattr $C$DW$T$171, DW_AT_name("PCLKCR8_REG")
    9222                      .dwattr $C$DW$T$171, DW_AT_byte_size(0x02)
    9223              $C$DW$827       .dwtag  DW_TAG_member
    9224                      .dwattr $C$DW$827, DW_AT_type(*$C$DW$T$21)
    9225                      .dwattr $C$DW$827, DW_AT_name("all")
    9226                      .dwattr $C$DW$827, DW_AT_TI_symbol_name("_all")
    9227                      .dwattr $C$DW$827, DW_AT_data_member_location[DW_OP_plus_uconst 0x0]
    9228                      .dwattr $C$DW$827, DW_AT_accessibility(DW_ACCESS_public)
    9229              
    9230              $C$DW$828       .dwtag  DW_TAG_member
    9231                      .dwattr $C$DW$828, DW_AT_type(*$C$DW$T$170)
    9232                      .dwattr $C$DW$828, DW_AT_name("bit")
    9233                      .dwattr $C$DW$828, DW_AT_TI_symbol_name("_bit")
    9234                      .dwattr $C$DW$828, DW_AT_data_member_location[DW_OP_plus_uconst 0x0]
    9235                      .dwattr $C$DW$828, DW_AT_accessibility(DW_ACCESS_public)
    9236              
    9237                      .dwendtag $C$DW$T$171
    9238              
    9239              
    9240              $C$DW$T$172     .dwtag  DW_TAG_structure_type
    9241                      .dwattr $C$DW$T$172, DW_AT_name("PCLKCR9_BITS")
    9242                      .dwattr $C$DW$T$172, DW_AT_byte_size(0x02)
    9243              $C$DW$829       .dwtag  DW_TAG_member
    9244                      .dwattr $C$DW$829, DW_AT_type(*$C$DW$T$19)
    9245                      .dwattr $C$DW$829, DW_AT_name("I2C_A")
    9246                      .dwattr $C$DW$829, DW_AT_TI_symbol_name("_I2C_A")
    9247                      .dwattr $C$DW$829, DW_AT_bit_offset(0x0f)
    9248                      .dwattr $C$DW$829, DW_AT_bit_size(0x01)
TMS320C2000 Assembler PC v22.6.1 Wed May 21 09:51:55 2025

Copyright (c) 1996-2018 Texas Instruments Incorporated
C:\Users\Daniel\AppData\Local\Temp\{78ED34F4-3C3B-4D89-8F5D-B64BD43A86E6} PAGE  173

    9249                      .dwattr $C$DW$829, DW_AT_data_member_location[DW_OP_plus_uconst 0x0]
    9250                      .dwattr $C$DW$829, DW_AT_accessibility(DW_ACCESS_public)
    9251              
    9252              $C$DW$830       .dwtag  DW_TAG_member
    9253                      .dwattr $C$DW$830, DW_AT_type(*$C$DW$T$19)
    9254                      .dwattr $C$DW$830, DW_AT_name("I2C_B")
    9255                      .dwattr $C$DW$830, DW_AT_TI_symbol_name("_I2C_B")
    9256                      .dwattr $C$DW$830, DW_AT_bit_offset(0x0e)
    9257                      .dwattr $C$DW$830, DW_AT_bit_size(0x01)
    9258                      .dwattr $C$DW$830, DW_AT_data_member_location[DW_OP_plus_uconst 0x0]
    9259                      .dwattr $C$DW$830, DW_AT_accessibility(DW_ACCESS_public)
    9260              
    9261              $C$DW$831       .dwtag  DW_TAG_member
    9262                      .dwattr $C$DW$831, DW_AT_type(*$C$DW$T$19)
    9263                      .dwattr $C$DW$831, DW_AT_name("rsvd1")
    9264                      .dwattr $C$DW$831, DW_AT_TI_symbol_name("_rsvd1")
    9265                      .dwattr $C$DW$831, DW_AT_bit_offset(0x00)
    9266                      .dwattr $C$DW$831, DW_AT_bit_size(0x0e)
    9267                      .dwattr $C$DW$831, DW_AT_data_member_location[DW_OP_plus_uconst 0x0]
    9268                      .dwattr $C$DW$831, DW_AT_accessibility(DW_ACCESS_public)
    9269              
    9270              $C$DW$832       .dwtag  DW_TAG_member
    9271                      .dwattr $C$DW$832, DW_AT_type(*$C$DW$T$19)
    9272                      .dwattr $C$DW$832, DW_AT_name("rsvd2")
    9273                      .dwattr $C$DW$832, DW_AT_TI_symbol_name("_rsvd2")
    9274                      .dwattr $C$DW$832, DW_AT_bit_offset(0x00)
    9275                      .dwattr $C$DW$832, DW_AT_bit_size(0x10)
    9276                      .dwattr $C$DW$832, DW_AT_data_member_location[DW_OP_plus_uconst 0x1]
    9277                      .dwattr $C$DW$832, DW_AT_accessibility(DW_ACCESS_public)
    9278              
    9279                      .dwendtag $C$DW$T$172
    9280              
    9281              
    9282              $C$DW$T$173     .dwtag  DW_TAG_union_type
    9283                      .dwattr $C$DW$T$173, DW_AT_name("PCLKCR9_REG")
    9284                      .dwattr $C$DW$T$173, DW_AT_byte_size(0x02)
    9285              $C$DW$833       .dwtag  DW_TAG_member
    9286                      .dwattr $C$DW$833, DW_AT_type(*$C$DW$T$21)
    9287                      .dwattr $C$DW$833, DW_AT_name("all")
    9288                      .dwattr $C$DW$833, DW_AT_TI_symbol_name("_all")
    9289                      .dwattr $C$DW$833, DW_AT_data_member_location[DW_OP_plus_uconst 0x0]
    9290                      .dwattr $C$DW$833, DW_AT_accessibility(DW_ACCESS_public)
    9291              
    9292              $C$DW$834       .dwtag  DW_TAG_member
    9293                      .dwattr $C$DW$834, DW_AT_type(*$C$DW$T$172)
    9294                      .dwattr $C$DW$834, DW_AT_name("bit")
    9295                      .dwattr $C$DW$834, DW_AT_TI_symbol_name("_bit")
    9296                      .dwattr $C$DW$834, DW_AT_data_member_location[DW_OP_plus_uconst 0x0]
    9297                      .dwattr $C$DW$834, DW_AT_accessibility(DW_ACCESS_public)
    9298              
    9299                      .dwendtag $C$DW$T$173
    9300              
    9301              
    9302              $C$DW$T$174     .dwtag  DW_TAG_structure_type
    9303                      .dwattr $C$DW$T$174, DW_AT_name("PIEVERRADDR_BITS")
TMS320C2000 Assembler PC v22.6.1 Wed May 21 09:51:55 2025

Copyright (c) 1996-2018 Texas Instruments Incorporated
C:\Users\Daniel\AppData\Local\Temp\{78ED34F4-3C3B-4D89-8F5D-B64BD43A86E6} PAGE  174

    9304                      .dwattr $C$DW$T$174, DW_AT_byte_size(0x02)
    9305              $C$DW$835       .dwtag  DW_TAG_member
    9306                      .dwattr $C$DW$835, DW_AT_type(*$C$DW$T$21)
    9307                      .dwattr $C$DW$835, DW_AT_name("ADDR")
    9308                      .dwattr $C$DW$835, DW_AT_TI_symbol_name("_ADDR")
    9309                      .dwattr $C$DW$835, DW_AT_bit_offset(0x0a)
    9310                      .dwattr $C$DW$835, DW_AT_bit_size(0x16)
    9311                      .dwattr $C$DW$835, DW_AT_data_member_location[DW_OP_plus_uconst 0x0]
    9312                      .dwattr $C$DW$835, DW_AT_accessibility(DW_ACCESS_public)
    9313              
    9314              $C$DW$836       .dwtag  DW_TAG_member
    9315                      .dwattr $C$DW$836, DW_AT_type(*$C$DW$T$19)
    9316                      .dwattr $C$DW$836, DW_AT_name("rsvd1")
    9317                      .dwattr $C$DW$836, DW_AT_TI_symbol_name("_rsvd1")
    9318                      .dwattr $C$DW$836, DW_AT_bit_offset(0x00)
    9319                      .dwattr $C$DW$836, DW_AT_bit_size(0x0a)
    9320                      .dwattr $C$DW$836, DW_AT_data_member_location[DW_OP_plus_uconst 0x1]
    9321                      .dwattr $C$DW$836, DW_AT_accessibility(DW_ACCESS_public)
    9322              
    9323                      .dwendtag $C$DW$T$174
    9324              
    9325              
    9326              $C$DW$T$175     .dwtag  DW_TAG_union_type
    9327                      .dwattr $C$DW$T$175, DW_AT_name("PIEVERRADDR_REG")
    9328                      .dwattr $C$DW$T$175, DW_AT_byte_size(0x02)
    9329              $C$DW$837       .dwtag  DW_TAG_member
    9330                      .dwattr $C$DW$837, DW_AT_type(*$C$DW$T$21)
    9331                      .dwattr $C$DW$837, DW_AT_name("all")
    9332                      .dwattr $C$DW$837, DW_AT_TI_symbol_name("_all")
    9333                      .dwattr $C$DW$837, DW_AT_data_member_location[DW_OP_plus_uconst 0x0]
    9334                      .dwattr $C$DW$837, DW_AT_accessibility(DW_ACCESS_public)
    9335              
    9336              $C$DW$838       .dwtag  DW_TAG_member
    9337                      .dwattr $C$DW$838, DW_AT_type(*$C$DW$T$174)
    9338                      .dwattr $C$DW$838, DW_AT_name("bit")
    9339                      .dwattr $C$DW$838, DW_AT_TI_symbol_name("_bit")
    9340                      .dwattr $C$DW$838, DW_AT_data_member_location[DW_OP_plus_uconst 0x0]
    9341                      .dwattr $C$DW$838, DW_AT_accessibility(DW_ACCESS_public)
    9342              
    9343                      .dwendtag $C$DW$T$175
    9344              
    9345              
    9346              $C$DW$T$176     .dwtag  DW_TAG_structure_type
    9347                      .dwattr $C$DW$T$176, DW_AT_name("RESCCLR_BITS")
    9348                      .dwattr $C$DW$T$176, DW_AT_byte_size(0x02)
    9349              $C$DW$839       .dwtag  DW_TAG_member
    9350                      .dwattr $C$DW$839, DW_AT_type(*$C$DW$T$19)
    9351                      .dwattr $C$DW$839, DW_AT_name("POR")
    9352                      .dwattr $C$DW$839, DW_AT_TI_symbol_name("_POR")
    9353                      .dwattr $C$DW$839, DW_AT_bit_offset(0x0f)
    9354                      .dwattr $C$DW$839, DW_AT_bit_size(0x01)
    9355                      .dwattr $C$DW$839, DW_AT_data_member_location[DW_OP_plus_uconst 0x0]
    9356                      .dwattr $C$DW$839, DW_AT_accessibility(DW_ACCESS_public)
    9357              
    9358              $C$DW$840       .dwtag  DW_TAG_member
TMS320C2000 Assembler PC v22.6.1 Wed May 21 09:51:55 2025

Copyright (c) 1996-2018 Texas Instruments Incorporated
C:\Users\Daniel\AppData\Local\Temp\{78ED34F4-3C3B-4D89-8F5D-B64BD43A86E6} PAGE  175

    9359                      .dwattr $C$DW$840, DW_AT_type(*$C$DW$T$19)
    9360                      .dwattr $C$DW$840, DW_AT_name("XRSn")
    9361                      .dwattr $C$DW$840, DW_AT_TI_symbol_name("_XRSn")
    9362                      .dwattr $C$DW$840, DW_AT_bit_offset(0x0e)
    9363                      .dwattr $C$DW$840, DW_AT_bit_size(0x01)
    9364                      .dwattr $C$DW$840, DW_AT_data_member_location[DW_OP_plus_uconst 0x0]
    9365                      .dwattr $C$DW$840, DW_AT_accessibility(DW_ACCESS_public)
    9366              
    9367              $C$DW$841       .dwtag  DW_TAG_member
    9368                      .dwattr $C$DW$841, DW_AT_type(*$C$DW$T$19)
    9369                      .dwattr $C$DW$841, DW_AT_name("WDRSn")
    9370                      .dwattr $C$DW$841, DW_AT_TI_symbol_name("_WDRSn")
    9371                      .dwattr $C$DW$841, DW_AT_bit_offset(0x0d)
    9372                      .dwattr $C$DW$841, DW_AT_bit_size(0x01)
    9373                      .dwattr $C$DW$841, DW_AT_data_member_location[DW_OP_plus_uconst 0x0]
    9374                      .dwattr $C$DW$841, DW_AT_accessibility(DW_ACCESS_public)
    9375              
    9376              $C$DW$842       .dwtag  DW_TAG_member
    9377                      .dwattr $C$DW$842, DW_AT_type(*$C$DW$T$19)
    9378                      .dwattr $C$DW$842, DW_AT_name("NMIWDRSn")
    9379                      .dwattr $C$DW$842, DW_AT_TI_symbol_name("_NMIWDRSn")
    9380                      .dwattr $C$DW$842, DW_AT_bit_offset(0x0c)
    9381                      .dwattr $C$DW$842, DW_AT_bit_size(0x01)
    9382                      .dwattr $C$DW$842, DW_AT_data_member_location[DW_OP_plus_uconst 0x0]
    9383                      .dwattr $C$DW$842, DW_AT_accessibility(DW_ACCESS_public)
    9384              
    9385              $C$DW$843       .dwtag  DW_TAG_member
    9386                      .dwattr $C$DW$843, DW_AT_type(*$C$DW$T$19)
    9387                      .dwattr $C$DW$843, DW_AT_name("rsvd1")
    9388                      .dwattr $C$DW$843, DW_AT_TI_symbol_name("_rsvd1")
    9389                      .dwattr $C$DW$843, DW_AT_bit_offset(0x0b)
    9390                      .dwattr $C$DW$843, DW_AT_bit_size(0x01)
    9391                      .dwattr $C$DW$843, DW_AT_data_member_location[DW_OP_plus_uconst 0x0]
    9392                      .dwattr $C$DW$843, DW_AT_accessibility(DW_ACCESS_public)
    9393              
    9394              $C$DW$844       .dwtag  DW_TAG_member
    9395                      .dwattr $C$DW$844, DW_AT_type(*$C$DW$T$19)
    9396                      .dwattr $C$DW$844, DW_AT_name("HWBISTn")
    9397                      .dwattr $C$DW$844, DW_AT_TI_symbol_name("_HWBISTn")
    9398                      .dwattr $C$DW$844, DW_AT_bit_offset(0x0a)
    9399                      .dwattr $C$DW$844, DW_AT_bit_size(0x01)
    9400                      .dwattr $C$DW$844, DW_AT_data_member_location[DW_OP_plus_uconst 0x0]
    9401                      .dwattr $C$DW$844, DW_AT_accessibility(DW_ACCESS_public)
    9402              
    9403              $C$DW$845       .dwtag  DW_TAG_member
    9404                      .dwattr $C$DW$845, DW_AT_type(*$C$DW$T$19)
    9405                      .dwattr $C$DW$845, DW_AT_name("rsvd2")
    9406                      .dwattr $C$DW$845, DW_AT_TI_symbol_name("_rsvd2")
    9407                      .dwattr $C$DW$845, DW_AT_bit_offset(0x09)
    9408                      .dwattr $C$DW$845, DW_AT_bit_size(0x01)
    9409                      .dwattr $C$DW$845, DW_AT_data_member_location[DW_OP_plus_uconst 0x0]
    9410                      .dwattr $C$DW$845, DW_AT_accessibility(DW_ACCESS_public)
    9411              
    9412              $C$DW$846       .dwtag  DW_TAG_member
    9413                      .dwattr $C$DW$846, DW_AT_type(*$C$DW$T$19)
TMS320C2000 Assembler PC v22.6.1 Wed May 21 09:51:55 2025

Copyright (c) 1996-2018 Texas Instruments Incorporated
C:\Users\Daniel\AppData\Local\Temp\{78ED34F4-3C3B-4D89-8F5D-B64BD43A86E6} PAGE  176

    9414                      .dwattr $C$DW$846, DW_AT_name("rsvd3")
    9415                      .dwattr $C$DW$846, DW_AT_TI_symbol_name("_rsvd3")
    9416                      .dwattr $C$DW$846, DW_AT_bit_offset(0x08)
    9417                      .dwattr $C$DW$846, DW_AT_bit_size(0x01)
    9418                      .dwattr $C$DW$846, DW_AT_data_member_location[DW_OP_plus_uconst 0x0]
    9419                      .dwattr $C$DW$846, DW_AT_accessibility(DW_ACCESS_public)
    9420              
    9421              $C$DW$847       .dwtag  DW_TAG_member
    9422                      .dwattr $C$DW$847, DW_AT_type(*$C$DW$T$19)
    9423                      .dwattr $C$DW$847, DW_AT_name("SCCRESETn")
    9424                      .dwattr $C$DW$847, DW_AT_TI_symbol_name("_SCCRESETn")
    9425                      .dwattr $C$DW$847, DW_AT_bit_offset(0x07)
    9426                      .dwattr $C$DW$847, DW_AT_bit_size(0x01)
    9427                      .dwattr $C$DW$847, DW_AT_data_member_location[DW_OP_plus_uconst 0x0]
    9428                      .dwattr $C$DW$847, DW_AT_accessibility(DW_ACCESS_public)
    9429              
    9430              $C$DW$848       .dwtag  DW_TAG_member
    9431                      .dwattr $C$DW$848, DW_AT_type(*$C$DW$T$19)
    9432                      .dwattr $C$DW$848, DW_AT_name("rsvd4")
    9433                      .dwattr $C$DW$848, DW_AT_TI_symbol_name("_rsvd4")
    9434                      .dwattr $C$DW$848, DW_AT_bit_offset(0x06)
    9435                      .dwattr $C$DW$848, DW_AT_bit_size(0x01)
    9436                      .dwattr $C$DW$848, DW_AT_data_member_location[DW_OP_plus_uconst 0x0]
    9437                      .dwattr $C$DW$848, DW_AT_accessibility(DW_ACCESS_public)
    9438              
    9439              $C$DW$849       .dwtag  DW_TAG_member
    9440                      .dwattr $C$DW$849, DW_AT_type(*$C$DW$T$19)
    9441                      .dwattr $C$DW$849, DW_AT_name("SIMRESET_CPU1RSn")
    9442                      .dwattr $C$DW$849, DW_AT_TI_symbol_name("_SIMRESET_CPU1RSn")
    9443                      .dwattr $C$DW$849, DW_AT_bit_offset(0x05)
    9444                      .dwattr $C$DW$849, DW_AT_bit_size(0x01)
    9445                      .dwattr $C$DW$849, DW_AT_data_member_location[DW_OP_plus_uconst 0x0]
    9446                      .dwattr $C$DW$849, DW_AT_accessibility(DW_ACCESS_public)
    9447              
    9448              $C$DW$850       .dwtag  DW_TAG_member
    9449                      .dwattr $C$DW$850, DW_AT_type(*$C$DW$T$19)
    9450                      .dwattr $C$DW$850, DW_AT_name("SIMRESET_XRSn")
    9451                      .dwattr $C$DW$850, DW_AT_TI_symbol_name("_SIMRESET_XRSn")
    9452                      .dwattr $C$DW$850, DW_AT_bit_offset(0x04)
    9453                      .dwattr $C$DW$850, DW_AT_bit_size(0x01)
    9454                      .dwattr $C$DW$850, DW_AT_data_member_location[DW_OP_plus_uconst 0x0]
    9455                      .dwattr $C$DW$850, DW_AT_accessibility(DW_ACCESS_public)
    9456              
    9457              $C$DW$851       .dwtag  DW_TAG_member
    9458                      .dwattr $C$DW$851, DW_AT_type(*$C$DW$T$19)
    9459                      .dwattr $C$DW$851, DW_AT_name("rsvd5")
    9460                      .dwattr $C$DW$851, DW_AT_TI_symbol_name("_rsvd5")
    9461                      .dwattr $C$DW$851, DW_AT_bit_offset(0x00)
    9462                      .dwattr $C$DW$851, DW_AT_bit_size(0x04)
    9463                      .dwattr $C$DW$851, DW_AT_data_member_location[DW_OP_plus_uconst 0x0]
    9464                      .dwattr $C$DW$851, DW_AT_accessibility(DW_ACCESS_public)
    9465              
    9466              $C$DW$852       .dwtag  DW_TAG_member
    9467                      .dwattr $C$DW$852, DW_AT_type(*$C$DW$T$19)
    9468                      .dwattr $C$DW$852, DW_AT_name("rsvd6")
TMS320C2000 Assembler PC v22.6.1 Wed May 21 09:51:55 2025

Copyright (c) 1996-2018 Texas Instruments Incorporated
C:\Users\Daniel\AppData\Local\Temp\{78ED34F4-3C3B-4D89-8F5D-B64BD43A86E6} PAGE  177

    9469                      .dwattr $C$DW$852, DW_AT_TI_symbol_name("_rsvd6")
    9470                      .dwattr $C$DW$852, DW_AT_bit_offset(0x00)
    9471                      .dwattr $C$DW$852, DW_AT_bit_size(0x10)
    9472                      .dwattr $C$DW$852, DW_AT_data_member_location[DW_OP_plus_uconst 0x1]
    9473                      .dwattr $C$DW$852, DW_AT_accessibility(DW_ACCESS_public)
    9474              
    9475                      .dwendtag $C$DW$T$176
    9476              
    9477              
    9478              $C$DW$T$177     .dwtag  DW_TAG_union_type
    9479                      .dwattr $C$DW$T$177, DW_AT_name("RESCCLR_REG")
    9480                      .dwattr $C$DW$T$177, DW_AT_byte_size(0x02)
    9481              $C$DW$853       .dwtag  DW_TAG_member
    9482                      .dwattr $C$DW$853, DW_AT_type(*$C$DW$T$21)
    9483                      .dwattr $C$DW$853, DW_AT_name("all")
    9484                      .dwattr $C$DW$853, DW_AT_TI_symbol_name("_all")
    9485                      .dwattr $C$DW$853, DW_AT_data_member_location[DW_OP_plus_uconst 0x0]
    9486                      .dwattr $C$DW$853, DW_AT_accessibility(DW_ACCESS_public)
    9487              
    9488              $C$DW$854       .dwtag  DW_TAG_member
    9489                      .dwattr $C$DW$854, DW_AT_type(*$C$DW$T$176)
    9490                      .dwattr $C$DW$854, DW_AT_name("bit")
    9491                      .dwattr $C$DW$854, DW_AT_TI_symbol_name("_bit")
    9492                      .dwattr $C$DW$854, DW_AT_data_member_location[DW_OP_plus_uconst 0x0]
    9493                      .dwattr $C$DW$854, DW_AT_accessibility(DW_ACCESS_public)
    9494              
    9495                      .dwendtag $C$DW$T$177
    9496              
    9497              
    9498              $C$DW$T$178     .dwtag  DW_TAG_structure_type
    9499                      .dwattr $C$DW$T$178, DW_AT_name("RESC_BITS")
    9500                      .dwattr $C$DW$T$178, DW_AT_byte_size(0x02)
    9501              $C$DW$855       .dwtag  DW_TAG_member
    9502                      .dwattr $C$DW$855, DW_AT_type(*$C$DW$T$19)
    9503                      .dwattr $C$DW$855, DW_AT_name("POR")
    9504                      .dwattr $C$DW$855, DW_AT_TI_symbol_name("_POR")
    9505                      .dwattr $C$DW$855, DW_AT_bit_offset(0x0f)
    9506                      .dwattr $C$DW$855, DW_AT_bit_size(0x01)
    9507                      .dwattr $C$DW$855, DW_AT_data_member_location[DW_OP_plus_uconst 0x0]
    9508                      .dwattr $C$DW$855, DW_AT_accessibility(DW_ACCESS_public)
    9509              
    9510              $C$DW$856       .dwtag  DW_TAG_member
    9511                      .dwattr $C$DW$856, DW_AT_type(*$C$DW$T$19)
    9512                      .dwattr $C$DW$856, DW_AT_name("XRSn")
    9513                      .dwattr $C$DW$856, DW_AT_TI_symbol_name("_XRSn")
    9514                      .dwattr $C$DW$856, DW_AT_bit_offset(0x0e)
    9515                      .dwattr $C$DW$856, DW_AT_bit_size(0x01)
    9516                      .dwattr $C$DW$856, DW_AT_data_member_location[DW_OP_plus_uconst 0x0]
    9517                      .dwattr $C$DW$856, DW_AT_accessibility(DW_ACCESS_public)
    9518              
    9519              $C$DW$857       .dwtag  DW_TAG_member
    9520                      .dwattr $C$DW$857, DW_AT_type(*$C$DW$T$19)
    9521                      .dwattr $C$DW$857, DW_AT_name("WDRSn")
    9522                      .dwattr $C$DW$857, DW_AT_TI_symbol_name("_WDRSn")
    9523                      .dwattr $C$DW$857, DW_AT_bit_offset(0x0d)
TMS320C2000 Assembler PC v22.6.1 Wed May 21 09:51:55 2025

Copyright (c) 1996-2018 Texas Instruments Incorporated
C:\Users\Daniel\AppData\Local\Temp\{78ED34F4-3C3B-4D89-8F5D-B64BD43A86E6} PAGE  178

    9524                      .dwattr $C$DW$857, DW_AT_bit_size(0x01)
    9525                      .dwattr $C$DW$857, DW_AT_data_member_location[DW_OP_plus_uconst 0x0]
    9526                      .dwattr $C$DW$857, DW_AT_accessibility(DW_ACCESS_public)
    9527              
    9528              $C$DW$858       .dwtag  DW_TAG_member
    9529                      .dwattr $C$DW$858, DW_AT_type(*$C$DW$T$19)
    9530                      .dwattr $C$DW$858, DW_AT_name("NMIWDRSn")
    9531                      .dwattr $C$DW$858, DW_AT_TI_symbol_name("_NMIWDRSn")
    9532                      .dwattr $C$DW$858, DW_AT_bit_offset(0x0c)
    9533                      .dwattr $C$DW$858, DW_AT_bit_size(0x01)
    9534                      .dwattr $C$DW$858, DW_AT_data_member_location[DW_OP_plus_uconst 0x0]
    9535                      .dwattr $C$DW$858, DW_AT_accessibility(DW_ACCESS_public)
    9536              
    9537              $C$DW$859       .dwtag  DW_TAG_member
    9538                      .dwattr $C$DW$859, DW_AT_type(*$C$DW$T$19)
    9539                      .dwattr $C$DW$859, DW_AT_name("rsvd1")
    9540                      .dwattr $C$DW$859, DW_AT_TI_symbol_name("_rsvd1")
    9541                      .dwattr $C$DW$859, DW_AT_bit_offset(0x0b)
    9542                      .dwattr $C$DW$859, DW_AT_bit_size(0x01)
    9543                      .dwattr $C$DW$859, DW_AT_data_member_location[DW_OP_plus_uconst 0x0]
    9544                      .dwattr $C$DW$859, DW_AT_accessibility(DW_ACCESS_public)
    9545              
    9546              $C$DW$860       .dwtag  DW_TAG_member
    9547                      .dwattr $C$DW$860, DW_AT_type(*$C$DW$T$19)
    9548                      .dwattr $C$DW$860, DW_AT_name("HWBISTn")
    9549                      .dwattr $C$DW$860, DW_AT_TI_symbol_name("_HWBISTn")
    9550                      .dwattr $C$DW$860, DW_AT_bit_offset(0x0a)
    9551                      .dwattr $C$DW$860, DW_AT_bit_size(0x01)
    9552                      .dwattr $C$DW$860, DW_AT_data_member_location[DW_OP_plus_uconst 0x0]
    9553                      .dwattr $C$DW$860, DW_AT_accessibility(DW_ACCESS_public)
    9554              
    9555              $C$DW$861       .dwtag  DW_TAG_member
    9556                      .dwattr $C$DW$861, DW_AT_type(*$C$DW$T$19)
    9557                      .dwattr $C$DW$861, DW_AT_name("rsvd2")
    9558                      .dwattr $C$DW$861, DW_AT_TI_symbol_name("_rsvd2")
    9559                      .dwattr $C$DW$861, DW_AT_bit_offset(0x09)
    9560                      .dwattr $C$DW$861, DW_AT_bit_size(0x01)
    9561                      .dwattr $C$DW$861, DW_AT_data_member_location[DW_OP_plus_uconst 0x0]
    9562                      .dwattr $C$DW$861, DW_AT_accessibility(DW_ACCESS_public)
    9563              
    9564              $C$DW$862       .dwtag  DW_TAG_member
    9565                      .dwattr $C$DW$862, DW_AT_type(*$C$DW$T$19)
    9566                      .dwattr $C$DW$862, DW_AT_name("rsvd3")
    9567                      .dwattr $C$DW$862, DW_AT_TI_symbol_name("_rsvd3")
    9568                      .dwattr $C$DW$862, DW_AT_bit_offset(0x08)
    9569                      .dwattr $C$DW$862, DW_AT_bit_size(0x01)
    9570                      .dwattr $C$DW$862, DW_AT_data_member_location[DW_OP_plus_uconst 0x0]
    9571                      .dwattr $C$DW$862, DW_AT_accessibility(DW_ACCESS_public)
    9572              
    9573              $C$DW$863       .dwtag  DW_TAG_member
    9574                      .dwattr $C$DW$863, DW_AT_type(*$C$DW$T$19)
    9575                      .dwattr $C$DW$863, DW_AT_name("SCCRESETn")
    9576                      .dwattr $C$DW$863, DW_AT_TI_symbol_name("_SCCRESETn")
    9577                      .dwattr $C$DW$863, DW_AT_bit_offset(0x07)
    9578                      .dwattr $C$DW$863, DW_AT_bit_size(0x01)
TMS320C2000 Assembler PC v22.6.1 Wed May 21 09:51:55 2025

Copyright (c) 1996-2018 Texas Instruments Incorporated
C:\Users\Daniel\AppData\Local\Temp\{78ED34F4-3C3B-4D89-8F5D-B64BD43A86E6} PAGE  179

    9579                      .dwattr $C$DW$863, DW_AT_data_member_location[DW_OP_plus_uconst 0x0]
    9580                      .dwattr $C$DW$863, DW_AT_accessibility(DW_ACCESS_public)
    9581              
    9582              $C$DW$864       .dwtag  DW_TAG_member
    9583                      .dwattr $C$DW$864, DW_AT_type(*$C$DW$T$19)
    9584                      .dwattr $C$DW$864, DW_AT_name("rsvd4")
    9585                      .dwattr $C$DW$864, DW_AT_TI_symbol_name("_rsvd4")
    9586                      .dwattr $C$DW$864, DW_AT_bit_offset(0x06)
    9587                      .dwattr $C$DW$864, DW_AT_bit_size(0x01)
    9588                      .dwattr $C$DW$864, DW_AT_data_member_location[DW_OP_plus_uconst 0x0]
    9589                      .dwattr $C$DW$864, DW_AT_accessibility(DW_ACCESS_public)
    9590              
    9591              $C$DW$865       .dwtag  DW_TAG_member
    9592                      .dwattr $C$DW$865, DW_AT_type(*$C$DW$T$19)
    9593                      .dwattr $C$DW$865, DW_AT_name("SIMRESET_CPU1RSn")
    9594                      .dwattr $C$DW$865, DW_AT_TI_symbol_name("_SIMRESET_CPU1RSn")
    9595                      .dwattr $C$DW$865, DW_AT_bit_offset(0x05)
    9596                      .dwattr $C$DW$865, DW_AT_bit_size(0x01)
    9597                      .dwattr $C$DW$865, DW_AT_data_member_location[DW_OP_plus_uconst 0x0]
    9598                      .dwattr $C$DW$865, DW_AT_accessibility(DW_ACCESS_public)
    9599              
    9600              $C$DW$866       .dwtag  DW_TAG_member
    9601                      .dwattr $C$DW$866, DW_AT_type(*$C$DW$T$19)
    9602                      .dwattr $C$DW$866, DW_AT_name("SIMRESET_XRSn")
    9603                      .dwattr $C$DW$866, DW_AT_TI_symbol_name("_SIMRESET_XRSn")
    9604                      .dwattr $C$DW$866, DW_AT_bit_offset(0x04)
    9605                      .dwattr $C$DW$866, DW_AT_bit_size(0x01)
    9606                      .dwattr $C$DW$866, DW_AT_data_member_location[DW_OP_plus_uconst 0x0]
    9607                      .dwattr $C$DW$866, DW_AT_accessibility(DW_ACCESS_public)
    9608              
    9609              $C$DW$867       .dwtag  DW_TAG_member
    9610                      .dwattr $C$DW$867, DW_AT_type(*$C$DW$T$19)
    9611                      .dwattr $C$DW$867, DW_AT_name("rsvd5")
    9612                      .dwattr $C$DW$867, DW_AT_TI_symbol_name("_rsvd5")
    9613                      .dwattr $C$DW$867, DW_AT_bit_offset(0x00)
    9614                      .dwattr $C$DW$867, DW_AT_bit_size(0x04)
    9615                      .dwattr $C$DW$867, DW_AT_data_member_location[DW_OP_plus_uconst 0x0]
    9616                      .dwattr $C$DW$867, DW_AT_accessibility(DW_ACCESS_public)
    9617              
    9618              $C$DW$868       .dwtag  DW_TAG_member
    9619                      .dwattr $C$DW$868, DW_AT_type(*$C$DW$T$19)
    9620                      .dwattr $C$DW$868, DW_AT_name("rsvd6")
    9621                      .dwattr $C$DW$868, DW_AT_TI_symbol_name("_rsvd6")
    9622                      .dwattr $C$DW$868, DW_AT_bit_offset(0x02)
    9623                      .dwattr $C$DW$868, DW_AT_bit_size(0x0e)
    9624                      .dwattr $C$DW$868, DW_AT_data_member_location[DW_OP_plus_uconst 0x1]
    9625                      .dwattr $C$DW$868, DW_AT_accessibility(DW_ACCESS_public)
    9626              
    9627              $C$DW$869       .dwtag  DW_TAG_member
    9628                      .dwattr $C$DW$869, DW_AT_type(*$C$DW$T$19)
    9629                      .dwattr $C$DW$869, DW_AT_name("XRSn_pin_status")
    9630                      .dwattr $C$DW$869, DW_AT_TI_symbol_name("_XRSn_pin_status")
    9631                      .dwattr $C$DW$869, DW_AT_bit_offset(0x01)
    9632                      .dwattr $C$DW$869, DW_AT_bit_size(0x01)
    9633                      .dwattr $C$DW$869, DW_AT_data_member_location[DW_OP_plus_uconst 0x1]
TMS320C2000 Assembler PC v22.6.1 Wed May 21 09:51:55 2025

Copyright (c) 1996-2018 Texas Instruments Incorporated
C:\Users\Daniel\AppData\Local\Temp\{78ED34F4-3C3B-4D89-8F5D-B64BD43A86E6} PAGE  180

    9634                      .dwattr $C$DW$869, DW_AT_accessibility(DW_ACCESS_public)
    9635              
    9636              $C$DW$870       .dwtag  DW_TAG_member
    9637                      .dwattr $C$DW$870, DW_AT_type(*$C$DW$T$19)
    9638                      .dwattr $C$DW$870, DW_AT_name("DCON")
    9639                      .dwattr $C$DW$870, DW_AT_TI_symbol_name("_DCON")
    9640                      .dwattr $C$DW$870, DW_AT_bit_offset(0x00)
    9641                      .dwattr $C$DW$870, DW_AT_bit_size(0x01)
    9642                      .dwattr $C$DW$870, DW_AT_data_member_location[DW_OP_plus_uconst 0x1]
    9643                      .dwattr $C$DW$870, DW_AT_accessibility(DW_ACCESS_public)
    9644              
    9645                      .dwendtag $C$DW$T$178
    9646              
    9647              
    9648              $C$DW$T$179     .dwtag  DW_TAG_union_type
    9649                      .dwattr $C$DW$T$179, DW_AT_name("RESC_REG")
    9650                      .dwattr $C$DW$T$179, DW_AT_byte_size(0x02)
    9651              $C$DW$871       .dwtag  DW_TAG_member
    9652                      .dwattr $C$DW$871, DW_AT_type(*$C$DW$T$21)
    9653                      .dwattr $C$DW$871, DW_AT_name("all")
    9654                      .dwattr $C$DW$871, DW_AT_TI_symbol_name("_all")
    9655                      .dwattr $C$DW$871, DW_AT_data_member_location[DW_OP_plus_uconst 0x0]
    9656                      .dwattr $C$DW$871, DW_AT_accessibility(DW_ACCESS_public)
    9657              
    9658              $C$DW$872       .dwtag  DW_TAG_member
    9659                      .dwattr $C$DW$872, DW_AT_type(*$C$DW$T$178)
    9660                      .dwattr $C$DW$872, DW_AT_name("bit")
    9661                      .dwattr $C$DW$872, DW_AT_TI_symbol_name("_bit")
    9662                      .dwattr $C$DW$872, DW_AT_data_member_location[DW_OP_plus_uconst 0x0]
    9663                      .dwattr $C$DW$872, DW_AT_accessibility(DW_ACCESS_public)
    9664              
    9665                      .dwendtag $C$DW$T$179
    9666              
    9667              
    9668              $C$DW$T$180     .dwtag  DW_TAG_structure_type
    9669                      .dwattr $C$DW$T$180, DW_AT_name("SCSR_BITS")
    9670                      .dwattr $C$DW$T$180, DW_AT_byte_size(0x01)
    9671              $C$DW$873       .dwtag  DW_TAG_member
    9672                      .dwattr $C$DW$873, DW_AT_type(*$C$DW$T$19)
    9673                      .dwattr $C$DW$873, DW_AT_name("WDOVERRIDE")
    9674                      .dwattr $C$DW$873, DW_AT_TI_symbol_name("_WDOVERRIDE")
    9675                      .dwattr $C$DW$873, DW_AT_bit_offset(0x0f)
    9676                      .dwattr $C$DW$873, DW_AT_bit_size(0x01)
    9677                      .dwattr $C$DW$873, DW_AT_data_member_location[DW_OP_plus_uconst 0x0]
    9678                      .dwattr $C$DW$873, DW_AT_accessibility(DW_ACCESS_public)
    9679              
    9680              $C$DW$874       .dwtag  DW_TAG_member
    9681                      .dwattr $C$DW$874, DW_AT_type(*$C$DW$T$19)
    9682                      .dwattr $C$DW$874, DW_AT_name("WDENINT")
    9683                      .dwattr $C$DW$874, DW_AT_TI_symbol_name("_WDENINT")
    9684                      .dwattr $C$DW$874, DW_AT_bit_offset(0x0e)
    9685                      .dwattr $C$DW$874, DW_AT_bit_size(0x01)
    9686                      .dwattr $C$DW$874, DW_AT_data_member_location[DW_OP_plus_uconst 0x0]
    9687                      .dwattr $C$DW$874, DW_AT_accessibility(DW_ACCESS_public)
    9688              
TMS320C2000 Assembler PC v22.6.1 Wed May 21 09:51:55 2025

Copyright (c) 1996-2018 Texas Instruments Incorporated
C:\Users\Daniel\AppData\Local\Temp\{78ED34F4-3C3B-4D89-8F5D-B64BD43A86E6} PAGE  181

    9689              $C$DW$875       .dwtag  DW_TAG_member
    9690                      .dwattr $C$DW$875, DW_AT_type(*$C$DW$T$19)
    9691                      .dwattr $C$DW$875, DW_AT_name("WDINTS")
    9692                      .dwattr $C$DW$875, DW_AT_TI_symbol_name("_WDINTS")
    9693                      .dwattr $C$DW$875, DW_AT_bit_offset(0x0d)
    9694                      .dwattr $C$DW$875, DW_AT_bit_size(0x01)
    9695                      .dwattr $C$DW$875, DW_AT_data_member_location[DW_OP_plus_uconst 0x0]
    9696                      .dwattr $C$DW$875, DW_AT_accessibility(DW_ACCESS_public)
    9697              
    9698              $C$DW$876       .dwtag  DW_TAG_member
    9699                      .dwattr $C$DW$876, DW_AT_type(*$C$DW$T$19)
    9700                      .dwattr $C$DW$876, DW_AT_name("rsvd1")
    9701                      .dwattr $C$DW$876, DW_AT_TI_symbol_name("_rsvd1")
    9702                      .dwattr $C$DW$876, DW_AT_bit_offset(0x00)
    9703                      .dwattr $C$DW$876, DW_AT_bit_size(0x0d)
    9704                      .dwattr $C$DW$876, DW_AT_data_member_location[DW_OP_plus_uconst 0x0]
    9705                      .dwattr $C$DW$876, DW_AT_accessibility(DW_ACCESS_public)
    9706              
    9707                      .dwendtag $C$DW$T$180
    9708              
    9709              
    9710              $C$DW$T$181     .dwtag  DW_TAG_union_type
    9711                      .dwattr $C$DW$T$181, DW_AT_name("SCSR_REG")
    9712                      .dwattr $C$DW$T$181, DW_AT_byte_size(0x01)
    9713              $C$DW$877       .dwtag  DW_TAG_member
    9714                      .dwattr $C$DW$877, DW_AT_type(*$C$DW$T$19)
    9715                      .dwattr $C$DW$877, DW_AT_name("all")
    9716                      .dwattr $C$DW$877, DW_AT_TI_symbol_name("_all")
    9717                      .dwattr $C$DW$877, DW_AT_data_member_location[DW_OP_plus_uconst 0x0]
    9718                      .dwattr $C$DW$877, DW_AT_accessibility(DW_ACCESS_public)
    9719              
    9720              $C$DW$878       .dwtag  DW_TAG_member
    9721                      .dwattr $C$DW$878, DW_AT_type(*$C$DW$T$180)
    9722                      .dwattr $C$DW$878, DW_AT_name("bit")
    9723                      .dwattr $C$DW$878, DW_AT_TI_symbol_name("_bit")
    9724                      .dwattr $C$DW$878, DW_AT_data_member_location[DW_OP_plus_uconst 0x0]
    9725                      .dwattr $C$DW$878, DW_AT_accessibility(DW_ACCESS_public)
    9726              
    9727                      .dwendtag $C$DW$T$181
    9728              
    9729              
    9730              $C$DW$T$182     .dwtag  DW_TAG_structure_type
    9731                      .dwattr $C$DW$T$182, DW_AT_name("SIMRESET_BITS")
    9732                      .dwattr $C$DW$T$182, DW_AT_byte_size(0x02)
    9733              $C$DW$879       .dwtag  DW_TAG_member
    9734                      .dwattr $C$DW$879, DW_AT_type(*$C$DW$T$19)
    9735                      .dwattr $C$DW$879, DW_AT_name("CPU1RSn")
    9736                      .dwattr $C$DW$879, DW_AT_TI_symbol_name("_CPU1RSn")
    9737                      .dwattr $C$DW$879, DW_AT_bit_offset(0x0f)
    9738                      .dwattr $C$DW$879, DW_AT_bit_size(0x01)
    9739                      .dwattr $C$DW$879, DW_AT_data_member_location[DW_OP_plus_uconst 0x0]
    9740                      .dwattr $C$DW$879, DW_AT_accessibility(DW_ACCESS_public)
    9741              
    9742              $C$DW$880       .dwtag  DW_TAG_member
    9743                      .dwattr $C$DW$880, DW_AT_type(*$C$DW$T$19)
TMS320C2000 Assembler PC v22.6.1 Wed May 21 09:51:55 2025

Copyright (c) 1996-2018 Texas Instruments Incorporated
C:\Users\Daniel\AppData\Local\Temp\{78ED34F4-3C3B-4D89-8F5D-B64BD43A86E6} PAGE  182

    9744                      .dwattr $C$DW$880, DW_AT_name("XRSn")
    9745                      .dwattr $C$DW$880, DW_AT_TI_symbol_name("_XRSn")
    9746                      .dwattr $C$DW$880, DW_AT_bit_offset(0x0e)
    9747                      .dwattr $C$DW$880, DW_AT_bit_size(0x01)
    9748                      .dwattr $C$DW$880, DW_AT_data_member_location[DW_OP_plus_uconst 0x0]
    9749                      .dwattr $C$DW$880, DW_AT_accessibility(DW_ACCESS_public)
    9750              
    9751              $C$DW$881       .dwtag  DW_TAG_member
    9752                      .dwattr $C$DW$881, DW_AT_type(*$C$DW$T$19)
    9753                      .dwattr $C$DW$881, DW_AT_name("rsvd1")
    9754                      .dwattr $C$DW$881, DW_AT_TI_symbol_name("_rsvd1")
    9755                      .dwattr $C$DW$881, DW_AT_bit_offset(0x00)
    9756                      .dwattr $C$DW$881, DW_AT_bit_size(0x0e)
    9757                      .dwattr $C$DW$881, DW_AT_data_member_location[DW_OP_plus_uconst 0x0]
    9758                      .dwattr $C$DW$881, DW_AT_accessibility(DW_ACCESS_public)
    9759              
    9760              $C$DW$882       .dwtag  DW_TAG_member
    9761                      .dwattr $C$DW$882, DW_AT_type(*$C$DW$T$19)
    9762                      .dwattr $C$DW$882, DW_AT_name("KEY")
    9763                      .dwattr $C$DW$882, DW_AT_TI_symbol_name("_KEY")
    9764                      .dwattr $C$DW$882, DW_AT_bit_offset(0x00)
    9765                      .dwattr $C$DW$882, DW_AT_bit_size(0x10)
    9766                      .dwattr $C$DW$882, DW_AT_data_member_location[DW_OP_plus_uconst 0x1]
    9767                      .dwattr $C$DW$882, DW_AT_accessibility(DW_ACCESS_public)
    9768              
    9769                      .dwendtag $C$DW$T$182
    9770              
    9771              
    9772              $C$DW$T$183     .dwtag  DW_TAG_union_type
    9773                      .dwattr $C$DW$T$183, DW_AT_name("SIMRESET_REG")
    9774                      .dwattr $C$DW$T$183, DW_AT_byte_size(0x02)
    9775              $C$DW$883       .dwtag  DW_TAG_member
    9776                      .dwattr $C$DW$883, DW_AT_type(*$C$DW$T$21)
    9777                      .dwattr $C$DW$883, DW_AT_name("all")
    9778                      .dwattr $C$DW$883, DW_AT_TI_symbol_name("_all")
    9779                      .dwattr $C$DW$883, DW_AT_data_member_location[DW_OP_plus_uconst 0x0]
    9780                      .dwattr $C$DW$883, DW_AT_accessibility(DW_ACCESS_public)
    9781              
    9782              $C$DW$884       .dwtag  DW_TAG_member
    9783                      .dwattr $C$DW$884, DW_AT_type(*$C$DW$T$182)
    9784                      .dwattr $C$DW$884, DW_AT_name("bit")
    9785                      .dwattr $C$DW$884, DW_AT_TI_symbol_name("_bit")
    9786                      .dwattr $C$DW$884, DW_AT_data_member_location[DW_OP_plus_uconst 0x0]
    9787                      .dwattr $C$DW$884, DW_AT_accessibility(DW_ACCESS_public)
    9788              
    9789                      .dwendtag $C$DW$T$183
    9790              
    9791              
    9792              $C$DW$T$184     .dwtag  DW_TAG_structure_type
    9793                      .dwattr $C$DW$T$184, DW_AT_name("SYSCLKDIVSEL_BITS")
    9794                      .dwattr $C$DW$T$184, DW_AT_byte_size(0x02)
    9795              $C$DW$885       .dwtag  DW_TAG_member
    9796                      .dwattr $C$DW$885, DW_AT_type(*$C$DW$T$19)
    9797                      .dwattr $C$DW$885, DW_AT_name("PLLSYSCLKDIV")
    9798                      .dwattr $C$DW$885, DW_AT_TI_symbol_name("_PLLSYSCLKDIV")
TMS320C2000 Assembler PC v22.6.1 Wed May 21 09:51:55 2025

Copyright (c) 1996-2018 Texas Instruments Incorporated
C:\Users\Daniel\AppData\Local\Temp\{78ED34F4-3C3B-4D89-8F5D-B64BD43A86E6} PAGE  183

    9799                      .dwattr $C$DW$885, DW_AT_bit_offset(0x0a)
    9800                      .dwattr $C$DW$885, DW_AT_bit_size(0x06)
    9801                      .dwattr $C$DW$885, DW_AT_data_member_location[DW_OP_plus_uconst 0x0]
    9802                      .dwattr $C$DW$885, DW_AT_accessibility(DW_ACCESS_public)
    9803              
    9804              $C$DW$886       .dwtag  DW_TAG_member
    9805                      .dwattr $C$DW$886, DW_AT_type(*$C$DW$T$19)
    9806                      .dwattr $C$DW$886, DW_AT_name("rsvd1")
    9807                      .dwattr $C$DW$886, DW_AT_TI_symbol_name("_rsvd1")
    9808                      .dwattr $C$DW$886, DW_AT_bit_offset(0x08)
    9809                      .dwattr $C$DW$886, DW_AT_bit_size(0x02)
    9810                      .dwattr $C$DW$886, DW_AT_data_member_location[DW_OP_plus_uconst 0x0]
    9811                      .dwattr $C$DW$886, DW_AT_accessibility(DW_ACCESS_public)
    9812              
    9813              $C$DW$887       .dwtag  DW_TAG_member
    9814                      .dwattr $C$DW$887, DW_AT_type(*$C$DW$T$19)
    9815                      .dwattr $C$DW$887, DW_AT_name("PLLSYSCLKDIV_LSB")
    9816                      .dwattr $C$DW$887, DW_AT_TI_symbol_name("_PLLSYSCLKDIV_LSB")
    9817                      .dwattr $C$DW$887, DW_AT_bit_offset(0x07)
    9818                      .dwattr $C$DW$887, DW_AT_bit_size(0x01)
    9819                      .dwattr $C$DW$887, DW_AT_data_member_location[DW_OP_plus_uconst 0x0]
    9820                      .dwattr $C$DW$887, DW_AT_accessibility(DW_ACCESS_public)
    9821              
    9822              $C$DW$888       .dwtag  DW_TAG_member
    9823                      .dwattr $C$DW$888, DW_AT_type(*$C$DW$T$19)
    9824                      .dwattr $C$DW$888, DW_AT_name("rsvd2")
    9825                      .dwattr $C$DW$888, DW_AT_TI_symbol_name("_rsvd2")
    9826                      .dwattr $C$DW$888, DW_AT_bit_offset(0x00)
    9827                      .dwattr $C$DW$888, DW_AT_bit_size(0x07)
    9828                      .dwattr $C$DW$888, DW_AT_data_member_location[DW_OP_plus_uconst 0x0]
    9829                      .dwattr $C$DW$888, DW_AT_accessibility(DW_ACCESS_public)
    9830              
    9831              $C$DW$889       .dwtag  DW_TAG_member
    9832                      .dwattr $C$DW$889, DW_AT_type(*$C$DW$T$19)
    9833                      .dwattr $C$DW$889, DW_AT_name("rsvd3")
    9834                      .dwattr $C$DW$889, DW_AT_TI_symbol_name("_rsvd3")
    9835                      .dwattr $C$DW$889, DW_AT_bit_offset(0x00)
    9836                      .dwattr $C$DW$889, DW_AT_bit_size(0x10)
    9837                      .dwattr $C$DW$889, DW_AT_data_member_location[DW_OP_plus_uconst 0x1]
    9838                      .dwattr $C$DW$889, DW_AT_accessibility(DW_ACCESS_public)
    9839              
    9840                      .dwendtag $C$DW$T$184
    9841              
    9842              
    9843              $C$DW$T$185     .dwtag  DW_TAG_union_type
    9844                      .dwattr $C$DW$T$185, DW_AT_name("SYSCLKDIVSEL_REG")
    9845                      .dwattr $C$DW$T$185, DW_AT_byte_size(0x02)
    9846              $C$DW$890       .dwtag  DW_TAG_member
    9847                      .dwattr $C$DW$890, DW_AT_type(*$C$DW$T$21)
    9848                      .dwattr $C$DW$890, DW_AT_name("all")
    9849                      .dwattr $C$DW$890, DW_AT_TI_symbol_name("_all")
    9850                      .dwattr $C$DW$890, DW_AT_data_member_location[DW_OP_plus_uconst 0x0]
    9851                      .dwattr $C$DW$890, DW_AT_accessibility(DW_ACCESS_public)
    9852              
    9853              $C$DW$891       .dwtag  DW_TAG_member
TMS320C2000 Assembler PC v22.6.1 Wed May 21 09:51:55 2025

Copyright (c) 1996-2018 Texas Instruments Incorporated
C:\Users\Daniel\AppData\Local\Temp\{78ED34F4-3C3B-4D89-8F5D-B64BD43A86E6} PAGE  184

    9854                      .dwattr $C$DW$891, DW_AT_type(*$C$DW$T$184)
    9855                      .dwattr $C$DW$891, DW_AT_name("bit")
    9856                      .dwattr $C$DW$891, DW_AT_TI_symbol_name("_bit")
    9857                      .dwattr $C$DW$891, DW_AT_data_member_location[DW_OP_plus_uconst 0x0]
    9858                      .dwattr $C$DW$891, DW_AT_accessibility(DW_ACCESS_public)
    9859              
    9860                      .dwendtag $C$DW$T$185
    9861              
    9862              
    9863              $C$DW$T$186     .dwtag  DW_TAG_structure_type
    9864                      .dwattr $C$DW$T$186, DW_AT_name("SYSPLLCTL1_BITS")
    9865                      .dwattr $C$DW$T$186, DW_AT_byte_size(0x02)
    9866              $C$DW$892       .dwtag  DW_TAG_member
    9867                      .dwattr $C$DW$892, DW_AT_type(*$C$DW$T$19)
    9868                      .dwattr $C$DW$892, DW_AT_name("PLLEN")
    9869                      .dwattr $C$DW$892, DW_AT_TI_symbol_name("_PLLEN")
    9870                      .dwattr $C$DW$892, DW_AT_bit_offset(0x0f)
    9871                      .dwattr $C$DW$892, DW_AT_bit_size(0x01)
    9872                      .dwattr $C$DW$892, DW_AT_data_member_location[DW_OP_plus_uconst 0x0]
    9873                      .dwattr $C$DW$892, DW_AT_accessibility(DW_ACCESS_public)
    9874              
    9875              $C$DW$893       .dwtag  DW_TAG_member
    9876                      .dwattr $C$DW$893, DW_AT_type(*$C$DW$T$19)
    9877                      .dwattr $C$DW$893, DW_AT_name("PLLCLKEN")
    9878                      .dwattr $C$DW$893, DW_AT_TI_symbol_name("_PLLCLKEN")
    9879                      .dwattr $C$DW$893, DW_AT_bit_offset(0x0e)
    9880                      .dwattr $C$DW$893, DW_AT_bit_size(0x01)
    9881                      .dwattr $C$DW$893, DW_AT_data_member_location[DW_OP_plus_uconst 0x0]
    9882                      .dwattr $C$DW$893, DW_AT_accessibility(DW_ACCESS_public)
    9883              
    9884              $C$DW$894       .dwtag  DW_TAG_member
    9885                      .dwattr $C$DW$894, DW_AT_type(*$C$DW$T$19)
    9886                      .dwattr $C$DW$894, DW_AT_name("rsvd1")
    9887                      .dwattr $C$DW$894, DW_AT_TI_symbol_name("_rsvd1")
    9888                      .dwattr $C$DW$894, DW_AT_bit_offset(0x0d)
    9889                      .dwattr $C$DW$894, DW_AT_bit_size(0x01)
    9890                      .dwattr $C$DW$894, DW_AT_data_member_location[DW_OP_plus_uconst 0x0]
    9891                      .dwattr $C$DW$894, DW_AT_accessibility(DW_ACCESS_public)
    9892              
    9893              $C$DW$895       .dwtag  DW_TAG_member
    9894                      .dwattr $C$DW$895, DW_AT_type(*$C$DW$T$19)
    9895                      .dwattr $C$DW$895, DW_AT_name("rsvd2")
    9896                      .dwattr $C$DW$895, DW_AT_TI_symbol_name("_rsvd2")
    9897                      .dwattr $C$DW$895, DW_AT_bit_offset(0x0c)
    9898                      .dwattr $C$DW$895, DW_AT_bit_size(0x01)
    9899                      .dwattr $C$DW$895, DW_AT_data_member_location[DW_OP_plus_uconst 0x0]
    9900                      .dwattr $C$DW$895, DW_AT_accessibility(DW_ACCESS_public)
    9901              
    9902              $C$DW$896       .dwtag  DW_TAG_member
    9903                      .dwattr $C$DW$896, DW_AT_type(*$C$DW$T$19)
    9904                      .dwattr $C$DW$896, DW_AT_name("rsvd3")
    9905                      .dwattr $C$DW$896, DW_AT_TI_symbol_name("_rsvd3")
    9906                      .dwattr $C$DW$896, DW_AT_bit_offset(0x0b)
    9907                      .dwattr $C$DW$896, DW_AT_bit_size(0x01)
    9908                      .dwattr $C$DW$896, DW_AT_data_member_location[DW_OP_plus_uconst 0x0]
TMS320C2000 Assembler PC v22.6.1 Wed May 21 09:51:55 2025

Copyright (c) 1996-2018 Texas Instruments Incorporated
C:\Users\Daniel\AppData\Local\Temp\{78ED34F4-3C3B-4D89-8F5D-B64BD43A86E6} PAGE  185

    9909                      .dwattr $C$DW$896, DW_AT_accessibility(DW_ACCESS_public)
    9910              
    9911              $C$DW$897       .dwtag  DW_TAG_member
    9912                      .dwattr $C$DW$897, DW_AT_type(*$C$DW$T$19)
    9913                      .dwattr $C$DW$897, DW_AT_name("rsvd4")
    9914                      .dwattr $C$DW$897, DW_AT_TI_symbol_name("_rsvd4")
    9915                      .dwattr $C$DW$897, DW_AT_bit_offset(0x0a)
    9916                      .dwattr $C$DW$897, DW_AT_bit_size(0x01)
    9917                      .dwattr $C$DW$897, DW_AT_data_member_location[DW_OP_plus_uconst 0x0]
    9918                      .dwattr $C$DW$897, DW_AT_accessibility(DW_ACCESS_public)
    9919              
    9920              $C$DW$898       .dwtag  DW_TAG_member
    9921                      .dwattr $C$DW$898, DW_AT_type(*$C$DW$T$19)
    9922                      .dwattr $C$DW$898, DW_AT_name("rsvd5")
    9923                      .dwattr $C$DW$898, DW_AT_TI_symbol_name("_rsvd5")
    9924                      .dwattr $C$DW$898, DW_AT_bit_offset(0x00)
    9925                      .dwattr $C$DW$898, DW_AT_bit_size(0x0a)
    9926                      .dwattr $C$DW$898, DW_AT_data_member_location[DW_OP_plus_uconst 0x0]
    9927                      .dwattr $C$DW$898, DW_AT_accessibility(DW_ACCESS_public)
    9928              
    9929              $C$DW$899       .dwtag  DW_TAG_member
    9930                      .dwattr $C$DW$899, DW_AT_type(*$C$DW$T$19)
    9931                      .dwattr $C$DW$899, DW_AT_name("rsvd6")
    9932                      .dwattr $C$DW$899, DW_AT_TI_symbol_name("_rsvd6")
    9933                      .dwattr $C$DW$899, DW_AT_bit_offset(0x00)
    9934                      .dwattr $C$DW$899, DW_AT_bit_size(0x10)
    9935                      .dwattr $C$DW$899, DW_AT_data_member_location[DW_OP_plus_uconst 0x1]
    9936                      .dwattr $C$DW$899, DW_AT_accessibility(DW_ACCESS_public)
    9937              
    9938                      .dwendtag $C$DW$T$186
    9939              
    9940              
    9941              $C$DW$T$187     .dwtag  DW_TAG_union_type
    9942                      .dwattr $C$DW$T$187, DW_AT_name("SYSPLLCTL1_REG")
    9943                      .dwattr $C$DW$T$187, DW_AT_byte_size(0x02)
    9944              $C$DW$900       .dwtag  DW_TAG_member
    9945                      .dwattr $C$DW$900, DW_AT_type(*$C$DW$T$21)
    9946                      .dwattr $C$DW$900, DW_AT_name("all")
    9947                      .dwattr $C$DW$900, DW_AT_TI_symbol_name("_all")
    9948                      .dwattr $C$DW$900, DW_AT_data_member_location[DW_OP_plus_uconst 0x0]
    9949                      .dwattr $C$DW$900, DW_AT_accessibility(DW_ACCESS_public)
    9950              
    9951              $C$DW$901       .dwtag  DW_TAG_member
    9952                      .dwattr $C$DW$901, DW_AT_type(*$C$DW$T$186)
    9953                      .dwattr $C$DW$901, DW_AT_name("bit")
    9954                      .dwattr $C$DW$901, DW_AT_TI_symbol_name("_bit")
    9955                      .dwattr $C$DW$901, DW_AT_data_member_location[DW_OP_plus_uconst 0x0]
    9956                      .dwattr $C$DW$901, DW_AT_accessibility(DW_ACCESS_public)
    9957              
    9958                      .dwendtag $C$DW$T$187
    9959              
    9960              
    9961              $C$DW$T$188     .dwtag  DW_TAG_structure_type
    9962                      .dwattr $C$DW$T$188, DW_AT_name("SYSPLLMULT_BITS")
    9963                      .dwattr $C$DW$T$188, DW_AT_byte_size(0x02)
TMS320C2000 Assembler PC v22.6.1 Wed May 21 09:51:55 2025

Copyright (c) 1996-2018 Texas Instruments Incorporated
C:\Users\Daniel\AppData\Local\Temp\{78ED34F4-3C3B-4D89-8F5D-B64BD43A86E6} PAGE  186

    9964              $C$DW$902       .dwtag  DW_TAG_member
    9965                      .dwattr $C$DW$902, DW_AT_type(*$C$DW$T$19)
    9966                      .dwattr $C$DW$902, DW_AT_name("IMULT")
    9967                      .dwattr $C$DW$902, DW_AT_TI_symbol_name("_IMULT")
    9968                      .dwattr $C$DW$902, DW_AT_bit_offset(0x08)
    9969                      .dwattr $C$DW$902, DW_AT_bit_size(0x08)
    9970                      .dwattr $C$DW$902, DW_AT_data_member_location[DW_OP_plus_uconst 0x0]
    9971                      .dwattr $C$DW$902, DW_AT_accessibility(DW_ACCESS_public)
    9972              
    9973              $C$DW$903       .dwtag  DW_TAG_member
    9974                      .dwattr $C$DW$903, DW_AT_type(*$C$DW$T$19)
    9975                      .dwattr $C$DW$903, DW_AT_name("rsvd1")
    9976                      .dwattr $C$DW$903, DW_AT_TI_symbol_name("_rsvd1")
    9977                      .dwattr $C$DW$903, DW_AT_bit_offset(0x06)
    9978                      .dwattr $C$DW$903, DW_AT_bit_size(0x02)
    9979                      .dwattr $C$DW$903, DW_AT_data_member_location[DW_OP_plus_uconst 0x0]
    9980                      .dwattr $C$DW$903, DW_AT_accessibility(DW_ACCESS_public)
    9981              
    9982              $C$DW$904       .dwtag  DW_TAG_member
    9983                      .dwattr $C$DW$904, DW_AT_type(*$C$DW$T$19)
    9984                      .dwattr $C$DW$904, DW_AT_name("rsvd2")
    9985                      .dwattr $C$DW$904, DW_AT_TI_symbol_name("_rsvd2")
    9986                      .dwattr $C$DW$904, DW_AT_bit_offset(0x04)
    9987                      .dwattr $C$DW$904, DW_AT_bit_size(0x02)
    9988                      .dwattr $C$DW$904, DW_AT_data_member_location[DW_OP_plus_uconst 0x0]
    9989                      .dwattr $C$DW$904, DW_AT_accessibility(DW_ACCESS_public)
    9990              
    9991              $C$DW$905       .dwtag  DW_TAG_member
    9992                      .dwattr $C$DW$905, DW_AT_type(*$C$DW$T$19)
    9993                      .dwattr $C$DW$905, DW_AT_name("rsvd3")
    9994                      .dwattr $C$DW$905, DW_AT_TI_symbol_name("_rsvd3")
    9995                      .dwattr $C$DW$905, DW_AT_bit_offset(0x02)
    9996                      .dwattr $C$DW$905, DW_AT_bit_size(0x02)
    9997                      .dwattr $C$DW$905, DW_AT_data_member_location[DW_OP_plus_uconst 0x0]
    9998                      .dwattr $C$DW$905, DW_AT_accessibility(DW_ACCESS_public)
    9999              
   10000              $C$DW$906       .dwtag  DW_TAG_member
   10001                      .dwattr $C$DW$906, DW_AT_type(*$C$DW$T$19)
   10002                      .dwattr $C$DW$906, DW_AT_name("rsvd4")
   10003                      .dwattr $C$DW$906, DW_AT_TI_symbol_name("_rsvd4")
   10004                      .dwattr $C$DW$906, DW_AT_bit_offset(0x00)
   10005                      .dwattr $C$DW$906, DW_AT_bit_size(0x02)
   10006                      .dwattr $C$DW$906, DW_AT_data_member_location[DW_OP_plus_uconst 0x0]
   10007                      .dwattr $C$DW$906, DW_AT_accessibility(DW_ACCESS_public)
   10008              
   10009              $C$DW$907       .dwtag  DW_TAG_member
   10010                      .dwattr $C$DW$907, DW_AT_type(*$C$DW$T$19)
   10011                      .dwattr $C$DW$907, DW_AT_name("ODIV")
   10012                      .dwattr $C$DW$907, DW_AT_TI_symbol_name("_ODIV")
   10013                      .dwattr $C$DW$907, DW_AT_bit_offset(0x0b)
   10014                      .dwattr $C$DW$907, DW_AT_bit_size(0x05)
   10015                      .dwattr $C$DW$907, DW_AT_data_member_location[DW_OP_plus_uconst 0x1]
   10016                      .dwattr $C$DW$907, DW_AT_accessibility(DW_ACCESS_public)
   10017              
   10018              $C$DW$908       .dwtag  DW_TAG_member
TMS320C2000 Assembler PC v22.6.1 Wed May 21 09:51:55 2025

Copyright (c) 1996-2018 Texas Instruments Incorporated
C:\Users\Daniel\AppData\Local\Temp\{78ED34F4-3C3B-4D89-8F5D-B64BD43A86E6} PAGE  187

   10019                      .dwattr $C$DW$908, DW_AT_type(*$C$DW$T$19)
   10020                      .dwattr $C$DW$908, DW_AT_name("rsvd5")
   10021                      .dwattr $C$DW$908, DW_AT_TI_symbol_name("_rsvd5")
   10022                      .dwattr $C$DW$908, DW_AT_bit_offset(0x08)
   10023                      .dwattr $C$DW$908, DW_AT_bit_size(0x03)
   10024                      .dwattr $C$DW$908, DW_AT_data_member_location[DW_OP_plus_uconst 0x1]
   10025                      .dwattr $C$DW$908, DW_AT_accessibility(DW_ACCESS_public)
   10026              
   10027              $C$DW$909       .dwtag  DW_TAG_member
   10028                      .dwattr $C$DW$909, DW_AT_type(*$C$DW$T$19)
   10029                      .dwattr $C$DW$909, DW_AT_name("REFDIV")
   10030                      .dwattr $C$DW$909, DW_AT_TI_symbol_name("_REFDIV")
   10031                      .dwattr $C$DW$909, DW_AT_bit_offset(0x03)
   10032                      .dwattr $C$DW$909, DW_AT_bit_size(0x05)
   10033                      .dwattr $C$DW$909, DW_AT_data_member_location[DW_OP_plus_uconst 0x1]
   10034                      .dwattr $C$DW$909, DW_AT_accessibility(DW_ACCESS_public)
   10035              
   10036              $C$DW$910       .dwtag  DW_TAG_member
   10037                      .dwattr $C$DW$910, DW_AT_type(*$C$DW$T$19)
   10038                      .dwattr $C$DW$910, DW_AT_name("rsvd6")
   10039                      .dwattr $C$DW$910, DW_AT_TI_symbol_name("_rsvd6")
   10040                      .dwattr $C$DW$910, DW_AT_bit_offset(0x00)
   10041                      .dwattr $C$DW$910, DW_AT_bit_size(0x03)
   10042                      .dwattr $C$DW$910, DW_AT_data_member_location[DW_OP_plus_uconst 0x1]
   10043                      .dwattr $C$DW$910, DW_AT_accessibility(DW_ACCESS_public)
   10044              
   10045                      .dwendtag $C$DW$T$188
   10046              
   10047              
   10048              $C$DW$T$189     .dwtag  DW_TAG_union_type
   10049                      .dwattr $C$DW$T$189, DW_AT_name("SYSPLLMULT_REG")
   10050                      .dwattr $C$DW$T$189, DW_AT_byte_size(0x02)
   10051              $C$DW$911       .dwtag  DW_TAG_member
   10052                      .dwattr $C$DW$911, DW_AT_type(*$C$DW$T$21)
   10053                      .dwattr $C$DW$911, DW_AT_name("all")
   10054                      .dwattr $C$DW$911, DW_AT_TI_symbol_name("_all")
   10055                      .dwattr $C$DW$911, DW_AT_data_member_location[DW_OP_plus_uconst 0x0]
   10056                      .dwattr $C$DW$911, DW_AT_accessibility(DW_ACCESS_public)
   10057              
   10058              $C$DW$912       .dwtag  DW_TAG_member
   10059                      .dwattr $C$DW$912, DW_AT_type(*$C$DW$T$188)
   10060                      .dwattr $C$DW$912, DW_AT_name("bit")
   10061                      .dwattr $C$DW$912, DW_AT_TI_symbol_name("_bit")
   10062                      .dwattr $C$DW$912, DW_AT_data_member_location[DW_OP_plus_uconst 0x0]
   10063                      .dwattr $C$DW$912, DW_AT_accessibility(DW_ACCESS_public)
   10064              
   10065                      .dwendtag $C$DW$T$189
   10066              
   10067              
   10068              $C$DW$T$190     .dwtag  DW_TAG_structure_type
   10069                      .dwattr $C$DW$T$190, DW_AT_name("SYSPLLSTS_BITS")
   10070                      .dwattr $C$DW$T$190, DW_AT_byte_size(0x02)
   10071              $C$DW$913       .dwtag  DW_TAG_member
   10072                      .dwattr $C$DW$913, DW_AT_type(*$C$DW$T$19)
   10073                      .dwattr $C$DW$913, DW_AT_name("LOCKS")
TMS320C2000 Assembler PC v22.6.1 Wed May 21 09:51:55 2025

Copyright (c) 1996-2018 Texas Instruments Incorporated
C:\Users\Daniel\AppData\Local\Temp\{78ED34F4-3C3B-4D89-8F5D-B64BD43A86E6} PAGE  188

   10074                      .dwattr $C$DW$913, DW_AT_TI_symbol_name("_LOCKS")
   10075                      .dwattr $C$DW$913, DW_AT_bit_offset(0x0f)
   10076                      .dwattr $C$DW$913, DW_AT_bit_size(0x01)
   10077                      .dwattr $C$DW$913, DW_AT_data_member_location[DW_OP_plus_uconst 0x0]
   10078                      .dwattr $C$DW$913, DW_AT_accessibility(DW_ACCESS_public)
   10079              
   10080              $C$DW$914       .dwtag  DW_TAG_member
   10081                      .dwattr $C$DW$914, DW_AT_type(*$C$DW$T$19)
   10082                      .dwattr $C$DW$914, DW_AT_name("SLIPS")
   10083                      .dwattr $C$DW$914, DW_AT_TI_symbol_name("_SLIPS")
   10084                      .dwattr $C$DW$914, DW_AT_bit_offset(0x0e)
   10085                      .dwattr $C$DW$914, DW_AT_bit_size(0x01)
   10086                      .dwattr $C$DW$914, DW_AT_data_member_location[DW_OP_plus_uconst 0x0]
   10087                      .dwattr $C$DW$914, DW_AT_accessibility(DW_ACCESS_public)
   10088              
   10089              $C$DW$915       .dwtag  DW_TAG_member
   10090                      .dwattr $C$DW$915, DW_AT_type(*$C$DW$T$19)
   10091                      .dwattr $C$DW$915, DW_AT_name("rsvd1")
   10092                      .dwattr $C$DW$915, DW_AT_TI_symbol_name("_rsvd1")
   10093                      .dwattr $C$DW$915, DW_AT_bit_offset(0x0d)
   10094                      .dwattr $C$DW$915, DW_AT_bit_size(0x01)
   10095                      .dwattr $C$DW$915, DW_AT_data_member_location[DW_OP_plus_uconst 0x0]
   10096                      .dwattr $C$DW$915, DW_AT_accessibility(DW_ACCESS_public)
   10097              
   10098              $C$DW$916       .dwtag  DW_TAG_member
   10099                      .dwattr $C$DW$916, DW_AT_type(*$C$DW$T$19)
   10100                      .dwattr $C$DW$916, DW_AT_name("rsvd2")
   10101                      .dwattr $C$DW$916, DW_AT_TI_symbol_name("_rsvd2")
   10102                      .dwattr $C$DW$916, DW_AT_bit_offset(0x0c)
   10103                      .dwattr $C$DW$916, DW_AT_bit_size(0x01)
   10104                      .dwattr $C$DW$916, DW_AT_data_member_location[DW_OP_plus_uconst 0x0]
   10105                      .dwattr $C$DW$916, DW_AT_accessibility(DW_ACCESS_public)
   10106              
   10107              $C$DW$917       .dwtag  DW_TAG_member
   10108                      .dwattr $C$DW$917, DW_AT_type(*$C$DW$T$19)
   10109                      .dwattr $C$DW$917, DW_AT_name("rsvd3")
   10110                      .dwattr $C$DW$917, DW_AT_TI_symbol_name("_rsvd3")
   10111                      .dwattr $C$DW$917, DW_AT_bit_offset(0x0b)
   10112                      .dwattr $C$DW$917, DW_AT_bit_size(0x01)
   10113                      .dwattr $C$DW$917, DW_AT_data_member_location[DW_OP_plus_uconst 0x0]
   10114                      .dwattr $C$DW$917, DW_AT_accessibility(DW_ACCESS_public)
   10115              
   10116              $C$DW$918       .dwtag  DW_TAG_member
   10117                      .dwattr $C$DW$918, DW_AT_type(*$C$DW$T$19)
   10118                      .dwattr $C$DW$918, DW_AT_name("rsvd4")
   10119                      .dwattr $C$DW$918, DW_AT_TI_symbol_name("_rsvd4")
   10120                      .dwattr $C$DW$918, DW_AT_bit_offset(0x0a)
   10121                      .dwattr $C$DW$918, DW_AT_bit_size(0x01)
   10122                      .dwattr $C$DW$918, DW_AT_data_member_location[DW_OP_plus_uconst 0x0]
   10123                      .dwattr $C$DW$918, DW_AT_accessibility(DW_ACCESS_public)
   10124              
   10125              $C$DW$919       .dwtag  DW_TAG_member
   10126                      .dwattr $C$DW$919, DW_AT_type(*$C$DW$T$19)
   10127                      .dwattr $C$DW$919, DW_AT_name("rsvd5")
   10128                      .dwattr $C$DW$919, DW_AT_TI_symbol_name("_rsvd5")
TMS320C2000 Assembler PC v22.6.1 Wed May 21 09:51:55 2025

Copyright (c) 1996-2018 Texas Instruments Incorporated
C:\Users\Daniel\AppData\Local\Temp\{78ED34F4-3C3B-4D89-8F5D-B64BD43A86E6} PAGE  189

   10129                      .dwattr $C$DW$919, DW_AT_bit_offset(0x00)
   10130                      .dwattr $C$DW$919, DW_AT_bit_size(0x0a)
   10131                      .dwattr $C$DW$919, DW_AT_data_member_location[DW_OP_plus_uconst 0x0]
   10132                      .dwattr $C$DW$919, DW_AT_accessibility(DW_ACCESS_public)
   10133              
   10134              $C$DW$920       .dwtag  DW_TAG_member
   10135                      .dwattr $C$DW$920, DW_AT_type(*$C$DW$T$19)
   10136                      .dwattr $C$DW$920, DW_AT_name("rsvd6")
   10137                      .dwattr $C$DW$920, DW_AT_TI_symbol_name("_rsvd6")
   10138                      .dwattr $C$DW$920, DW_AT_bit_offset(0x00)
   10139                      .dwattr $C$DW$920, DW_AT_bit_size(0x10)
   10140                      .dwattr $C$DW$920, DW_AT_data_member_location[DW_OP_plus_uconst 0x1]
   10141                      .dwattr $C$DW$920, DW_AT_accessibility(DW_ACCESS_public)
   10142              
   10143                      .dwendtag $C$DW$T$190
   10144              
   10145              
   10146              $C$DW$T$191     .dwtag  DW_TAG_union_type
   10147                      .dwattr $C$DW$T$191, DW_AT_name("SYSPLLSTS_REG")
   10148                      .dwattr $C$DW$T$191, DW_AT_byte_size(0x02)
   10149              $C$DW$921       .dwtag  DW_TAG_member
   10150                      .dwattr $C$DW$921, DW_AT_type(*$C$DW$T$21)
   10151                      .dwattr $C$DW$921, DW_AT_name("all")
   10152                      .dwattr $C$DW$921, DW_AT_TI_symbol_name("_all")
   10153                      .dwattr $C$DW$921, DW_AT_data_member_location[DW_OP_plus_uconst 0x0]
   10154                      .dwattr $C$DW$921, DW_AT_accessibility(DW_ACCESS_public)
   10155              
   10156              $C$DW$922       .dwtag  DW_TAG_member
   10157                      .dwattr $C$DW$922, DW_AT_type(*$C$DW$T$190)
   10158                      .dwattr $C$DW$922, DW_AT_name("bit")
   10159                      .dwattr $C$DW$922, DW_AT_TI_symbol_name("_bit")
   10160                      .dwattr $C$DW$922, DW_AT_data_member_location[DW_OP_plus_uconst 0x0]
   10161                      .dwattr $C$DW$922, DW_AT_accessibility(DW_ACCESS_public)
   10162              
   10163                      .dwendtag $C$DW$T$191
   10164              
   10165              
   10166              $C$DW$T$192     .dwtag  DW_TAG_structure_type
   10167                      .dwattr $C$DW$T$192, DW_AT_name("TMR2CLKCTL_BITS")
   10168                      .dwattr $C$DW$T$192, DW_AT_byte_size(0x02)
   10169              $C$DW$923       .dwtag  DW_TAG_member
   10170                      .dwattr $C$DW$923, DW_AT_type(*$C$DW$T$19)
   10171                      .dwattr $C$DW$923, DW_AT_name("TMR2CLKSRCSEL")
   10172                      .dwattr $C$DW$923, DW_AT_TI_symbol_name("_TMR2CLKSRCSEL")
   10173                      .dwattr $C$DW$923, DW_AT_bit_offset(0x0d)
   10174                      .dwattr $C$DW$923, DW_AT_bit_size(0x03)
   10175                      .dwattr $C$DW$923, DW_AT_data_member_location[DW_OP_plus_uconst 0x0]
   10176                      .dwattr $C$DW$923, DW_AT_accessibility(DW_ACCESS_public)
   10177              
   10178              $C$DW$924       .dwtag  DW_TAG_member
   10179                      .dwattr $C$DW$924, DW_AT_type(*$C$DW$T$19)
   10180                      .dwattr $C$DW$924, DW_AT_name("TMR2CLKPRESCALE")
   10181                      .dwattr $C$DW$924, DW_AT_TI_symbol_name("_TMR2CLKPRESCALE")
   10182                      .dwattr $C$DW$924, DW_AT_bit_offset(0x0a)
   10183                      .dwattr $C$DW$924, DW_AT_bit_size(0x03)
TMS320C2000 Assembler PC v22.6.1 Wed May 21 09:51:55 2025

Copyright (c) 1996-2018 Texas Instruments Incorporated
C:\Users\Daniel\AppData\Local\Temp\{78ED34F4-3C3B-4D89-8F5D-B64BD43A86E6} PAGE  190

   10184                      .dwattr $C$DW$924, DW_AT_data_member_location[DW_OP_plus_uconst 0x0]
   10185                      .dwattr $C$DW$924, DW_AT_accessibility(DW_ACCESS_public)
   10186              
   10187              $C$DW$925       .dwtag  DW_TAG_member
   10188                      .dwattr $C$DW$925, DW_AT_type(*$C$DW$T$19)
   10189                      .dwattr $C$DW$925, DW_AT_name("rsvd1")
   10190                      .dwattr $C$DW$925, DW_AT_TI_symbol_name("_rsvd1")
   10191                      .dwattr $C$DW$925, DW_AT_bit_offset(0x00)
   10192                      .dwattr $C$DW$925, DW_AT_bit_size(0x0a)
   10193                      .dwattr $C$DW$925, DW_AT_data_member_location[DW_OP_plus_uconst 0x0]
   10194                      .dwattr $C$DW$925, DW_AT_accessibility(DW_ACCESS_public)
   10195              
   10196              $C$DW$926       .dwtag  DW_TAG_member
   10197                      .dwattr $C$DW$926, DW_AT_type(*$C$DW$T$19)
   10198                      .dwattr $C$DW$926, DW_AT_name("rsvd2")
   10199                      .dwattr $C$DW$926, DW_AT_TI_symbol_name("_rsvd2")
   10200                      .dwattr $C$DW$926, DW_AT_bit_offset(0x00)
   10201                      .dwattr $C$DW$926, DW_AT_bit_size(0x10)
   10202                      .dwattr $C$DW$926, DW_AT_data_member_location[DW_OP_plus_uconst 0x1]
   10203                      .dwattr $C$DW$926, DW_AT_accessibility(DW_ACCESS_public)
   10204              
   10205                      .dwendtag $C$DW$T$192
   10206              
   10207              
   10208              $C$DW$T$193     .dwtag  DW_TAG_union_type
   10209                      .dwattr $C$DW$T$193, DW_AT_name("TMR2CLKCTL_REG")
   10210                      .dwattr $C$DW$T$193, DW_AT_byte_size(0x02)
   10211              $C$DW$927       .dwtag  DW_TAG_member
   10212                      .dwattr $C$DW$927, DW_AT_type(*$C$DW$T$21)
   10213                      .dwattr $C$DW$927, DW_AT_name("all")
   10214                      .dwattr $C$DW$927, DW_AT_TI_symbol_name("_all")
   10215                      .dwattr $C$DW$927, DW_AT_data_member_location[DW_OP_plus_uconst 0x0]
   10216                      .dwattr $C$DW$927, DW_AT_accessibility(DW_ACCESS_public)
   10217              
   10218              $C$DW$928       .dwtag  DW_TAG_member
   10219                      .dwattr $C$DW$928, DW_AT_type(*$C$DW$T$192)
   10220                      .dwattr $C$DW$928, DW_AT_name("bit")
   10221                      .dwattr $C$DW$928, DW_AT_TI_symbol_name("_bit")
   10222                      .dwattr $C$DW$928, DW_AT_data_member_location[DW_OP_plus_uconst 0x0]
   10223                      .dwattr $C$DW$928, DW_AT_accessibility(DW_ACCESS_public)
   10224              
   10225                      .dwendtag $C$DW$T$193
   10226              
   10227              
   10228              $C$DW$T$194     .dwtag  DW_TAG_structure_type
   10229                      .dwattr $C$DW$T$194, DW_AT_name("WDCNTR_BITS")
   10230                      .dwattr $C$DW$T$194, DW_AT_byte_size(0x01)
   10231              $C$DW$929       .dwtag  DW_TAG_member
   10232                      .dwattr $C$DW$929, DW_AT_type(*$C$DW$T$19)
   10233                      .dwattr $C$DW$929, DW_AT_name("WDCNTR")
   10234                      .dwattr $C$DW$929, DW_AT_TI_symbol_name("_WDCNTR")
   10235                      .dwattr $C$DW$929, DW_AT_bit_offset(0x08)
   10236                      .dwattr $C$DW$929, DW_AT_bit_size(0x08)
   10237                      .dwattr $C$DW$929, DW_AT_data_member_location[DW_OP_plus_uconst 0x0]
   10238                      .dwattr $C$DW$929, DW_AT_accessibility(DW_ACCESS_public)
TMS320C2000 Assembler PC v22.6.1 Wed May 21 09:51:55 2025

Copyright (c) 1996-2018 Texas Instruments Incorporated
C:\Users\Daniel\AppData\Local\Temp\{78ED34F4-3C3B-4D89-8F5D-B64BD43A86E6} PAGE  191

   10239              
   10240              $C$DW$930       .dwtag  DW_TAG_member
   10241                      .dwattr $C$DW$930, DW_AT_type(*$C$DW$T$19)
   10242                      .dwattr $C$DW$930, DW_AT_name("rsvd1")
   10243                      .dwattr $C$DW$930, DW_AT_TI_symbol_name("_rsvd1")
   10244                      .dwattr $C$DW$930, DW_AT_bit_offset(0x00)
   10245                      .dwattr $C$DW$930, DW_AT_bit_size(0x08)
   10246                      .dwattr $C$DW$930, DW_AT_data_member_location[DW_OP_plus_uconst 0x0]
   10247                      .dwattr $C$DW$930, DW_AT_accessibility(DW_ACCESS_public)
   10248              
   10249                      .dwendtag $C$DW$T$194
   10250              
   10251              
   10252              $C$DW$T$195     .dwtag  DW_TAG_union_type
   10253                      .dwattr $C$DW$T$195, DW_AT_name("WDCNTR_REG")
   10254                      .dwattr $C$DW$T$195, DW_AT_byte_size(0x01)
   10255              $C$DW$931       .dwtag  DW_TAG_member
   10256                      .dwattr $C$DW$931, DW_AT_type(*$C$DW$T$19)
   10257                      .dwattr $C$DW$931, DW_AT_name("all")
   10258                      .dwattr $C$DW$931, DW_AT_TI_symbol_name("_all")
   10259                      .dwattr $C$DW$931, DW_AT_data_member_location[DW_OP_plus_uconst 0x0]
   10260                      .dwattr $C$DW$931, DW_AT_accessibility(DW_ACCESS_public)
   10261              
   10262              $C$DW$932       .dwtag  DW_TAG_member
   10263                      .dwattr $C$DW$932, DW_AT_type(*$C$DW$T$194)
   10264                      .dwattr $C$DW$932, DW_AT_name("bit")
   10265                      .dwattr $C$DW$932, DW_AT_TI_symbol_name("_bit")
   10266                      .dwattr $C$DW$932, DW_AT_data_member_location[DW_OP_plus_uconst 0x0]
   10267                      .dwattr $C$DW$932, DW_AT_accessibility(DW_ACCESS_public)
   10268              
   10269                      .dwendtag $C$DW$T$195
   10270              
   10271              
   10272              $C$DW$T$196     .dwtag  DW_TAG_structure_type
   10273                      .dwattr $C$DW$T$196, DW_AT_name("WDCR_BITS")
   10274                      .dwattr $C$DW$T$196, DW_AT_byte_size(0x01)
   10275              $C$DW$933       .dwtag  DW_TAG_member
   10276                      .dwattr $C$DW$933, DW_AT_type(*$C$DW$T$19)
   10277                      .dwattr $C$DW$933, DW_AT_name("WDPS")
   10278                      .dwattr $C$DW$933, DW_AT_TI_symbol_name("_WDPS")
   10279                      .dwattr $C$DW$933, DW_AT_bit_offset(0x0d)
   10280                      .dwattr $C$DW$933, DW_AT_bit_size(0x03)
   10281                      .dwattr $C$DW$933, DW_AT_data_member_location[DW_OP_plus_uconst 0x0]
   10282                      .dwattr $C$DW$933, DW_AT_accessibility(DW_ACCESS_public)
   10283              
   10284              $C$DW$934       .dwtag  DW_TAG_member
   10285                      .dwattr $C$DW$934, DW_AT_type(*$C$DW$T$19)
   10286                      .dwattr $C$DW$934, DW_AT_name("WDCHK")
   10287                      .dwattr $C$DW$934, DW_AT_TI_symbol_name("_WDCHK")
   10288                      .dwattr $C$DW$934, DW_AT_bit_offset(0x0a)
   10289                      .dwattr $C$DW$934, DW_AT_bit_size(0x03)
   10290                      .dwattr $C$DW$934, DW_AT_data_member_location[DW_OP_plus_uconst 0x0]
   10291                      .dwattr $C$DW$934, DW_AT_accessibility(DW_ACCESS_public)
   10292              
   10293              $C$DW$935       .dwtag  DW_TAG_member
TMS320C2000 Assembler PC v22.6.1 Wed May 21 09:51:55 2025

Copyright (c) 1996-2018 Texas Instruments Incorporated
C:\Users\Daniel\AppData\Local\Temp\{78ED34F4-3C3B-4D89-8F5D-B64BD43A86E6} PAGE  192

   10294                      .dwattr $C$DW$935, DW_AT_type(*$C$DW$T$19)
   10295                      .dwattr $C$DW$935, DW_AT_name("WDDIS")
   10296                      .dwattr $C$DW$935, DW_AT_TI_symbol_name("_WDDIS")
   10297                      .dwattr $C$DW$935, DW_AT_bit_offset(0x09)
   10298                      .dwattr $C$DW$935, DW_AT_bit_size(0x01)
   10299                      .dwattr $C$DW$935, DW_AT_data_member_location[DW_OP_plus_uconst 0x0]
   10300                      .dwattr $C$DW$935, DW_AT_accessibility(DW_ACCESS_public)
   10301              
   10302              $C$DW$936       .dwtag  DW_TAG_member
   10303                      .dwattr $C$DW$936, DW_AT_type(*$C$DW$T$19)
   10304                      .dwattr $C$DW$936, DW_AT_name("WDFLG")
   10305                      .dwattr $C$DW$936, DW_AT_TI_symbol_name("_WDFLG")
   10306                      .dwattr $C$DW$936, DW_AT_bit_offset(0x08)
   10307                      .dwattr $C$DW$936, DW_AT_bit_size(0x01)
   10308                      .dwattr $C$DW$936, DW_AT_data_member_location[DW_OP_plus_uconst 0x0]
   10309                      .dwattr $C$DW$936, DW_AT_accessibility(DW_ACCESS_public)
   10310              
   10311              $C$DW$937       .dwtag  DW_TAG_member
   10312                      .dwattr $C$DW$937, DW_AT_type(*$C$DW$T$19)
   10313                      .dwattr $C$DW$937, DW_AT_name("WDPRECLKDIV")
   10314                      .dwattr $C$DW$937, DW_AT_TI_symbol_name("_WDPRECLKDIV")
   10315                      .dwattr $C$DW$937, DW_AT_bit_offset(0x04)
   10316                      .dwattr $C$DW$937, DW_AT_bit_size(0x04)
   10317                      .dwattr $C$DW$937, DW_AT_data_member_location[DW_OP_plus_uconst 0x0]
   10318                      .dwattr $C$DW$937, DW_AT_accessibility(DW_ACCESS_public)
   10319              
   10320              $C$DW$938       .dwtag  DW_TAG_member
   10321                      .dwattr $C$DW$938, DW_AT_type(*$C$DW$T$19)
   10322                      .dwattr $C$DW$938, DW_AT_name("rsvd1")
   10323                      .dwattr $C$DW$938, DW_AT_TI_symbol_name("_rsvd1")
   10324                      .dwattr $C$DW$938, DW_AT_bit_offset(0x00)
   10325                      .dwattr $C$DW$938, DW_AT_bit_size(0x04)
   10326                      .dwattr $C$DW$938, DW_AT_data_member_location[DW_OP_plus_uconst 0x0]
   10327                      .dwattr $C$DW$938, DW_AT_accessibility(DW_ACCESS_public)
   10328              
   10329                      .dwendtag $C$DW$T$196
   10330              
   10331              
   10332              $C$DW$T$197     .dwtag  DW_TAG_union_type
   10333                      .dwattr $C$DW$T$197, DW_AT_name("WDCR_REG")
   10334                      .dwattr $C$DW$T$197, DW_AT_byte_size(0x01)
   10335              $C$DW$939       .dwtag  DW_TAG_member
   10336                      .dwattr $C$DW$939, DW_AT_type(*$C$DW$T$19)
   10337                      .dwattr $C$DW$939, DW_AT_name("all")
   10338                      .dwattr $C$DW$939, DW_AT_TI_symbol_name("_all")
   10339                      .dwattr $C$DW$939, DW_AT_data_member_location[DW_OP_plus_uconst 0x0]
   10340                      .dwattr $C$DW$939, DW_AT_accessibility(DW_ACCESS_public)
   10341              
   10342              $C$DW$940       .dwtag  DW_TAG_member
   10343                      .dwattr $C$DW$940, DW_AT_type(*$C$DW$T$196)
   10344                      .dwattr $C$DW$940, DW_AT_name("bit")
   10345                      .dwattr $C$DW$940, DW_AT_TI_symbol_name("_bit")
   10346                      .dwattr $C$DW$940, DW_AT_data_member_location[DW_OP_plus_uconst 0x0]
   10347                      .dwattr $C$DW$940, DW_AT_accessibility(DW_ACCESS_public)
   10348              
TMS320C2000 Assembler PC v22.6.1 Wed May 21 09:51:55 2025

Copyright (c) 1996-2018 Texas Instruments Incorporated
C:\Users\Daniel\AppData\Local\Temp\{78ED34F4-3C3B-4D89-8F5D-B64BD43A86E6} PAGE  193

   10349                      .dwendtag $C$DW$T$197
   10350              
   10351              
   10352              $C$DW$T$198     .dwtag  DW_TAG_structure_type
   10353                      .dwattr $C$DW$T$198, DW_AT_name("WDKEY_BITS")
   10354                      .dwattr $C$DW$T$198, DW_AT_byte_size(0x01)
   10355              $C$DW$941       .dwtag  DW_TAG_member
   10356                      .dwattr $C$DW$941, DW_AT_type(*$C$DW$T$19)
   10357                      .dwattr $C$DW$941, DW_AT_name("WDKEY")
   10358                      .dwattr $C$DW$941, DW_AT_TI_symbol_name("_WDKEY")
   10359                      .dwattr $C$DW$941, DW_AT_bit_offset(0x08)
   10360                      .dwattr $C$DW$941, DW_AT_bit_size(0x08)
   10361                      .dwattr $C$DW$941, DW_AT_data_member_location[DW_OP_plus_uconst 0x0]
   10362                      .dwattr $C$DW$941, DW_AT_accessibility(DW_ACCESS_public)
   10363              
   10364              $C$DW$942       .dwtag  DW_TAG_member
   10365                      .dwattr $C$DW$942, DW_AT_type(*$C$DW$T$19)
   10366                      .dwattr $C$DW$942, DW_AT_name("rsvd1")
   10367                      .dwattr $C$DW$942, DW_AT_TI_symbol_name("_rsvd1")
   10368                      .dwattr $C$DW$942, DW_AT_bit_offset(0x00)
   10369                      .dwattr $C$DW$942, DW_AT_bit_size(0x08)
   10370                      .dwattr $C$DW$942, DW_AT_data_member_location[DW_OP_plus_uconst 0x0]
   10371                      .dwattr $C$DW$942, DW_AT_accessibility(DW_ACCESS_public)
   10372              
   10373                      .dwendtag $C$DW$T$198
   10374              
   10375              
   10376              $C$DW$T$199     .dwtag  DW_TAG_union_type
   10377                      .dwattr $C$DW$T$199, DW_AT_name("WDKEY_REG")
   10378                      .dwattr $C$DW$T$199, DW_AT_byte_size(0x01)
   10379              $C$DW$943       .dwtag  DW_TAG_member
   10380                      .dwattr $C$DW$943, DW_AT_type(*$C$DW$T$19)
   10381                      .dwattr $C$DW$943, DW_AT_name("all")
   10382                      .dwattr $C$DW$943, DW_AT_TI_symbol_name("_all")
   10383                      .dwattr $C$DW$943, DW_AT_data_member_location[DW_OP_plus_uconst 0x0]
   10384                      .dwattr $C$DW$943, DW_AT_accessibility(DW_ACCESS_public)
   10385              
   10386              $C$DW$944       .dwtag  DW_TAG_member
   10387                      .dwattr $C$DW$944, DW_AT_type(*$C$DW$T$198)
   10388                      .dwattr $C$DW$944, DW_AT_name("bit")
   10389                      .dwattr $C$DW$944, DW_AT_TI_symbol_name("_bit")
   10390                      .dwattr $C$DW$944, DW_AT_data_member_location[DW_OP_plus_uconst 0x0]
   10391                      .dwattr $C$DW$944, DW_AT_accessibility(DW_ACCESS_public)
   10392              
   10393                      .dwendtag $C$DW$T$199
   10394              
   10395              
   10396              $C$DW$T$200     .dwtag  DW_TAG_structure_type
   10397                      .dwattr $C$DW$T$200, DW_AT_name("WDWCR_BITS")
   10398                      .dwattr $C$DW$T$200, DW_AT_byte_size(0x01)
   10399              $C$DW$945       .dwtag  DW_TAG_member
   10400                      .dwattr $C$DW$945, DW_AT_type(*$C$DW$T$19)
   10401                      .dwattr $C$DW$945, DW_AT_name("MIN")
   10402                      .dwattr $C$DW$945, DW_AT_TI_symbol_name("_MIN")
   10403                      .dwattr $C$DW$945, DW_AT_bit_offset(0x08)
TMS320C2000 Assembler PC v22.6.1 Wed May 21 09:51:55 2025

Copyright (c) 1996-2018 Texas Instruments Incorporated
C:\Users\Daniel\AppData\Local\Temp\{78ED34F4-3C3B-4D89-8F5D-B64BD43A86E6} PAGE  194

   10404                      .dwattr $C$DW$945, DW_AT_bit_size(0x08)
   10405                      .dwattr $C$DW$945, DW_AT_data_member_location[DW_OP_plus_uconst 0x0]
   10406                      .dwattr $C$DW$945, DW_AT_accessibility(DW_ACCESS_public)
   10407              
   10408              $C$DW$946       .dwtag  DW_TAG_member
   10409                      .dwattr $C$DW$946, DW_AT_type(*$C$DW$T$19)
   10410                      .dwattr $C$DW$946, DW_AT_name("FIRSTKEY")
   10411                      .dwattr $C$DW$946, DW_AT_TI_symbol_name("_FIRSTKEY")
   10412                      .dwattr $C$DW$946, DW_AT_bit_offset(0x07)
   10413                      .dwattr $C$DW$946, DW_AT_bit_size(0x01)
   10414                      .dwattr $C$DW$946, DW_AT_data_member_location[DW_OP_plus_uconst 0x0]
   10415                      .dwattr $C$DW$946, DW_AT_accessibility(DW_ACCESS_public)
   10416              
   10417              $C$DW$947       .dwtag  DW_TAG_member
   10418                      .dwattr $C$DW$947, DW_AT_type(*$C$DW$T$19)
   10419                      .dwattr $C$DW$947, DW_AT_name("rsvd1")
   10420                      .dwattr $C$DW$947, DW_AT_TI_symbol_name("_rsvd1")
   10421                      .dwattr $C$DW$947, DW_AT_bit_offset(0x00)
   10422                      .dwattr $C$DW$947, DW_AT_bit_size(0x07)
   10423                      .dwattr $C$DW$947, DW_AT_data_member_location[DW_OP_plus_uconst 0x0]
   10424                      .dwattr $C$DW$947, DW_AT_accessibility(DW_ACCESS_public)
   10425              
   10426                      .dwendtag $C$DW$T$200
   10427              
   10428              
   10429              $C$DW$T$201     .dwtag  DW_TAG_union_type
   10430                      .dwattr $C$DW$T$201, DW_AT_name("WDWCR_REG")
   10431                      .dwattr $C$DW$T$201, DW_AT_byte_size(0x01)
   10432              $C$DW$948       .dwtag  DW_TAG_member
   10433                      .dwattr $C$DW$948, DW_AT_type(*$C$DW$T$19)
   10434                      .dwattr $C$DW$948, DW_AT_name("all")
   10435                      .dwattr $C$DW$948, DW_AT_TI_symbol_name("_all")
   10436                      .dwattr $C$DW$948, DW_AT_data_member_location[DW_OP_plus_uconst 0x0]
   10437                      .dwattr $C$DW$948, DW_AT_accessibility(DW_ACCESS_public)
   10438              
   10439              $C$DW$949       .dwtag  DW_TAG_member
   10440                      .dwattr $C$DW$949, DW_AT_type(*$C$DW$T$200)
   10441                      .dwattr $C$DW$949, DW_AT_name("bit")
   10442                      .dwattr $C$DW$949, DW_AT_TI_symbol_name("_bit")
   10443                      .dwattr $C$DW$949, DW_AT_data_member_location[DW_OP_plus_uconst 0x0]
   10444                      .dwattr $C$DW$949, DW_AT_accessibility(DW_ACCESS_public)
   10445              
   10446                      .dwendtag $C$DW$T$201
   10447              
   10448              
   10449              $C$DW$T$204     .dwtag  DW_TAG_structure_type
   10450                      .dwattr $C$DW$T$204, DW_AT_name("WD_REGS")
   10451                      .dwattr $C$DW$T$204, DW_AT_byte_size(0x2b)
   10452              $C$DW$950       .dwtag  DW_TAG_member
   10453                      .dwattr $C$DW$950, DW_AT_type(*$C$DW$T$202)
   10454                      .dwattr $C$DW$950, DW_AT_name("rsvd1")
   10455                      .dwattr $C$DW$950, DW_AT_TI_symbol_name("_rsvd1")
   10456                      .dwattr $C$DW$950, DW_AT_data_member_location[DW_OP_plus_uconst 0x0]
   10457                      .dwattr $C$DW$950, DW_AT_accessibility(DW_ACCESS_public)
   10458              
TMS320C2000 Assembler PC v22.6.1 Wed May 21 09:51:55 2025

Copyright (c) 1996-2018 Texas Instruments Incorporated
C:\Users\Daniel\AppData\Local\Temp\{78ED34F4-3C3B-4D89-8F5D-B64BD43A86E6} PAGE  195

   10459              $C$DW$951       .dwtag  DW_TAG_member
   10460                      .dwattr $C$DW$951, DW_AT_type(*$C$DW$T$181)
   10461                      .dwattr $C$DW$951, DW_AT_name("SCSR")
   10462                      .dwattr $C$DW$951, DW_AT_TI_symbol_name("_SCSR")
   10463                      .dwattr $C$DW$951, DW_AT_data_member_location[DW_OP_plus_uconst 0x22]
   10464                      .dwattr $C$DW$951, DW_AT_accessibility(DW_ACCESS_public)
   10465              
   10466              $C$DW$952       .dwtag  DW_TAG_member
   10467                      .dwattr $C$DW$952, DW_AT_type(*$C$DW$T$195)
   10468                      .dwattr $C$DW$952, DW_AT_name("WDCNTR")
   10469                      .dwattr $C$DW$952, DW_AT_TI_symbol_name("_WDCNTR")
   10470                      .dwattr $C$DW$952, DW_AT_data_member_location[DW_OP_plus_uconst 0x23]
   10471                      .dwattr $C$DW$952, DW_AT_accessibility(DW_ACCESS_public)
   10472              
   10473              $C$DW$953       .dwtag  DW_TAG_member
   10474                      .dwattr $C$DW$953, DW_AT_type(*$C$DW$T$19)
   10475                      .dwattr $C$DW$953, DW_AT_name("rsvd2")
   10476                      .dwattr $C$DW$953, DW_AT_TI_symbol_name("_rsvd2")
   10477                      .dwattr $C$DW$953, DW_AT_data_member_location[DW_OP_plus_uconst 0x24]
   10478                      .dwattr $C$DW$953, DW_AT_accessibility(DW_ACCESS_public)
   10479              
   10480              $C$DW$954       .dwtag  DW_TAG_member
   10481                      .dwattr $C$DW$954, DW_AT_type(*$C$DW$T$199)
   10482                      .dwattr $C$DW$954, DW_AT_name("WDKEY")
   10483                      .dwattr $C$DW$954, DW_AT_TI_symbol_name("_WDKEY")
   10484                      .dwattr $C$DW$954, DW_AT_data_member_location[DW_OP_plus_uconst 0x25]
   10485                      .dwattr $C$DW$954, DW_AT_accessibility(DW_ACCESS_public)
   10486              
   10487              $C$DW$955       .dwtag  DW_TAG_member
   10488                      .dwattr $C$DW$955, DW_AT_type(*$C$DW$T$203)
   10489                      .dwattr $C$DW$955, DW_AT_name("rsvd3")
   10490                      .dwattr $C$DW$955, DW_AT_TI_symbol_name("_rsvd3")
   10491                      .dwattr $C$DW$955, DW_AT_data_member_location[DW_OP_plus_uconst 0x26]
   10492                      .dwattr $C$DW$955, DW_AT_accessibility(DW_ACCESS_public)
   10493              
   10494              $C$DW$956       .dwtag  DW_TAG_member
   10495                      .dwattr $C$DW$956, DW_AT_type(*$C$DW$T$197)
   10496                      .dwattr $C$DW$956, DW_AT_name("WDCR")
   10497                      .dwattr $C$DW$956, DW_AT_TI_symbol_name("_WDCR")
   10498                      .dwattr $C$DW$956, DW_AT_data_member_location[DW_OP_plus_uconst 0x29]
   10499                      .dwattr $C$DW$956, DW_AT_accessibility(DW_ACCESS_public)
   10500              
   10501              $C$DW$957       .dwtag  DW_TAG_member
   10502                      .dwattr $C$DW$957, DW_AT_type(*$C$DW$T$201)
   10503                      .dwattr $C$DW$957, DW_AT_name("WDWCR")
   10504                      .dwattr $C$DW$957, DW_AT_TI_symbol_name("_WDWCR")
   10505                      .dwattr $C$DW$957, DW_AT_data_member_location[DW_OP_plus_uconst 0x2a]
   10506                      .dwattr $C$DW$957, DW_AT_accessibility(DW_ACCESS_public)
   10507              
   10508                      .dwendtag $C$DW$T$204
   10509              
   10510              $C$DW$958       .dwtag  DW_TAG_TI_far_type
   10511                      .dwattr $C$DW$958, DW_AT_type(*$C$DW$T$204)
   10512              
   10513              $C$DW$T$315     .dwtag  DW_TAG_volatile_type
TMS320C2000 Assembler PC v22.6.1 Wed May 21 09:51:55 2025

Copyright (c) 1996-2018 Texas Instruments Incorporated
C:\Users\Daniel\AppData\Local\Temp\{78ED34F4-3C3B-4D89-8F5D-B64BD43A86E6} PAGE  196

   10514                      .dwattr $C$DW$T$315, DW_AT_type(*$C$DW$958)
   10515              
   10516              
   10517              $C$DW$T$205     .dwtag  DW_TAG_structure_type
   10518                      .dwattr $C$DW$T$205, DW_AT_name("X1CNT_BITS")
   10519                      .dwattr $C$DW$T$205, DW_AT_byte_size(0x02)
   10520              $C$DW$959       .dwtag  DW_TAG_member
   10521                      .dwattr $C$DW$959, DW_AT_type(*$C$DW$T$19)
   10522                      .dwattr $C$DW$959, DW_AT_name("X1CNT")
   10523                      .dwattr $C$DW$959, DW_AT_TI_symbol_name("_X1CNT")
   10524                      .dwattr $C$DW$959, DW_AT_bit_offset(0x05)
   10525                      .dwattr $C$DW$959, DW_AT_bit_size(0x0b)
   10526                      .dwattr $C$DW$959, DW_AT_data_member_location[DW_OP_plus_uconst 0x0]
   10527                      .dwattr $C$DW$959, DW_AT_accessibility(DW_ACCESS_public)
   10528              
   10529              $C$DW$960       .dwtag  DW_TAG_member
   10530                      .dwattr $C$DW$960, DW_AT_type(*$C$DW$T$19)
   10531                      .dwattr $C$DW$960, DW_AT_name("rsvd1")
   10532                      .dwattr $C$DW$960, DW_AT_TI_symbol_name("_rsvd1")
   10533                      .dwattr $C$DW$960, DW_AT_bit_offset(0x00)
   10534                      .dwattr $C$DW$960, DW_AT_bit_size(0x05)
   10535                      .dwattr $C$DW$960, DW_AT_data_member_location[DW_OP_plus_uconst 0x0]
   10536                      .dwattr $C$DW$960, DW_AT_accessibility(DW_ACCESS_public)
   10537              
   10538              $C$DW$961       .dwtag  DW_TAG_member
   10539                      .dwattr $C$DW$961, DW_AT_type(*$C$DW$T$19)
   10540                      .dwattr $C$DW$961, DW_AT_name("CLR")
   10541                      .dwattr $C$DW$961, DW_AT_TI_symbol_name("_CLR")
   10542                      .dwattr $C$DW$961, DW_AT_bit_offset(0x0f)
   10543                      .dwattr $C$DW$961, DW_AT_bit_size(0x01)
   10544                      .dwattr $C$DW$961, DW_AT_data_member_location[DW_OP_plus_uconst 0x1]
   10545                      .dwattr $C$DW$961, DW_AT_accessibility(DW_ACCESS_public)
   10546              
   10547              $C$DW$962       .dwtag  DW_TAG_member
   10548                      .dwattr $C$DW$962, DW_AT_type(*$C$DW$T$19)
   10549                      .dwattr $C$DW$962, DW_AT_name("rsvd2")
   10550                      .dwattr $C$DW$962, DW_AT_TI_symbol_name("_rsvd2")
   10551                      .dwattr $C$DW$962, DW_AT_bit_offset(0x00)
   10552                      .dwattr $C$DW$962, DW_AT_bit_size(0x0f)
   10553                      .dwattr $C$DW$962, DW_AT_data_member_location[DW_OP_plus_uconst 0x1]
   10554                      .dwattr $C$DW$962, DW_AT_accessibility(DW_ACCESS_public)
   10555              
   10556                      .dwendtag $C$DW$T$205
   10557              
   10558              
   10559              $C$DW$T$206     .dwtag  DW_TAG_union_type
   10560                      .dwattr $C$DW$T$206, DW_AT_name("X1CNT_REG")
   10561                      .dwattr $C$DW$T$206, DW_AT_byte_size(0x02)
   10562              $C$DW$963       .dwtag  DW_TAG_member
   10563                      .dwattr $C$DW$963, DW_AT_type(*$C$DW$T$21)
   10564                      .dwattr $C$DW$963, DW_AT_name("all")
   10565                      .dwattr $C$DW$963, DW_AT_TI_symbol_name("_all")
   10566                      .dwattr $C$DW$963, DW_AT_data_member_location[DW_OP_plus_uconst 0x0]
   10567                      .dwattr $C$DW$963, DW_AT_accessibility(DW_ACCESS_public)
   10568              
TMS320C2000 Assembler PC v22.6.1 Wed May 21 09:51:55 2025

Copyright (c) 1996-2018 Texas Instruments Incorporated
C:\Users\Daniel\AppData\Local\Temp\{78ED34F4-3C3B-4D89-8F5D-B64BD43A86E6} PAGE  197

   10569              $C$DW$964       .dwtag  DW_TAG_member
   10570                      .dwattr $C$DW$964, DW_AT_type(*$C$DW$T$205)
   10571                      .dwattr $C$DW$964, DW_AT_name("bit")
   10572                      .dwattr $C$DW$964, DW_AT_TI_symbol_name("_bit")
   10573                      .dwattr $C$DW$964, DW_AT_data_member_location[DW_OP_plus_uconst 0x0]
   10574                      .dwattr $C$DW$964, DW_AT_accessibility(DW_ACCESS_public)
   10575              
   10576                      .dwendtag $C$DW$T$206
   10577              
   10578              
   10579              $C$DW$T$207     .dwtag  DW_TAG_structure_type
   10580                      .dwattr $C$DW$T$207, DW_AT_name("XCLKOUTDIVSEL_BITS")
   10581                      .dwattr $C$DW$T$207, DW_AT_byte_size(0x02)
   10582              $C$DW$965       .dwtag  DW_TAG_member
   10583                      .dwattr $C$DW$965, DW_AT_type(*$C$DW$T$19)
   10584                      .dwattr $C$DW$965, DW_AT_name("XCLKOUTDIV")
   10585                      .dwattr $C$DW$965, DW_AT_TI_symbol_name("_XCLKOUTDIV")
   10586                      .dwattr $C$DW$965, DW_AT_bit_offset(0x0e)
   10587                      .dwattr $C$DW$965, DW_AT_bit_size(0x02)
   10588                      .dwattr $C$DW$965, DW_AT_data_member_location[DW_OP_plus_uconst 0x0]
   10589                      .dwattr $C$DW$965, DW_AT_accessibility(DW_ACCESS_public)
   10590              
   10591              $C$DW$966       .dwtag  DW_TAG_member
   10592                      .dwattr $C$DW$966, DW_AT_type(*$C$DW$T$19)
   10593                      .dwattr $C$DW$966, DW_AT_name("rsvd1")
   10594                      .dwattr $C$DW$966, DW_AT_TI_symbol_name("_rsvd1")
   10595                      .dwattr $C$DW$966, DW_AT_bit_offset(0x00)
   10596                      .dwattr $C$DW$966, DW_AT_bit_size(0x0e)
   10597                      .dwattr $C$DW$966, DW_AT_data_member_location[DW_OP_plus_uconst 0x0]
   10598                      .dwattr $C$DW$966, DW_AT_accessibility(DW_ACCESS_public)
   10599              
   10600              $C$DW$967       .dwtag  DW_TAG_member
   10601                      .dwattr $C$DW$967, DW_AT_type(*$C$DW$T$19)
   10602                      .dwattr $C$DW$967, DW_AT_name("rsvd2")
   10603                      .dwattr $C$DW$967, DW_AT_TI_symbol_name("_rsvd2")
   10604                      .dwattr $C$DW$967, DW_AT_bit_offset(0x00)
   10605                      .dwattr $C$DW$967, DW_AT_bit_size(0x10)
   10606                      .dwattr $C$DW$967, DW_AT_data_member_location[DW_OP_plus_uconst 0x1]
   10607                      .dwattr $C$DW$967, DW_AT_accessibility(DW_ACCESS_public)
   10608              
   10609                      .dwendtag $C$DW$T$207
   10610              
   10611              
   10612              $C$DW$T$208     .dwtag  DW_TAG_union_type
   10613                      .dwattr $C$DW$T$208, DW_AT_name("XCLKOUTDIVSEL_REG")
   10614                      .dwattr $C$DW$T$208, DW_AT_byte_size(0x02)
   10615              $C$DW$968       .dwtag  DW_TAG_member
   10616                      .dwattr $C$DW$968, DW_AT_type(*$C$DW$T$21)
   10617                      .dwattr $C$DW$968, DW_AT_name("all")
   10618                      .dwattr $C$DW$968, DW_AT_TI_symbol_name("_all")
   10619                      .dwattr $C$DW$968, DW_AT_data_member_location[DW_OP_plus_uconst 0x0]
   10620                      .dwattr $C$DW$968, DW_AT_accessibility(DW_ACCESS_public)
   10621              
   10622              $C$DW$969       .dwtag  DW_TAG_member
   10623                      .dwattr $C$DW$969, DW_AT_type(*$C$DW$T$207)
TMS320C2000 Assembler PC v22.6.1 Wed May 21 09:51:55 2025

Copyright (c) 1996-2018 Texas Instruments Incorporated
C:\Users\Daniel\AppData\Local\Temp\{78ED34F4-3C3B-4D89-8F5D-B64BD43A86E6} PAGE  198

   10624                      .dwattr $C$DW$969, DW_AT_name("bit")
   10625                      .dwattr $C$DW$969, DW_AT_TI_symbol_name("_bit")
   10626                      .dwattr $C$DW$969, DW_AT_data_member_location[DW_OP_plus_uconst 0x0]
   10627                      .dwattr $C$DW$969, DW_AT_accessibility(DW_ACCESS_public)
   10628              
   10629                      .dwendtag $C$DW$T$208
   10630              
   10631              
   10632              $C$DW$T$209     .dwtag  DW_TAG_structure_type
   10633                      .dwattr $C$DW$T$209, DW_AT_name("XTALCR2_BITS")
   10634                      .dwattr $C$DW$T$209, DW_AT_byte_size(0x02)
   10635              $C$DW$970       .dwtag  DW_TAG_member
   10636                      .dwattr $C$DW$970, DW_AT_type(*$C$DW$T$19)
   10637                      .dwattr $C$DW$970, DW_AT_name("XIF")
   10638                      .dwattr $C$DW$970, DW_AT_TI_symbol_name("_XIF")
   10639                      .dwattr $C$DW$970, DW_AT_bit_offset(0x0f)
   10640                      .dwattr $C$DW$970, DW_AT_bit_size(0x01)
   10641                      .dwattr $C$DW$970, DW_AT_data_member_location[DW_OP_plus_uconst 0x0]
   10642                      .dwattr $C$DW$970, DW_AT_accessibility(DW_ACCESS_public)
   10643              
   10644              $C$DW$971       .dwtag  DW_TAG_member
   10645                      .dwattr $C$DW$971, DW_AT_type(*$C$DW$T$19)
   10646                      .dwattr $C$DW$971, DW_AT_name("XOF")
   10647                      .dwattr $C$DW$971, DW_AT_TI_symbol_name("_XOF")
   10648                      .dwattr $C$DW$971, DW_AT_bit_offset(0x0e)
   10649                      .dwattr $C$DW$971, DW_AT_bit_size(0x01)
   10650                      .dwattr $C$DW$971, DW_AT_data_member_location[DW_OP_plus_uconst 0x0]
   10651                      .dwattr $C$DW$971, DW_AT_accessibility(DW_ACCESS_public)
   10652              
   10653              $C$DW$972       .dwtag  DW_TAG_member
   10654                      .dwattr $C$DW$972, DW_AT_type(*$C$DW$T$19)
   10655                      .dwattr $C$DW$972, DW_AT_name("FEN")
   10656                      .dwattr $C$DW$972, DW_AT_TI_symbol_name("_FEN")
   10657                      .dwattr $C$DW$972, DW_AT_bit_offset(0x0d)
   10658                      .dwattr $C$DW$972, DW_AT_bit_size(0x01)
   10659                      .dwattr $C$DW$972, DW_AT_data_member_location[DW_OP_plus_uconst 0x0]
   10660                      .dwattr $C$DW$972, DW_AT_accessibility(DW_ACCESS_public)
   10661              
   10662              $C$DW$973       .dwtag  DW_TAG_member
   10663                      .dwattr $C$DW$973, DW_AT_type(*$C$DW$T$19)
   10664                      .dwattr $C$DW$973, DW_AT_name("rsvd1")
   10665                      .dwattr $C$DW$973, DW_AT_TI_symbol_name("_rsvd1")
   10666                      .dwattr $C$DW$973, DW_AT_bit_offset(0x00)
   10667                      .dwattr $C$DW$973, DW_AT_bit_size(0x0d)
   10668                      .dwattr $C$DW$973, DW_AT_data_member_location[DW_OP_plus_uconst 0x0]
   10669                      .dwattr $C$DW$973, DW_AT_accessibility(DW_ACCESS_public)
   10670              
   10671              $C$DW$974       .dwtag  DW_TAG_member
   10672                      .dwattr $C$DW$974, DW_AT_type(*$C$DW$T$19)
   10673                      .dwattr $C$DW$974, DW_AT_name("rsvd2")
   10674                      .dwattr $C$DW$974, DW_AT_TI_symbol_name("_rsvd2")
   10675                      .dwattr $C$DW$974, DW_AT_bit_offset(0x00)
   10676                      .dwattr $C$DW$974, DW_AT_bit_size(0x10)
   10677                      .dwattr $C$DW$974, DW_AT_data_member_location[DW_OP_plus_uconst 0x1]
   10678                      .dwattr $C$DW$974, DW_AT_accessibility(DW_ACCESS_public)
TMS320C2000 Assembler PC v22.6.1 Wed May 21 09:51:55 2025

Copyright (c) 1996-2018 Texas Instruments Incorporated
C:\Users\Daniel\AppData\Local\Temp\{78ED34F4-3C3B-4D89-8F5D-B64BD43A86E6} PAGE  199

   10679              
   10680                      .dwendtag $C$DW$T$209
   10681              
   10682              
   10683              $C$DW$T$210     .dwtag  DW_TAG_union_type
   10684                      .dwattr $C$DW$T$210, DW_AT_name("XTALCR2_REG")
   10685                      .dwattr $C$DW$T$210, DW_AT_byte_size(0x02)
   10686              $C$DW$975       .dwtag  DW_TAG_member
   10687                      .dwattr $C$DW$975, DW_AT_type(*$C$DW$T$21)
   10688                      .dwattr $C$DW$975, DW_AT_name("all")
   10689                      .dwattr $C$DW$975, DW_AT_TI_symbol_name("_all")
   10690                      .dwattr $C$DW$975, DW_AT_data_member_location[DW_OP_plus_uconst 0x0]
   10691                      .dwattr $C$DW$975, DW_AT_accessibility(DW_ACCESS_public)
   10692              
   10693              $C$DW$976       .dwtag  DW_TAG_member
   10694                      .dwattr $C$DW$976, DW_AT_type(*$C$DW$T$209)
   10695                      .dwattr $C$DW$976, DW_AT_name("bit")
   10696                      .dwattr $C$DW$976, DW_AT_TI_symbol_name("_bit")
   10697                      .dwattr $C$DW$976, DW_AT_data_member_location[DW_OP_plus_uconst 0x0]
   10698                      .dwattr $C$DW$976, DW_AT_accessibility(DW_ACCESS_public)
   10699              
   10700                      .dwendtag $C$DW$T$210
   10701              
   10702              
   10703              $C$DW$T$211     .dwtag  DW_TAG_structure_type
   10704                      .dwattr $C$DW$T$211, DW_AT_name("XTALCR_BITS")
   10705                      .dwattr $C$DW$T$211, DW_AT_byte_size(0x02)
   10706              $C$DW$977       .dwtag  DW_TAG_member
   10707                      .dwattr $C$DW$977, DW_AT_type(*$C$DW$T$19)
   10708                      .dwattr $C$DW$977, DW_AT_name("OSCOFF")
   10709                      .dwattr $C$DW$977, DW_AT_TI_symbol_name("_OSCOFF")
   10710                      .dwattr $C$DW$977, DW_AT_bit_offset(0x0f)
   10711                      .dwattr $C$DW$977, DW_AT_bit_size(0x01)
   10712                      .dwattr $C$DW$977, DW_AT_data_member_location[DW_OP_plus_uconst 0x0]
   10713                      .dwattr $C$DW$977, DW_AT_accessibility(DW_ACCESS_public)
   10714              
   10715              $C$DW$978       .dwtag  DW_TAG_member
   10716                      .dwattr $C$DW$978, DW_AT_type(*$C$DW$T$19)
   10717                      .dwattr $C$DW$978, DW_AT_name("SE")
   10718                      .dwattr $C$DW$978, DW_AT_TI_symbol_name("_SE")
   10719                      .dwattr $C$DW$978, DW_AT_bit_offset(0x0e)
   10720                      .dwattr $C$DW$978, DW_AT_bit_size(0x01)
   10721                      .dwattr $C$DW$978, DW_AT_data_member_location[DW_OP_plus_uconst 0x0]
   10722                      .dwattr $C$DW$978, DW_AT_accessibility(DW_ACCESS_public)
   10723              
   10724              $C$DW$979       .dwtag  DW_TAG_member
   10725                      .dwattr $C$DW$979, DW_AT_type(*$C$DW$T$19)
   10726                      .dwattr $C$DW$979, DW_AT_name("rsvd1")
   10727                      .dwattr $C$DW$979, DW_AT_TI_symbol_name("_rsvd1")
   10728                      .dwattr $C$DW$979, DW_AT_bit_offset(0x0d)
   10729                      .dwattr $C$DW$979, DW_AT_bit_size(0x01)
   10730                      .dwattr $C$DW$979, DW_AT_data_member_location[DW_OP_plus_uconst 0x0]
   10731                      .dwattr $C$DW$979, DW_AT_accessibility(DW_ACCESS_public)
   10732              
   10733              $C$DW$980       .dwtag  DW_TAG_member
TMS320C2000 Assembler PC v22.6.1 Wed May 21 09:51:55 2025

Copyright (c) 1996-2018 Texas Instruments Incorporated
C:\Users\Daniel\AppData\Local\Temp\{78ED34F4-3C3B-4D89-8F5D-B64BD43A86E6} PAGE  200

   10734                      .dwattr $C$DW$980, DW_AT_type(*$C$DW$T$19)
   10735                      .dwattr $C$DW$980, DW_AT_name("rsvd2")
   10736                      .dwattr $C$DW$980, DW_AT_TI_symbol_name("_rsvd2")
   10737                      .dwattr $C$DW$980, DW_AT_bit_offset(0x00)
   10738                      .dwattr $C$DW$980, DW_AT_bit_size(0x0d)
   10739                      .dwattr $C$DW$980, DW_AT_data_member_location[DW_OP_plus_uconst 0x0]
   10740                      .dwattr $C$DW$980, DW_AT_accessibility(DW_ACCESS_public)
   10741              
   10742              $C$DW$981       .dwtag  DW_TAG_member
   10743                      .dwattr $C$DW$981, DW_AT_type(*$C$DW$T$19)
   10744                      .dwattr $C$DW$981, DW_AT_name("rsvd3")
   10745                      .dwattr $C$DW$981, DW_AT_TI_symbol_name("_rsvd3")
   10746                      .dwattr $C$DW$981, DW_AT_bit_offset(0x00)
   10747                      .dwattr $C$DW$981, DW_AT_bit_size(0x10)
   10748                      .dwattr $C$DW$981, DW_AT_data_member_location[DW_OP_plus_uconst 0x1]
   10749                      .dwattr $C$DW$981, DW_AT_accessibility(DW_ACCESS_public)
   10750              
   10751                      .dwendtag $C$DW$T$211
   10752              
   10753              
   10754              $C$DW$T$212     .dwtag  DW_TAG_union_type
   10755                      .dwattr $C$DW$T$212, DW_AT_name("XTALCR_REG")
   10756                      .dwattr $C$DW$T$212, DW_AT_byte_size(0x02)
   10757              $C$DW$982       .dwtag  DW_TAG_member
   10758                      .dwattr $C$DW$982, DW_AT_type(*$C$DW$T$21)
   10759                      .dwattr $C$DW$982, DW_AT_name("all")
   10760                      .dwattr $C$DW$982, DW_AT_TI_symbol_name("_all")
   10761                      .dwattr $C$DW$982, DW_AT_data_member_location[DW_OP_plus_uconst 0x0]
   10762                      .dwattr $C$DW$982, DW_AT_accessibility(DW_ACCESS_public)
   10763              
   10764              $C$DW$983       .dwtag  DW_TAG_member
   10765                      .dwattr $C$DW$983, DW_AT_type(*$C$DW$T$211)
   10766                      .dwattr $C$DW$983, DW_AT_name("bit")
   10767                      .dwattr $C$DW$983, DW_AT_TI_symbol_name("_bit")
   10768                      .dwattr $C$DW$983, DW_AT_data_member_location[DW_OP_plus_uconst 0x0]
   10769                      .dwattr $C$DW$983, DW_AT_accessibility(DW_ACCESS_public)
   10770              
   10771                      .dwendtag $C$DW$T$212
   10772              
   10773              $C$DW$T$2       .dwtag  DW_TAG_unspecified_type
   10774                      .dwattr $C$DW$T$2, DW_AT_name("void")
   10775              
   10776              $C$DW$T$4       .dwtag  DW_TAG_base_type
   10777                      .dwattr $C$DW$T$4, DW_AT_encoding(DW_ATE_boolean)
   10778                      .dwattr $C$DW$T$4, DW_AT_name("bool")
   10779                      .dwattr $C$DW$T$4, DW_AT_byte_size(0x01)
   10780              
   10781              $C$DW$T$5       .dwtag  DW_TAG_base_type
   10782                      .dwattr $C$DW$T$5, DW_AT_encoding(DW_ATE_signed_char)
   10783                      .dwattr $C$DW$T$5, DW_AT_name("signed char")
   10784                      .dwattr $C$DW$T$5, DW_AT_byte_size(0x01)
   10785              
   10786              $C$DW$T$6       .dwtag  DW_TAG_base_type
   10787                      .dwattr $C$DW$T$6, DW_AT_encoding(DW_ATE_unsigned_char)
   10788                      .dwattr $C$DW$T$6, DW_AT_name("unsigned char")
TMS320C2000 Assembler PC v22.6.1 Wed May 21 09:51:55 2025

Copyright (c) 1996-2018 Texas Instruments Incorporated
C:\Users\Daniel\AppData\Local\Temp\{78ED34F4-3C3B-4D89-8F5D-B64BD43A86E6} PAGE  201

   10789                      .dwattr $C$DW$T$6, DW_AT_byte_size(0x01)
   10790              
   10791              $C$DW$T$7       .dwtag  DW_TAG_base_type
   10792                      .dwattr $C$DW$T$7, DW_AT_encoding(DW_ATE_signed_char)
   10793                      .dwattr $C$DW$T$7, DW_AT_name("wchar_t")
   10794                      .dwattr $C$DW$T$7, DW_AT_byte_size(0x01)
   10795              
   10796              $C$DW$T$8       .dwtag  DW_TAG_base_type
   10797                      .dwattr $C$DW$T$8, DW_AT_encoding(DW_ATE_signed)
   10798                      .dwattr $C$DW$T$8, DW_AT_name("short")
   10799                      .dwattr $C$DW$T$8, DW_AT_byte_size(0x01)
   10800              
   10801              $C$DW$T$9       .dwtag  DW_TAG_base_type
   10802                      .dwattr $C$DW$T$9, DW_AT_encoding(DW_ATE_unsigned)
   10803                      .dwattr $C$DW$T$9, DW_AT_name("unsigned short")
   10804                      .dwattr $C$DW$T$9, DW_AT_byte_size(0x01)
   10805              
   10806              $C$DW$T$10      .dwtag  DW_TAG_base_type
   10807                      .dwattr $C$DW$T$10, DW_AT_encoding(DW_ATE_signed)
   10808                      .dwattr $C$DW$T$10, DW_AT_name("int")
   10809                      .dwattr $C$DW$T$10, DW_AT_byte_size(0x01)
   10810              
   10811              $C$DW$T$11      .dwtag  DW_TAG_base_type
   10812                      .dwattr $C$DW$T$11, DW_AT_encoding(DW_ATE_unsigned)
   10813                      .dwattr $C$DW$T$11, DW_AT_name("unsigned int")
   10814                      .dwattr $C$DW$T$11, DW_AT_byte_size(0x01)
   10815              
   10816              $C$DW$T$19      .dwtag  DW_TAG_typedef
   10817                      .dwattr $C$DW$T$19, DW_AT_name("Uint16")
   10818                      .dwattr $C$DW$T$19, DW_AT_type(*$C$DW$T$11)
   10819                      .dwattr $C$DW$T$19, DW_AT_language(DW_LANG_C)
   10820              
   10821              $C$DW$984       .dwtag  DW_TAG_TI_far_type
   10822                      .dwattr $C$DW$984, DW_AT_type(*$C$DW$T$19)
   10823              
   10824              $C$DW$T$333     .dwtag  DW_TAG_volatile_type
   10825                      .dwattr $C$DW$T$333, DW_AT_type(*$C$DW$984)
   10826              
   10827              $C$DW$985       .dwtag  DW_TAG_TI_far_type
   10828                      .dwattr $C$DW$985, DW_AT_type(*$C$DW$T$19)
   10829              
   10830              $C$DW$T$334     .dwtag  DW_TAG_const_type
   10831                      .dwattr $C$DW$T$334, DW_AT_type(*$C$DW$985)
   10832              
   10833              
   10834              $C$DW$T$37      .dwtag  DW_TAG_array_type
   10835                      .dwattr $C$DW$T$37, DW_AT_type(*$C$DW$T$19)
   10836                      .dwattr $C$DW$T$37, DW_AT_language(DW_LANG_C)
   10837                      .dwattr $C$DW$T$37, DW_AT_byte_size(0x02)
   10838              $C$DW$986       .dwtag  DW_TAG_subrange_type
   10839                      .dwattr $C$DW$986, DW_AT_upper_bound(0x01)
   10840              
   10841                      .dwendtag $C$DW$T$37
   10842              
   10843              
TMS320C2000 Assembler PC v22.6.1 Wed May 21 09:51:55 2025

Copyright (c) 1996-2018 Texas Instruments Incorporated
C:\Users\Daniel\AppData\Local\Temp\{78ED34F4-3C3B-4D89-8F5D-B64BD43A86E6} PAGE  202

   10844              $C$DW$T$38      .dwtag  DW_TAG_array_type
   10845                      .dwattr $C$DW$T$38, DW_AT_type(*$C$DW$T$19)
   10846                      .dwattr $C$DW$T$38, DW_AT_language(DW_LANG_C)
   10847                      .dwattr $C$DW$T$38, DW_AT_byte_size(0x04)
   10848              $C$DW$987       .dwtag  DW_TAG_subrange_type
   10849                      .dwattr $C$DW$987, DW_AT_upper_bound(0x03)
   10850              
   10851                      .dwendtag $C$DW$T$38
   10852              
   10853              
   10854              $C$DW$T$39      .dwtag  DW_TAG_array_type
   10855                      .dwattr $C$DW$T$39, DW_AT_type(*$C$DW$T$19)
   10856                      .dwattr $C$DW$T$39, DW_AT_language(DW_LANG_C)
   10857                      .dwattr $C$DW$T$39, DW_AT_byte_size(0x0a)
   10858              $C$DW$988       .dwtag  DW_TAG_subrange_type
   10859                      .dwattr $C$DW$988, DW_AT_upper_bound(0x09)
   10860              
   10861                      .dwendtag $C$DW$T$39
   10862              
   10863              
   10864              $C$DW$T$40      .dwtag  DW_TAG_array_type
   10865                      .dwattr $C$DW$T$40, DW_AT_type(*$C$DW$T$19)
   10866                      .dwattr $C$DW$T$40, DW_AT_language(DW_LANG_C)
   10867                      .dwattr $C$DW$T$40, DW_AT_byte_size(0x06)
   10868              $C$DW$989       .dwtag  DW_TAG_subrange_type
   10869                      .dwattr $C$DW$989, DW_AT_upper_bound(0x05)
   10870              
   10871                      .dwendtag $C$DW$T$40
   10872              
   10873              
   10874              $C$DW$T$46      .dwtag  DW_TAG_array_type
   10875                      .dwattr $C$DW$T$46, DW_AT_type(*$C$DW$T$19)
   10876                      .dwattr $C$DW$T$46, DW_AT_language(DW_LANG_C)
   10877                      .dwattr $C$DW$T$46, DW_AT_byte_size(0x16)
   10878              $C$DW$990       .dwtag  DW_TAG_subrange_type
   10879                      .dwattr $C$DW$990, DW_AT_upper_bound(0x15)
   10880              
   10881                      .dwendtag $C$DW$T$46
   10882              
   10883              
   10884              $C$DW$T$106     .dwtag  DW_TAG_array_type
   10885                      .dwattr $C$DW$T$106, DW_AT_type(*$C$DW$T$19)
   10886                      .dwattr $C$DW$T$106, DW_AT_language(DW_LANG_C)
   10887                      .dwattr $C$DW$T$106, DW_AT_byte_size(0x1c)
   10888              $C$DW$991       .dwtag  DW_TAG_subrange_type
   10889                      .dwattr $C$DW$991, DW_AT_upper_bound(0x1b)
   10890              
   10891                      .dwendtag $C$DW$T$106
   10892              
   10893              
   10894              $C$DW$T$107     .dwtag  DW_TAG_array_type
   10895                      .dwattr $C$DW$T$107, DW_AT_type(*$C$DW$T$19)
   10896                      .dwattr $C$DW$T$107, DW_AT_language(DW_LANG_C)
   10897                      .dwattr $C$DW$T$107, DW_AT_byte_size(0x154)
   10898              $C$DW$992       .dwtag  DW_TAG_subrange_type
TMS320C2000 Assembler PC v22.6.1 Wed May 21 09:51:55 2025

Copyright (c) 1996-2018 Texas Instruments Incorporated
C:\Users\Daniel\AppData\Local\Temp\{78ED34F4-3C3B-4D89-8F5D-B64BD43A86E6} PAGE  203

   10899                      .dwattr $C$DW$992, DW_AT_upper_bound(0x153)
   10900              
   10901                      .dwendtag $C$DW$T$107
   10902              
   10903              
   10904              $C$DW$T$202     .dwtag  DW_TAG_array_type
   10905                      .dwattr $C$DW$T$202, DW_AT_type(*$C$DW$T$19)
   10906                      .dwattr $C$DW$T$202, DW_AT_language(DW_LANG_C)
   10907                      .dwattr $C$DW$T$202, DW_AT_byte_size(0x22)
   10908              $C$DW$993       .dwtag  DW_TAG_subrange_type
   10909                      .dwattr $C$DW$993, DW_AT_upper_bound(0x21)
   10910              
   10911                      .dwendtag $C$DW$T$202
   10912              
   10913              
   10914              $C$DW$T$203     .dwtag  DW_TAG_array_type
   10915                      .dwattr $C$DW$T$203, DW_AT_type(*$C$DW$T$19)
   10916                      .dwattr $C$DW$T$203, DW_AT_language(DW_LANG_C)
   10917                      .dwattr $C$DW$T$203, DW_AT_byte_size(0x03)
   10918              $C$DW$994       .dwtag  DW_TAG_subrange_type
   10919                      .dwattr $C$DW$994, DW_AT_upper_bound(0x02)
   10920              
   10921                      .dwendtag $C$DW$T$203
   10922              
   10923              $C$DW$995       .dwtag  DW_TAG_TI_far_type
   10924                      .dwattr $C$DW$995, DW_AT_type(*$C$DW$T$11)
   10925              
   10926              $C$DW$T$48      .dwtag  DW_TAG_volatile_type
   10927                      .dwattr $C$DW$T$48, DW_AT_type(*$C$DW$995)
   10928              
   10929              $C$DW$T$49      .dwtag  DW_TAG_typedef
   10930                      .dwattr $C$DW$T$49, DW_AT_name("bp_16")
   10931                      .dwattr $C$DW$T$49, DW_AT_type(*$C$DW$T$48)
   10932                      .dwattr $C$DW$T$49, DW_AT_language(DW_LANG_C)
   10933              
   10934              $C$DW$T$12      .dwtag  DW_TAG_base_type
   10935                      .dwattr $C$DW$T$12, DW_AT_encoding(DW_ATE_signed)
   10936                      .dwattr $C$DW$T$12, DW_AT_name("long")
   10937                      .dwattr $C$DW$T$12, DW_AT_byte_size(0x02)
   10938              
   10939              $C$DW$T$13      .dwtag  DW_TAG_base_type
   10940                      .dwattr $C$DW$T$13, DW_AT_encoding(DW_ATE_unsigned)
   10941                      .dwattr $C$DW$T$13, DW_AT_name("unsigned long")
   10942                      .dwattr $C$DW$T$13, DW_AT_byte_size(0x02)
   10943              
   10944              $C$DW$T$21      .dwtag  DW_TAG_typedef
   10945                      .dwattr $C$DW$T$21, DW_AT_name("Uint32")
   10946                      .dwattr $C$DW$T$21, DW_AT_type(*$C$DW$T$13)
   10947                      .dwattr $C$DW$T$21, DW_AT_language(DW_LANG_C)
   10948              
   10949              $C$DW$996       .dwtag  DW_TAG_TI_far_type
   10950                      .dwattr $C$DW$996, DW_AT_type(*$C$DW$T$21)
   10951              
   10952              $C$DW$T$340     .dwtag  DW_TAG_const_type
   10953                      .dwattr $C$DW$T$340, DW_AT_type(*$C$DW$996)
TMS320C2000 Assembler PC v22.6.1 Wed May 21 09:51:55 2025

Copyright (c) 1996-2018 Texas Instruments Incorporated
C:\Users\Daniel\AppData\Local\Temp\{78ED34F4-3C3B-4D89-8F5D-B64BD43A86E6} PAGE  204

   10954              
   10955              $C$DW$997       .dwtag  DW_TAG_TI_far_type
   10956                      .dwattr $C$DW$997, DW_AT_type(*$C$DW$T$13)
   10957              
   10958              $C$DW$T$50      .dwtag  DW_TAG_volatile_type
   10959                      .dwattr $C$DW$T$50, DW_AT_type(*$C$DW$997)
   10960              
   10961              $C$DW$T$51      .dwtag  DW_TAG_typedef
   10962                      .dwattr $C$DW$T$51, DW_AT_name("bp_32")
   10963                      .dwattr $C$DW$T$51, DW_AT_type(*$C$DW$T$50)
   10964                      .dwattr $C$DW$T$51, DW_AT_language(DW_LANG_C)
   10965              
   10966              $C$DW$T$72      .dwtag  DW_TAG_typedef
   10967                      .dwattr $C$DW$T$72, DW_AT_name("__uint32_t")
   10968                      .dwattr $C$DW$T$72, DW_AT_type(*$C$DW$T$13)
   10969                      .dwattr $C$DW$T$72, DW_AT_language(DW_LANG_C)
   10970              
   10971              $C$DW$T$73      .dwtag  DW_TAG_typedef
   10972                      .dwattr $C$DW$T$73, DW_AT_name("uint32_t")
   10973                      .dwattr $C$DW$T$73, DW_AT_type(*$C$DW$T$72)
   10974                      .dwattr $C$DW$T$73, DW_AT_language(DW_LANG_C)
   10975              
   10976              
   10977              $C$DW$T$74      .dwtag  DW_TAG_array_type
   10978                      .dwattr $C$DW$T$74, DW_AT_type(*$C$DW$T$73)
   10979                      .dwattr $C$DW$T$74, DW_AT_language(DW_LANG_C)
   10980                      .dwattr $C$DW$T$74, DW_AT_byte_size(0x04)
   10981              $C$DW$998       .dwtag  DW_TAG_subrange_type
   10982                      .dwattr $C$DW$998, DW_AT_upper_bound(0x01)
   10983              
   10984                      .dwendtag $C$DW$T$74
   10985              
   10986              $C$DW$T$14      .dwtag  DW_TAG_base_type
   10987                      .dwattr $C$DW$T$14, DW_AT_encoding(DW_ATE_signed)
   10988                      .dwattr $C$DW$T$14, DW_AT_name("long long")
   10989                      .dwattr $C$DW$T$14, DW_AT_byte_size(0x04)
   10990              
   10991              $C$DW$T$15      .dwtag  DW_TAG_base_type
   10992                      .dwattr $C$DW$T$15, DW_AT_encoding(DW_ATE_unsigned)
   10993                      .dwattr $C$DW$T$15, DW_AT_name("unsigned long long")
   10994                      .dwattr $C$DW$T$15, DW_AT_byte_size(0x04)
   10995              
   10996              $C$DW$T$16      .dwtag  DW_TAG_base_type
   10997                      .dwattr $C$DW$T$16, DW_AT_encoding(DW_ATE_float)
   10998                      .dwattr $C$DW$T$16, DW_AT_name("float")
   10999                      .dwattr $C$DW$T$16, DW_AT_byte_size(0x02)
   11000              
   11001              $C$DW$999       .dwtag  DW_TAG_TI_far_type
   11002                      .dwattr $C$DW$999, DW_AT_type(*$C$DW$T$16)
   11003              
   11004              $C$DW$T$344     .dwtag  DW_TAG_const_type
   11005                      .dwattr $C$DW$T$344, DW_AT_type(*$C$DW$999)
   11006              
   11007              $C$DW$T$17      .dwtag  DW_TAG_base_type
   11008                      .dwattr $C$DW$T$17, DW_AT_encoding(DW_ATE_float)
TMS320C2000 Assembler PC v22.6.1 Wed May 21 09:51:55 2025

Copyright (c) 1996-2018 Texas Instruments Incorporated
C:\Users\Daniel\AppData\Local\Temp\{78ED34F4-3C3B-4D89-8F5D-B64BD43A86E6} PAGE  205

   11009                      .dwattr $C$DW$T$17, DW_AT_name("double")
   11010                      .dwattr $C$DW$T$17, DW_AT_byte_size(0x02)
   11011              
   11012              $C$DW$T$18      .dwtag  DW_TAG_base_type
   11013                      .dwattr $C$DW$T$18, DW_AT_encoding(DW_ATE_float)
   11014                      .dwattr $C$DW$T$18, DW_AT_name("long double")
   11015                      .dwattr $C$DW$T$18, DW_AT_byte_size(0x04)
   11016              
   11017              $C$DW$T$345     .dwtag  DW_TAG_base_type
   11018                      .dwattr $C$DW$T$345, DW_AT_encoding(DW_ATE_unsigned_char)
   11019                      .dwattr $C$DW$T$345, DW_AT_name("unsigned char")
   11020                      .dwattr $C$DW$T$345, DW_AT_byte_size(0x01)
   11021              
   11022                      .dwattr $C$DW$CU, DW_AT_language(DW_LANG_C)
   11023              
   11024              ;***************************************************************
   11025              ;* DWARF CIE ENTRIES                                           *
   11026              ;***************************************************************
   11027              
   11028              $C$DW$CIE       .dwcie 26
   11029                      .dwcfi  cfa_register, 20
   11030                      .dwcfi  cfa_offset, 0
   11031                      .dwcfi  same_value, 28
   11032                      .dwcfi  same_value, 6
   11033                      .dwcfi  same_value, 7
   11034                      .dwcfi  same_value, 8
   11035                      .dwcfi  same_value, 9
   11036                      .dwcfi  same_value, 10
   11037                      .dwcfi  same_value, 11
   11038                      .dwcfi  same_value, 59
   11039                      .dwcfi  same_value, 63
   11040                      .dwcfi  same_value, 67
   11041                      .dwcfi  same_value, 71
   11042                      .dwendentry
   11043              
   11044              ;***************************************************************
   11045              ;* DWARF REGISTER MAP                                          *
   11046              ;***************************************************************
   11047              
   11048              $C$DW$1000      .dwtag  DW_TAG_TI_assign_register
   11049                      .dwattr $C$DW$1000, DW_AT_name("AL")
   11050                      .dwattr $C$DW$1000, DW_AT_location[DW_OP_reg0]
   11051              
   11052              $C$DW$1001      .dwtag  DW_TAG_TI_assign_register
   11053                      .dwattr $C$DW$1001, DW_AT_name("AH")
   11054                      .dwattr $C$DW$1001, DW_AT_location[DW_OP_reg1]
   11055              
   11056              $C$DW$1002      .dwtag  DW_TAG_TI_assign_register
   11057                      .dwattr $C$DW$1002, DW_AT_name("PL")
   11058                      .dwattr $C$DW$1002, DW_AT_location[DW_OP_reg2]
   11059              
   11060              $C$DW$1003      .dwtag  DW_TAG_TI_assign_register
   11061                      .dwattr $C$DW$1003, DW_AT_name("PH")
   11062                      .dwattr $C$DW$1003, DW_AT_location[DW_OP_reg3]
   11063              
TMS320C2000 Assembler PC v22.6.1 Wed May 21 09:51:55 2025

Copyright (c) 1996-2018 Texas Instruments Incorporated
C:\Users\Daniel\AppData\Local\Temp\{78ED34F4-3C3B-4D89-8F5D-B64BD43A86E6} PAGE  206

   11064              $C$DW$1004      .dwtag  DW_TAG_TI_assign_register
   11065                      .dwattr $C$DW$1004, DW_AT_name("SP")
   11066                      .dwattr $C$DW$1004, DW_AT_location[DW_OP_reg20]
   11067              
   11068              $C$DW$1005      .dwtag  DW_TAG_TI_assign_register
   11069                      .dwattr $C$DW$1005, DW_AT_name("XT")
   11070                      .dwattr $C$DW$1005, DW_AT_location[DW_OP_reg21]
   11071              
   11072              $C$DW$1006      .dwtag  DW_TAG_TI_assign_register
   11073                      .dwattr $C$DW$1006, DW_AT_name("T")
   11074                      .dwattr $C$DW$1006, DW_AT_location[DW_OP_reg22]
   11075              
   11076              $C$DW$1007      .dwtag  DW_TAG_TI_assign_register
   11077                      .dwattr $C$DW$1007, DW_AT_name("ST0")
   11078                      .dwattr $C$DW$1007, DW_AT_location[DW_OP_reg23]
   11079              
   11080              $C$DW$1008      .dwtag  DW_TAG_TI_assign_register
   11081                      .dwattr $C$DW$1008, DW_AT_name("ST1")
   11082                      .dwattr $C$DW$1008, DW_AT_location[DW_OP_reg24]
   11083              
   11084              $C$DW$1009      .dwtag  DW_TAG_TI_assign_register
   11085                      .dwattr $C$DW$1009, DW_AT_name("PC")
   11086                      .dwattr $C$DW$1009, DW_AT_location[DW_OP_reg25]
   11087              
   11088              $C$DW$1010      .dwtag  DW_TAG_TI_assign_register
   11089                      .dwattr $C$DW$1010, DW_AT_name("RPC")
   11090                      .dwattr $C$DW$1010, DW_AT_location[DW_OP_reg26]
   11091              
   11092              $C$DW$1011      .dwtag  DW_TAG_TI_assign_register
   11093                      .dwattr $C$DW$1011, DW_AT_name("FP")
   11094                      .dwattr $C$DW$1011, DW_AT_location[DW_OP_reg28]
   11095              
   11096              $C$DW$1012      .dwtag  DW_TAG_TI_assign_register
   11097                      .dwattr $C$DW$1012, DW_AT_name("DP")
   11098                      .dwattr $C$DW$1012, DW_AT_location[DW_OP_reg29]
   11099              
   11100              $C$DW$1013      .dwtag  DW_TAG_TI_assign_register
   11101                      .dwattr $C$DW$1013, DW_AT_name("SXM")
   11102                      .dwattr $C$DW$1013, DW_AT_location[DW_OP_reg30]
   11103              
   11104              $C$DW$1014      .dwtag  DW_TAG_TI_assign_register
   11105                      .dwattr $C$DW$1014, DW_AT_name("PM")
   11106                      .dwattr $C$DW$1014, DW_AT_location[DW_OP_reg31]
   11107              
   11108              $C$DW$1015      .dwtag  DW_TAG_TI_assign_register
   11109                      .dwattr $C$DW$1015, DW_AT_name("OVM")
   11110                      .dwattr $C$DW$1015, DW_AT_location[DW_OP_regx 0x20]
   11111              
   11112              $C$DW$1016      .dwtag  DW_TAG_TI_assign_register
   11113                      .dwattr $C$DW$1016, DW_AT_name("PAGE0")
   11114                      .dwattr $C$DW$1016, DW_AT_location[DW_OP_regx 0x21]
   11115              
   11116              $C$DW$1017      .dwtag  DW_TAG_TI_assign_register
   11117                      .dwattr $C$DW$1017, DW_AT_name("AMODE")
   11118                      .dwattr $C$DW$1017, DW_AT_location[DW_OP_regx 0x22]
TMS320C2000 Assembler PC v22.6.1 Wed May 21 09:51:55 2025

Copyright (c) 1996-2018 Texas Instruments Incorporated
C:\Users\Daniel\AppData\Local\Temp\{78ED34F4-3C3B-4D89-8F5D-B64BD43A86E6} PAGE  207

   11119              
   11120              $C$DW$1018      .dwtag  DW_TAG_TI_assign_register
   11121                      .dwattr $C$DW$1018, DW_AT_name("EALLOW")
   11122                      .dwattr $C$DW$1018, DW_AT_location[DW_OP_regx 0x4e]
   11123              
   11124              $C$DW$1019      .dwtag  DW_TAG_TI_assign_register
   11125                      .dwattr $C$DW$1019, DW_AT_name("INTM")
   11126                      .dwattr $C$DW$1019, DW_AT_location[DW_OP_regx 0x23]
   11127              
   11128              $C$DW$1020      .dwtag  DW_TAG_TI_assign_register
   11129                      .dwattr $C$DW$1020, DW_AT_name("IFR")
   11130                      .dwattr $C$DW$1020, DW_AT_location[DW_OP_regx 0x24]
   11131              
   11132              $C$DW$1021      .dwtag  DW_TAG_TI_assign_register
   11133                      .dwattr $C$DW$1021, DW_AT_name("IER")
   11134                      .dwattr $C$DW$1021, DW_AT_location[DW_OP_regx 0x25]
   11135              
   11136              $C$DW$1022      .dwtag  DW_TAG_TI_assign_register
   11137                      .dwattr $C$DW$1022, DW_AT_name("V")
   11138                      .dwattr $C$DW$1022, DW_AT_location[DW_OP_regx 0x26]
   11139              
   11140              $C$DW$1023      .dwtag  DW_TAG_TI_assign_register
   11141                      .dwattr $C$DW$1023, DW_AT_name("PSEUDOH")
   11142                      .dwattr $C$DW$1023, DW_AT_location[DW_OP_regx 0x4c]
   11143              
   11144              $C$DW$1024      .dwtag  DW_TAG_TI_assign_register
   11145                      .dwattr $C$DW$1024, DW_AT_name("VOL")
   11146                      .dwattr $C$DW$1024, DW_AT_location[DW_OP_regx 0x4d]
   11147              
   11148              $C$DW$1025      .dwtag  DW_TAG_TI_assign_register
   11149                      .dwattr $C$DW$1025, DW_AT_name("AR0")
   11150                      .dwattr $C$DW$1025, DW_AT_location[DW_OP_reg4]
   11151              
   11152              $C$DW$1026      .dwtag  DW_TAG_TI_assign_register
   11153                      .dwattr $C$DW$1026, DW_AT_name("XAR0")
   11154                      .dwattr $C$DW$1026, DW_AT_location[DW_OP_reg5]
   11155              
   11156              $C$DW$1027      .dwtag  DW_TAG_TI_assign_register
   11157                      .dwattr $C$DW$1027, DW_AT_name("AR1")
   11158                      .dwattr $C$DW$1027, DW_AT_location[DW_OP_reg6]
   11159              
   11160              $C$DW$1028      .dwtag  DW_TAG_TI_assign_register
   11161                      .dwattr $C$DW$1028, DW_AT_name("XAR1")
   11162                      .dwattr $C$DW$1028, DW_AT_location[DW_OP_reg7]
   11163              
   11164              $C$DW$1029      .dwtag  DW_TAG_TI_assign_register
   11165                      .dwattr $C$DW$1029, DW_AT_name("AR2")
   11166                      .dwattr $C$DW$1029, DW_AT_location[DW_OP_reg8]
   11167              
   11168              $C$DW$1030      .dwtag  DW_TAG_TI_assign_register
   11169                      .dwattr $C$DW$1030, DW_AT_name("XAR2")
   11170                      .dwattr $C$DW$1030, DW_AT_location[DW_OP_reg9]
   11171              
   11172              $C$DW$1031      .dwtag  DW_TAG_TI_assign_register
   11173                      .dwattr $C$DW$1031, DW_AT_name("AR3")
TMS320C2000 Assembler PC v22.6.1 Wed May 21 09:51:55 2025

Copyright (c) 1996-2018 Texas Instruments Incorporated
C:\Users\Daniel\AppData\Local\Temp\{78ED34F4-3C3B-4D89-8F5D-B64BD43A86E6} PAGE  208

   11174                      .dwattr $C$DW$1031, DW_AT_location[DW_OP_reg10]
   11175              
   11176              $C$DW$1032      .dwtag  DW_TAG_TI_assign_register
   11177                      .dwattr $C$DW$1032, DW_AT_name("XAR3")
   11178                      .dwattr $C$DW$1032, DW_AT_location[DW_OP_reg11]
   11179              
   11180              $C$DW$1033      .dwtag  DW_TAG_TI_assign_register
   11181                      .dwattr $C$DW$1033, DW_AT_name("AR4")
   11182                      .dwattr $C$DW$1033, DW_AT_location[DW_OP_reg12]
   11183              
   11184              $C$DW$1034      .dwtag  DW_TAG_TI_assign_register
   11185                      .dwattr $C$DW$1034, DW_AT_name("XAR4")
   11186                      .dwattr $C$DW$1034, DW_AT_location[DW_OP_reg13]
   11187              
   11188              $C$DW$1035      .dwtag  DW_TAG_TI_assign_register
   11189                      .dwattr $C$DW$1035, DW_AT_name("AR5")
   11190                      .dwattr $C$DW$1035, DW_AT_location[DW_OP_reg14]
   11191              
   11192              $C$DW$1036      .dwtag  DW_TAG_TI_assign_register
   11193                      .dwattr $C$DW$1036, DW_AT_name("XAR5")
   11194                      .dwattr $C$DW$1036, DW_AT_location[DW_OP_reg15]
   11195              
   11196              $C$DW$1037      .dwtag  DW_TAG_TI_assign_register
   11197                      .dwattr $C$DW$1037, DW_AT_name("AR6")
   11198                      .dwattr $C$DW$1037, DW_AT_location[DW_OP_reg16]
   11199              
   11200              $C$DW$1038      .dwtag  DW_TAG_TI_assign_register
   11201                      .dwattr $C$DW$1038, DW_AT_name("XAR6")
   11202                      .dwattr $C$DW$1038, DW_AT_location[DW_OP_reg17]
   11203              
   11204              $C$DW$1039      .dwtag  DW_TAG_TI_assign_register
   11205                      .dwattr $C$DW$1039, DW_AT_name("AR7")
   11206                      .dwattr $C$DW$1039, DW_AT_location[DW_OP_reg18]
   11207              
   11208              $C$DW$1040      .dwtag  DW_TAG_TI_assign_register
   11209                      .dwattr $C$DW$1040, DW_AT_name("XAR7")
   11210                      .dwattr $C$DW$1040, DW_AT_location[DW_OP_reg19]
   11211              
   11212              $C$DW$1041      .dwtag  DW_TAG_TI_assign_register
   11213                      .dwattr $C$DW$1041, DW_AT_name("R0H")
   11214                      .dwattr $C$DW$1041, DW_AT_location[DW_OP_regx 0x2b]
   11215              
   11216              $C$DW$1042      .dwtag  DW_TAG_TI_assign_register
   11217                      .dwattr $C$DW$1042, DW_AT_name("R1H")
   11218                      .dwattr $C$DW$1042, DW_AT_location[DW_OP_regx 0x2f]
   11219              
   11220              $C$DW$1043      .dwtag  DW_TAG_TI_assign_register
   11221                      .dwattr $C$DW$1043, DW_AT_name("R2H")
   11222                      .dwattr $C$DW$1043, DW_AT_location[DW_OP_regx 0x33]
   11223              
   11224              $C$DW$1044      .dwtag  DW_TAG_TI_assign_register
   11225                      .dwattr $C$DW$1044, DW_AT_name("R3H")
   11226                      .dwattr $C$DW$1044, DW_AT_location[DW_OP_regx 0x37]
   11227              
   11228              $C$DW$1045      .dwtag  DW_TAG_TI_assign_register
TMS320C2000 Assembler PC v22.6.1 Wed May 21 09:51:55 2025

Copyright (c) 1996-2018 Texas Instruments Incorporated
C:\Users\Daniel\AppData\Local\Temp\{78ED34F4-3C3B-4D89-8F5D-B64BD43A86E6} PAGE  209

   11229                      .dwattr $C$DW$1045, DW_AT_name("R4H")
   11230                      .dwattr $C$DW$1045, DW_AT_location[DW_OP_regx 0x3b]
   11231              
   11232              $C$DW$1046      .dwtag  DW_TAG_TI_assign_register
   11233                      .dwattr $C$DW$1046, DW_AT_name("R5H")
   11234                      .dwattr $C$DW$1046, DW_AT_location[DW_OP_regx 0x3f]
   11235              
   11236              $C$DW$1047      .dwtag  DW_TAG_TI_assign_register
   11237                      .dwattr $C$DW$1047, DW_AT_name("R6H")
   11238                      .dwattr $C$DW$1047, DW_AT_location[DW_OP_regx 0x43]
   11239              
   11240              $C$DW$1048      .dwtag  DW_TAG_TI_assign_register
   11241                      .dwattr $C$DW$1048, DW_AT_name("R7H")
   11242                      .dwattr $C$DW$1048, DW_AT_location[DW_OP_regx 0x47]
   11243              
   11244              $C$DW$1049      .dwtag  DW_TAG_TI_assign_register
   11245                      .dwattr $C$DW$1049, DW_AT_name("RB")
   11246                      .dwattr $C$DW$1049, DW_AT_location[DW_OP_regx 0x4a]
   11247              
   11248              $C$DW$1050      .dwtag  DW_TAG_TI_assign_register
   11249                      .dwattr $C$DW$1050, DW_AT_name("STF")
   11250                      .dwattr $C$DW$1050, DW_AT_location[DW_OP_regx 0x28]
   11251              
   11252              $C$DW$1051      .dwtag  DW_TAG_TI_assign_register
   11253                      .dwattr $C$DW$1051, DW_AT_name("FPUHAZ")
   11254                      .dwattr $C$DW$1051, DW_AT_location[DW_OP_reg27]
   11255              
   11256              $C$DW$1052      .dwtag  DW_TAG_TI_assign_register
   11257                      .dwattr $C$DW$1052, DW_AT_name("STF_HWDIV")
   11258                      .dwattr $C$DW$1052, DW_AT_location[DW_OP_regx 0x4f]
   11259              
   11260              $C$DW$1053      .dwtag  DW_TAG_TI_assign_register
   11261                      .dwattr $C$DW$1053, DW_AT_name("VCRC")
   11262                      .dwattr $C$DW$1053, DW_AT_location[DW_OP_regx 0x50]
   11263              
   11264              $C$DW$1054      .dwtag  DW_TAG_TI_assign_register
   11265                      .dwattr $C$DW$1054, DW_AT_name("VSTATUS")
   11266                      .dwattr $C$DW$1054, DW_AT_location[DW_OP_regx 0x51]
   11267              
   11268              $C$DW$1055      .dwtag  DW_TAG_TI_assign_register
   11269                      .dwattr $C$DW$1055, DW_AT_name("VCRCPOLY")
   11270                      .dwattr $C$DW$1055, DW_AT_location[DW_OP_regx 0x52]
   11271              
   11272              $C$DW$1056      .dwtag  DW_TAG_TI_assign_register
   11273                      .dwattr $C$DW$1056, DW_AT_name("VCRCSIZE")
   11274                      .dwattr $C$DW$1056, DW_AT_location[DW_OP_regx 0x53]
   11275              
   11276                      .dwendtag $C$DW$CU
   11277              

No Assembly Errors, No Assembly Warnings
