TMS320C2000 Assembler PC v22.6.1 Wed May 21 09:51:54 2025

Copyright (c) 1996-2018 Texas Instruments Incorporated
C:\Users\Daniel\AppData\Local\Temp\{513EF8AD-E23E-4989-8EC9-611DE01417F7} PAGE    1

       1              ;***************************************************************
       2              ;* TMS320C2000 G3 C/C++ Codegen                               PC v22.6.1.LTS *
       3              ;* Date/Time created: Wed May 21 09:51:54 2025                 *
       4              ;***************************************************************
       5                      .compiler_opts --abi=coffabi --cla_support=cla2 --diag_wrap=off --float_support=fpu32 --hll_source=on
       6                      .asg    XAR2, FP
       7              
       8              $C$DW$CU        .dwtag  DW_TAG_compile_unit
       9                      .dwattr $C$DW$CU, DW_AT_name("../DeviceSupport/source/f28003x_defaultisr.c")
      10                      .dwattr $C$DW$CU, DW_AT_producer("TI TMS320C2000 G3 C/C++ Codegen PC v22.6.1.LTS Copyright (c) 1996-2
      11                      .dwattr $C$DW$CU, DW_AT_TI_version(0x01)
      12                      .dwattr $C$DW$CU, DW_AT_comp_dir("C:\Users\Daniel\CodeComposer\UPS_MUCI\CPU1_FLASH")
      13              ;       D:\Programs\TI\ccs1281\ccs\tools\compiler\ti-cgt-c2000_22.6.1.LTS\bin\opt2000.exe C:\\Users\\Daniel\\
      14              ;       D:\Programs\TI\ccs1281\ccs\tools\compiler\ti-cgt-c2000_22.6.1.LTS\bin\ac2000.exe -@C:\\Users\\Daniel\
      15 00000000               .sect   ".text:_XINT5_ISR"
      16                      .retain
      17                      .retainrefs
      18                      .global _XINT5_ISR
      19              
      20              $C$DW$1 .dwtag  DW_TAG_subprogram
      21                      .dwattr $C$DW$1, DW_AT_name("XINT5_ISR")
      22                      .dwattr $C$DW$1, DW_AT_low_pc(_XINT5_ISR)
      23                      .dwattr $C$DW$1, DW_AT_high_pc(0x00)
      24                      .dwattr $C$DW$1, DW_AT_TI_symbol_name("_XINT5_ISR")
      25                      .dwattr $C$DW$1, DW_AT_external
      26                      .dwattr $C$DW$1, DW_AT_TI_begin_file("../DeviceSupport/source/f28003x_defaultisr.c")
      27                      .dwattr $C$DW$1, DW_AT_TI_begin_line(0x7bf)
      28                      .dwattr $C$DW$1, DW_AT_TI_begin_column(0x10)
      29                      .dwattr $C$DW$1, DW_AT_TI_interrupt
      30                      .dwattr $C$DW$1, DW_AT_TI_max_frame_size(-6)
      31                      .dwpsn  file "../DeviceSupport/source/f28003x_defaultisr.c",line 1984,column 1,is_stmt,address _XINT5
      32              
      33                      .dwfde $C$DW$CIE, _XINT5_ISR
      34              
      35              ;***************************************************************
      36              ;* FNAME: _XINT5_ISR                    FR SIZE:   4           *
      37              ;*                                                             *
      38              ;* FUNCTION ENVIRONMENT                                        *
      39              ;*                                                             *
      40              ;* FUNCTION PROPERTIES                                         *
      41              ;*                            0 Parameter,  0 Auto,  4 SOE     *
      42              ;***************************************************************
      43              
      44 00000000       _XINT5_ISR:
      45                      .dwcfi  cfa_offset, -2
      46                      .dwcfi  save_reg_to_mem, 26, 0
      47 00000000 761B          ASP       ; [CPU_ALU] 
      48 00000001 FFF0          PUSH      RB                    ; [CPU_FPU] 
      49                      .dwcfi  save_reg_to_mem, 74, 4
      50                      .dwcfi  cfa_offset, -4
      51 00000002 E200          MOV32     *SP++,STF             ; [CPU_FPU] 
         00000003 00BD 
      52                      .dwcfi  save_reg_to_mem, 40, 6
      53                      .dwcfi  cfa_offset, -6
      54 00000004 E630          SETFLG    RNDF32=1, RNDF64=1    ; [CPU_FPU] 
TMS320C2000 Assembler PC v22.6.1 Wed May 21 09:51:54 2025

Copyright (c) 1996-2018 Texas Instruments Incorporated
C:\Users\Daniel\AppData\Local\Temp\{513EF8AD-E23E-4989-8EC9-611DE01417F7} PAGE    2

         00000005 0600 
      55 00000006 2942          CLRC      PAGE0,OVM             ; [CPU_ALU] 
      56 00000007 5616          CLRC      AMODE                 ; [CPU_ALU] 
      57 00000008 7625        ESTOP0
      58 00000009       $C$L1:    
      59                      .dwpsn  file "../DeviceSupport/source/f28003x_defaultisr.c",line 2000,column 5,is_stmt,isa 0
      60 00000009 6F00          B         $C$L1,UNC             ; [CPU_ALU] |2000| 
      61                      ; branch occurs ; [] |2000| 
      62                      .dwattr $C$DW$1, DW_AT_TI_end_file("../DeviceSupport/source/f28003x_defaultisr.c")
      63                      .dwattr $C$DW$1, DW_AT_TI_end_line(0x7d1)
      64                      .dwattr $C$DW$1, DW_AT_TI_end_column(0x01)
      65                      .dwendentry
      66                      .dwendtag $C$DW$1
      67              
      68 00000000               .sect   ".text:_XINT4_ISR"
      69                      .retain
      70                      .retainrefs
      71                      .global _XINT4_ISR
      72              
      73              $C$DW$2 .dwtag  DW_TAG_subprogram
      74                      .dwattr $C$DW$2, DW_AT_name("XINT4_ISR")
      75                      .dwattr $C$DW$2, DW_AT_low_pc(_XINT4_ISR)
      76                      .dwattr $C$DW$2, DW_AT_high_pc(0x00)
      77                      .dwattr $C$DW$2, DW_AT_TI_symbol_name("_XINT4_ISR")
      78                      .dwattr $C$DW$2, DW_AT_external
      79                      .dwattr $C$DW$2, DW_AT_TI_begin_file("../DeviceSupport/source/f28003x_defaultisr.c")
      80                      .dwattr $C$DW$2, DW_AT_TI_begin_line(0x7a8)
      81                      .dwattr $C$DW$2, DW_AT_TI_begin_column(0x10)
      82                      .dwattr $C$DW$2, DW_AT_TI_interrupt
      83                      .dwattr $C$DW$2, DW_AT_TI_max_frame_size(-6)
      84                      .dwpsn  file "../DeviceSupport/source/f28003x_defaultisr.c",line 1961,column 1,is_stmt,address _XINT4
      85              
      86                      .dwfde $C$DW$CIE, _XINT4_ISR
      87              
      88              ;***************************************************************
      89              ;* FNAME: _XINT4_ISR                    FR SIZE:   4           *
      90              ;*                                                             *
      91              ;* FUNCTION ENVIRONMENT                                        *
      92              ;*                                                             *
      93              ;* FUNCTION PROPERTIES                                         *
      94              ;*                            0 Parameter,  0 Auto,  4 SOE     *
      95              ;***************************************************************
      96              
      97 00000000       _XINT4_ISR:
      98                      .dwcfi  cfa_offset, -2
      99                      .dwcfi  save_reg_to_mem, 26, 0
     100 00000000 761B          ASP       ; [CPU_ALU] 
     101 00000001 FFF0          PUSH      RB                    ; [CPU_FPU] 
     102                      .dwcfi  save_reg_to_mem, 74, 4
     103                      .dwcfi  cfa_offset, -4
     104 00000002 E200          MOV32     *SP++,STF             ; [CPU_FPU] 
         00000003 00BD 
     105                      .dwcfi  save_reg_to_mem, 40, 6
     106                      .dwcfi  cfa_offset, -6
     107 00000004 E630          SETFLG    RNDF32=1, RNDF64=1    ; [CPU_FPU] 
TMS320C2000 Assembler PC v22.6.1 Wed May 21 09:51:54 2025

Copyright (c) 1996-2018 Texas Instruments Incorporated
C:\Users\Daniel\AppData\Local\Temp\{513EF8AD-E23E-4989-8EC9-611DE01417F7} PAGE    3

         00000005 0600 
     108 00000006 2942          CLRC      PAGE0,OVM             ; [CPU_ALU] 
     109 00000007 5616          CLRC      AMODE                 ; [CPU_ALU] 
     110 00000008 7625        ESTOP0
     111 00000009       $C$L2:    
     112                      .dwpsn  file "../DeviceSupport/source/f28003x_defaultisr.c",line 1977,column 5,is_stmt,isa 0
     113 00000009 6F00          B         $C$L2,UNC             ; [CPU_ALU] |1977| 
     114                      ; branch occurs ; [] |1977| 
     115                      .dwattr $C$DW$2, DW_AT_TI_end_file("../DeviceSupport/source/f28003x_defaultisr.c")
     116                      .dwattr $C$DW$2, DW_AT_TI_end_line(0x7ba)
     117                      .dwattr $C$DW$2, DW_AT_TI_end_column(0x01)
     118                      .dwendentry
     119                      .dwendtag $C$DW$2
     120              
     121 00000000               .sect   ".text:_XINT3_ISR"
     122                      .retain
     123                      .retainrefs
     124                      .global _XINT3_ISR
     125              
     126              $C$DW$3 .dwtag  DW_TAG_subprogram
     127                      .dwattr $C$DW$3, DW_AT_name("XINT3_ISR")
     128                      .dwattr $C$DW$3, DW_AT_low_pc(_XINT3_ISR)
     129                      .dwattr $C$DW$3, DW_AT_high_pc(0x00)
     130                      .dwattr $C$DW$3, DW_AT_TI_symbol_name("_XINT3_ISR")
     131                      .dwattr $C$DW$3, DW_AT_external
     132                      .dwattr $C$DW$3, DW_AT_TI_begin_file("../DeviceSupport/source/f28003x_defaultisr.c")
     133                      .dwattr $C$DW$3, DW_AT_TI_begin_line(0x791)
     134                      .dwattr $C$DW$3, DW_AT_TI_begin_column(0x10)
     135                      .dwattr $C$DW$3, DW_AT_TI_interrupt
     136                      .dwattr $C$DW$3, DW_AT_TI_max_frame_size(-6)
     137                      .dwpsn  file "../DeviceSupport/source/f28003x_defaultisr.c",line 1938,column 1,is_stmt,address _XINT3
     138              
     139                      .dwfde $C$DW$CIE, _XINT3_ISR
     140              
     141              ;***************************************************************
     142              ;* FNAME: _XINT3_ISR                    FR SIZE:   4           *
     143              ;*                                                             *
     144              ;* FUNCTION ENVIRONMENT                                        *
     145              ;*                                                             *
     146              ;* FUNCTION PROPERTIES                                         *
     147              ;*                            0 Parameter,  0 Auto,  4 SOE     *
     148              ;***************************************************************
     149              
     150 00000000       _XINT3_ISR:
     151                      .dwcfi  cfa_offset, -2
     152                      .dwcfi  save_reg_to_mem, 26, 0
     153 00000000 761B          ASP       ; [CPU_ALU] 
     154 00000001 FFF0          PUSH      RB                    ; [CPU_FPU] 
     155                      .dwcfi  save_reg_to_mem, 74, 4
     156                      .dwcfi  cfa_offset, -4
     157 00000002 E200          MOV32     *SP++,STF             ; [CPU_FPU] 
         00000003 00BD 
     158                      .dwcfi  save_reg_to_mem, 40, 6
     159                      .dwcfi  cfa_offset, -6
     160 00000004 E630          SETFLG    RNDF32=1, RNDF64=1    ; [CPU_FPU] 
TMS320C2000 Assembler PC v22.6.1 Wed May 21 09:51:54 2025

Copyright (c) 1996-2018 Texas Instruments Incorporated
C:\Users\Daniel\AppData\Local\Temp\{513EF8AD-E23E-4989-8EC9-611DE01417F7} PAGE    4

         00000005 0600 
     161 00000006 2942          CLRC      PAGE0,OVM             ; [CPU_ALU] 
     162 00000007 5616          CLRC      AMODE                 ; [CPU_ALU] 
     163 00000008 7625        ESTOP0
     164 00000009       $C$L3:    
     165                      .dwpsn  file "../DeviceSupport/source/f28003x_defaultisr.c",line 1954,column 5,is_stmt,isa 0
     166 00000009 6F00          B         $C$L3,UNC             ; [CPU_ALU] |1954| 
     167                      ; branch occurs ; [] |1954| 
     168                      .dwattr $C$DW$3, DW_AT_TI_end_file("../DeviceSupport/source/f28003x_defaultisr.c")
     169                      .dwattr $C$DW$3, DW_AT_TI_end_line(0x7a3)
     170                      .dwattr $C$DW$3, DW_AT_TI_end_column(0x01)
     171                      .dwendentry
     172                      .dwendtag $C$DW$3
     173              
     174 00000000               .sect   ".text:_XINT2_ISR"
     175                      .retain
     176                      .retainrefs
     177                      .global _XINT2_ISR
     178              
     179              $C$DW$4 .dwtag  DW_TAG_subprogram
     180                      .dwattr $C$DW$4, DW_AT_name("XINT2_ISR")
     181                      .dwattr $C$DW$4, DW_AT_low_pc(_XINT2_ISR)
     182                      .dwattr $C$DW$4, DW_AT_high_pc(0x00)
     183                      .dwattr $C$DW$4, DW_AT_TI_symbol_name("_XINT2_ISR")
     184                      .dwattr $C$DW$4, DW_AT_external
     185                      .dwattr $C$DW$4, DW_AT_TI_begin_file("../DeviceSupport/source/f28003x_defaultisr.c")
     186                      .dwattr $C$DW$4, DW_AT_TI_begin_line(0x1d1)
     187                      .dwattr $C$DW$4, DW_AT_TI_begin_column(0x10)
     188                      .dwattr $C$DW$4, DW_AT_TI_interrupt
     189                      .dwattr $C$DW$4, DW_AT_TI_max_frame_size(-6)
     190                      .dwpsn  file "../DeviceSupport/source/f28003x_defaultisr.c",line 466,column 1,is_stmt,address _XINT2_
     191              
     192                      .dwfde $C$DW$CIE, _XINT2_ISR
     193              
     194              ;***************************************************************
     195              ;* FNAME: _XINT2_ISR                    FR SIZE:   4           *
     196              ;*                                                             *
     197              ;* FUNCTION ENVIRONMENT                                        *
     198              ;*                                                             *
     199              ;* FUNCTION PROPERTIES                                         *
     200              ;*                            0 Parameter,  0 Auto,  4 SOE     *
     201              ;***************************************************************
     202              
     203 00000000       _XINT2_ISR:
     204                      .dwcfi  cfa_offset, -2
     205                      .dwcfi  save_reg_to_mem, 26, 0
     206 00000000 761B          ASP       ; [CPU_ALU] 
     207 00000001 FFF0          PUSH      RB                    ; [CPU_FPU] 
     208                      .dwcfi  save_reg_to_mem, 74, 4
     209                      .dwcfi  cfa_offset, -4
     210 00000002 E200          MOV32     *SP++,STF             ; [CPU_FPU] 
         00000003 00BD 
     211                      .dwcfi  save_reg_to_mem, 40, 6
     212                      .dwcfi  cfa_offset, -6
     213 00000004 E630          SETFLG    RNDF32=1, RNDF64=1    ; [CPU_FPU] 
TMS320C2000 Assembler PC v22.6.1 Wed May 21 09:51:54 2025

Copyright (c) 1996-2018 Texas Instruments Incorporated
C:\Users\Daniel\AppData\Local\Temp\{513EF8AD-E23E-4989-8EC9-611DE01417F7} PAGE    5

         00000005 0600 
     214 00000006 2942          CLRC      PAGE0,OVM             ; [CPU_ALU] 
     215 00000007 5616          CLRC      AMODE                 ; [CPU_ALU] 
     216 00000008 7625        ESTOP0
     217 00000009       $C$L4:    
     218                      .dwpsn  file "../DeviceSupport/source/f28003x_defaultisr.c",line 482,column 5,is_stmt,isa 0
     219 00000009 6F00          B         $C$L4,UNC             ; [CPU_ALU] |482| 
     220                      ; branch occurs ; [] |482| 
     221                      .dwattr $C$DW$4, DW_AT_TI_end_file("../DeviceSupport/source/f28003x_defaultisr.c")
     222                      .dwattr $C$DW$4, DW_AT_TI_end_line(0x1e3)
     223                      .dwattr $C$DW$4, DW_AT_TI_end_column(0x01)
     224                      .dwendentry
     225                      .dwendtag $C$DW$4
     226              
     227 00000000               .sect   ".text:_XINT1_ISR"
     228                      .retain
     229                      .retainrefs
     230                      .global _XINT1_ISR
     231              
     232              $C$DW$5 .dwtag  DW_TAG_subprogram
     233                      .dwattr $C$DW$5, DW_AT_name("XINT1_ISR")
     234                      .dwattr $C$DW$5, DW_AT_low_pc(_XINT1_ISR)
     235                      .dwattr $C$DW$5, DW_AT_high_pc(0x00)
     236                      .dwattr $C$DW$5, DW_AT_TI_symbol_name("_XINT1_ISR")
     237                      .dwattr $C$DW$5, DW_AT_external
     238                      .dwattr $C$DW$5, DW_AT_TI_begin_file("../DeviceSupport/source/f28003x_defaultisr.c")
     239                      .dwattr $C$DW$5, DW_AT_TI_begin_line(0x1ba)
     240                      .dwattr $C$DW$5, DW_AT_TI_begin_column(0x10)
     241                      .dwattr $C$DW$5, DW_AT_TI_interrupt
     242                      .dwattr $C$DW$5, DW_AT_TI_max_frame_size(-6)
     243                      .dwpsn  file "../DeviceSupport/source/f28003x_defaultisr.c",line 443,column 1,is_stmt,address _XINT1_
     244              
     245                      .dwfde $C$DW$CIE, _XINT1_ISR
     246              
     247              ;***************************************************************
     248              ;* FNAME: _XINT1_ISR                    FR SIZE:   4           *
     249              ;*                                                             *
     250              ;* FUNCTION ENVIRONMENT                                        *
     251              ;*                                                             *
     252              ;* FUNCTION PROPERTIES                                         *
     253              ;*                            0 Parameter,  0 Auto,  4 SOE     *
     254              ;***************************************************************
     255              
     256 00000000       _XINT1_ISR:
     257                      .dwcfi  cfa_offset, -2
     258                      .dwcfi  save_reg_to_mem, 26, 0
     259 00000000 761B          ASP       ; [CPU_ALU] 
     260 00000001 FFF0          PUSH      RB                    ; [CPU_FPU] 
     261                      .dwcfi  save_reg_to_mem, 74, 4
     262                      .dwcfi  cfa_offset, -4
     263 00000002 E200          MOV32     *SP++,STF             ; [CPU_FPU] 
         00000003 00BD 
     264                      .dwcfi  save_reg_to_mem, 40, 6
     265                      .dwcfi  cfa_offset, -6
     266 00000004 E630          SETFLG    RNDF32=1, RNDF64=1    ; [CPU_FPU] 
TMS320C2000 Assembler PC v22.6.1 Wed May 21 09:51:54 2025

Copyright (c) 1996-2018 Texas Instruments Incorporated
C:\Users\Daniel\AppData\Local\Temp\{513EF8AD-E23E-4989-8EC9-611DE01417F7} PAGE    6

         00000005 0600 
     267 00000006 2942          CLRC      PAGE0,OVM             ; [CPU_ALU] 
     268 00000007 5616          CLRC      AMODE                 ; [CPU_ALU] 
     269 00000008 7625        ESTOP0
     270 00000009       $C$L5:    
     271                      .dwpsn  file "../DeviceSupport/source/f28003x_defaultisr.c",line 459,column 5,is_stmt,isa 0
     272 00000009 6F00          B         $C$L5,UNC             ; [CPU_ALU] |459| 
     273                      ; branch occurs ; [] |459| 
     274                      .dwattr $C$DW$5, DW_AT_TI_end_file("../DeviceSupport/source/f28003x_defaultisr.c")
     275                      .dwattr $C$DW$5, DW_AT_TI_end_line(0x1cc)
     276                      .dwattr $C$DW$5, DW_AT_TI_end_column(0x01)
     277                      .dwendentry
     278                      .dwendtag $C$DW$5
     279              
     280 00000000               .sect   ".text:_WAKE_ISR"
     281                      .retain
     282                      .retainrefs
     283                      .global _WAKE_ISR
     284              
     285              $C$DW$6 .dwtag  DW_TAG_subprogram
     286                      .dwattr $C$DW$6, DW_AT_name("WAKE_ISR")
     287                      .dwattr $C$DW$6, DW_AT_low_pc(_WAKE_ISR)
     288                      .dwattr $C$DW$6, DW_AT_high_pc(0x00)
     289                      .dwattr $C$DW$6, DW_AT_TI_symbol_name("_WAKE_ISR")
     290                      .dwattr $C$DW$6, DW_AT_external
     291                      .dwattr $C$DW$6, DW_AT_TI_begin_file("../DeviceSupport/source/f28003x_defaultisr.c")
     292                      .dwattr $C$DW$6, DW_AT_TI_begin_line(0x1ff)
     293                      .dwattr $C$DW$6, DW_AT_TI_begin_column(0x10)
     294                      .dwattr $C$DW$6, DW_AT_TI_interrupt
     295                      .dwattr $C$DW$6, DW_AT_TI_max_frame_size(-6)
     296                      .dwpsn  file "../DeviceSupport/source/f28003x_defaultisr.c",line 512,column 1,is_stmt,address _WAKE_I
     297              
     298                      .dwfde $C$DW$CIE, _WAKE_ISR
     299              
     300              ;***************************************************************
     301              ;* FNAME: _WAKE_ISR                     FR SIZE:   4           *
     302              ;*                                                             *
     303              ;* FUNCTION ENVIRONMENT                                        *
     304              ;*                                                             *
     305              ;* FUNCTION PROPERTIES                                         *
     306              ;*                            0 Parameter,  0 Auto,  4 SOE     *
     307              ;***************************************************************
     308              
     309 00000000       _WAKE_ISR:
     310                      .dwcfi  cfa_offset, -2
     311                      .dwcfi  save_reg_to_mem, 26, 0
     312 00000000 761B          ASP       ; [CPU_ALU] 
     313 00000001 FFF0          PUSH      RB                    ; [CPU_FPU] 
     314                      .dwcfi  save_reg_to_mem, 74, 4
     315                      .dwcfi  cfa_offset, -4
     316 00000002 E200          MOV32     *SP++,STF             ; [CPU_FPU] 
         00000003 00BD 
     317                      .dwcfi  save_reg_to_mem, 40, 6
     318                      .dwcfi  cfa_offset, -6
     319 00000004 E630          SETFLG    RNDF32=1, RNDF64=1    ; [CPU_FPU] 
TMS320C2000 Assembler PC v22.6.1 Wed May 21 09:51:54 2025

Copyright (c) 1996-2018 Texas Instruments Incorporated
C:\Users\Daniel\AppData\Local\Temp\{513EF8AD-E23E-4989-8EC9-611DE01417F7} PAGE    7

         00000005 0600 
     320 00000006 2942          CLRC      PAGE0,OVM             ; [CPU_ALU] 
     321 00000007 5616          CLRC      AMODE                 ; [CPU_ALU] 
     322 00000008 7625        ESTOP0
     323 00000009       $C$L6:    
     324                      .dwpsn  file "../DeviceSupport/source/f28003x_defaultisr.c",line 528,column 5,is_stmt,isa 0
     325 00000009 6F00          B         $C$L6,UNC             ; [CPU_ALU] |528| 
     326                      ; branch occurs ; [] |528| 
     327                      .dwattr $C$DW$6, DW_AT_TI_end_file("../DeviceSupport/source/f28003x_defaultisr.c")
     328                      .dwattr $C$DW$6, DW_AT_TI_end_line(0x211)
     329                      .dwattr $C$DW$6, DW_AT_TI_end_column(0x01)
     330                      .dwendentry
     331                      .dwendtag $C$DW$6
     332              
     333 00000000               .sect   ".text:_USER9_ISR"
     334                      .retain
     335                      .retainrefs
     336                      .global _USER9_ISR
     337              
     338              $C$DW$7 .dwtag  DW_TAG_subprogram
     339                      .dwattr $C$DW$7, DW_AT_name("USER9_ISR")
     340                      .dwattr $C$DW$7, DW_AT_low_pc(_USER9_ISR)
     341                      .dwattr $C$DW$7, DW_AT_high_pc(0x00)
     342                      .dwattr $C$DW$7, DW_AT_TI_symbol_name("_USER9_ISR")
     343                      .dwattr $C$DW$7, DW_AT_external
     344                      .dwattr $C$DW$7, DW_AT_TI_begin_file("../DeviceSupport/source/f28003x_defaultisr.c")
     345                      .dwattr $C$DW$7, DW_AT_TI_begin_line(0x131)
     346                      .dwattr $C$DW$7, DW_AT_TI_begin_column(0x10)
     347                      .dwattr $C$DW$7, DW_AT_TI_interrupt
     348                      .dwattr $C$DW$7, DW_AT_TI_max_frame_size(-6)
     349                      .dwpsn  file "../DeviceSupport/source/f28003x_defaultisr.c",line 306,column 1,is_stmt,address _USER9_
     350              
     351                      .dwfde $C$DW$CIE, _USER9_ISR
     352              
     353              ;***************************************************************
     354              ;* FNAME: _USER9_ISR                    FR SIZE:   4           *
     355              ;*                                                             *
     356              ;* FUNCTION ENVIRONMENT                                        *
     357              ;*                                                             *
     358              ;* FUNCTION PROPERTIES                                         *
     359              ;*                            0 Parameter,  0 Auto,  4 SOE     *
     360              ;***************************************************************
     361              
     362 00000000       _USER9_ISR:
     363                      .dwcfi  cfa_offset, -2
     364                      .dwcfi  save_reg_to_mem, 26, 0
     365 00000000 761B          ASP       ; [CPU_ALU] 
     366 00000001 FFF0          PUSH      RB                    ; [CPU_FPU] 
     367                      .dwcfi  save_reg_to_mem, 74, 4
     368                      .dwcfi  cfa_offset, -4
     369 00000002 E200          MOV32     *SP++,STF             ; [CPU_FPU] 
         00000003 00BD 
     370                      .dwcfi  save_reg_to_mem, 40, 6
     371                      .dwcfi  cfa_offset, -6
     372 00000004 E630          SETFLG    RNDF32=1, RNDF64=1    ; [CPU_FPU] 
TMS320C2000 Assembler PC v22.6.1 Wed May 21 09:51:54 2025

Copyright (c) 1996-2018 Texas Instruments Incorporated
C:\Users\Daniel\AppData\Local\Temp\{513EF8AD-E23E-4989-8EC9-611DE01417F7} PAGE    8

         00000005 0600 
     373 00000006 2942          CLRC      PAGE0,OVM             ; [CPU_ALU] 
     374 00000007 5616          CLRC      AMODE                 ; [CPU_ALU] 
     375 00000008 7625        ESTOP0
     376 00000009       $C$L7:    
     377                      .dwpsn  file "../DeviceSupport/source/f28003x_defaultisr.c",line 316,column 5,is_stmt,isa 0
     378 00000009 6F00          B         $C$L7,UNC             ; [CPU_ALU] |316| 
     379                      ; branch occurs ; [] |316| 
     380                      .dwattr $C$DW$7, DW_AT_TI_end_file("../DeviceSupport/source/f28003x_defaultisr.c")
     381                      .dwattr $C$DW$7, DW_AT_TI_end_line(0x13d)
     382                      .dwattr $C$DW$7, DW_AT_TI_end_column(0x01)
     383                      .dwendentry
     384                      .dwendtag $C$DW$7
     385              
     386 00000000               .sect   ".text:_USER8_ISR"
     387                      .retain
     388                      .retainrefs
     389                      .global _USER8_ISR
     390              
     391              $C$DW$8 .dwtag  DW_TAG_subprogram
     392                      .dwattr $C$DW$8, DW_AT_name("USER8_ISR")
     393                      .dwattr $C$DW$8, DW_AT_low_pc(_USER8_ISR)
     394                      .dwattr $C$DW$8, DW_AT_high_pc(0x00)
     395                      .dwattr $C$DW$8, DW_AT_TI_symbol_name("_USER8_ISR")
     396                      .dwattr $C$DW$8, DW_AT_external
     397                      .dwattr $C$DW$8, DW_AT_TI_begin_file("../DeviceSupport/source/f28003x_defaultisr.c")
     398                      .dwattr $C$DW$8, DW_AT_TI_begin_line(0x120)
     399                      .dwattr $C$DW$8, DW_AT_TI_begin_column(0x10)
     400                      .dwattr $C$DW$8, DW_AT_TI_interrupt
     401                      .dwattr $C$DW$8, DW_AT_TI_max_frame_size(-6)
     402                      .dwpsn  file "../DeviceSupport/source/f28003x_defaultisr.c",line 289,column 1,is_stmt,address _USER8_
     403              
     404                      .dwfde $C$DW$CIE, _USER8_ISR
     405              
     406              ;***************************************************************
     407              ;* FNAME: _USER8_ISR                    FR SIZE:   4           *
     408              ;*                                                             *
     409              ;* FUNCTION ENVIRONMENT                                        *
     410              ;*                                                             *
     411              ;* FUNCTION PROPERTIES                                         *
     412              ;*                            0 Parameter,  0 Auto,  4 SOE     *
     413              ;***************************************************************
     414              
     415 00000000       _USER8_ISR:
     416                      .dwcfi  cfa_offset, -2
     417                      .dwcfi  save_reg_to_mem, 26, 0
     418 00000000 761B          ASP       ; [CPU_ALU] 
     419 00000001 FFF0          PUSH      RB                    ; [CPU_FPU] 
     420                      .dwcfi  save_reg_to_mem, 74, 4
     421                      .dwcfi  cfa_offset, -4
     422 00000002 E200          MOV32     *SP++,STF             ; [CPU_FPU] 
         00000003 00BD 
     423                      .dwcfi  save_reg_to_mem, 40, 6
     424                      .dwcfi  cfa_offset, -6
     425 00000004 E630          SETFLG    RNDF32=1, RNDF64=1    ; [CPU_FPU] 
TMS320C2000 Assembler PC v22.6.1 Wed May 21 09:51:54 2025

Copyright (c) 1996-2018 Texas Instruments Incorporated
C:\Users\Daniel\AppData\Local\Temp\{513EF8AD-E23E-4989-8EC9-611DE01417F7} PAGE    9

         00000005 0600 
     426 00000006 2942          CLRC      PAGE0,OVM             ; [CPU_ALU] 
     427 00000007 5616          CLRC      AMODE                 ; [CPU_ALU] 
     428 00000008 7625        ESTOP0
     429 00000009       $C$L8:    
     430                      .dwpsn  file "../DeviceSupport/source/f28003x_defaultisr.c",line 299,column 5,is_stmt,isa 0
     431 00000009 6F00          B         $C$L8,UNC             ; [CPU_ALU] |299| 
     432                      ; branch occurs ; [] |299| 
     433                      .dwattr $C$DW$8, DW_AT_TI_end_file("../DeviceSupport/source/f28003x_defaultisr.c")
     434                      .dwattr $C$DW$8, DW_AT_TI_end_line(0x12c)
     435                      .dwattr $C$DW$8, DW_AT_TI_end_column(0x01)
     436                      .dwendentry
     437                      .dwendtag $C$DW$8
     438              
     439 00000000               .sect   ".text:_USER7_ISR"
     440                      .retain
     441                      .retainrefs
     442                      .global _USER7_ISR
     443              
     444              $C$DW$9 .dwtag  DW_TAG_subprogram
     445                      .dwattr $C$DW$9, DW_AT_name("USER7_ISR")
     446                      .dwattr $C$DW$9, DW_AT_low_pc(_USER7_ISR)
     447                      .dwattr $C$DW$9, DW_AT_high_pc(0x00)
     448                      .dwattr $C$DW$9, DW_AT_TI_symbol_name("_USER7_ISR")
     449                      .dwattr $C$DW$9, DW_AT_external
     450                      .dwattr $C$DW$9, DW_AT_TI_begin_file("../DeviceSupport/source/f28003x_defaultisr.c")
     451                      .dwattr $C$DW$9, DW_AT_TI_begin_line(0x10f)
     452                      .dwattr $C$DW$9, DW_AT_TI_begin_column(0x10)
     453                      .dwattr $C$DW$9, DW_AT_TI_interrupt
     454                      .dwattr $C$DW$9, DW_AT_TI_max_frame_size(-6)
     455                      .dwpsn  file "../DeviceSupport/source/f28003x_defaultisr.c",line 272,column 1,is_stmt,address _USER7_
     456              
     457                      .dwfde $C$DW$CIE, _USER7_ISR
     458              
     459              ;***************************************************************
     460              ;* FNAME: _USER7_ISR                    FR SIZE:   4           *
     461              ;*                                                             *
     462              ;* FUNCTION ENVIRONMENT                                        *
     463              ;*                                                             *
     464              ;* FUNCTION PROPERTIES                                         *
     465              ;*                            0 Parameter,  0 Auto,  4 SOE     *
     466              ;***************************************************************
     467              
     468 00000000       _USER7_ISR:
     469                      .dwcfi  cfa_offset, -2
     470                      .dwcfi  save_reg_to_mem, 26, 0
     471 00000000 761B          ASP       ; [CPU_ALU] 
     472 00000001 FFF0          PUSH      RB                    ; [CPU_FPU] 
     473                      .dwcfi  save_reg_to_mem, 74, 4
     474                      .dwcfi  cfa_offset, -4
     475 00000002 E200          MOV32     *SP++,STF             ; [CPU_FPU] 
         00000003 00BD 
     476                      .dwcfi  save_reg_to_mem, 40, 6
     477                      .dwcfi  cfa_offset, -6
     478 00000004 E630          SETFLG    RNDF32=1, RNDF64=1    ; [CPU_FPU] 
TMS320C2000 Assembler PC v22.6.1 Wed May 21 09:51:54 2025

Copyright (c) 1996-2018 Texas Instruments Incorporated
C:\Users\Daniel\AppData\Local\Temp\{513EF8AD-E23E-4989-8EC9-611DE01417F7} PAGE   10

         00000005 0600 
     479 00000006 2942          CLRC      PAGE0,OVM             ; [CPU_ALU] 
     480 00000007 5616          CLRC      AMODE                 ; [CPU_ALU] 
     481 00000008 7625        ESTOP0
     482 00000009       $C$L9:    
     483                      .dwpsn  file "../DeviceSupport/source/f28003x_defaultisr.c",line 282,column 5,is_stmt,isa 0
     484 00000009 6F00          B         $C$L9,UNC             ; [CPU_ALU] |282| 
     485                      ; branch occurs ; [] |282| 
     486                      .dwattr $C$DW$9, DW_AT_TI_end_file("../DeviceSupport/source/f28003x_defaultisr.c")
     487                      .dwattr $C$DW$9, DW_AT_TI_end_line(0x11b)
     488                      .dwattr $C$DW$9, DW_AT_TI_end_column(0x01)
     489                      .dwendentry
     490                      .dwendtag $C$DW$9
     491              
     492 00000000               .sect   ".text:_USER6_ISR"
     493                      .retain
     494                      .retainrefs
     495                      .global _USER6_ISR
     496              
     497              $C$DW$10        .dwtag  DW_TAG_subprogram
     498                      .dwattr $C$DW$10, DW_AT_name("USER6_ISR")
     499                      .dwattr $C$DW$10, DW_AT_low_pc(_USER6_ISR)
     500                      .dwattr $C$DW$10, DW_AT_high_pc(0x00)
     501                      .dwattr $C$DW$10, DW_AT_TI_symbol_name("_USER6_ISR")
     502                      .dwattr $C$DW$10, DW_AT_external
     503                      .dwattr $C$DW$10, DW_AT_TI_begin_file("../DeviceSupport/source/f28003x_defaultisr.c")
     504                      .dwattr $C$DW$10, DW_AT_TI_begin_line(0xfe)
     505                      .dwattr $C$DW$10, DW_AT_TI_begin_column(0x10)
     506                      .dwattr $C$DW$10, DW_AT_TI_interrupt
     507                      .dwattr $C$DW$10, DW_AT_TI_max_frame_size(-6)
     508                      .dwpsn  file "../DeviceSupport/source/f28003x_defaultisr.c",line 255,column 1,is_stmt,address _USER6_
     509              
     510                      .dwfde $C$DW$CIE, _USER6_ISR
     511              
     512              ;***************************************************************
     513              ;* FNAME: _USER6_ISR                    FR SIZE:   4           *
     514              ;*                                                             *
     515              ;* FUNCTION ENVIRONMENT                                        *
     516              ;*                                                             *
     517              ;* FUNCTION PROPERTIES                                         *
     518              ;*                            0 Parameter,  0 Auto,  4 SOE     *
     519              ;***************************************************************
     520              
     521 00000000       _USER6_ISR:
     522                      .dwcfi  cfa_offset, -2
     523                      .dwcfi  save_reg_to_mem, 26, 0
     524 00000000 761B          ASP       ; [CPU_ALU] 
     525 00000001 FFF0          PUSH      RB                    ; [CPU_FPU] 
     526                      .dwcfi  save_reg_to_mem, 74, 4
     527                      .dwcfi  cfa_offset, -4
     528 00000002 E200          MOV32     *SP++,STF             ; [CPU_FPU] 
         00000003 00BD 
     529                      .dwcfi  save_reg_to_mem, 40, 6
     530                      .dwcfi  cfa_offset, -6
     531 00000004 E630          SETFLG    RNDF32=1, RNDF64=1    ; [CPU_FPU] 
TMS320C2000 Assembler PC v22.6.1 Wed May 21 09:51:54 2025

Copyright (c) 1996-2018 Texas Instruments Incorporated
C:\Users\Daniel\AppData\Local\Temp\{513EF8AD-E23E-4989-8EC9-611DE01417F7} PAGE   11

         00000005 0600 
     532 00000006 2942          CLRC      PAGE0,OVM             ; [CPU_ALU] 
     533 00000007 5616          CLRC      AMODE                 ; [CPU_ALU] 
     534 00000008 7625        ESTOP0
     535 00000009       $C$L10:    
     536                      .dwpsn  file "../DeviceSupport/source/f28003x_defaultisr.c",line 265,column 5,is_stmt,isa 0
     537 00000009 6F00          B         $C$L10,UNC            ; [CPU_ALU] |265| 
     538                      ; branch occurs ; [] |265| 
     539                      .dwattr $C$DW$10, DW_AT_TI_end_file("../DeviceSupport/source/f28003x_defaultisr.c")
     540                      .dwattr $C$DW$10, DW_AT_TI_end_line(0x10a)
     541                      .dwattr $C$DW$10, DW_AT_TI_end_column(0x01)
     542                      .dwendentry
     543                      .dwendtag $C$DW$10
     544              
     545 00000000               .sect   ".text:_USER5_ISR"
     546                      .retain
     547                      .retainrefs
     548                      .global _USER5_ISR
     549              
     550              $C$DW$11        .dwtag  DW_TAG_subprogram
     551                      .dwattr $C$DW$11, DW_AT_name("USER5_ISR")
     552                      .dwattr $C$DW$11, DW_AT_low_pc(_USER5_ISR)
     553                      .dwattr $C$DW$11, DW_AT_high_pc(0x00)
     554                      .dwattr $C$DW$11, DW_AT_TI_symbol_name("_USER5_ISR")
     555                      .dwattr $C$DW$11, DW_AT_external
     556                      .dwattr $C$DW$11, DW_AT_TI_begin_file("../DeviceSupport/source/f28003x_defaultisr.c")
     557                      .dwattr $C$DW$11, DW_AT_TI_begin_line(0xed)
     558                      .dwattr $C$DW$11, DW_AT_TI_begin_column(0x10)
     559                      .dwattr $C$DW$11, DW_AT_TI_interrupt
     560                      .dwattr $C$DW$11, DW_AT_TI_max_frame_size(-6)
     561                      .dwpsn  file "../DeviceSupport/source/f28003x_defaultisr.c",line 238,column 1,is_stmt,address _USER5_
     562              
     563                      .dwfde $C$DW$CIE, _USER5_ISR
     564              
     565              ;***************************************************************
     566              ;* FNAME: _USER5_ISR                    FR SIZE:   4           *
     567              ;*                                                             *
     568              ;* FUNCTION ENVIRONMENT                                        *
     569              ;*                                                             *
     570              ;* FUNCTION PROPERTIES                                         *
     571              ;*                            0 Parameter,  0 Auto,  4 SOE     *
     572              ;***************************************************************
     573              
     574 00000000       _USER5_ISR:
     575                      .dwcfi  cfa_offset, -2
     576                      .dwcfi  save_reg_to_mem, 26, 0
     577 00000000 761B          ASP       ; [CPU_ALU] 
     578 00000001 FFF0          PUSH      RB                    ; [CPU_FPU] 
     579                      .dwcfi  save_reg_to_mem, 74, 4
     580                      .dwcfi  cfa_offset, -4
     581 00000002 E200          MOV32     *SP++,STF             ; [CPU_FPU] 
         00000003 00BD 
     582                      .dwcfi  save_reg_to_mem, 40, 6
     583                      .dwcfi  cfa_offset, -6
     584 00000004 E630          SETFLG    RNDF32=1, RNDF64=1    ; [CPU_FPU] 
TMS320C2000 Assembler PC v22.6.1 Wed May 21 09:51:54 2025

Copyright (c) 1996-2018 Texas Instruments Incorporated
C:\Users\Daniel\AppData\Local\Temp\{513EF8AD-E23E-4989-8EC9-611DE01417F7} PAGE   12

         00000005 0600 
     585 00000006 2942          CLRC      PAGE0,OVM             ; [CPU_ALU] 
     586 00000007 5616          CLRC      AMODE                 ; [CPU_ALU] 
     587 00000008 7625        ESTOP0
     588 00000009       $C$L11:    
     589                      .dwpsn  file "../DeviceSupport/source/f28003x_defaultisr.c",line 248,column 5,is_stmt,isa 0
     590 00000009 6F00          B         $C$L11,UNC            ; [CPU_ALU] |248| 
     591                      ; branch occurs ; [] |248| 
     592                      .dwattr $C$DW$11, DW_AT_TI_end_file("../DeviceSupport/source/f28003x_defaultisr.c")
     593                      .dwattr $C$DW$11, DW_AT_TI_end_line(0xf9)
     594                      .dwattr $C$DW$11, DW_AT_TI_end_column(0x01)
     595                      .dwendentry
     596                      .dwendtag $C$DW$11
     597              
     598 00000000               .sect   ".text:_USER4_ISR"
     599                      .retain
     600                      .retainrefs
     601                      .global _USER4_ISR
     602              
     603              $C$DW$12        .dwtag  DW_TAG_subprogram
     604                      .dwattr $C$DW$12, DW_AT_name("USER4_ISR")
     605                      .dwattr $C$DW$12, DW_AT_low_pc(_USER4_ISR)
     606                      .dwattr $C$DW$12, DW_AT_high_pc(0x00)
     607                      .dwattr $C$DW$12, DW_AT_TI_symbol_name("_USER4_ISR")
     608                      .dwattr $C$DW$12, DW_AT_external
     609                      .dwattr $C$DW$12, DW_AT_TI_begin_file("../DeviceSupport/source/f28003x_defaultisr.c")
     610                      .dwattr $C$DW$12, DW_AT_TI_begin_line(0xdc)
     611                      .dwattr $C$DW$12, DW_AT_TI_begin_column(0x10)
     612                      .dwattr $C$DW$12, DW_AT_TI_interrupt
     613                      .dwattr $C$DW$12, DW_AT_TI_max_frame_size(-6)
     614                      .dwpsn  file "../DeviceSupport/source/f28003x_defaultisr.c",line 221,column 1,is_stmt,address _USER4_
     615              
     616                      .dwfde $C$DW$CIE, _USER4_ISR
     617              
     618              ;***************************************************************
     619              ;* FNAME: _USER4_ISR                    FR SIZE:   4           *
     620              ;*                                                             *
     621              ;* FUNCTION ENVIRONMENT                                        *
     622              ;*                                                             *
     623              ;* FUNCTION PROPERTIES                                         *
     624              ;*                            0 Parameter,  0 Auto,  4 SOE     *
     625              ;***************************************************************
     626              
     627 00000000       _USER4_ISR:
     628                      .dwcfi  cfa_offset, -2
     629                      .dwcfi  save_reg_to_mem, 26, 0
     630 00000000 761B          ASP       ; [CPU_ALU] 
     631 00000001 FFF0          PUSH      RB                    ; [CPU_FPU] 
     632                      .dwcfi  save_reg_to_mem, 74, 4
     633                      .dwcfi  cfa_offset, -4
     634 00000002 E200          MOV32     *SP++,STF             ; [CPU_FPU] 
         00000003 00BD 
     635                      .dwcfi  save_reg_to_mem, 40, 6
     636                      .dwcfi  cfa_offset, -6
     637 00000004 E630          SETFLG    RNDF32=1, RNDF64=1    ; [CPU_FPU] 
TMS320C2000 Assembler PC v22.6.1 Wed May 21 09:51:54 2025

Copyright (c) 1996-2018 Texas Instruments Incorporated
C:\Users\Daniel\AppData\Local\Temp\{513EF8AD-E23E-4989-8EC9-611DE01417F7} PAGE   13

         00000005 0600 
     638 00000006 2942          CLRC      PAGE0,OVM             ; [CPU_ALU] 
     639 00000007 5616          CLRC      AMODE                 ; [CPU_ALU] 
     640 00000008 7625        ESTOP0
     641 00000009       $C$L12:    
     642                      .dwpsn  file "../DeviceSupport/source/f28003x_defaultisr.c",line 231,column 5,is_stmt,isa 0
     643 00000009 6F00          B         $C$L12,UNC            ; [CPU_ALU] |231| 
     644                      ; branch occurs ; [] |231| 
     645                      .dwattr $C$DW$12, DW_AT_TI_end_file("../DeviceSupport/source/f28003x_defaultisr.c")
     646                      .dwattr $C$DW$12, DW_AT_TI_end_line(0xe8)
     647                      .dwattr $C$DW$12, DW_AT_TI_end_column(0x01)
     648                      .dwendentry
     649                      .dwendtag $C$DW$12
     650              
     651 00000000               .sect   ".text:_USER3_ISR"
     652                      .retain
     653                      .retainrefs
     654                      .global _USER3_ISR
     655              
     656              $C$DW$13        .dwtag  DW_TAG_subprogram
     657                      .dwattr $C$DW$13, DW_AT_name("USER3_ISR")
     658                      .dwattr $C$DW$13, DW_AT_low_pc(_USER3_ISR)
     659                      .dwattr $C$DW$13, DW_AT_high_pc(0x00)
     660                      .dwattr $C$DW$13, DW_AT_TI_symbol_name("_USER3_ISR")
     661                      .dwattr $C$DW$13, DW_AT_external
     662                      .dwattr $C$DW$13, DW_AT_TI_begin_file("../DeviceSupport/source/f28003x_defaultisr.c")
     663                      .dwattr $C$DW$13, DW_AT_TI_begin_line(0xcb)
     664                      .dwattr $C$DW$13, DW_AT_TI_begin_column(0x10)
     665                      .dwattr $C$DW$13, DW_AT_TI_interrupt
     666                      .dwattr $C$DW$13, DW_AT_TI_max_frame_size(-6)
     667                      .dwpsn  file "../DeviceSupport/source/f28003x_defaultisr.c",line 204,column 1,is_stmt,address _USER3_
     668              
     669                      .dwfde $C$DW$CIE, _USER3_ISR
     670              
     671              ;***************************************************************
     672              ;* FNAME: _USER3_ISR                    FR SIZE:   4           *
     673              ;*                                                             *
     674              ;* FUNCTION ENVIRONMENT                                        *
     675              ;*                                                             *
     676              ;* FUNCTION PROPERTIES                                         *
     677              ;*                            0 Parameter,  0 Auto,  4 SOE     *
     678              ;***************************************************************
     679              
     680 00000000       _USER3_ISR:
     681                      .dwcfi  cfa_offset, -2
     682                      .dwcfi  save_reg_to_mem, 26, 0
     683 00000000 761B          ASP       ; [CPU_ALU] 
     684 00000001 FFF0          PUSH      RB                    ; [CPU_FPU] 
     685                      .dwcfi  save_reg_to_mem, 74, 4
     686                      .dwcfi  cfa_offset, -4
     687 00000002 E200          MOV32     *SP++,STF             ; [CPU_FPU] 
         00000003 00BD 
     688                      .dwcfi  save_reg_to_mem, 40, 6
     689                      .dwcfi  cfa_offset, -6
     690 00000004 E630          SETFLG    RNDF32=1, RNDF64=1    ; [CPU_FPU] 
TMS320C2000 Assembler PC v22.6.1 Wed May 21 09:51:54 2025

Copyright (c) 1996-2018 Texas Instruments Incorporated
C:\Users\Daniel\AppData\Local\Temp\{513EF8AD-E23E-4989-8EC9-611DE01417F7} PAGE   14

         00000005 0600 
     691 00000006 2942          CLRC      PAGE0,OVM             ; [CPU_ALU] 
     692 00000007 5616          CLRC      AMODE                 ; [CPU_ALU] 
     693 00000008 7625        ESTOP0
     694 00000009       $C$L13:    
     695                      .dwpsn  file "../DeviceSupport/source/f28003x_defaultisr.c",line 214,column 5,is_stmt,isa 0
     696 00000009 6F00          B         $C$L13,UNC            ; [CPU_ALU] |214| 
     697                      ; branch occurs ; [] |214| 
     698                      .dwattr $C$DW$13, DW_AT_TI_end_file("../DeviceSupport/source/f28003x_defaultisr.c")
     699                      .dwattr $C$DW$13, DW_AT_TI_end_line(0xd7)
     700                      .dwattr $C$DW$13, DW_AT_TI_end_column(0x01)
     701                      .dwendentry
     702                      .dwendtag $C$DW$13
     703              
     704 00000000               .sect   ".text:_USER2_ISR"
     705                      .retain
     706                      .retainrefs
     707                      .global _USER2_ISR
     708              
     709              $C$DW$14        .dwtag  DW_TAG_subprogram
     710                      .dwattr $C$DW$14, DW_AT_name("USER2_ISR")
     711                      .dwattr $C$DW$14, DW_AT_low_pc(_USER2_ISR)
     712                      .dwattr $C$DW$14, DW_AT_high_pc(0x00)
     713                      .dwattr $C$DW$14, DW_AT_TI_symbol_name("_USER2_ISR")
     714                      .dwattr $C$DW$14, DW_AT_external
     715                      .dwattr $C$DW$14, DW_AT_TI_begin_file("../DeviceSupport/source/f28003x_defaultisr.c")
     716                      .dwattr $C$DW$14, DW_AT_TI_begin_line(0xba)
     717                      .dwattr $C$DW$14, DW_AT_TI_begin_column(0x10)
     718                      .dwattr $C$DW$14, DW_AT_TI_interrupt
     719                      .dwattr $C$DW$14, DW_AT_TI_max_frame_size(-6)
     720                      .dwpsn  file "../DeviceSupport/source/f28003x_defaultisr.c",line 187,column 1,is_stmt,address _USER2_
     721              
     722                      .dwfde $C$DW$CIE, _USER2_ISR
     723              
     724              ;***************************************************************
     725              ;* FNAME: _USER2_ISR                    FR SIZE:   4           *
     726              ;*                                                             *
     727              ;* FUNCTION ENVIRONMENT                                        *
     728              ;*                                                             *
     729              ;* FUNCTION PROPERTIES                                         *
     730              ;*                            0 Parameter,  0 Auto,  4 SOE     *
     731              ;***************************************************************
     732              
     733 00000000       _USER2_ISR:
     734                      .dwcfi  cfa_offset, -2
     735                      .dwcfi  save_reg_to_mem, 26, 0
     736 00000000 761B          ASP       ; [CPU_ALU] 
     737 00000001 FFF0          PUSH      RB                    ; [CPU_FPU] 
     738                      .dwcfi  save_reg_to_mem, 74, 4
     739                      .dwcfi  cfa_offset, -4
     740 00000002 E200          MOV32     *SP++,STF             ; [CPU_FPU] 
         00000003 00BD 
     741                      .dwcfi  save_reg_to_mem, 40, 6
     742                      .dwcfi  cfa_offset, -6
     743 00000004 E630          SETFLG    RNDF32=1, RNDF64=1    ; [CPU_FPU] 
TMS320C2000 Assembler PC v22.6.1 Wed May 21 09:51:54 2025

Copyright (c) 1996-2018 Texas Instruments Incorporated
C:\Users\Daniel\AppData\Local\Temp\{513EF8AD-E23E-4989-8EC9-611DE01417F7} PAGE   15

         00000005 0600 
     744 00000006 2942          CLRC      PAGE0,OVM             ; [CPU_ALU] 
     745 00000007 5616          CLRC      AMODE                 ; [CPU_ALU] 
     746 00000008 7625        ESTOP0
     747 00000009       $C$L14:    
     748                      .dwpsn  file "../DeviceSupport/source/f28003x_defaultisr.c",line 197,column 5,is_stmt,isa 0
     749 00000009 6F00          B         $C$L14,UNC            ; [CPU_ALU] |197| 
     750                      ; branch occurs ; [] |197| 
     751                      .dwattr $C$DW$14, DW_AT_TI_end_file("../DeviceSupport/source/f28003x_defaultisr.c")
     752                      .dwattr $C$DW$14, DW_AT_TI_end_line(0xc6)
     753                      .dwattr $C$DW$14, DW_AT_TI_end_column(0x01)
     754                      .dwendentry
     755                      .dwendtag $C$DW$14
     756              
     757 00000000               .sect   ".text:_USER1_ISR"
     758                      .retain
     759                      .retainrefs
     760                      .global _USER1_ISR
     761              
     762              $C$DW$15        .dwtag  DW_TAG_subprogram
     763                      .dwattr $C$DW$15, DW_AT_name("USER1_ISR")
     764                      .dwattr $C$DW$15, DW_AT_low_pc(_USER1_ISR)
     765                      .dwattr $C$DW$15, DW_AT_high_pc(0x00)
     766                      .dwattr $C$DW$15, DW_AT_TI_symbol_name("_USER1_ISR")
     767                      .dwattr $C$DW$15, DW_AT_external
     768                      .dwattr $C$DW$15, DW_AT_TI_begin_file("../DeviceSupport/source/f28003x_defaultisr.c")
     769                      .dwattr $C$DW$15, DW_AT_TI_begin_line(0xa9)
     770                      .dwattr $C$DW$15, DW_AT_TI_begin_column(0x10)
     771                      .dwattr $C$DW$15, DW_AT_TI_interrupt
     772                      .dwattr $C$DW$15, DW_AT_TI_max_frame_size(-6)
     773                      .dwpsn  file "../DeviceSupport/source/f28003x_defaultisr.c",line 170,column 1,is_stmt,address _USER1_
     774              
     775                      .dwfde $C$DW$CIE, _USER1_ISR
     776              
     777              ;***************************************************************
     778              ;* FNAME: _USER1_ISR                    FR SIZE:   4           *
     779              ;*                                                             *
     780              ;* FUNCTION ENVIRONMENT                                        *
     781              ;*                                                             *
     782              ;* FUNCTION PROPERTIES                                         *
     783              ;*                            0 Parameter,  0 Auto,  4 SOE     *
     784              ;***************************************************************
     785              
     786 00000000       _USER1_ISR:
     787                      .dwcfi  cfa_offset, -2
     788                      .dwcfi  save_reg_to_mem, 26, 0
     789 00000000 761B          ASP       ; [CPU_ALU] 
     790 00000001 FFF0          PUSH      RB                    ; [CPU_FPU] 
     791                      .dwcfi  save_reg_to_mem, 74, 4
     792                      .dwcfi  cfa_offset, -4
     793 00000002 E200          MOV32     *SP++,STF             ; [CPU_FPU] 
         00000003 00BD 
     794                      .dwcfi  save_reg_to_mem, 40, 6
     795                      .dwcfi  cfa_offset, -6
     796 00000004 E630          SETFLG    RNDF32=1, RNDF64=1    ; [CPU_FPU] 
TMS320C2000 Assembler PC v22.6.1 Wed May 21 09:51:54 2025

Copyright (c) 1996-2018 Texas Instruments Incorporated
C:\Users\Daniel\AppData\Local\Temp\{513EF8AD-E23E-4989-8EC9-611DE01417F7} PAGE   16

         00000005 0600 
     797 00000006 2942          CLRC      PAGE0,OVM             ; [CPU_ALU] 
     798 00000007 5616          CLRC      AMODE                 ; [CPU_ALU] 
     799 00000008 7625        ESTOP0
     800 00000009       $C$L15:    
     801                      .dwpsn  file "../DeviceSupport/source/f28003x_defaultisr.c",line 180,column 5,is_stmt,isa 0
     802 00000009 6F00          B         $C$L15,UNC            ; [CPU_ALU] |180| 
     803                      ; branch occurs ; [] |180| 
     804                      .dwattr $C$DW$15, DW_AT_TI_end_file("../DeviceSupport/source/f28003x_defaultisr.c")
     805                      .dwattr $C$DW$15, DW_AT_TI_end_line(0xb5)
     806                      .dwattr $C$DW$15, DW_AT_TI_end_column(0x01)
     807                      .dwendentry
     808                      .dwendtag $C$DW$15
     809              
     810 00000000               .sect   ".text:_USER12_ISR"
     811                      .retain
     812                      .retainrefs
     813                      .global _USER12_ISR
     814              
     815              $C$DW$16        .dwtag  DW_TAG_subprogram
     816                      .dwattr $C$DW$16, DW_AT_name("USER12_ISR")
     817                      .dwattr $C$DW$16, DW_AT_low_pc(_USER12_ISR)
     818                      .dwattr $C$DW$16, DW_AT_high_pc(0x00)
     819                      .dwattr $C$DW$16, DW_AT_TI_symbol_name("_USER12_ISR")
     820                      .dwattr $C$DW$16, DW_AT_external
     821                      .dwattr $C$DW$16, DW_AT_TI_begin_file("../DeviceSupport/source/f28003x_defaultisr.c")
     822                      .dwattr $C$DW$16, DW_AT_TI_begin_line(0x164)
     823                      .dwattr $C$DW$16, DW_AT_TI_begin_column(0x10)
     824                      .dwattr $C$DW$16, DW_AT_TI_interrupt
     825                      .dwattr $C$DW$16, DW_AT_TI_max_frame_size(-6)
     826                      .dwpsn  file "../DeviceSupport/source/f28003x_defaultisr.c",line 357,column 1,is_stmt,address _USER12
     827              
     828                      .dwfde $C$DW$CIE, _USER12_ISR
     829              
     830              ;***************************************************************
     831              ;* FNAME: _USER12_ISR                   FR SIZE:   4           *
     832              ;*                                                             *
     833              ;* FUNCTION ENVIRONMENT                                        *
     834              ;*                                                             *
     835              ;* FUNCTION PROPERTIES                                         *
     836              ;*                            0 Parameter,  0 Auto,  4 SOE     *
     837              ;***************************************************************
     838              
     839 00000000       _USER12_ISR:
     840                      .dwcfi  cfa_offset, -2
     841                      .dwcfi  save_reg_to_mem, 26, 0
     842 00000000 761B          ASP       ; [CPU_ALU] 
     843 00000001 FFF0          PUSH      RB                    ; [CPU_FPU] 
     844                      .dwcfi  save_reg_to_mem, 74, 4
     845                      .dwcfi  cfa_offset, -4
     846 00000002 E200          MOV32     *SP++,STF             ; [CPU_FPU] 
         00000003 00BD 
     847                      .dwcfi  save_reg_to_mem, 40, 6
     848                      .dwcfi  cfa_offset, -6
     849 00000004 E630          SETFLG    RNDF32=1, RNDF64=1    ; [CPU_FPU] 
TMS320C2000 Assembler PC v22.6.1 Wed May 21 09:51:54 2025

Copyright (c) 1996-2018 Texas Instruments Incorporated
C:\Users\Daniel\AppData\Local\Temp\{513EF8AD-E23E-4989-8EC9-611DE01417F7} PAGE   17

         00000005 0600 
     850 00000006 2942          CLRC      PAGE0,OVM             ; [CPU_ALU] 
     851 00000007 5616          CLRC      AMODE                 ; [CPU_ALU] 
     852 00000008 7625        ESTOP0
     853 00000009       $C$L16:    
     854                      .dwpsn  file "../DeviceSupport/source/f28003x_defaultisr.c",line 367,column 5,is_stmt,isa 0
     855 00000009 6F00          B         $C$L16,UNC            ; [CPU_ALU] |367| 
     856                      ; branch occurs ; [] |367| 
     857                      .dwattr $C$DW$16, DW_AT_TI_end_file("../DeviceSupport/source/f28003x_defaultisr.c")
     858                      .dwattr $C$DW$16, DW_AT_TI_end_line(0x170)
     859                      .dwattr $C$DW$16, DW_AT_TI_end_column(0x01)
     860                      .dwendentry
     861                      .dwendtag $C$DW$16
     862              
     863 00000000               .sect   ".text:_USER11_ISR"
     864                      .retain
     865                      .retainrefs
     866                      .global _USER11_ISR
     867              
     868              $C$DW$17        .dwtag  DW_TAG_subprogram
     869                      .dwattr $C$DW$17, DW_AT_name("USER11_ISR")
     870                      .dwattr $C$DW$17, DW_AT_low_pc(_USER11_ISR)
     871                      .dwattr $C$DW$17, DW_AT_high_pc(0x00)
     872                      .dwattr $C$DW$17, DW_AT_TI_symbol_name("_USER11_ISR")
     873                      .dwattr $C$DW$17, DW_AT_external
     874                      .dwattr $C$DW$17, DW_AT_TI_begin_file("../DeviceSupport/source/f28003x_defaultisr.c")
     875                      .dwattr $C$DW$17, DW_AT_TI_begin_line(0x153)
     876                      .dwattr $C$DW$17, DW_AT_TI_begin_column(0x10)
     877                      .dwattr $C$DW$17, DW_AT_TI_interrupt
     878                      .dwattr $C$DW$17, DW_AT_TI_max_frame_size(-6)
     879                      .dwpsn  file "../DeviceSupport/source/f28003x_defaultisr.c",line 340,column 1,is_stmt,address _USER11
     880              
     881                      .dwfde $C$DW$CIE, _USER11_ISR
     882              
     883              ;***************************************************************
     884              ;* FNAME: _USER11_ISR                   FR SIZE:   4           *
     885              ;*                                                             *
     886              ;* FUNCTION ENVIRONMENT                                        *
     887              ;*                                                             *
     888              ;* FUNCTION PROPERTIES                                         *
     889              ;*                            0 Parameter,  0 Auto,  4 SOE     *
     890              ;***************************************************************
     891              
     892 00000000       _USER11_ISR:
     893                      .dwcfi  cfa_offset, -2
     894                      .dwcfi  save_reg_to_mem, 26, 0
     895 00000000 761B          ASP       ; [CPU_ALU] 
     896 00000001 FFF0          PUSH      RB                    ; [CPU_FPU] 
     897                      .dwcfi  save_reg_to_mem, 74, 4
     898                      .dwcfi  cfa_offset, -4
     899 00000002 E200          MOV32     *SP++,STF             ; [CPU_FPU] 
         00000003 00BD 
     900                      .dwcfi  save_reg_to_mem, 40, 6
     901                      .dwcfi  cfa_offset, -6
     902 00000004 E630          SETFLG    RNDF32=1, RNDF64=1    ; [CPU_FPU] 
TMS320C2000 Assembler PC v22.6.1 Wed May 21 09:51:54 2025

Copyright (c) 1996-2018 Texas Instruments Incorporated
C:\Users\Daniel\AppData\Local\Temp\{513EF8AD-E23E-4989-8EC9-611DE01417F7} PAGE   18

         00000005 0600 
     903 00000006 2942          CLRC      PAGE0,OVM             ; [CPU_ALU] 
     904 00000007 5616          CLRC      AMODE                 ; [CPU_ALU] 
     905 00000008 7625        ESTOP0
     906 00000009       $C$L17:    
     907                      .dwpsn  file "../DeviceSupport/source/f28003x_defaultisr.c",line 350,column 5,is_stmt,isa 0
     908 00000009 6F00          B         $C$L17,UNC            ; [CPU_ALU] |350| 
     909                      ; branch occurs ; [] |350| 
     910                      .dwattr $C$DW$17, DW_AT_TI_end_file("../DeviceSupport/source/f28003x_defaultisr.c")
     911                      .dwattr $C$DW$17, DW_AT_TI_end_line(0x15f)
     912                      .dwattr $C$DW$17, DW_AT_TI_end_column(0x01)
     913                      .dwendentry
     914                      .dwendtag $C$DW$17
     915              
     916 00000000               .sect   ".text:_USER10_ISR"
     917                      .retain
     918                      .retainrefs
     919                      .global _USER10_ISR
     920              
     921              $C$DW$18        .dwtag  DW_TAG_subprogram
     922                      .dwattr $C$DW$18, DW_AT_name("USER10_ISR")
     923                      .dwattr $C$DW$18, DW_AT_low_pc(_USER10_ISR)
     924                      .dwattr $C$DW$18, DW_AT_high_pc(0x00)
     925                      .dwattr $C$DW$18, DW_AT_TI_symbol_name("_USER10_ISR")
     926                      .dwattr $C$DW$18, DW_AT_external
     927                      .dwattr $C$DW$18, DW_AT_TI_begin_file("../DeviceSupport/source/f28003x_defaultisr.c")
     928                      .dwattr $C$DW$18, DW_AT_TI_begin_line(0x142)
     929                      .dwattr $C$DW$18, DW_AT_TI_begin_column(0x10)
     930                      .dwattr $C$DW$18, DW_AT_TI_interrupt
     931                      .dwattr $C$DW$18, DW_AT_TI_max_frame_size(-6)
     932                      .dwpsn  file "../DeviceSupport/source/f28003x_defaultisr.c",line 323,column 1,is_stmt,address _USER10
     933              
     934                      .dwfde $C$DW$CIE, _USER10_ISR
     935              
     936              ;***************************************************************
     937              ;* FNAME: _USER10_ISR                   FR SIZE:   4           *
     938              ;*                                                             *
     939              ;* FUNCTION ENVIRONMENT                                        *
     940              ;*                                                             *
     941              ;* FUNCTION PROPERTIES                                         *
     942              ;*                            0 Parameter,  0 Auto,  4 SOE     *
     943              ;***************************************************************
     944              
     945 00000000       _USER10_ISR:
     946                      .dwcfi  cfa_offset, -2
     947                      .dwcfi  save_reg_to_mem, 26, 0
     948 00000000 761B          ASP       ; [CPU_ALU] 
     949 00000001 FFF0          PUSH      RB                    ; [CPU_FPU] 
     950                      .dwcfi  save_reg_to_mem, 74, 4
     951                      .dwcfi  cfa_offset, -4
     952 00000002 E200          MOV32     *SP++,STF             ; [CPU_FPU] 
         00000003 00BD 
     953                      .dwcfi  save_reg_to_mem, 40, 6
     954                      .dwcfi  cfa_offset, -6
     955 00000004 E630          SETFLG    RNDF32=1, RNDF64=1    ; [CPU_FPU] 
TMS320C2000 Assembler PC v22.6.1 Wed May 21 09:51:54 2025

Copyright (c) 1996-2018 Texas Instruments Incorporated
C:\Users\Daniel\AppData\Local\Temp\{513EF8AD-E23E-4989-8EC9-611DE01417F7} PAGE   19

         00000005 0600 
     956 00000006 2942          CLRC      PAGE0,OVM             ; [CPU_ALU] 
     957 00000007 5616          CLRC      AMODE                 ; [CPU_ALU] 
     958 00000008 7625        ESTOP0
     959 00000009       $C$L18:    
     960                      .dwpsn  file "../DeviceSupport/source/f28003x_defaultisr.c",line 333,column 5,is_stmt,isa 0
     961 00000009 6F00          B         $C$L18,UNC            ; [CPU_ALU] |333| 
     962                      ; branch occurs ; [] |333| 
     963                      .dwattr $C$DW$18, DW_AT_TI_end_file("../DeviceSupport/source/f28003x_defaultisr.c")
     964                      .dwattr $C$DW$18, DW_AT_TI_end_line(0x14e)
     965                      .dwattr $C$DW$18, DW_AT_TI_end_column(0x01)
     966                      .dwendentry
     967                      .dwendtag $C$DW$18
     968              
     969 00000000               .sect   ".text:_TIMER2_ISR"
     970                      .retain
     971                      .retainrefs
     972                      .global _TIMER2_ISR
     973              
     974              $C$DW$19        .dwtag  DW_TAG_subprogram
     975                      .dwattr $C$DW$19, DW_AT_name("TIMER2_ISR")
     976                      .dwattr $C$DW$19, DW_AT_low_pc(_TIMER2_ISR)
     977                      .dwattr $C$DW$19, DW_AT_high_pc(0x00)
     978                      .dwattr $C$DW$19, DW_AT_TI_symbol_name("_TIMER2_ISR")
     979                      .dwattr $C$DW$19, DW_AT_external
     980                      .dwattr $C$DW$19, DW_AT_TI_begin_file("../DeviceSupport/source/f28003x_defaultisr.c")
     981                      .dwattr $C$DW$19, DW_AT_TI_begin_line(0x43)
     982                      .dwattr $C$DW$19, DW_AT_TI_begin_column(0x10)
     983                      .dwattr $C$DW$19, DW_AT_TI_interrupt
     984                      .dwattr $C$DW$19, DW_AT_TI_max_frame_size(-6)
     985                      .dwpsn  file "../DeviceSupport/source/f28003x_defaultisr.c",line 68,column 1,is_stmt,address _TIMER2_
     986              
     987                      .dwfde $C$DW$CIE, _TIMER2_ISR
     988              
     989              ;***************************************************************
     990              ;* FNAME: _TIMER2_ISR                   FR SIZE:   4           *
     991              ;*                                                             *
     992              ;* FUNCTION ENVIRONMENT                                        *
     993              ;*                                                             *
     994              ;* FUNCTION PROPERTIES                                         *
     995              ;*                            0 Parameter,  0 Auto,  4 SOE     *
     996              ;***************************************************************
     997              
     998 00000000       _TIMER2_ISR:
     999                      .dwcfi  cfa_offset, -2
    1000                      .dwcfi  save_reg_to_mem, 26, 0
    1001 00000000 761B          ASP       ; [CPU_ALU] 
    1002 00000001 FFF0          PUSH      RB                    ; [CPU_FPU] 
    1003                      .dwcfi  save_reg_to_mem, 74, 4
    1004                      .dwcfi  cfa_offset, -4
    1005 00000002 E200          MOV32     *SP++,STF             ; [CPU_FPU] 
         00000003 00BD 
    1006                      .dwcfi  save_reg_to_mem, 40, 6
    1007                      .dwcfi  cfa_offset, -6
    1008 00000004 E630          SETFLG    RNDF32=1, RNDF64=1    ; [CPU_FPU] 
TMS320C2000 Assembler PC v22.6.1 Wed May 21 09:51:54 2025

Copyright (c) 1996-2018 Texas Instruments Incorporated
C:\Users\Daniel\AppData\Local\Temp\{513EF8AD-E23E-4989-8EC9-611DE01417F7} PAGE   20

         00000005 0600 
    1009 00000006 2942          CLRC      PAGE0,OVM             ; [CPU_ALU] 
    1010 00000007 5616          CLRC      AMODE                 ; [CPU_ALU] 
    1011 00000008 7625        ESTOP0
    1012 00000009       $C$L19:    
    1013                      .dwpsn  file "../DeviceSupport/source/f28003x_defaultisr.c",line 78,column 5,is_stmt,isa 0
    1014 00000009 6F00          B         $C$L19,UNC            ; [CPU_ALU] |78| 
    1015                      ; branch occurs ; [] |78| 
    1016                      .dwattr $C$DW$19, DW_AT_TI_end_file("../DeviceSupport/source/f28003x_defaultisr.c")
    1017                      .dwattr $C$DW$19, DW_AT_TI_end_line(0x4f)
    1018                      .dwattr $C$DW$19, DW_AT_TI_end_column(0x01)
    1019                      .dwendentry
    1020                      .dwendtag $C$DW$19
    1021              
    1022 00000000               .sect   ".text:_TIMER1_ISR"
    1023                      .retain
    1024                      .retainrefs
    1025                      .global _TIMER1_ISR
    1026              
    1027              $C$DW$20        .dwtag  DW_TAG_subprogram
    1028                      .dwattr $C$DW$20, DW_AT_name("TIMER1_ISR")
    1029                      .dwattr $C$DW$20, DW_AT_low_pc(_TIMER1_ISR)
    1030                      .dwattr $C$DW$20, DW_AT_high_pc(0x00)
    1031                      .dwattr $C$DW$20, DW_AT_TI_symbol_name("_TIMER1_ISR")
    1032                      .dwattr $C$DW$20, DW_AT_external
    1033                      .dwattr $C$DW$20, DW_AT_TI_begin_file("../DeviceSupport/source/f28003x_defaultisr.c")
    1034                      .dwattr $C$DW$20, DW_AT_TI_begin_line(0x32)
    1035                      .dwattr $C$DW$20, DW_AT_TI_begin_column(0x10)
    1036                      .dwattr $C$DW$20, DW_AT_TI_interrupt
    1037                      .dwattr $C$DW$20, DW_AT_TI_max_frame_size(-6)
    1038                      .dwpsn  file "../DeviceSupport/source/f28003x_defaultisr.c",line 51,column 1,is_stmt,address _TIMER1_
    1039              
    1040                      .dwfde $C$DW$CIE, _TIMER1_ISR
    1041              
    1042              ;***************************************************************
    1043              ;* FNAME: _TIMER1_ISR                   FR SIZE:   4           *
    1044              ;*                                                             *
    1045              ;* FUNCTION ENVIRONMENT                                        *
    1046              ;*                                                             *
    1047              ;* FUNCTION PROPERTIES                                         *
    1048              ;*                            0 Parameter,  0 Auto,  4 SOE     *
    1049              ;***************************************************************
    1050              
    1051 00000000       _TIMER1_ISR:
    1052                      .dwcfi  cfa_offset, -2
    1053                      .dwcfi  save_reg_to_mem, 26, 0
    1054 00000000 761B          ASP       ; [CPU_ALU] 
    1055 00000001 FFF0          PUSH      RB                    ; [CPU_FPU] 
    1056                      .dwcfi  save_reg_to_mem, 74, 4
    1057                      .dwcfi  cfa_offset, -4
    1058 00000002 E200          MOV32     *SP++,STF             ; [CPU_FPU] 
         00000003 00BD 
    1059                      .dwcfi  save_reg_to_mem, 40, 6
    1060                      .dwcfi  cfa_offset, -6
    1061 00000004 E630          SETFLG    RNDF32=1, RNDF64=1    ; [CPU_FPU] 
TMS320C2000 Assembler PC v22.6.1 Wed May 21 09:51:54 2025

Copyright (c) 1996-2018 Texas Instruments Incorporated
C:\Users\Daniel\AppData\Local\Temp\{513EF8AD-E23E-4989-8EC9-611DE01417F7} PAGE   21

         00000005 0600 
    1062 00000006 2942          CLRC      PAGE0,OVM             ; [CPU_ALU] 
    1063 00000007 5616          CLRC      AMODE                 ; [CPU_ALU] 
    1064 00000008 7625        ESTOP0
    1065 00000009       $C$L20:    
    1066                      .dwpsn  file "../DeviceSupport/source/f28003x_defaultisr.c",line 61,column 5,is_stmt,isa 0
    1067 00000009 6F00          B         $C$L20,UNC            ; [CPU_ALU] |61| 
    1068                      ; branch occurs ; [] |61| 
    1069                      .dwattr $C$DW$20, DW_AT_TI_end_file("../DeviceSupport/source/f28003x_defaultisr.c")
    1070                      .dwattr $C$DW$20, DW_AT_TI_end_line(0x3e)
    1071                      .dwattr $C$DW$20, DW_AT_TI_end_column(0x01)
    1072                      .dwendentry
    1073                      .dwendtag $C$DW$20
    1074              
    1075 00000000               .sect   ".text:_TIMER0_ISR"
    1076                      .retain
    1077                      .retainrefs
    1078                      .global _TIMER0_ISR
    1079              
    1080              $C$DW$21        .dwtag  DW_TAG_subprogram
    1081                      .dwattr $C$DW$21, DW_AT_name("TIMER0_ISR")
    1082                      .dwattr $C$DW$21, DW_AT_low_pc(_TIMER0_ISR)
    1083                      .dwattr $C$DW$21, DW_AT_high_pc(0x00)
    1084                      .dwattr $C$DW$21, DW_AT_TI_symbol_name("_TIMER0_ISR")
    1085                      .dwattr $C$DW$21, DW_AT_external
    1086                      .dwattr $C$DW$21, DW_AT_TI_begin_file("../DeviceSupport/source/f28003x_defaultisr.c")
    1087                      .dwattr $C$DW$21, DW_AT_TI_begin_line(0x1e8)
    1088                      .dwattr $C$DW$21, DW_AT_TI_begin_column(0x10)
    1089                      .dwattr $C$DW$21, DW_AT_TI_interrupt
    1090                      .dwattr $C$DW$21, DW_AT_TI_max_frame_size(-6)
    1091                      .dwpsn  file "../DeviceSupport/source/f28003x_defaultisr.c",line 489,column 1,is_stmt,address _TIMER0
    1092              
    1093                      .dwfde $C$DW$CIE, _TIMER0_ISR
    1094              
    1095              ;***************************************************************
    1096              ;* FNAME: _TIMER0_ISR                   FR SIZE:   4           *
    1097              ;*                                                             *
    1098              ;* FUNCTION ENVIRONMENT                                        *
    1099              ;*                                                             *
    1100              ;* FUNCTION PROPERTIES                                         *
    1101              ;*                            0 Parameter,  0 Auto,  4 SOE     *
    1102              ;***************************************************************
    1103              
    1104 00000000       _TIMER0_ISR:
    1105                      .dwcfi  cfa_offset, -2
    1106                      .dwcfi  save_reg_to_mem, 26, 0
    1107 00000000 761B          ASP       ; [CPU_ALU] 
    1108 00000001 FFF0          PUSH      RB                    ; [CPU_FPU] 
    1109                      .dwcfi  save_reg_to_mem, 74, 4
    1110                      .dwcfi  cfa_offset, -4
    1111 00000002 E200          MOV32     *SP++,STF             ; [CPU_FPU] 
         00000003 00BD 
    1112                      .dwcfi  save_reg_to_mem, 40, 6
    1113                      .dwcfi  cfa_offset, -6
    1114 00000004 E630          SETFLG    RNDF32=1, RNDF64=1    ; [CPU_FPU] 
TMS320C2000 Assembler PC v22.6.1 Wed May 21 09:51:54 2025

Copyright (c) 1996-2018 Texas Instruments Incorporated
C:\Users\Daniel\AppData\Local\Temp\{513EF8AD-E23E-4989-8EC9-611DE01417F7} PAGE   22

         00000005 0600 
    1115 00000006 2942          CLRC      PAGE0,OVM             ; [CPU_ALU] 
    1116 00000007 5616          CLRC      AMODE                 ; [CPU_ALU] 
    1117 00000008 7625        ESTOP0
    1118 00000009       $C$L21:    
    1119                      .dwpsn  file "../DeviceSupport/source/f28003x_defaultisr.c",line 505,column 5,is_stmt,isa 0
    1120 00000009 6F00          B         $C$L21,UNC            ; [CPU_ALU] |505| 
    1121                      ; branch occurs ; [] |505| 
    1122                      .dwattr $C$DW$21, DW_AT_TI_end_file("../DeviceSupport/source/f28003x_defaultisr.c")
    1123                      .dwattr $C$DW$21, DW_AT_TI_end_line(0x1fa)
    1124                      .dwattr $C$DW$21, DW_AT_TI_end_column(0x01)
    1125                      .dwendentry
    1126                      .dwendtag $C$DW$21
    1127              
    1128 00000000               .sect   ".text:_SYS_ERR_ISR"
    1129                      .retain
    1130                      .retainrefs
    1131                      .global _SYS_ERR_ISR
    1132              
    1133              $C$DW$22        .dwtag  DW_TAG_subprogram
    1134                      .dwattr $C$DW$22, DW_AT_name("SYS_ERR_ISR")
    1135                      .dwattr $C$DW$22, DW_AT_low_pc(_SYS_ERR_ISR)
    1136                      .dwattr $C$DW$22, DW_AT_high_pc(0x00)
    1137                      .dwattr $C$DW$22, DW_AT_TI_symbol_name("_SYS_ERR_ISR")
    1138                      .dwattr $C$DW$22, DW_AT_external
    1139                      .dwattr $C$DW$22, DW_AT_TI_begin_file("../DeviceSupport/source/f28003x_defaultisr.c")
    1140                      .dwattr $C$DW$22, DW_AT_TI_begin_line(0x832)
    1141                      .dwattr $C$DW$22, DW_AT_TI_begin_column(0x10)
    1142                      .dwattr $C$DW$22, DW_AT_TI_interrupt
    1143                      .dwattr $C$DW$22, DW_AT_TI_max_frame_size(-6)
    1144                      .dwpsn  file "../DeviceSupport/source/f28003x_defaultisr.c",line 2099,column 1,is_stmt,address _SYS_E
    1145              
    1146                      .dwfde $C$DW$CIE, _SYS_ERR_ISR
    1147              
    1148              ;***************************************************************
    1149              ;* FNAME: _SYS_ERR_ISR                  FR SIZE:   4           *
    1150              ;*                                                             *
    1151              ;* FUNCTION ENVIRONMENT                                        *
    1152              ;*                                                             *
    1153              ;* FUNCTION PROPERTIES                                         *
    1154              ;*                            0 Parameter,  0 Auto,  4 SOE     *
    1155              ;***************************************************************
    1156              
    1157 00000000       _SYS_ERR_ISR:
    1158                      .dwcfi  cfa_offset, -2
    1159                      .dwcfi  save_reg_to_mem, 26, 0
    1160 00000000 761B          ASP       ; [CPU_ALU] 
    1161 00000001 FFF0          PUSH      RB                    ; [CPU_FPU] 
    1162                      .dwcfi  save_reg_to_mem, 74, 4
    1163                      .dwcfi  cfa_offset, -4
    1164 00000002 E200          MOV32     *SP++,STF             ; [CPU_FPU] 
         00000003 00BD 
    1165                      .dwcfi  save_reg_to_mem, 40, 6
    1166                      .dwcfi  cfa_offset, -6
    1167 00000004 E630          SETFLG    RNDF32=1, RNDF64=1    ; [CPU_FPU] 
TMS320C2000 Assembler PC v22.6.1 Wed May 21 09:51:54 2025

Copyright (c) 1996-2018 Texas Instruments Incorporated
C:\Users\Daniel\AppData\Local\Temp\{513EF8AD-E23E-4989-8EC9-611DE01417F7} PAGE   23

         00000005 0600 
    1168 00000006 2942          CLRC      PAGE0,OVM             ; [CPU_ALU] 
    1169 00000007 5616          CLRC      AMODE                 ; [CPU_ALU] 
    1170 00000008 7625        ESTOP0
    1171 00000009       $C$L22:    
    1172                      .dwpsn  file "../DeviceSupport/source/f28003x_defaultisr.c",line 2115,column 5,is_stmt,isa 0
    1173 00000009 6F00          B         $C$L22,UNC            ; [CPU_ALU] |2115| 
    1174                      ; branch occurs ; [] |2115| 
    1175                      .dwattr $C$DW$22, DW_AT_TI_end_file("../DeviceSupport/source/f28003x_defaultisr.c")
    1176                      .dwattr $C$DW$22, DW_AT_TI_end_line(0x844)
    1177                      .dwattr $C$DW$22, DW_AT_TI_end_column(0x01)
    1178                      .dwendentry
    1179                      .dwendtag $C$DW$22
    1180              
    1181 00000000               .sect   ".text:_SPIB_TX_ISR"
    1182                      .retain
    1183                      .retainrefs
    1184                      .global _SPIB_TX_ISR
    1185              
    1186              $C$DW$23        .dwtag  DW_TAG_subprogram
    1187                      .dwattr $C$DW$23, DW_AT_name("SPIB_TX_ISR")
    1188                      .dwattr $C$DW$23, DW_AT_low_pc(_SPIB_TX_ISR)
    1189                      .dwattr $C$DW$23, DW_AT_high_pc(0x00)
    1190                      .dwattr $C$DW$23, DW_AT_TI_symbol_name("_SPIB_TX_ISR")
    1191                      .dwattr $C$DW$23, DW_AT_external
    1192                      .dwattr $C$DW$23, DW_AT_TI_begin_file("../DeviceSupport/source/f28003x_defaultisr.c")
    1193                      .dwattr $C$DW$23, DW_AT_TI_begin_line(0x49a)
    1194                      .dwattr $C$DW$23, DW_AT_TI_begin_column(0x10)
    1195                      .dwattr $C$DW$23, DW_AT_TI_interrupt
    1196                      .dwattr $C$DW$23, DW_AT_TI_max_frame_size(-6)
    1197                      .dwpsn  file "../DeviceSupport/source/f28003x_defaultisr.c",line 1179,column 1,is_stmt,address _SPIB_
    1198              
    1199                      .dwfde $C$DW$CIE, _SPIB_TX_ISR
    1200              
    1201              ;***************************************************************
    1202              ;* FNAME: _SPIB_TX_ISR                  FR SIZE:   4           *
    1203              ;*                                                             *
    1204              ;* FUNCTION ENVIRONMENT                                        *
    1205              ;*                                                             *
    1206              ;* FUNCTION PROPERTIES                                         *
    1207              ;*                            0 Parameter,  0 Auto,  4 SOE     *
    1208              ;***************************************************************
    1209              
    1210 00000000       _SPIB_TX_ISR:
    1211                      .dwcfi  cfa_offset, -2
    1212                      .dwcfi  save_reg_to_mem, 26, 0
    1213 00000000 761B          ASP       ; [CPU_ALU] 
    1214 00000001 FFF0          PUSH      RB                    ; [CPU_FPU] 
    1215                      .dwcfi  save_reg_to_mem, 74, 4
    1216                      .dwcfi  cfa_offset, -4
    1217 00000002 E200          MOV32     *SP++,STF             ; [CPU_FPU] 
         00000003 00BD 
    1218                      .dwcfi  save_reg_to_mem, 40, 6
    1219                      .dwcfi  cfa_offset, -6
    1220 00000004 E630          SETFLG    RNDF32=1, RNDF64=1    ; [CPU_FPU] 
TMS320C2000 Assembler PC v22.6.1 Wed May 21 09:51:54 2025

Copyright (c) 1996-2018 Texas Instruments Incorporated
C:\Users\Daniel\AppData\Local\Temp\{513EF8AD-E23E-4989-8EC9-611DE01417F7} PAGE   24

         00000005 0600 
    1221 00000006 2942          CLRC      PAGE0,OVM             ; [CPU_ALU] 
    1222 00000007 5616          CLRC      AMODE                 ; [CPU_ALU] 
    1223 00000008 7625        ESTOP0
    1224 00000009       $C$L23:    
    1225                      .dwpsn  file "../DeviceSupport/source/f28003x_defaultisr.c",line 1195,column 5,is_stmt,isa 0
    1226 00000009 6F00          B         $C$L23,UNC            ; [CPU_ALU] |1195| 
    1227                      ; branch occurs ; [] |1195| 
    1228                      .dwattr $C$DW$23, DW_AT_TI_end_file("../DeviceSupport/source/f28003x_defaultisr.c")
    1229                      .dwattr $C$DW$23, DW_AT_TI_end_line(0x4ac)
    1230                      .dwattr $C$DW$23, DW_AT_TI_end_column(0x01)
    1231                      .dwendentry
    1232                      .dwendtag $C$DW$23
    1233              
    1234 00000000               .sect   ".text:_SPIB_RX_ISR"
    1235                      .retain
    1236                      .retainrefs
    1237                      .global _SPIB_RX_ISR
    1238              
    1239              $C$DW$24        .dwtag  DW_TAG_subprogram
    1240                      .dwattr $C$DW$24, DW_AT_name("SPIB_RX_ISR")
    1241                      .dwattr $C$DW$24, DW_AT_low_pc(_SPIB_RX_ISR)
    1242                      .dwattr $C$DW$24, DW_AT_high_pc(0x00)
    1243                      .dwattr $C$DW$24, DW_AT_TI_symbol_name("_SPIB_RX_ISR")
    1244                      .dwattr $C$DW$24, DW_AT_external
    1245                      .dwattr $C$DW$24, DW_AT_TI_begin_file("../DeviceSupport/source/f28003x_defaultisr.c")
    1246                      .dwattr $C$DW$24, DW_AT_TI_begin_line(0x483)
    1247                      .dwattr $C$DW$24, DW_AT_TI_begin_column(0x10)
    1248                      .dwattr $C$DW$24, DW_AT_TI_interrupt
    1249                      .dwattr $C$DW$24, DW_AT_TI_max_frame_size(-6)
    1250                      .dwpsn  file "../DeviceSupport/source/f28003x_defaultisr.c",line 1156,column 1,is_stmt,address _SPIB_
    1251              
    1252                      .dwfde $C$DW$CIE, _SPIB_RX_ISR
    1253              
    1254              ;***************************************************************
    1255              ;* FNAME: _SPIB_RX_ISR                  FR SIZE:   4           *
    1256              ;*                                                             *
    1257              ;* FUNCTION ENVIRONMENT                                        *
    1258              ;*                                                             *
    1259              ;* FUNCTION PROPERTIES                                         *
    1260              ;*                            0 Parameter,  0 Auto,  4 SOE     *
    1261              ;***************************************************************
    1262              
    1263 00000000       _SPIB_RX_ISR:
    1264                      .dwcfi  cfa_offset, -2
    1265                      .dwcfi  save_reg_to_mem, 26, 0
    1266 00000000 761B          ASP       ; [CPU_ALU] 
    1267 00000001 FFF0          PUSH      RB                    ; [CPU_FPU] 
    1268                      .dwcfi  save_reg_to_mem, 74, 4
    1269                      .dwcfi  cfa_offset, -4
    1270 00000002 E200          MOV32     *SP++,STF             ; [CPU_FPU] 
         00000003 00BD 
    1271                      .dwcfi  save_reg_to_mem, 40, 6
    1272                      .dwcfi  cfa_offset, -6
    1273 00000004 E630          SETFLG    RNDF32=1, RNDF64=1    ; [CPU_FPU] 
TMS320C2000 Assembler PC v22.6.1 Wed May 21 09:51:54 2025

Copyright (c) 1996-2018 Texas Instruments Incorporated
C:\Users\Daniel\AppData\Local\Temp\{513EF8AD-E23E-4989-8EC9-611DE01417F7} PAGE   25

         00000005 0600 
    1274 00000006 2942          CLRC      PAGE0,OVM             ; [CPU_ALU] 
    1275 00000007 5616          CLRC      AMODE                 ; [CPU_ALU] 
    1276 00000008 7625        ESTOP0
    1277 00000009       $C$L24:    
    1278                      .dwpsn  file "../DeviceSupport/source/f28003x_defaultisr.c",line 1172,column 5,is_stmt,isa 0
    1279 00000009 6F00          B         $C$L24,UNC            ; [CPU_ALU] |1172| 
    1280                      ; branch occurs ; [] |1172| 
    1281                      .dwattr $C$DW$24, DW_AT_TI_end_file("../DeviceSupport/source/f28003x_defaultisr.c")
    1282                      .dwattr $C$DW$24, DW_AT_TI_end_line(0x495)
    1283                      .dwattr $C$DW$24, DW_AT_TI_end_column(0x01)
    1284                      .dwendentry
    1285                      .dwendtag $C$DW$24
    1286              
    1287 00000000               .sect   ".text:_SPIA_TX_ISR"
    1288                      .retain
    1289                      .retainrefs
    1290                      .global _SPIA_TX_ISR
    1291              
    1292              $C$DW$25        .dwtag  DW_TAG_subprogram
    1293                      .dwattr $C$DW$25, DW_AT_name("SPIA_TX_ISR")
    1294                      .dwattr $C$DW$25, DW_AT_low_pc(_SPIA_TX_ISR)
    1295                      .dwattr $C$DW$25, DW_AT_high_pc(0x00)
    1296                      .dwattr $C$DW$25, DW_AT_TI_symbol_name("_SPIA_TX_ISR")
    1297                      .dwattr $C$DW$25, DW_AT_external
    1298                      .dwattr $C$DW$25, DW_AT_TI_begin_file("../DeviceSupport/source/f28003x_defaultisr.c")
    1299                      .dwattr $C$DW$25, DW_AT_TI_begin_line(0x46c)
    1300                      .dwattr $C$DW$25, DW_AT_TI_begin_column(0x10)
    1301                      .dwattr $C$DW$25, DW_AT_TI_interrupt
    1302                      .dwattr $C$DW$25, DW_AT_TI_max_frame_size(-6)
    1303                      .dwpsn  file "../DeviceSupport/source/f28003x_defaultisr.c",line 1133,column 1,is_stmt,address _SPIA_
    1304              
    1305                      .dwfde $C$DW$CIE, _SPIA_TX_ISR
    1306              
    1307              ;***************************************************************
    1308              ;* FNAME: _SPIA_TX_ISR                  FR SIZE:   4           *
    1309              ;*                                                             *
    1310              ;* FUNCTION ENVIRONMENT                                        *
    1311              ;*                                                             *
    1312              ;* FUNCTION PROPERTIES                                         *
    1313              ;*                            0 Parameter,  0 Auto,  4 SOE     *
    1314              ;***************************************************************
    1315              
    1316 00000000       _SPIA_TX_ISR:
    1317                      .dwcfi  cfa_offset, -2
    1318                      .dwcfi  save_reg_to_mem, 26, 0
    1319 00000000 761B          ASP       ; [CPU_ALU] 
    1320 00000001 FFF0          PUSH      RB                    ; [CPU_FPU] 
    1321                      .dwcfi  save_reg_to_mem, 74, 4
    1322                      .dwcfi  cfa_offset, -4
    1323 00000002 E200          MOV32     *SP++,STF             ; [CPU_FPU] 
         00000003 00BD 
    1324                      .dwcfi  save_reg_to_mem, 40, 6
    1325                      .dwcfi  cfa_offset, -6
    1326 00000004 E630          SETFLG    RNDF32=1, RNDF64=1    ; [CPU_FPU] 
TMS320C2000 Assembler PC v22.6.1 Wed May 21 09:51:54 2025

Copyright (c) 1996-2018 Texas Instruments Incorporated
C:\Users\Daniel\AppData\Local\Temp\{513EF8AD-E23E-4989-8EC9-611DE01417F7} PAGE   26

         00000005 0600 
    1327 00000006 2942          CLRC      PAGE0,OVM             ; [CPU_ALU] 
    1328 00000007 5616          CLRC      AMODE                 ; [CPU_ALU] 
    1329 00000008 7625        ESTOP0
    1330 00000009       $C$L25:    
    1331                      .dwpsn  file "../DeviceSupport/source/f28003x_defaultisr.c",line 1149,column 5,is_stmt,isa 0
    1332 00000009 6F00          B         $C$L25,UNC            ; [CPU_ALU] |1149| 
    1333                      ; branch occurs ; [] |1149| 
    1334                      .dwattr $C$DW$25, DW_AT_TI_end_file("../DeviceSupport/source/f28003x_defaultisr.c")
    1335                      .dwattr $C$DW$25, DW_AT_TI_end_line(0x47e)
    1336                      .dwattr $C$DW$25, DW_AT_TI_end_column(0x01)
    1337                      .dwendentry
    1338                      .dwendtag $C$DW$25
    1339              
    1340 00000000               .sect   ".text:_SPIA_RX_ISR"
    1341                      .retain
    1342                      .retainrefs
    1343                      .global _SPIA_RX_ISR
    1344              
    1345              $C$DW$26        .dwtag  DW_TAG_subprogram
    1346                      .dwattr $C$DW$26, DW_AT_name("SPIA_RX_ISR")
    1347                      .dwattr $C$DW$26, DW_AT_low_pc(_SPIA_RX_ISR)
    1348                      .dwattr $C$DW$26, DW_AT_high_pc(0x00)
    1349                      .dwattr $C$DW$26, DW_AT_TI_symbol_name("_SPIA_RX_ISR")
    1350                      .dwattr $C$DW$26, DW_AT_external
    1351                      .dwattr $C$DW$26, DW_AT_TI_begin_file("../DeviceSupport/source/f28003x_defaultisr.c")
    1352                      .dwattr $C$DW$26, DW_AT_TI_begin_line(0x455)
    1353                      .dwattr $C$DW$26, DW_AT_TI_begin_column(0x10)
    1354                      .dwattr $C$DW$26, DW_AT_TI_interrupt
    1355                      .dwattr $C$DW$26, DW_AT_TI_max_frame_size(-6)
    1356                      .dwpsn  file "../DeviceSupport/source/f28003x_defaultisr.c",line 1110,column 1,is_stmt,address _SPIA_
    1357              
    1358                      .dwfde $C$DW$CIE, _SPIA_RX_ISR
    1359              
    1360              ;***************************************************************
    1361              ;* FNAME: _SPIA_RX_ISR                  FR SIZE:   4           *
    1362              ;*                                                             *
    1363              ;* FUNCTION ENVIRONMENT                                        *
    1364              ;*                                                             *
    1365              ;* FUNCTION PROPERTIES                                         *
    1366              ;*                            0 Parameter,  0 Auto,  4 SOE     *
    1367              ;***************************************************************
    1368              
    1369 00000000       _SPIA_RX_ISR:
    1370                      .dwcfi  cfa_offset, -2
    1371                      .dwcfi  save_reg_to_mem, 26, 0
    1372 00000000 761B          ASP       ; [CPU_ALU] 
    1373 00000001 FFF0          PUSH      RB                    ; [CPU_FPU] 
    1374                      .dwcfi  save_reg_to_mem, 74, 4
    1375                      .dwcfi  cfa_offset, -4
    1376 00000002 E200          MOV32     *SP++,STF             ; [CPU_FPU] 
         00000003 00BD 
    1377                      .dwcfi  save_reg_to_mem, 40, 6
    1378                      .dwcfi  cfa_offset, -6
    1379 00000004 E630          SETFLG    RNDF32=1, RNDF64=1    ; [CPU_FPU] 
TMS320C2000 Assembler PC v22.6.1 Wed May 21 09:51:54 2025

Copyright (c) 1996-2018 Texas Instruments Incorporated
C:\Users\Daniel\AppData\Local\Temp\{513EF8AD-E23E-4989-8EC9-611DE01417F7} PAGE   27

         00000005 0600 
    1380 00000006 2942          CLRC      PAGE0,OVM             ; [CPU_ALU] 
    1381 00000007 5616          CLRC      AMODE                 ; [CPU_ALU] 
    1382 00000008 7625        ESTOP0
    1383 00000009       $C$L26:    
    1384                      .dwpsn  file "../DeviceSupport/source/f28003x_defaultisr.c",line 1126,column 5,is_stmt,isa 0
    1385 00000009 6F00          B         $C$L26,UNC            ; [CPU_ALU] |1126| 
    1386                      ; branch occurs ; [] |1126| 
    1387                      .dwattr $C$DW$26, DW_AT_TI_end_file("../DeviceSupport/source/f28003x_defaultisr.c")
    1388                      .dwattr $C$DW$26, DW_AT_TI_end_line(0x467)
    1389                      .dwattr $C$DW$26, DW_AT_TI_end_column(0x01)
    1390                      .dwendentry
    1391                      .dwendtag $C$DW$26
    1392              
    1393 00000000               .sect   ".text:_SDFM2_ISR"
    1394                      .retain
    1395                      .retainrefs
    1396                      .global _SDFM2_ISR
    1397              
    1398              $C$DW$27        .dwtag  DW_TAG_subprogram
    1399                      .dwattr $C$DW$27, DW_AT_name("SDFM2_ISR")
    1400                      .dwattr $C$DW$27, DW_AT_low_pc(_SDFM2_ISR)
    1401                      .dwattr $C$DW$27, DW_AT_high_pc(0x00)
    1402                      .dwattr $C$DW$27, DW_AT_TI_symbol_name("_SDFM2_ISR")
    1403                      .dwattr $C$DW$27, DW_AT_external
    1404                      .dwattr $C$DW$27, DW_AT_TI_begin_file("../DeviceSupport/source/f28003x_defaultisr.c")
    1405                      .dwattr $C$DW$27, DW_AT_TI_begin_line(0x877)
    1406                      .dwattr $C$DW$27, DW_AT_TI_begin_column(0x10)
    1407                      .dwattr $C$DW$27, DW_AT_TI_interrupt
    1408                      .dwattr $C$DW$27, DW_AT_TI_max_frame_size(-6)
    1409                      .dwpsn  file "../DeviceSupport/source/f28003x_defaultisr.c",line 2168,column 1,is_stmt,address _SDFM2
    1410              
    1411                      .dwfde $C$DW$CIE, _SDFM2_ISR
    1412              
    1413              ;***************************************************************
    1414              ;* FNAME: _SDFM2_ISR                    FR SIZE:   4           *
    1415              ;*                                                             *
    1416              ;* FUNCTION ENVIRONMENT                                        *
    1417              ;*                                                             *
    1418              ;* FUNCTION PROPERTIES                                         *
    1419              ;*                            0 Parameter,  0 Auto,  4 SOE     *
    1420              ;***************************************************************
    1421              
    1422 00000000       _SDFM2_ISR:
    1423                      .dwcfi  cfa_offset, -2
    1424                      .dwcfi  save_reg_to_mem, 26, 0
    1425 00000000 761B          ASP       ; [CPU_ALU] 
    1426 00000001 FFF0          PUSH      RB                    ; [CPU_FPU] 
    1427                      .dwcfi  save_reg_to_mem, 74, 4
    1428                      .dwcfi  cfa_offset, -4
    1429 00000002 E200          MOV32     *SP++,STF             ; [CPU_FPU] 
         00000003 00BD 
    1430                      .dwcfi  save_reg_to_mem, 40, 6
    1431                      .dwcfi  cfa_offset, -6
    1432 00000004 E630          SETFLG    RNDF32=1, RNDF64=1    ; [CPU_FPU] 
TMS320C2000 Assembler PC v22.6.1 Wed May 21 09:51:54 2025

Copyright (c) 1996-2018 Texas Instruments Incorporated
C:\Users\Daniel\AppData\Local\Temp\{513EF8AD-E23E-4989-8EC9-611DE01417F7} PAGE   28

         00000005 0600 
    1433 00000006 2942          CLRC      PAGE0,OVM             ; [CPU_ALU] 
    1434 00000007 5616          CLRC      AMODE                 ; [CPU_ALU] 
    1435 00000008 7625        ESTOP0
    1436 00000009       $C$L27:    
    1437                      .dwpsn  file "../DeviceSupport/source/f28003x_defaultisr.c",line 2184,column 5,is_stmt,isa 0
    1438 00000009 6F00          B         $C$L27,UNC            ; [CPU_ALU] |2184| 
    1439                      ; branch occurs ; [] |2184| 
    1440                      .dwattr $C$DW$27, DW_AT_TI_end_file("../DeviceSupport/source/f28003x_defaultisr.c")
    1441                      .dwattr $C$DW$27, DW_AT_TI_end_line(0x889)
    1442                      .dwattr $C$DW$27, DW_AT_TI_end_column(0x01)
    1443                      .dwendentry
    1444                      .dwendtag $C$DW$27
    1445              
    1446 00000000               .sect   ".text:_SDFM2DR4_ISR"
    1447                      .retain
    1448                      .retainrefs
    1449                      .global _SDFM2DR4_ISR
    1450              
    1451              $C$DW$28        .dwtag  DW_TAG_subprogram
    1452                      .dwattr $C$DW$28, DW_AT_name("SDFM2DR4_ISR")
    1453                      .dwattr $C$DW$28, DW_AT_low_pc(_SDFM2DR4_ISR)
    1454                      .dwattr $C$DW$28, DW_AT_high_pc(0x00)
    1455                      .dwattr $C$DW$28, DW_AT_TI_symbol_name("_SDFM2DR4_ISR")
    1456                      .dwattr $C$DW$28, DW_AT_external
    1457                      .dwattr $C$DW$28, DW_AT_TI_begin_file("../DeviceSupport/source/f28003x_defaultisr.c")
    1458                      .dwattr $C$DW$28, DW_AT_TI_begin_line(0x92f)
    1459                      .dwattr $C$DW$28, DW_AT_TI_begin_column(0x10)
    1460                      .dwattr $C$DW$28, DW_AT_TI_interrupt
    1461                      .dwattr $C$DW$28, DW_AT_TI_max_frame_size(-6)
    1462                      .dwpsn  file "../DeviceSupport/source/f28003x_defaultisr.c",line 2352,column 1,is_stmt,address _SDFM2
    1463              
    1464                      .dwfde $C$DW$CIE, _SDFM2DR4_ISR
    1465              
    1466              ;***************************************************************
    1467              ;* FNAME: _SDFM2DR4_ISR                 FR SIZE:   4           *
    1468              ;*                                                             *
    1469              ;* FUNCTION ENVIRONMENT                                        *
    1470              ;*                                                             *
    1471              ;* FUNCTION PROPERTIES                                         *
    1472              ;*                            0 Parameter,  0 Auto,  4 SOE     *
    1473              ;***************************************************************
    1474              
    1475 00000000       _SDFM2DR4_ISR:
    1476                      .dwcfi  cfa_offset, -2
    1477                      .dwcfi  save_reg_to_mem, 26, 0
    1478 00000000 761B          ASP       ; [CPU_ALU] 
    1479 00000001 FFF0          PUSH      RB                    ; [CPU_FPU] 
    1480                      .dwcfi  save_reg_to_mem, 74, 4
    1481                      .dwcfi  cfa_offset, -4
    1482 00000002 E200          MOV32     *SP++,STF             ; [CPU_FPU] 
         00000003 00BD 
    1483                      .dwcfi  save_reg_to_mem, 40, 6
    1484                      .dwcfi  cfa_offset, -6
    1485 00000004 E630          SETFLG    RNDF32=1, RNDF64=1    ; [CPU_FPU] 
TMS320C2000 Assembler PC v22.6.1 Wed May 21 09:51:54 2025

Copyright (c) 1996-2018 Texas Instruments Incorporated
C:\Users\Daniel\AppData\Local\Temp\{513EF8AD-E23E-4989-8EC9-611DE01417F7} PAGE   29

         00000005 0600 
    1486 00000006 2942          CLRC      PAGE0,OVM             ; [CPU_ALU] 
    1487 00000007 5616          CLRC      AMODE                 ; [CPU_ALU] 
    1488 00000008 7625        ESTOP0
    1489 00000009       $C$L28:    
    1490                      .dwpsn  file "../DeviceSupport/source/f28003x_defaultisr.c",line 2368,column 5,is_stmt,isa 0
    1491 00000009 6F00          B         $C$L28,UNC            ; [CPU_ALU] |2368| 
    1492                      ; branch occurs ; [] |2368| 
    1493                      .dwattr $C$DW$28, DW_AT_TI_end_file("../DeviceSupport/source/f28003x_defaultisr.c")
    1494                      .dwattr $C$DW$28, DW_AT_TI_end_line(0x941)
    1495                      .dwattr $C$DW$28, DW_AT_TI_end_column(0x01)
    1496                      .dwendentry
    1497                      .dwendtag $C$DW$28
    1498              
    1499 00000000               .sect   ".text:_SDFM2DR3_ISR"
    1500                      .retain
    1501                      .retainrefs
    1502                      .global _SDFM2DR3_ISR
    1503              
    1504              $C$DW$29        .dwtag  DW_TAG_subprogram
    1505                      .dwattr $C$DW$29, DW_AT_name("SDFM2DR3_ISR")
    1506                      .dwattr $C$DW$29, DW_AT_low_pc(_SDFM2DR3_ISR)
    1507                      .dwattr $C$DW$29, DW_AT_high_pc(0x00)
    1508                      .dwattr $C$DW$29, DW_AT_TI_symbol_name("_SDFM2DR3_ISR")
    1509                      .dwattr $C$DW$29, DW_AT_external
    1510                      .dwattr $C$DW$29, DW_AT_TI_begin_file("../DeviceSupport/source/f28003x_defaultisr.c")
    1511                      .dwattr $C$DW$29, DW_AT_TI_begin_line(0x918)
    1512                      .dwattr $C$DW$29, DW_AT_TI_begin_column(0x10)
    1513                      .dwattr $C$DW$29, DW_AT_TI_interrupt
    1514                      .dwattr $C$DW$29, DW_AT_TI_max_frame_size(-6)
    1515                      .dwpsn  file "../DeviceSupport/source/f28003x_defaultisr.c",line 2329,column 1,is_stmt,address _SDFM2
    1516              
    1517                      .dwfde $C$DW$CIE, _SDFM2DR3_ISR
    1518              
    1519              ;***************************************************************
    1520              ;* FNAME: _SDFM2DR3_ISR                 FR SIZE:   4           *
    1521              ;*                                                             *
    1522              ;* FUNCTION ENVIRONMENT                                        *
    1523              ;*                                                             *
    1524              ;* FUNCTION PROPERTIES                                         *
    1525              ;*                            0 Parameter,  0 Auto,  4 SOE     *
    1526              ;***************************************************************
    1527              
    1528 00000000       _SDFM2DR3_ISR:
    1529                      .dwcfi  cfa_offset, -2
    1530                      .dwcfi  save_reg_to_mem, 26, 0
    1531 00000000 761B          ASP       ; [CPU_ALU] 
    1532 00000001 FFF0          PUSH      RB                    ; [CPU_FPU] 
    1533                      .dwcfi  save_reg_to_mem, 74, 4
    1534                      .dwcfi  cfa_offset, -4
    1535 00000002 E200          MOV32     *SP++,STF             ; [CPU_FPU] 
         00000003 00BD 
    1536                      .dwcfi  save_reg_to_mem, 40, 6
    1537                      .dwcfi  cfa_offset, -6
    1538 00000004 E630          SETFLG    RNDF32=1, RNDF64=1    ; [CPU_FPU] 
TMS320C2000 Assembler PC v22.6.1 Wed May 21 09:51:54 2025

Copyright (c) 1996-2018 Texas Instruments Incorporated
C:\Users\Daniel\AppData\Local\Temp\{513EF8AD-E23E-4989-8EC9-611DE01417F7} PAGE   30

         00000005 0600 
    1539 00000006 2942          CLRC      PAGE0,OVM             ; [CPU_ALU] 
    1540 00000007 5616          CLRC      AMODE                 ; [CPU_ALU] 
    1541 00000008 7625        ESTOP0
    1542 00000009       $C$L29:    
    1543                      .dwpsn  file "../DeviceSupport/source/f28003x_defaultisr.c",line 2345,column 5,is_stmt,isa 0
    1544 00000009 6F00          B         $C$L29,UNC            ; [CPU_ALU] |2345| 
    1545                      ; branch occurs ; [] |2345| 
    1546                      .dwattr $C$DW$29, DW_AT_TI_end_file("../DeviceSupport/source/f28003x_defaultisr.c")
    1547                      .dwattr $C$DW$29, DW_AT_TI_end_line(0x92a)
    1548                      .dwattr $C$DW$29, DW_AT_TI_end_column(0x01)
    1549                      .dwendentry
    1550                      .dwendtag $C$DW$29
    1551              
    1552 00000000               .sect   ".text:_SDFM2DR2_ISR"
    1553                      .retain
    1554                      .retainrefs
    1555                      .global _SDFM2DR2_ISR
    1556              
    1557              $C$DW$30        .dwtag  DW_TAG_subprogram
    1558                      .dwattr $C$DW$30, DW_AT_name("SDFM2DR2_ISR")
    1559                      .dwattr $C$DW$30, DW_AT_low_pc(_SDFM2DR2_ISR)
    1560                      .dwattr $C$DW$30, DW_AT_high_pc(0x00)
    1561                      .dwattr $C$DW$30, DW_AT_TI_symbol_name("_SDFM2DR2_ISR")
    1562                      .dwattr $C$DW$30, DW_AT_external
    1563                      .dwattr $C$DW$30, DW_AT_TI_begin_file("../DeviceSupport/source/f28003x_defaultisr.c")
    1564                      .dwattr $C$DW$30, DW_AT_TI_begin_line(0x901)
    1565                      .dwattr $C$DW$30, DW_AT_TI_begin_column(0x10)
    1566                      .dwattr $C$DW$30, DW_AT_TI_interrupt
    1567                      .dwattr $C$DW$30, DW_AT_TI_max_frame_size(-6)
    1568                      .dwpsn  file "../DeviceSupport/source/f28003x_defaultisr.c",line 2306,column 1,is_stmt,address _SDFM2
    1569              
    1570                      .dwfde $C$DW$CIE, _SDFM2DR2_ISR
    1571              
    1572              ;***************************************************************
    1573              ;* FNAME: _SDFM2DR2_ISR                 FR SIZE:   4           *
    1574              ;*                                                             *
    1575              ;* FUNCTION ENVIRONMENT                                        *
    1576              ;*                                                             *
    1577              ;* FUNCTION PROPERTIES                                         *
    1578              ;*                            0 Parameter,  0 Auto,  4 SOE     *
    1579              ;***************************************************************
    1580              
    1581 00000000       _SDFM2DR2_ISR:
    1582                      .dwcfi  cfa_offset, -2
    1583                      .dwcfi  save_reg_to_mem, 26, 0
    1584 00000000 761B          ASP       ; [CPU_ALU] 
    1585 00000001 FFF0          PUSH      RB                    ; [CPU_FPU] 
    1586                      .dwcfi  save_reg_to_mem, 74, 4
    1587                      .dwcfi  cfa_offset, -4
    1588 00000002 E200          MOV32     *SP++,STF             ; [CPU_FPU] 
         00000003 00BD 
    1589                      .dwcfi  save_reg_to_mem, 40, 6
    1590                      .dwcfi  cfa_offset, -6
    1591 00000004 E630          SETFLG    RNDF32=1, RNDF64=1    ; [CPU_FPU] 
TMS320C2000 Assembler PC v22.6.1 Wed May 21 09:51:54 2025

Copyright (c) 1996-2018 Texas Instruments Incorporated
C:\Users\Daniel\AppData\Local\Temp\{513EF8AD-E23E-4989-8EC9-611DE01417F7} PAGE   31

         00000005 0600 
    1592 00000006 2942          CLRC      PAGE0,OVM             ; [CPU_ALU] 
    1593 00000007 5616          CLRC      AMODE                 ; [CPU_ALU] 
    1594 00000008 7625        ESTOP0
    1595 00000009       $C$L30:    
    1596                      .dwpsn  file "../DeviceSupport/source/f28003x_defaultisr.c",line 2322,column 5,is_stmt,isa 0
    1597 00000009 6F00          B         $C$L30,UNC            ; [CPU_ALU] |2322| 
    1598                      ; branch occurs ; [] |2322| 
    1599                      .dwattr $C$DW$30, DW_AT_TI_end_file("../DeviceSupport/source/f28003x_defaultisr.c")
    1600                      .dwattr $C$DW$30, DW_AT_TI_end_line(0x913)
    1601                      .dwattr $C$DW$30, DW_AT_TI_end_column(0x01)
    1602                      .dwendentry
    1603                      .dwendtag $C$DW$30
    1604              
    1605 00000000               .sect   ".text:_SDFM2DR1_ISR"
    1606                      .retain
    1607                      .retainrefs
    1608                      .global _SDFM2DR1_ISR
    1609              
    1610              $C$DW$31        .dwtag  DW_TAG_subprogram
    1611                      .dwattr $C$DW$31, DW_AT_name("SDFM2DR1_ISR")
    1612                      .dwattr $C$DW$31, DW_AT_low_pc(_SDFM2DR1_ISR)
    1613                      .dwattr $C$DW$31, DW_AT_high_pc(0x00)
    1614                      .dwattr $C$DW$31, DW_AT_TI_symbol_name("_SDFM2DR1_ISR")
    1615                      .dwattr $C$DW$31, DW_AT_external
    1616                      .dwattr $C$DW$31, DW_AT_TI_begin_file("../DeviceSupport/source/f28003x_defaultisr.c")
    1617                      .dwattr $C$DW$31, DW_AT_TI_begin_line(0x8ea)
    1618                      .dwattr $C$DW$31, DW_AT_TI_begin_column(0x10)
    1619                      .dwattr $C$DW$31, DW_AT_TI_interrupt
    1620                      .dwattr $C$DW$31, DW_AT_TI_max_frame_size(-6)
    1621                      .dwpsn  file "../DeviceSupport/source/f28003x_defaultisr.c",line 2283,column 1,is_stmt,address _SDFM2
    1622              
    1623                      .dwfde $C$DW$CIE, _SDFM2DR1_ISR
    1624              
    1625              ;***************************************************************
    1626              ;* FNAME: _SDFM2DR1_ISR                 FR SIZE:   4           *
    1627              ;*                                                             *
    1628              ;* FUNCTION ENVIRONMENT                                        *
    1629              ;*                                                             *
    1630              ;* FUNCTION PROPERTIES                                         *
    1631              ;*                            0 Parameter,  0 Auto,  4 SOE     *
    1632              ;***************************************************************
    1633              
    1634 00000000       _SDFM2DR1_ISR:
    1635                      .dwcfi  cfa_offset, -2
    1636                      .dwcfi  save_reg_to_mem, 26, 0
    1637 00000000 761B          ASP       ; [CPU_ALU] 
    1638 00000001 FFF0          PUSH      RB                    ; [CPU_FPU] 
    1639                      .dwcfi  save_reg_to_mem, 74, 4
    1640                      .dwcfi  cfa_offset, -4
    1641 00000002 E200          MOV32     *SP++,STF             ; [CPU_FPU] 
         00000003 00BD 
    1642                      .dwcfi  save_reg_to_mem, 40, 6
    1643                      .dwcfi  cfa_offset, -6
    1644 00000004 E630          SETFLG    RNDF32=1, RNDF64=1    ; [CPU_FPU] 
TMS320C2000 Assembler PC v22.6.1 Wed May 21 09:51:54 2025

Copyright (c) 1996-2018 Texas Instruments Incorporated
C:\Users\Daniel\AppData\Local\Temp\{513EF8AD-E23E-4989-8EC9-611DE01417F7} PAGE   32

         00000005 0600 
    1645 00000006 2942          CLRC      PAGE0,OVM             ; [CPU_ALU] 
    1646 00000007 5616          CLRC      AMODE                 ; [CPU_ALU] 
    1647 00000008 7625        ESTOP0
    1648 00000009       $C$L31:    
    1649                      .dwpsn  file "../DeviceSupport/source/f28003x_defaultisr.c",line 2299,column 5,is_stmt,isa 0
    1650 00000009 6F00          B         $C$L31,UNC            ; [CPU_ALU] |2299| 
    1651                      ; branch occurs ; [] |2299| 
    1652                      .dwattr $C$DW$31, DW_AT_TI_end_file("../DeviceSupport/source/f28003x_defaultisr.c")
    1653                      .dwattr $C$DW$31, DW_AT_TI_end_line(0x8fc)
    1654                      .dwattr $C$DW$31, DW_AT_TI_end_column(0x01)
    1655                      .dwendentry
    1656                      .dwendtag $C$DW$31
    1657              
    1658 00000000               .sect   ".text:_SDFM1_ISR"
    1659                      .retain
    1660                      .retainrefs
    1661                      .global _SDFM1_ISR
    1662              
    1663              $C$DW$32        .dwtag  DW_TAG_subprogram
    1664                      .dwattr $C$DW$32, DW_AT_name("SDFM1_ISR")
    1665                      .dwattr $C$DW$32, DW_AT_low_pc(_SDFM1_ISR)
    1666                      .dwattr $C$DW$32, DW_AT_high_pc(0x00)
    1667                      .dwattr $C$DW$32, DW_AT_TI_symbol_name("_SDFM1_ISR")
    1668                      .dwattr $C$DW$32, DW_AT_external
    1669                      .dwattr $C$DW$32, DW_AT_TI_begin_file("../DeviceSupport/source/f28003x_defaultisr.c")
    1670                      .dwattr $C$DW$32, DW_AT_TI_begin_line(0x860)
    1671                      .dwattr $C$DW$32, DW_AT_TI_begin_column(0x10)
    1672                      .dwattr $C$DW$32, DW_AT_TI_interrupt
    1673                      .dwattr $C$DW$32, DW_AT_TI_max_frame_size(-6)
    1674                      .dwpsn  file "../DeviceSupport/source/f28003x_defaultisr.c",line 2145,column 1,is_stmt,address _SDFM1
    1675              
    1676                      .dwfde $C$DW$CIE, _SDFM1_ISR
    1677              
    1678              ;***************************************************************
    1679              ;* FNAME: _SDFM1_ISR                    FR SIZE:   4           *
    1680              ;*                                                             *
    1681              ;* FUNCTION ENVIRONMENT                                        *
    1682              ;*                                                             *
    1683              ;* FUNCTION PROPERTIES                                         *
    1684              ;*                            0 Parameter,  0 Auto,  4 SOE     *
    1685              ;***************************************************************
    1686              
    1687 00000000       _SDFM1_ISR:
    1688                      .dwcfi  cfa_offset, -2
    1689                      .dwcfi  save_reg_to_mem, 26, 0
    1690 00000000 761B          ASP       ; [CPU_ALU] 
    1691 00000001 FFF0          PUSH      RB                    ; [CPU_FPU] 
    1692                      .dwcfi  save_reg_to_mem, 74, 4
    1693                      .dwcfi  cfa_offset, -4
    1694 00000002 E200          MOV32     *SP++,STF             ; [CPU_FPU] 
         00000003 00BD 
    1695                      .dwcfi  save_reg_to_mem, 40, 6
    1696                      .dwcfi  cfa_offset, -6
    1697 00000004 E630          SETFLG    RNDF32=1, RNDF64=1    ; [CPU_FPU] 
TMS320C2000 Assembler PC v22.6.1 Wed May 21 09:51:54 2025

Copyright (c) 1996-2018 Texas Instruments Incorporated
C:\Users\Daniel\AppData\Local\Temp\{513EF8AD-E23E-4989-8EC9-611DE01417F7} PAGE   33

         00000005 0600 
    1698 00000006 2942          CLRC      PAGE0,OVM             ; [CPU_ALU] 
    1699 00000007 5616          CLRC      AMODE                 ; [CPU_ALU] 
    1700 00000008 7625        ESTOP0
    1701 00000009       $C$L32:    
    1702                      .dwpsn  file "../DeviceSupport/source/f28003x_defaultisr.c",line 2161,column 5,is_stmt,isa 0
    1703 00000009 6F00          B         $C$L32,UNC            ; [CPU_ALU] |2161| 
    1704                      ; branch occurs ; [] |2161| 
    1705                      .dwattr $C$DW$32, DW_AT_TI_end_file("../DeviceSupport/source/f28003x_defaultisr.c")
    1706                      .dwattr $C$DW$32, DW_AT_TI_end_line(0x872)
    1707                      .dwattr $C$DW$32, DW_AT_TI_end_column(0x01)
    1708                      .dwendentry
    1709                      .dwendtag $C$DW$32
    1710              
    1711 00000000               .sect   ".text:_SDFM1DR4_ISR"
    1712                      .retain
    1713                      .retainrefs
    1714                      .global _SDFM1DR4_ISR
    1715              
    1716              $C$DW$33        .dwtag  DW_TAG_subprogram
    1717                      .dwattr $C$DW$33, DW_AT_name("SDFM1DR4_ISR")
    1718                      .dwattr $C$DW$33, DW_AT_low_pc(_SDFM1DR4_ISR)
    1719                      .dwattr $C$DW$33, DW_AT_high_pc(0x00)
    1720                      .dwattr $C$DW$33, DW_AT_TI_symbol_name("_SDFM1DR4_ISR")
    1721                      .dwattr $C$DW$33, DW_AT_external
    1722                      .dwattr $C$DW$33, DW_AT_TI_begin_file("../DeviceSupport/source/f28003x_defaultisr.c")
    1723                      .dwattr $C$DW$33, DW_AT_TI_begin_line(0x8d3)
    1724                      .dwattr $C$DW$33, DW_AT_TI_begin_column(0x10)
    1725                      .dwattr $C$DW$33, DW_AT_TI_interrupt
    1726                      .dwattr $C$DW$33, DW_AT_TI_max_frame_size(-6)
    1727                      .dwpsn  file "../DeviceSupport/source/f28003x_defaultisr.c",line 2260,column 1,is_stmt,address _SDFM1
    1728              
    1729                      .dwfde $C$DW$CIE, _SDFM1DR4_ISR
    1730              
    1731              ;***************************************************************
    1732              ;* FNAME: _SDFM1DR4_ISR                 FR SIZE:   4           *
    1733              ;*                                                             *
    1734              ;* FUNCTION ENVIRONMENT                                        *
    1735              ;*                                                             *
    1736              ;* FUNCTION PROPERTIES                                         *
    1737              ;*                            0 Parameter,  0 Auto,  4 SOE     *
    1738              ;***************************************************************
    1739              
    1740 00000000       _SDFM1DR4_ISR:
    1741                      .dwcfi  cfa_offset, -2
    1742                      .dwcfi  save_reg_to_mem, 26, 0
    1743 00000000 761B          ASP       ; [CPU_ALU] 
    1744 00000001 FFF0          PUSH      RB                    ; [CPU_FPU] 
    1745                      .dwcfi  save_reg_to_mem, 74, 4
    1746                      .dwcfi  cfa_offset, -4
    1747 00000002 E200          MOV32     *SP++,STF             ; [CPU_FPU] 
         00000003 00BD 
    1748                      .dwcfi  save_reg_to_mem, 40, 6
    1749                      .dwcfi  cfa_offset, -6
    1750 00000004 E630          SETFLG    RNDF32=1, RNDF64=1    ; [CPU_FPU] 
TMS320C2000 Assembler PC v22.6.1 Wed May 21 09:51:54 2025

Copyright (c) 1996-2018 Texas Instruments Incorporated
C:\Users\Daniel\AppData\Local\Temp\{513EF8AD-E23E-4989-8EC9-611DE01417F7} PAGE   34

         00000005 0600 
    1751 00000006 2942          CLRC      PAGE0,OVM             ; [CPU_ALU] 
    1752 00000007 5616          CLRC      AMODE                 ; [CPU_ALU] 
    1753 00000008 7625        ESTOP0
    1754 00000009       $C$L33:    
    1755                      .dwpsn  file "../DeviceSupport/source/f28003x_defaultisr.c",line 2276,column 5,is_stmt,isa 0
    1756 00000009 6F00          B         $C$L33,UNC            ; [CPU_ALU] |2276| 
    1757                      ; branch occurs ; [] |2276| 
    1758                      .dwattr $C$DW$33, DW_AT_TI_end_file("../DeviceSupport/source/f28003x_defaultisr.c")
    1759                      .dwattr $C$DW$33, DW_AT_TI_end_line(0x8e5)
    1760                      .dwattr $C$DW$33, DW_AT_TI_end_column(0x01)
    1761                      .dwendentry
    1762                      .dwendtag $C$DW$33
    1763              
    1764 00000000               .sect   ".text:_SDFM1DR3_ISR"
    1765                      .retain
    1766                      .retainrefs
    1767                      .global _SDFM1DR3_ISR
    1768              
    1769              $C$DW$34        .dwtag  DW_TAG_subprogram
    1770                      .dwattr $C$DW$34, DW_AT_name("SDFM1DR3_ISR")
    1771                      .dwattr $C$DW$34, DW_AT_low_pc(_SDFM1DR3_ISR)
    1772                      .dwattr $C$DW$34, DW_AT_high_pc(0x00)
    1773                      .dwattr $C$DW$34, DW_AT_TI_symbol_name("_SDFM1DR3_ISR")
    1774                      .dwattr $C$DW$34, DW_AT_external
    1775                      .dwattr $C$DW$34, DW_AT_TI_begin_file("../DeviceSupport/source/f28003x_defaultisr.c")
    1776                      .dwattr $C$DW$34, DW_AT_TI_begin_line(0x8bc)
    1777                      .dwattr $C$DW$34, DW_AT_TI_begin_column(0x10)
    1778                      .dwattr $C$DW$34, DW_AT_TI_interrupt
    1779                      .dwattr $C$DW$34, DW_AT_TI_max_frame_size(-6)
    1780                      .dwpsn  file "../DeviceSupport/source/f28003x_defaultisr.c",line 2237,column 1,is_stmt,address _SDFM1
    1781              
    1782                      .dwfde $C$DW$CIE, _SDFM1DR3_ISR
    1783              
    1784              ;***************************************************************
    1785              ;* FNAME: _SDFM1DR3_ISR                 FR SIZE:   4           *
    1786              ;*                                                             *
    1787              ;* FUNCTION ENVIRONMENT                                        *
    1788              ;*                                                             *
    1789              ;* FUNCTION PROPERTIES                                         *
    1790              ;*                            0 Parameter,  0 Auto,  4 SOE     *
    1791              ;***************************************************************
    1792              
    1793 00000000       _SDFM1DR3_ISR:
    1794                      .dwcfi  cfa_offset, -2
    1795                      .dwcfi  save_reg_to_mem, 26, 0
    1796 00000000 761B          ASP       ; [CPU_ALU] 
    1797 00000001 FFF0          PUSH      RB                    ; [CPU_FPU] 
    1798                      .dwcfi  save_reg_to_mem, 74, 4
    1799                      .dwcfi  cfa_offset, -4
    1800 00000002 E200          MOV32     *SP++,STF             ; [CPU_FPU] 
         00000003 00BD 
    1801                      .dwcfi  save_reg_to_mem, 40, 6
    1802                      .dwcfi  cfa_offset, -6
    1803 00000004 E630          SETFLG    RNDF32=1, RNDF64=1    ; [CPU_FPU] 
TMS320C2000 Assembler PC v22.6.1 Wed May 21 09:51:54 2025

Copyright (c) 1996-2018 Texas Instruments Incorporated
C:\Users\Daniel\AppData\Local\Temp\{513EF8AD-E23E-4989-8EC9-611DE01417F7} PAGE   35

         00000005 0600 
    1804 00000006 2942          CLRC      PAGE0,OVM             ; [CPU_ALU] 
    1805 00000007 5616          CLRC      AMODE                 ; [CPU_ALU] 
    1806 00000008 7625        ESTOP0
    1807 00000009       $C$L34:    
    1808                      .dwpsn  file "../DeviceSupport/source/f28003x_defaultisr.c",line 2253,column 5,is_stmt,isa 0
    1809 00000009 6F00          B         $C$L34,UNC            ; [CPU_ALU] |2253| 
    1810                      ; branch occurs ; [] |2253| 
    1811                      .dwattr $C$DW$34, DW_AT_TI_end_file("../DeviceSupport/source/f28003x_defaultisr.c")
    1812                      .dwattr $C$DW$34, DW_AT_TI_end_line(0x8ce)
    1813                      .dwattr $C$DW$34, DW_AT_TI_end_column(0x01)
    1814                      .dwendentry
    1815                      .dwendtag $C$DW$34
    1816              
    1817 00000000               .sect   ".text:_SDFM1DR2_ISR"
    1818                      .retain
    1819                      .retainrefs
    1820                      .global _SDFM1DR2_ISR
    1821              
    1822              $C$DW$35        .dwtag  DW_TAG_subprogram
    1823                      .dwattr $C$DW$35, DW_AT_name("SDFM1DR2_ISR")
    1824                      .dwattr $C$DW$35, DW_AT_low_pc(_SDFM1DR2_ISR)
    1825                      .dwattr $C$DW$35, DW_AT_high_pc(0x00)
    1826                      .dwattr $C$DW$35, DW_AT_TI_symbol_name("_SDFM1DR2_ISR")
    1827                      .dwattr $C$DW$35, DW_AT_external
    1828                      .dwattr $C$DW$35, DW_AT_TI_begin_file("../DeviceSupport/source/f28003x_defaultisr.c")
    1829                      .dwattr $C$DW$35, DW_AT_TI_begin_line(0x8a5)
    1830                      .dwattr $C$DW$35, DW_AT_TI_begin_column(0x10)
    1831                      .dwattr $C$DW$35, DW_AT_TI_interrupt
    1832                      .dwattr $C$DW$35, DW_AT_TI_max_frame_size(-6)
    1833                      .dwpsn  file "../DeviceSupport/source/f28003x_defaultisr.c",line 2214,column 1,is_stmt,address _SDFM1
    1834              
    1835                      .dwfde $C$DW$CIE, _SDFM1DR2_ISR
    1836              
    1837              ;***************************************************************
    1838              ;* FNAME: _SDFM1DR2_ISR                 FR SIZE:   4           *
    1839              ;*                                                             *
    1840              ;* FUNCTION ENVIRONMENT                                        *
    1841              ;*                                                             *
    1842              ;* FUNCTION PROPERTIES                                         *
    1843              ;*                            0 Parameter,  0 Auto,  4 SOE     *
    1844              ;***************************************************************
    1845              
    1846 00000000       _SDFM1DR2_ISR:
    1847                      .dwcfi  cfa_offset, -2
    1848                      .dwcfi  save_reg_to_mem, 26, 0
    1849 00000000 761B          ASP       ; [CPU_ALU] 
    1850 00000001 FFF0          PUSH      RB                    ; [CPU_FPU] 
    1851                      .dwcfi  save_reg_to_mem, 74, 4
    1852                      .dwcfi  cfa_offset, -4
    1853 00000002 E200          MOV32     *SP++,STF             ; [CPU_FPU] 
         00000003 00BD 
    1854                      .dwcfi  save_reg_to_mem, 40, 6
    1855                      .dwcfi  cfa_offset, -6
    1856 00000004 E630          SETFLG    RNDF32=1, RNDF64=1    ; [CPU_FPU] 
TMS320C2000 Assembler PC v22.6.1 Wed May 21 09:51:54 2025

Copyright (c) 1996-2018 Texas Instruments Incorporated
C:\Users\Daniel\AppData\Local\Temp\{513EF8AD-E23E-4989-8EC9-611DE01417F7} PAGE   36

         00000005 0600 
    1857 00000006 2942          CLRC      PAGE0,OVM             ; [CPU_ALU] 
    1858 00000007 5616          CLRC      AMODE                 ; [CPU_ALU] 
    1859 00000008 7625        ESTOP0
    1860 00000009       $C$L35:    
    1861                      .dwpsn  file "../DeviceSupport/source/f28003x_defaultisr.c",line 2230,column 5,is_stmt,isa 0
    1862 00000009 6F00          B         $C$L35,UNC            ; [CPU_ALU] |2230| 
    1863                      ; branch occurs ; [] |2230| 
    1864                      .dwattr $C$DW$35, DW_AT_TI_end_file("../DeviceSupport/source/f28003x_defaultisr.c")
    1865                      .dwattr $C$DW$35, DW_AT_TI_end_line(0x8b7)
    1866                      .dwattr $C$DW$35, DW_AT_TI_end_column(0x01)
    1867                      .dwendentry
    1868                      .dwendtag $C$DW$35
    1869              
    1870 00000000               .sect   ".text:_SDFM1DR1_ISR"
    1871                      .retain
    1872                      .retainrefs
    1873                      .global _SDFM1DR1_ISR
    1874              
    1875              $C$DW$36        .dwtag  DW_TAG_subprogram
    1876                      .dwattr $C$DW$36, DW_AT_name("SDFM1DR1_ISR")
    1877                      .dwattr $C$DW$36, DW_AT_low_pc(_SDFM1DR1_ISR)
    1878                      .dwattr $C$DW$36, DW_AT_high_pc(0x00)
    1879                      .dwattr $C$DW$36, DW_AT_TI_symbol_name("_SDFM1DR1_ISR")
    1880                      .dwattr $C$DW$36, DW_AT_external
    1881                      .dwattr $C$DW$36, DW_AT_TI_begin_file("../DeviceSupport/source/f28003x_defaultisr.c")
    1882                      .dwattr $C$DW$36, DW_AT_TI_begin_line(0x88e)
    1883                      .dwattr $C$DW$36, DW_AT_TI_begin_column(0x10)
    1884                      .dwattr $C$DW$36, DW_AT_TI_interrupt
    1885                      .dwattr $C$DW$36, DW_AT_TI_max_frame_size(-6)
    1886                      .dwpsn  file "../DeviceSupport/source/f28003x_defaultisr.c",line 2191,column 1,is_stmt,address _SDFM1
    1887              
    1888                      .dwfde $C$DW$CIE, _SDFM1DR1_ISR
    1889              
    1890              ;***************************************************************
    1891              ;* FNAME: _SDFM1DR1_ISR                 FR SIZE:   4           *
    1892              ;*                                                             *
    1893              ;* FUNCTION ENVIRONMENT                                        *
    1894              ;*                                                             *
    1895              ;* FUNCTION PROPERTIES                                         *
    1896              ;*                            0 Parameter,  0 Auto,  4 SOE     *
    1897              ;***************************************************************
    1898              
    1899 00000000       _SDFM1DR1_ISR:
    1900                      .dwcfi  cfa_offset, -2
    1901                      .dwcfi  save_reg_to_mem, 26, 0
    1902 00000000 761B          ASP       ; [CPU_ALU] 
    1903 00000001 FFF0          PUSH      RB                    ; [CPU_FPU] 
    1904                      .dwcfi  save_reg_to_mem, 74, 4
    1905                      .dwcfi  cfa_offset, -4
    1906 00000002 E200          MOV32     *SP++,STF             ; [CPU_FPU] 
         00000003 00BD 
    1907                      .dwcfi  save_reg_to_mem, 40, 6
    1908                      .dwcfi  cfa_offset, -6
    1909 00000004 E630          SETFLG    RNDF32=1, RNDF64=1    ; [CPU_FPU] 
TMS320C2000 Assembler PC v22.6.1 Wed May 21 09:51:54 2025

Copyright (c) 1996-2018 Texas Instruments Incorporated
C:\Users\Daniel\AppData\Local\Temp\{513EF8AD-E23E-4989-8EC9-611DE01417F7} PAGE   37

         00000005 0600 
    1910 00000006 2942          CLRC      PAGE0,OVM             ; [CPU_ALU] 
    1911 00000007 5616          CLRC      AMODE                 ; [CPU_ALU] 
    1912 00000008 7625        ESTOP0
    1913 00000009       $C$L36:    
    1914                      .dwpsn  file "../DeviceSupport/source/f28003x_defaultisr.c",line 2207,column 5,is_stmt,isa 0
    1915 00000009 6F00          B         $C$L36,UNC            ; [CPU_ALU] |2207| 
    1916                      ; branch occurs ; [] |2207| 
    1917                      .dwattr $C$DW$36, DW_AT_TI_end_file("../DeviceSupport/source/f28003x_defaultisr.c")
    1918                      .dwattr $C$DW$36, DW_AT_TI_end_line(0x8a0)
    1919                      .dwattr $C$DW$36, DW_AT_TI_end_column(0x01)
    1920                      .dwendentry
    1921                      .dwendtag $C$DW$36
    1922              
    1923 00000000               .sect   ".text:_SCIB_TX_ISR"
    1924                      .retain
    1925                      .retainrefs
    1926                      .global _SCIB_TX_ISR
    1927              
    1928              $C$DW$37        .dwtag  DW_TAG_subprogram
    1929                      .dwattr $C$DW$37, DW_AT_name("SCIB_TX_ISR")
    1930                      .dwattr $C$DW$37, DW_AT_low_pc(_SCIB_TX_ISR)
    1931                      .dwattr $C$DW$37, DW_AT_high_pc(0x00)
    1932                      .dwattr $C$DW$37, DW_AT_TI_symbol_name("_SCIB_TX_ISR")
    1933                      .dwattr $C$DW$37, DW_AT_external
    1934                      .dwattr $C$DW$37, DW_AT_TI_begin_file("../DeviceSupport/source/f28003x_defaultisr.c")
    1935                      .dwattr $C$DW$37, DW_AT_TI_begin_line(0x5dc)
    1936                      .dwattr $C$DW$37, DW_AT_TI_begin_column(0x10)
    1937                      .dwattr $C$DW$37, DW_AT_TI_interrupt
    1938                      .dwattr $C$DW$37, DW_AT_TI_max_frame_size(-6)
    1939                      .dwpsn  file "../DeviceSupport/source/f28003x_defaultisr.c",line 1501,column 1,is_stmt,address _SCIB_
    1940              
    1941                      .dwfde $C$DW$CIE, _SCIB_TX_ISR
    1942              
    1943              ;***************************************************************
    1944              ;* FNAME: _SCIB_TX_ISR                  FR SIZE:   4           *
    1945              ;*                                                             *
    1946              ;* FUNCTION ENVIRONMENT                                        *
    1947              ;*                                                             *
    1948              ;* FUNCTION PROPERTIES                                         *
    1949              ;*                            0 Parameter,  0 Auto,  4 SOE     *
    1950              ;***************************************************************
    1951              
    1952 00000000       _SCIB_TX_ISR:
    1953                      .dwcfi  cfa_offset, -2
    1954                      .dwcfi  save_reg_to_mem, 26, 0
    1955 00000000 761B          ASP       ; [CPU_ALU] 
    1956 00000001 FFF0          PUSH      RB                    ; [CPU_FPU] 
    1957                      .dwcfi  save_reg_to_mem, 74, 4
    1958                      .dwcfi  cfa_offset, -4
    1959 00000002 E200          MOV32     *SP++,STF             ; [CPU_FPU] 
         00000003 00BD 
    1960                      .dwcfi  save_reg_to_mem, 40, 6
    1961                      .dwcfi  cfa_offset, -6
    1962 00000004 E630          SETFLG    RNDF32=1, RNDF64=1    ; [CPU_FPU] 
TMS320C2000 Assembler PC v22.6.1 Wed May 21 09:51:54 2025

Copyright (c) 1996-2018 Texas Instruments Incorporated
C:\Users\Daniel\AppData\Local\Temp\{513EF8AD-E23E-4989-8EC9-611DE01417F7} PAGE   38

         00000005 0600 
    1963 00000006 2942          CLRC      PAGE0,OVM             ; [CPU_ALU] 
    1964 00000007 5616          CLRC      AMODE                 ; [CPU_ALU] 
    1965 00000008 7625        ESTOP0
    1966 00000009       $C$L37:    
    1967                      .dwpsn  file "../DeviceSupport/source/f28003x_defaultisr.c",line 1517,column 5,is_stmt,isa 0
    1968 00000009 6F00          B         $C$L37,UNC            ; [CPU_ALU] |1517| 
    1969                      ; branch occurs ; [] |1517| 
    1970                      .dwattr $C$DW$37, DW_AT_TI_end_file("../DeviceSupport/source/f28003x_defaultisr.c")
    1971                      .dwattr $C$DW$37, DW_AT_TI_end_line(0x5ee)
    1972                      .dwattr $C$DW$37, DW_AT_TI_end_column(0x01)
    1973                      .dwendentry
    1974                      .dwendtag $C$DW$37
    1975              
    1976 00000000               .sect   ".text:_SCIB_RX_ISR"
    1977                      .retain
    1978                      .retainrefs
    1979                      .global _SCIB_RX_ISR
    1980              
    1981              $C$DW$38        .dwtag  DW_TAG_subprogram
    1982                      .dwattr $C$DW$38, DW_AT_name("SCIB_RX_ISR")
    1983                      .dwattr $C$DW$38, DW_AT_low_pc(_SCIB_RX_ISR)
    1984                      .dwattr $C$DW$38, DW_AT_high_pc(0x00)
    1985                      .dwattr $C$DW$38, DW_AT_TI_symbol_name("_SCIB_RX_ISR")
    1986                      .dwattr $C$DW$38, DW_AT_external
    1987                      .dwattr $C$DW$38, DW_AT_TI_begin_file("../DeviceSupport/source/f28003x_defaultisr.c")
    1988                      .dwattr $C$DW$38, DW_AT_TI_begin_line(0x5c5)
    1989                      .dwattr $C$DW$38, DW_AT_TI_begin_column(0x10)
    1990                      .dwattr $C$DW$38, DW_AT_TI_interrupt
    1991                      .dwattr $C$DW$38, DW_AT_TI_max_frame_size(-6)
    1992                      .dwpsn  file "../DeviceSupport/source/f28003x_defaultisr.c",line 1478,column 1,is_stmt,address _SCIB_
    1993              
    1994                      .dwfde $C$DW$CIE, _SCIB_RX_ISR
    1995              
    1996              ;***************************************************************
    1997              ;* FNAME: _SCIB_RX_ISR                  FR SIZE:   4           *
    1998              ;*                                                             *
    1999              ;* FUNCTION ENVIRONMENT                                        *
    2000              ;*                                                             *
    2001              ;* FUNCTION PROPERTIES                                         *
    2002              ;*                            0 Parameter,  0 Auto,  4 SOE     *
    2003              ;***************************************************************
    2004              
    2005 00000000       _SCIB_RX_ISR:
    2006                      .dwcfi  cfa_offset, -2
    2007                      .dwcfi  save_reg_to_mem, 26, 0
    2008 00000000 761B          ASP       ; [CPU_ALU] 
    2009 00000001 FFF0          PUSH      RB                    ; [CPU_FPU] 
    2010                      .dwcfi  save_reg_to_mem, 74, 4
    2011                      .dwcfi  cfa_offset, -4
    2012 00000002 E200          MOV32     *SP++,STF             ; [CPU_FPU] 
         00000003 00BD 
    2013                      .dwcfi  save_reg_to_mem, 40, 6
    2014                      .dwcfi  cfa_offset, -6
    2015 00000004 E630          SETFLG    RNDF32=1, RNDF64=1    ; [CPU_FPU] 
TMS320C2000 Assembler PC v22.6.1 Wed May 21 09:51:54 2025

Copyright (c) 1996-2018 Texas Instruments Incorporated
C:\Users\Daniel\AppData\Local\Temp\{513EF8AD-E23E-4989-8EC9-611DE01417F7} PAGE   39

         00000005 0600 
    2016 00000006 2942          CLRC      PAGE0,OVM             ; [CPU_ALU] 
    2017 00000007 5616          CLRC      AMODE                 ; [CPU_ALU] 
    2018 00000008 7625        ESTOP0
    2019 00000009       $C$L38:    
    2020                      .dwpsn  file "../DeviceSupport/source/f28003x_defaultisr.c",line 1494,column 5,is_stmt,isa 0
    2021 00000009 6F00          B         $C$L38,UNC            ; [CPU_ALU] |1494| 
    2022                      ; branch occurs ; [] |1494| 
    2023                      .dwattr $C$DW$38, DW_AT_TI_end_file("../DeviceSupport/source/f28003x_defaultisr.c")
    2024                      .dwattr $C$DW$38, DW_AT_TI_end_line(0x5d7)
    2025                      .dwattr $C$DW$38, DW_AT_TI_end_column(0x01)
    2026                      .dwendentry
    2027                      .dwendtag $C$DW$38
    2028              
    2029 00000000               .sect   ".text:_SCIA_TX_ISR"
    2030                      .retain
    2031                      .retainrefs
    2032                      .global _SCIA_TX_ISR
    2033              
    2034              $C$DW$39        .dwtag  DW_TAG_subprogram
    2035                      .dwattr $C$DW$39, DW_AT_name("SCIA_TX_ISR")
    2036                      .dwattr $C$DW$39, DW_AT_low_pc(_SCIA_TX_ISR)
    2037                      .dwattr $C$DW$39, DW_AT_high_pc(0x00)
    2038                      .dwattr $C$DW$39, DW_AT_TI_symbol_name("_SCIA_TX_ISR")
    2039                      .dwattr $C$DW$39, DW_AT_external
    2040                      .dwattr $C$DW$39, DW_AT_TI_begin_file("../DeviceSupport/source/f28003x_defaultisr.c")
    2041                      .dwattr $C$DW$39, DW_AT_TI_begin_line(0x5ae)
    2042                      .dwattr $C$DW$39, DW_AT_TI_begin_column(0x10)
    2043                      .dwattr $C$DW$39, DW_AT_TI_interrupt
    2044                      .dwattr $C$DW$39, DW_AT_TI_max_frame_size(-6)
    2045                      .dwpsn  file "../DeviceSupport/source/f28003x_defaultisr.c",line 1455,column 1,is_stmt,address _SCIA_
    2046              
    2047                      .dwfde $C$DW$CIE, _SCIA_TX_ISR
    2048              
    2049              ;***************************************************************
    2050              ;* FNAME: _SCIA_TX_ISR                  FR SIZE:   4           *
    2051              ;*                                                             *
    2052              ;* FUNCTION ENVIRONMENT                                        *
    2053              ;*                                                             *
    2054              ;* FUNCTION PROPERTIES                                         *
    2055              ;*                            0 Parameter,  0 Auto,  4 SOE     *
    2056              ;***************************************************************
    2057              
    2058 00000000       _SCIA_TX_ISR:
    2059                      .dwcfi  cfa_offset, -2
    2060                      .dwcfi  save_reg_to_mem, 26, 0
    2061 00000000 761B          ASP       ; [CPU_ALU] 
    2062 00000001 FFF0          PUSH      RB                    ; [CPU_FPU] 
    2063                      .dwcfi  save_reg_to_mem, 74, 4
    2064                      .dwcfi  cfa_offset, -4
    2065 00000002 E200          MOV32     *SP++,STF             ; [CPU_FPU] 
         00000003 00BD 
    2066                      .dwcfi  save_reg_to_mem, 40, 6
    2067                      .dwcfi  cfa_offset, -6
    2068 00000004 E630          SETFLG    RNDF32=1, RNDF64=1    ; [CPU_FPU] 
TMS320C2000 Assembler PC v22.6.1 Wed May 21 09:51:54 2025

Copyright (c) 1996-2018 Texas Instruments Incorporated
C:\Users\Daniel\AppData\Local\Temp\{513EF8AD-E23E-4989-8EC9-611DE01417F7} PAGE   40

         00000005 0600 
    2069 00000006 2942          CLRC      PAGE0,OVM             ; [CPU_ALU] 
    2070 00000007 5616          CLRC      AMODE                 ; [CPU_ALU] 
    2071 00000008 7625        ESTOP0
    2072 00000009       $C$L39:    
    2073                      .dwpsn  file "../DeviceSupport/source/f28003x_defaultisr.c",line 1471,column 5,is_stmt,isa 0
    2074 00000009 6F00          B         $C$L39,UNC            ; [CPU_ALU] |1471| 
    2075                      ; branch occurs ; [] |1471| 
    2076                      .dwattr $C$DW$39, DW_AT_TI_end_file("../DeviceSupport/source/f28003x_defaultisr.c")
    2077                      .dwattr $C$DW$39, DW_AT_TI_end_line(0x5c0)
    2078                      .dwattr $C$DW$39, DW_AT_TI_end_column(0x01)
    2079                      .dwendentry
    2080                      .dwendtag $C$DW$39
    2081              
    2082 00000000               .sect   ".text:_SCIA_RX_ISR"
    2083                      .retain
    2084                      .retainrefs
    2085                      .global _SCIA_RX_ISR
    2086              
    2087              $C$DW$40        .dwtag  DW_TAG_subprogram
    2088                      .dwattr $C$DW$40, DW_AT_name("SCIA_RX_ISR")
    2089                      .dwattr $C$DW$40, DW_AT_low_pc(_SCIA_RX_ISR)
    2090                      .dwattr $C$DW$40, DW_AT_high_pc(0x00)
    2091                      .dwattr $C$DW$40, DW_AT_TI_symbol_name("_SCIA_RX_ISR")
    2092                      .dwattr $C$DW$40, DW_AT_external
    2093                      .dwattr $C$DW$40, DW_AT_TI_begin_file("../DeviceSupport/source/f28003x_defaultisr.c")
    2094                      .dwattr $C$DW$40, DW_AT_TI_begin_line(0x597)
    2095                      .dwattr $C$DW$40, DW_AT_TI_begin_column(0x10)
    2096                      .dwattr $C$DW$40, DW_AT_TI_interrupt
    2097                      .dwattr $C$DW$40, DW_AT_TI_max_frame_size(-6)
    2098                      .dwpsn  file "../DeviceSupport/source/f28003x_defaultisr.c",line 1432,column 1,is_stmt,address _SCIA_
    2099              
    2100                      .dwfde $C$DW$CIE, _SCIA_RX_ISR
    2101              
    2102              ;***************************************************************
    2103              ;* FNAME: _SCIA_RX_ISR                  FR SIZE:   4           *
    2104              ;*                                                             *
    2105              ;* FUNCTION ENVIRONMENT                                        *
    2106              ;*                                                             *
    2107              ;* FUNCTION PROPERTIES                                         *
    2108              ;*                            0 Parameter,  0 Auto,  4 SOE     *
    2109              ;***************************************************************
    2110              
    2111 00000000       _SCIA_RX_ISR:
    2112                      .dwcfi  cfa_offset, -2
    2113                      .dwcfi  save_reg_to_mem, 26, 0
    2114 00000000 761B          ASP       ; [CPU_ALU] 
    2115 00000001 FFF0          PUSH      RB                    ; [CPU_FPU] 
    2116                      .dwcfi  save_reg_to_mem, 74, 4
    2117                      .dwcfi  cfa_offset, -4
    2118 00000002 E200          MOV32     *SP++,STF             ; [CPU_FPU] 
         00000003 00BD 
    2119                      .dwcfi  save_reg_to_mem, 40, 6
    2120                      .dwcfi  cfa_offset, -6
    2121 00000004 E630          SETFLG    RNDF32=1, RNDF64=1    ; [CPU_FPU] 
TMS320C2000 Assembler PC v22.6.1 Wed May 21 09:51:54 2025

Copyright (c) 1996-2018 Texas Instruments Incorporated
C:\Users\Daniel\AppData\Local\Temp\{513EF8AD-E23E-4989-8EC9-611DE01417F7} PAGE   41

         00000005 0600 
    2122 00000006 2942          CLRC      PAGE0,OVM             ; [CPU_ALU] 
    2123 00000007 5616          CLRC      AMODE                 ; [CPU_ALU] 
    2124 00000008 7625        ESTOP0
    2125 00000009       $C$L40:    
    2126                      .dwpsn  file "../DeviceSupport/source/f28003x_defaultisr.c",line 1448,column 5,is_stmt,isa 0
    2127 00000009 6F00          B         $C$L40,UNC            ; [CPU_ALU] |1448| 
    2128                      ; branch occurs ; [] |1448| 
    2129                      .dwattr $C$DW$40, DW_AT_TI_end_file("../DeviceSupport/source/f28003x_defaultisr.c")
    2130                      .dwattr $C$DW$40, DW_AT_TI_end_line(0x5a9)
    2131                      .dwattr $C$DW$40, DW_AT_TI_end_column(0x01)
    2132                      .dwendentry
    2133                      .dwendtag $C$DW$40
    2134              
    2135 00000000               .sect   ".text:_RTOS_ISR"
    2136                      .retain
    2137                      .retainrefs
    2138                      .global _RTOS_ISR
    2139              
    2140              $C$DW$41        .dwtag  DW_TAG_subprogram
    2141                      .dwattr $C$DW$41, DW_AT_name("RTOS_ISR")
    2142                      .dwattr $C$DW$41, DW_AT_low_pc(_RTOS_ISR)
    2143                      .dwattr $C$DW$41, DW_AT_high_pc(0x00)
    2144                      .dwattr $C$DW$41, DW_AT_TI_symbol_name("_RTOS_ISR")
    2145                      .dwattr $C$DW$41, DW_AT_external
    2146                      .dwattr $C$DW$41, DW_AT_TI_begin_file("../DeviceSupport/source/f28003x_defaultisr.c")
    2147                      .dwattr $C$DW$41, DW_AT_TI_begin_line(0x65)
    2148                      .dwattr $C$DW$41, DW_AT_TI_begin_column(0x10)
    2149                      .dwattr $C$DW$41, DW_AT_TI_interrupt
    2150                      .dwattr $C$DW$41, DW_AT_TI_max_frame_size(-6)
    2151                      .dwpsn  file "../DeviceSupport/source/f28003x_defaultisr.c",line 102,column 1,is_stmt,address _RTOS_I
    2152              
    2153                      .dwfde $C$DW$CIE, _RTOS_ISR
    2154              
    2155              ;***************************************************************
    2156              ;* FNAME: _RTOS_ISR                     FR SIZE:   4           *
    2157              ;*                                                             *
    2158              ;* FUNCTION ENVIRONMENT                                        *
    2159              ;*                                                             *
    2160              ;* FUNCTION PROPERTIES                                         *
    2161              ;*                            0 Parameter,  0 Auto,  4 SOE     *
    2162              ;***************************************************************
    2163              
    2164 00000000       _RTOS_ISR:
    2165                      .dwcfi  cfa_offset, -2
    2166                      .dwcfi  save_reg_to_mem, 26, 0
    2167 00000000 761B          ASP       ; [CPU_ALU] 
    2168 00000001 FFF0          PUSH      RB                    ; [CPU_FPU] 
    2169                      .dwcfi  save_reg_to_mem, 74, 4
    2170                      .dwcfi  cfa_offset, -4
    2171 00000002 E200          MOV32     *SP++,STF             ; [CPU_FPU] 
         00000003 00BD 
    2172                      .dwcfi  save_reg_to_mem, 40, 6
    2173                      .dwcfi  cfa_offset, -6
    2174 00000004 E630          SETFLG    RNDF32=1, RNDF64=1    ; [CPU_FPU] 
TMS320C2000 Assembler PC v22.6.1 Wed May 21 09:51:54 2025

Copyright (c) 1996-2018 Texas Instruments Incorporated
C:\Users\Daniel\AppData\Local\Temp\{513EF8AD-E23E-4989-8EC9-611DE01417F7} PAGE   42

         00000005 0600 
    2175 00000006 2942          CLRC      PAGE0,OVM             ; [CPU_ALU] 
    2176 00000007 5616          CLRC      AMODE                 ; [CPU_ALU] 
    2177 00000008 7625        ESTOP0
    2178 00000009       $C$L41:    
    2179                      .dwpsn  file "../DeviceSupport/source/f28003x_defaultisr.c",line 112,column 5,is_stmt,isa 0
    2180 00000009 6F00          B         $C$L41,UNC            ; [CPU_ALU] |112| 
    2181                      ; branch occurs ; [] |112| 
    2182                      .dwattr $C$DW$41, DW_AT_TI_end_file("../DeviceSupport/source/f28003x_defaultisr.c")
    2183                      .dwattr $C$DW$41, DW_AT_TI_end_line(0x71)
    2184                      .dwattr $C$DW$41, DW_AT_TI_end_column(0x01)
    2185                      .dwendentry
    2186                      .dwendtag $C$DW$41
    2187              
    2188 00000000               .sect   ".text:_RAM_CORR_ERR_ISR"
    2189                      .retain
    2190                      .retainrefs
    2191                      .global _RAM_CORR_ERR_ISR
    2192              
    2193              $C$DW$42        .dwtag  DW_TAG_subprogram
    2194                      .dwattr $C$DW$42, DW_AT_name("RAM_CORR_ERR_ISR")
    2195                      .dwattr $C$DW$42, DW_AT_low_pc(_RAM_CORR_ERR_ISR)
    2196                      .dwattr $C$DW$42, DW_AT_high_pc(0x00)
    2197                      .dwattr $C$DW$42, DW_AT_TI_symbol_name("_RAM_CORR_ERR_ISR")
    2198                      .dwattr $C$DW$42, DW_AT_external
    2199                      .dwattr $C$DW$42, DW_AT_TI_begin_file("../DeviceSupport/source/f28003x_defaultisr.c")
    2200                      .dwattr $C$DW$42, DW_AT_TI_begin_line(0xb29)
    2201                      .dwattr $C$DW$42, DW_AT_TI_begin_column(0x10)
    2202                      .dwattr $C$DW$42, DW_AT_TI_interrupt
    2203                      .dwattr $C$DW$42, DW_AT_TI_max_frame_size(-6)
    2204                      .dwpsn  file "../DeviceSupport/source/f28003x_defaultisr.c",line 2858,column 1,is_stmt,address _RAM_C
    2205              
    2206                      .dwfde $C$DW$CIE, _RAM_CORR_ERR_ISR
    2207              
    2208              ;***************************************************************
    2209              ;* FNAME: _RAM_CORR_ERR_ISR             FR SIZE:   4           *
    2210              ;*                                                             *
    2211              ;* FUNCTION ENVIRONMENT                                        *
    2212              ;*                                                             *
    2213              ;* FUNCTION PROPERTIES                                         *
    2214              ;*                            0 Parameter,  0 Auto,  4 SOE     *
    2215              ;***************************************************************
    2216              
    2217 00000000       _RAM_CORR_ERR_ISR:
    2218                      .dwcfi  cfa_offset, -2
    2219                      .dwcfi  save_reg_to_mem, 26, 0
    2220 00000000 761B          ASP       ; [CPU_ALU] 
    2221 00000001 FFF0          PUSH      RB                    ; [CPU_FPU] 
    2222                      .dwcfi  save_reg_to_mem, 74, 4
    2223                      .dwcfi  cfa_offset, -4
    2224 00000002 E200          MOV32     *SP++,STF             ; [CPU_FPU] 
         00000003 00BD 
    2225                      .dwcfi  save_reg_to_mem, 40, 6
    2226                      .dwcfi  cfa_offset, -6
    2227 00000004 E630          SETFLG    RNDF32=1, RNDF64=1    ; [CPU_FPU] 
TMS320C2000 Assembler PC v22.6.1 Wed May 21 09:51:54 2025

Copyright (c) 1996-2018 Texas Instruments Incorporated
C:\Users\Daniel\AppData\Local\Temp\{513EF8AD-E23E-4989-8EC9-611DE01417F7} PAGE   43

         00000005 0600 
    2228 00000006 2942          CLRC      PAGE0,OVM             ; [CPU_ALU] 
    2229 00000007 5616          CLRC      AMODE                 ; [CPU_ALU] 
    2230 00000008 7625        ESTOP0
    2231 00000009       $C$L42:    
    2232                      .dwpsn  file "../DeviceSupport/source/f28003x_defaultisr.c",line 2874,column 5,is_stmt,isa 0
    2233 00000009 6F00          B         $C$L42,UNC            ; [CPU_ALU] |2874| 
    2234                      ; branch occurs ; [] |2874| 
    2235                      .dwattr $C$DW$42, DW_AT_TI_end_file("../DeviceSupport/source/f28003x_defaultisr.c")
    2236                      .dwattr $C$DW$42, DW_AT_TI_end_line(0xb3b)
    2237                      .dwattr $C$DW$42, DW_AT_TI_end_column(0x01)
    2238                      .dwendentry
    2239                      .dwendtag $C$DW$42
    2240              
    2241 00000000               .sect   ".text:_RAM_ACC_VIOL_ISR"
    2242                      .retain
    2243                      .retainrefs
    2244                      .global _RAM_ACC_VIOL_ISR
    2245              
    2246              $C$DW$43        .dwtag  DW_TAG_subprogram
    2247                      .dwattr $C$DW$43, DW_AT_name("RAM_ACC_VIOL_ISR")
    2248                      .dwattr $C$DW$43, DW_AT_low_pc(_RAM_ACC_VIOL_ISR)
    2249                      .dwattr $C$DW$43, DW_AT_high_pc(0x00)
    2250                      .dwattr $C$DW$43, DW_AT_TI_symbol_name("_RAM_ACC_VIOL_ISR")
    2251                      .dwattr $C$DW$43, DW_AT_external
    2252                      .dwattr $C$DW$43, DW_AT_TI_begin_file("../DeviceSupport/source/f28003x_defaultisr.c")
    2253                      .dwattr $C$DW$43, DW_AT_TI_begin_line(0xb57)
    2254                      .dwattr $C$DW$43, DW_AT_TI_begin_column(0x10)
    2255                      .dwattr $C$DW$43, DW_AT_TI_interrupt
    2256                      .dwattr $C$DW$43, DW_AT_TI_max_frame_size(-6)
    2257                      .dwpsn  file "../DeviceSupport/source/f28003x_defaultisr.c",line 2904,column 1,is_stmt,address _RAM_A
    2258              
    2259                      .dwfde $C$DW$CIE, _RAM_ACC_VIOL_ISR
    2260              
    2261              ;***************************************************************
    2262              ;* FNAME: _RAM_ACC_VIOL_ISR             FR SIZE:   4           *
    2263              ;*                                                             *
    2264              ;* FUNCTION ENVIRONMENT                                        *
    2265              ;*                                                             *
    2266              ;* FUNCTION PROPERTIES                                         *
    2267              ;*                            0 Parameter,  0 Auto,  4 SOE     *
    2268              ;***************************************************************
    2269              
    2270 00000000       _RAM_ACC_VIOL_ISR:
    2271                      .dwcfi  cfa_offset, -2
    2272                      .dwcfi  save_reg_to_mem, 26, 0
    2273 00000000 761B          ASP       ; [CPU_ALU] 
    2274 00000001 FFF0          PUSH      RB                    ; [CPU_FPU] 
    2275                      .dwcfi  save_reg_to_mem, 74, 4
    2276                      .dwcfi  cfa_offset, -4
    2277 00000002 E200          MOV32     *SP++,STF             ; [CPU_FPU] 
         00000003 00BD 
    2278                      .dwcfi  save_reg_to_mem, 40, 6
    2279                      .dwcfi  cfa_offset, -6
    2280 00000004 E630          SETFLG    RNDF32=1, RNDF64=1    ; [CPU_FPU] 
TMS320C2000 Assembler PC v22.6.1 Wed May 21 09:51:54 2025

Copyright (c) 1996-2018 Texas Instruments Incorporated
C:\Users\Daniel\AppData\Local\Temp\{513EF8AD-E23E-4989-8EC9-611DE01417F7} PAGE   44

         00000005 0600 
    2281 00000006 2942          CLRC      PAGE0,OVM             ; [CPU_ALU] 
    2282 00000007 5616          CLRC      AMODE                 ; [CPU_ALU] 
    2283 00000008 7625        ESTOP0
    2284 00000009       $C$L43:    
    2285                      .dwpsn  file "../DeviceSupport/source/f28003x_defaultisr.c",line 2920,column 5,is_stmt,isa 0
    2286 00000009 6F00          B         $C$L43,UNC            ; [CPU_ALU] |2920| 
    2287                      ; branch occurs ; [] |2920| 
    2288                      .dwattr $C$DW$43, DW_AT_TI_end_file("../DeviceSupport/source/f28003x_defaultisr.c")
    2289                      .dwattr $C$DW$43, DW_AT_TI_end_line(0xb69)
    2290                      .dwattr $C$DW$43, DW_AT_TI_end_column(0x01)
    2291                      .dwendentry
    2292                      .dwendtag $C$DW$43
    2293              
    2294 00000000               .sect   ".text:_PMBUSA_ISR"
    2295                      .retain
    2296                      .retainrefs
    2297                      .global _PMBUSA_ISR
    2298              
    2299              $C$DW$44        .dwtag  DW_TAG_subprogram
    2300                      .dwattr $C$DW$44, DW_AT_name("PMBUSA_ISR")
    2301                      .dwattr $C$DW$44, DW_AT_low_pc(_PMBUSA_ISR)
    2302                      .dwattr $C$DW$44, DW_AT_high_pc(0x00)
    2303                      .dwattr $C$DW$44, DW_AT_TI_symbol_name("_PMBUSA_ISR")
    2304                      .dwattr $C$DW$44, DW_AT_external
    2305                      .dwattr $C$DW$44, DW_AT_TI_begin_file("../DeviceSupport/source/f28003x_defaultisr.c")
    2306                      .dwattr $C$DW$44, DW_AT_TI_begin_line(0xa15)
    2307                      .dwattr $C$DW$44, DW_AT_TI_begin_column(0x10)
    2308                      .dwattr $C$DW$44, DW_AT_TI_interrupt
    2309                      .dwattr $C$DW$44, DW_AT_TI_max_frame_size(-6)
    2310                      .dwpsn  file "../DeviceSupport/source/f28003x_defaultisr.c",line 2582,column 1,is_stmt,address _PMBUS
    2311              
    2312                      .dwfde $C$DW$CIE, _PMBUSA_ISR
    2313              
    2314              ;***************************************************************
    2315              ;* FNAME: _PMBUSA_ISR                   FR SIZE:   4           *
    2316              ;*                                                             *
    2317              ;* FUNCTION ENVIRONMENT                                        *
    2318              ;*                                                             *
    2319              ;* FUNCTION PROPERTIES                                         *
    2320              ;*                            0 Parameter,  0 Auto,  4 SOE     *
    2321              ;***************************************************************
    2322              
    2323 00000000       _PMBUSA_ISR:
    2324                      .dwcfi  cfa_offset, -2
    2325                      .dwcfi  save_reg_to_mem, 26, 0
    2326 00000000 761B          ASP       ; [CPU_ALU] 
    2327 00000001 FFF0          PUSH      RB                    ; [CPU_FPU] 
    2328                      .dwcfi  save_reg_to_mem, 74, 4
    2329                      .dwcfi  cfa_offset, -4
    2330 00000002 E200          MOV32     *SP++,STF             ; [CPU_FPU] 
         00000003 00BD 
    2331                      .dwcfi  save_reg_to_mem, 40, 6
    2332                      .dwcfi  cfa_offset, -6
    2333 00000004 E630          SETFLG    RNDF32=1, RNDF64=1    ; [CPU_FPU] 
TMS320C2000 Assembler PC v22.6.1 Wed May 21 09:51:54 2025

Copyright (c) 1996-2018 Texas Instruments Incorporated
C:\Users\Daniel\AppData\Local\Temp\{513EF8AD-E23E-4989-8EC9-611DE01417F7} PAGE   45

         00000005 0600 
    2334 00000006 2942          CLRC      PAGE0,OVM             ; [CPU_ALU] 
    2335 00000007 5616          CLRC      AMODE                 ; [CPU_ALU] 
    2336 00000008 7625        ESTOP0
    2337 00000009       $C$L44:    
    2338                      .dwpsn  file "../DeviceSupport/source/f28003x_defaultisr.c",line 2598,column 5,is_stmt,isa 0
    2339 00000009 6F00          B         $C$L44,UNC            ; [CPU_ALU] |2598| 
    2340                      ; branch occurs ; [] |2598| 
    2341                      .dwattr $C$DW$44, DW_AT_TI_end_file("../DeviceSupport/source/f28003x_defaultisr.c")
    2342                      .dwattr $C$DW$44, DW_AT_TI_end_line(0xa27)
    2343                      .dwattr $C$DW$44, DW_AT_TI_end_column(0x01)
    2344                      .dwendentry
    2345                      .dwendtag $C$DW$44
    2346              
    2347 00000000               .sect   ".text:_PIE_RESERVED_ISR"
    2348                      .retain
    2349                      .retainrefs
    2350                      .global _PIE_RESERVED_ISR
    2351              
    2352              $C$DW$45        .dwtag  DW_TAG_subprogram
    2353                      .dwattr $C$DW$45, DW_AT_name("PIE_RESERVED_ISR")
    2354                      .dwattr $C$DW$45, DW_AT_low_pc(_PIE_RESERVED_ISR)
    2355                      .dwattr $C$DW$45, DW_AT_high_pc(0x00)
    2356                      .dwattr $C$DW$45, DW_AT_TI_symbol_name("_PIE_RESERVED_ISR")
    2357                      .dwattr $C$DW$45, DW_AT_external
    2358                      .dwattr $C$DW$45, DW_AT_TI_begin_file("../DeviceSupport/source/f28003x_defaultisr.c")
    2359                      .dwattr $C$DW$45, DW_AT_TI_begin_line(0xbce)
    2360                      .dwattr $C$DW$45, DW_AT_TI_begin_column(0x10)
    2361                      .dwattr $C$DW$45, DW_AT_TI_interrupt
    2362                      .dwattr $C$DW$45, DW_AT_TI_max_frame_size(-6)
    2363                      .dwpsn  file "../DeviceSupport/source/f28003x_defaultisr.c",line 3023,column 1,is_stmt,address _PIE_R
    2364              
    2365                      .dwfde $C$DW$CIE, _PIE_RESERVED_ISR
    2366              
    2367              ;***************************************************************
    2368              ;* FNAME: _PIE_RESERVED_ISR             FR SIZE:   4           *
    2369              ;*                                                             *
    2370              ;* FUNCTION ENVIRONMENT                                        *
    2371              ;*                                                             *
    2372              ;* FUNCTION PROPERTIES                                         *
    2373              ;*                            0 Parameter,  0 Auto,  4 SOE     *
    2374              ;***************************************************************
    2375              
    2376 00000000       _PIE_RESERVED_ISR:
    2377                      .dwcfi  cfa_offset, -2
    2378                      .dwcfi  save_reg_to_mem, 26, 0
    2379 00000000 761B          ASP       ; [CPU_ALU] 
    2380 00000001 FFF0          PUSH      RB                    ; [CPU_FPU] 
    2381                      .dwcfi  save_reg_to_mem, 74, 4
    2382                      .dwcfi  cfa_offset, -4
    2383 00000002 E200          MOV32     *SP++,STF             ; [CPU_FPU] 
         00000003 00BD 
    2384                      .dwcfi  save_reg_to_mem, 40, 6
    2385                      .dwcfi  cfa_offset, -6
    2386 00000004 E630          SETFLG    RNDF32=1, RNDF64=1    ; [CPU_FPU] 
TMS320C2000 Assembler PC v22.6.1 Wed May 21 09:51:54 2025

Copyright (c) 1996-2018 Texas Instruments Incorporated
C:\Users\Daniel\AppData\Local\Temp\{513EF8AD-E23E-4989-8EC9-611DE01417F7} PAGE   46

         00000005 0600 
    2387 00000006 2942          CLRC      PAGE0,OVM             ; [CPU_ALU] 
    2388 00000007 5616          CLRC      AMODE                 ; [CPU_ALU] 
    2389 00000008 7625        ESTOP0
    2390 00000009       $C$L45:    
    2391                      .dwpsn  file "../DeviceSupport/source/f28003x_defaultisr.c",line 3025,column 5,is_stmt,isa 0
    2392 00000009 6F00          B         $C$L45,UNC            ; [CPU_ALU] |3025| 
    2393                      ; branch occurs ; [] |3025| 
    2394                      .dwattr $C$DW$45, DW_AT_TI_end_file("../DeviceSupport/source/f28003x_defaultisr.c")
    2395                      .dwattr $C$DW$45, DW_AT_TI_end_line(0xbd2)
    2396                      .dwattr $C$DW$45, DW_AT_TI_end_column(0x01)
    2397                      .dwendentry
    2398                      .dwendtag $C$DW$45
    2399              
    2400 00000000               .sect   ".text:_NOTUSED_ISR"
    2401                      .retain
    2402                      .retainrefs
    2403                      .global _NOTUSED_ISR
    2404              
    2405              $C$DW$46        .dwtag  DW_TAG_subprogram
    2406                      .dwattr $C$DW$46, DW_AT_name("NOTUSED_ISR")
    2407                      .dwattr $C$DW$46, DW_AT_low_pc(_NOTUSED_ISR)
    2408                      .dwattr $C$DW$46, DW_AT_high_pc(0x00)
    2409                      .dwattr $C$DW$46, DW_AT_TI_symbol_name("_NOTUSED_ISR")
    2410                      .dwattr $C$DW$46, DW_AT_external
    2411                      .dwattr $C$DW$46, DW_AT_TI_begin_file("../DeviceSupport/source/f28003x_defaultisr.c")
    2412                      .dwattr $C$DW$46, DW_AT_TI_begin_line(0xbdf)
    2413                      .dwattr $C$DW$46, DW_AT_TI_begin_column(0x10)
    2414                      .dwattr $C$DW$46, DW_AT_TI_interrupt
    2415                      .dwattr $C$DW$46, DW_AT_TI_max_frame_size(-6)
    2416                      .dwpsn  file "../DeviceSupport/source/f28003x_defaultisr.c",line 3040,column 1,is_stmt,address _NOTUS
    2417              
    2418                      .dwfde $C$DW$CIE, _NOTUSED_ISR
    2419              
    2420              ;***************************************************************
    2421              ;* FNAME: _NOTUSED_ISR                  FR SIZE:   4           *
    2422              ;*                                                             *
    2423              ;* FUNCTION ENVIRONMENT                                        *
    2424              ;*                                                             *
    2425              ;* FUNCTION PROPERTIES                                         *
    2426              ;*                            0 Parameter,  0 Auto,  4 SOE     *
    2427              ;***************************************************************
    2428              
    2429 00000000       _NOTUSED_ISR:
    2430                      .dwcfi  cfa_offset, -2
    2431                      .dwcfi  save_reg_to_mem, 26, 0
    2432 00000000 761B          ASP       ; [CPU_ALU] 
    2433 00000001 FFF0          PUSH      RB                    ; [CPU_FPU] 
    2434                      .dwcfi  save_reg_to_mem, 74, 4
    2435                      .dwcfi  cfa_offset, -4
    2436 00000002 E200          MOV32     *SP++,STF             ; [CPU_FPU] 
         00000003 00BD 
    2437                      .dwcfi  save_reg_to_mem, 40, 6
    2438                      .dwcfi  cfa_offset, -6
    2439 00000004 E630          SETFLG    RNDF32=1, RNDF64=1    ; [CPU_FPU] 
TMS320C2000 Assembler PC v22.6.1 Wed May 21 09:51:54 2025

Copyright (c) 1996-2018 Texas Instruments Incorporated
C:\Users\Daniel\AppData\Local\Temp\{513EF8AD-E23E-4989-8EC9-611DE01417F7} PAGE   47

         00000005 0600 
    2440 00000006 2942          CLRC      PAGE0,OVM             ; [CPU_ALU] 
    2441 00000007 5616          CLRC      AMODE                 ; [CPU_ALU] 
    2442 00000008 7625        ESTOP0
    2443 00000009       $C$L46:    
    2444                      .dwpsn  file "../DeviceSupport/source/f28003x_defaultisr.c",line 3042,column 5,is_stmt,isa 0
    2445 00000009 6F00          B         $C$L46,UNC            ; [CPU_ALU] |3042| 
    2446                      ; branch occurs ; [] |3042| 
    2447                      .dwattr $C$DW$46, DW_AT_TI_end_file("../DeviceSupport/source/f28003x_defaultisr.c")
    2448                      .dwattr $C$DW$46, DW_AT_TI_end_line(0xbe3)
    2449                      .dwattr $C$DW$46, DW_AT_TI_end_column(0x01)
    2450                      .dwendentry
    2451                      .dwendtag $C$DW$46
    2452              
    2453 00000000               .sect   ".text:_NMI_ISR"
    2454                      .retain
    2455                      .retainrefs
    2456                      .global _NMI_ISR
    2457              
    2458              $C$DW$47        .dwtag  DW_TAG_subprogram
    2459                      .dwattr $C$DW$47, DW_AT_name("NMI_ISR")
    2460                      .dwattr $C$DW$47, DW_AT_low_pc(_NMI_ISR)
    2461                      .dwattr $C$DW$47, DW_AT_high_pc(0x00)
    2462                      .dwattr $C$DW$47, DW_AT_TI_symbol_name("_NMI_ISR")
    2463                      .dwattr $C$DW$47, DW_AT_external
    2464                      .dwattr $C$DW$47, DW_AT_TI_begin_file("../DeviceSupport/source/f28003x_defaultisr.c")
    2465                      .dwattr $C$DW$47, DW_AT_TI_begin_line(0x87)
    2466                      .dwattr $C$DW$47, DW_AT_TI_begin_column(0x10)
    2467                      .dwattr $C$DW$47, DW_AT_TI_interrupt
    2468                      .dwattr $C$DW$47, DW_AT_TI_max_frame_size(-6)
    2469                      .dwpsn  file "../DeviceSupport/source/f28003x_defaultisr.c",line 136,column 1,is_stmt,address _NMI_IS
    2470              
    2471                      .dwfde $C$DW$CIE, _NMI_ISR
    2472              
    2473              ;***************************************************************
    2474              ;* FNAME: _NMI_ISR                      FR SIZE:   4           *
    2475              ;*                                                             *
    2476              ;* FUNCTION ENVIRONMENT                                        *
    2477              ;*                                                             *
    2478              ;* FUNCTION PROPERTIES                                         *
    2479              ;*                            0 Parameter,  0 Auto,  4 SOE     *
    2480              ;***************************************************************
    2481              
    2482 00000000       _NMI_ISR:
    2483                      .dwcfi  cfa_offset, -2
    2484                      .dwcfi  save_reg_to_mem, 26, 0
    2485 00000000 761B          ASP       ; [CPU_ALU] 
    2486 00000001 FFF0          PUSH      RB                    ; [CPU_FPU] 
    2487                      .dwcfi  save_reg_to_mem, 74, 4
    2488                      .dwcfi  cfa_offset, -4
    2489 00000002 E200          MOV32     *SP++,STF             ; [CPU_FPU] 
         00000003 00BD 
    2490                      .dwcfi  save_reg_to_mem, 40, 6
    2491                      .dwcfi  cfa_offset, -6
    2492 00000004 E630          SETFLG    RNDF32=1, RNDF64=1    ; [CPU_FPU] 
TMS320C2000 Assembler PC v22.6.1 Wed May 21 09:51:54 2025

Copyright (c) 1996-2018 Texas Instruments Incorporated
C:\Users\Daniel\AppData\Local\Temp\{513EF8AD-E23E-4989-8EC9-611DE01417F7} PAGE   48

         00000005 0600 
    2493 00000006 2942          CLRC      PAGE0,OVM             ; [CPU_ALU] 
    2494 00000007 5616          CLRC      AMODE                 ; [CPU_ALU] 
    2495 00000008 7625        ESTOP0
    2496 00000009       $C$L47:    
    2497                      .dwpsn  file "../DeviceSupport/source/f28003x_defaultisr.c",line 146,column 5,is_stmt,isa 0
    2498 00000009 6F00          B         $C$L47,UNC            ; [CPU_ALU] |146| 
    2499                      ; branch occurs ; [] |146| 
    2500                      .dwattr $C$DW$47, DW_AT_TI_end_file("../DeviceSupport/source/f28003x_defaultisr.c")
    2501                      .dwattr $C$DW$47, DW_AT_TI_end_line(0x93)
    2502                      .dwattr $C$DW$47, DW_AT_TI_end_column(0x01)
    2503                      .dwendentry
    2504                      .dwendtag $C$DW$47
    2505              
    2506 00000000               .sect   ".text:_MPOST_ISR"
    2507                      .retain
    2508                      .retainrefs
    2509                      .global _MPOST_ISR
    2510              
    2511              $C$DW$48        .dwtag  DW_TAG_subprogram
    2512                      .dwattr $C$DW$48, DW_AT_name("MPOST_ISR")
    2513                      .dwattr $C$DW$48, DW_AT_low_pc(_MPOST_ISR)
    2514                      .dwattr $C$DW$48, DW_AT_high_pc(0x00)
    2515                      .dwattr $C$DW$48, DW_AT_TI_symbol_name("_MPOST_ISR")
    2516                      .dwattr $C$DW$48, DW_AT_external
    2517                      .dwattr $C$DW$48, DW_AT_TI_begin_file("../DeviceSupport/source/f28003x_defaultisr.c")
    2518                      .dwattr $C$DW$48, DW_AT_TI_begin_line(0x7d6)
    2519                      .dwattr $C$DW$48, DW_AT_TI_begin_column(0x10)
    2520                      .dwattr $C$DW$48, DW_AT_TI_interrupt
    2521                      .dwattr $C$DW$48, DW_AT_TI_max_frame_size(-6)
    2522                      .dwpsn  file "../DeviceSupport/source/f28003x_defaultisr.c",line 2007,column 1,is_stmt,address _MPOST
    2523              
    2524                      .dwfde $C$DW$CIE, _MPOST_ISR
    2525              
    2526              ;***************************************************************
    2527              ;* FNAME: _MPOST_ISR                    FR SIZE:   4           *
    2528              ;*                                                             *
    2529              ;* FUNCTION ENVIRONMENT                                        *
    2530              ;*                                                             *
    2531              ;* FUNCTION PROPERTIES                                         *
    2532              ;*                            0 Parameter,  0 Auto,  4 SOE     *
    2533              ;***************************************************************
    2534              
    2535 00000000       _MPOST_ISR:
    2536                      .dwcfi  cfa_offset, -2
    2537                      .dwcfi  save_reg_to_mem, 26, 0
    2538 00000000 761B          ASP       ; [CPU_ALU] 
    2539 00000001 FFF0          PUSH      RB                    ; [CPU_FPU] 
    2540                      .dwcfi  save_reg_to_mem, 74, 4
    2541                      .dwcfi  cfa_offset, -4
    2542 00000002 E200          MOV32     *SP++,STF             ; [CPU_FPU] 
         00000003 00BD 
    2543                      .dwcfi  save_reg_to_mem, 40, 6
    2544                      .dwcfi  cfa_offset, -6
    2545 00000004 E630          SETFLG    RNDF32=1, RNDF64=1    ; [CPU_FPU] 
TMS320C2000 Assembler PC v22.6.1 Wed May 21 09:51:54 2025

Copyright (c) 1996-2018 Texas Instruments Incorporated
C:\Users\Daniel\AppData\Local\Temp\{513EF8AD-E23E-4989-8EC9-611DE01417F7} PAGE   49

         00000005 0600 
    2546 00000006 2942          CLRC      PAGE0,OVM             ; [CPU_ALU] 
    2547 00000007 5616          CLRC      AMODE                 ; [CPU_ALU] 
    2548 00000008 7625        ESTOP0
    2549 00000009       $C$L48:    
    2550                      .dwpsn  file "../DeviceSupport/source/f28003x_defaultisr.c",line 2023,column 5,is_stmt,isa 0
    2551 00000009 6F00          B         $C$L48,UNC            ; [CPU_ALU] |2023| 
    2552                      ; branch occurs ; [] |2023| 
    2553                      .dwattr $C$DW$48, DW_AT_TI_end_file("../DeviceSupport/source/f28003x_defaultisr.c")
    2554                      .dwattr $C$DW$48, DW_AT_TI_end_line(0x7e8)
    2555                      .dwattr $C$DW$48, DW_AT_TI_end_column(0x01)
    2556                      .dwendentry
    2557                      .dwendtag $C$DW$48
    2558              
    2559 00000000               .sect   ".text:_MCAN_WAKE_ISR"
    2560                      .retain
    2561                      .retainrefs
    2562                      .global _MCAN_WAKE_ISR
    2563              
    2564              $C$DW$49        .dwtag  DW_TAG_subprogram
    2565                      .dwattr $C$DW$49, DW_AT_name("MCAN_WAKE_ISR")
    2566                      .dwattr $C$DW$49, DW_AT_low_pc(_MCAN_WAKE_ISR)
    2567                      .dwattr $C$DW$49, DW_AT_high_pc(0x00)
    2568                      .dwattr $C$DW$49, DW_AT_TI_symbol_name("_MCAN_WAKE_ISR")
    2569                      .dwattr $C$DW$49, DW_AT_external
    2570                      .dwattr $C$DW$49, DW_AT_TI_begin_file("../DeviceSupport/source/f28003x_defaultisr.c")
    2571                      .dwattr $C$DW$49, DW_AT_TI_begin_line(0xa88)
    2572                      .dwattr $C$DW$49, DW_AT_TI_begin_column(0x10)
    2573                      .dwattr $C$DW$49, DW_AT_TI_interrupt
    2574                      .dwattr $C$DW$49, DW_AT_TI_max_frame_size(-6)
    2575                      .dwpsn  file "../DeviceSupport/source/f28003x_defaultisr.c",line 2697,column 1,is_stmt,address _MCAN_
    2576              
    2577                      .dwfde $C$DW$CIE, _MCAN_WAKE_ISR
    2578              
    2579              ;***************************************************************
    2580              ;* FNAME: _MCAN_WAKE_ISR                FR SIZE:   4           *
    2581              ;*                                                             *
    2582              ;* FUNCTION ENVIRONMENT                                        *
    2583              ;*                                                             *
    2584              ;* FUNCTION PROPERTIES                                         *
    2585              ;*                            0 Parameter,  0 Auto,  4 SOE     *
    2586              ;***************************************************************
    2587              
    2588 00000000       _MCAN_WAKE_ISR:
    2589                      .dwcfi  cfa_offset, -2
    2590                      .dwcfi  save_reg_to_mem, 26, 0
    2591 00000000 761B          ASP       ; [CPU_ALU] 
    2592 00000001 FFF0          PUSH      RB                    ; [CPU_FPU] 
    2593                      .dwcfi  save_reg_to_mem, 74, 4
    2594                      .dwcfi  cfa_offset, -4
    2595 00000002 E200          MOV32     *SP++,STF             ; [CPU_FPU] 
         00000003 00BD 
    2596                      .dwcfi  save_reg_to_mem, 40, 6
    2597                      .dwcfi  cfa_offset, -6
    2598 00000004 E630          SETFLG    RNDF32=1, RNDF64=1    ; [CPU_FPU] 
TMS320C2000 Assembler PC v22.6.1 Wed May 21 09:51:54 2025

Copyright (c) 1996-2018 Texas Instruments Incorporated
C:\Users\Daniel\AppData\Local\Temp\{513EF8AD-E23E-4989-8EC9-611DE01417F7} PAGE   50

         00000005 0600 
    2599 00000006 2942          CLRC      PAGE0,OVM             ; [CPU_ALU] 
    2600 00000007 5616          CLRC      AMODE                 ; [CPU_ALU] 
    2601 00000008 7625        ESTOP0
    2602 00000009       $C$L49:    
    2603                      .dwpsn  file "../DeviceSupport/source/f28003x_defaultisr.c",line 2713,column 5,is_stmt,isa 0
    2604 00000009 6F00          B         $C$L49,UNC            ; [CPU_ALU] |2713| 
    2605                      ; branch occurs ; [] |2713| 
    2606                      .dwattr $C$DW$49, DW_AT_TI_end_file("../DeviceSupport/source/f28003x_defaultisr.c")
    2607                      .dwattr $C$DW$49, DW_AT_TI_end_line(0xa9a)
    2608                      .dwattr $C$DW$49, DW_AT_TI_end_column(0x01)
    2609                      .dwendentry
    2610                      .dwendtag $C$DW$49
    2611              
    2612 00000000               .sect   ".text:_MCAN_ECC_ISR"
    2613                      .retain
    2614                      .retainrefs
    2615                      .global _MCAN_ECC_ISR
    2616              
    2617              $C$DW$50        .dwtag  DW_TAG_subprogram
    2618                      .dwattr $C$DW$50, DW_AT_name("MCAN_ECC_ISR")
    2619                      .dwattr $C$DW$50, DW_AT_low_pc(_MCAN_ECC_ISR)
    2620                      .dwattr $C$DW$50, DW_AT_high_pc(0x00)
    2621                      .dwattr $C$DW$50, DW_AT_TI_symbol_name("_MCAN_ECC_ISR")
    2622                      .dwattr $C$DW$50, DW_AT_external
    2623                      .dwattr $C$DW$50, DW_AT_TI_begin_file("../DeviceSupport/source/f28003x_defaultisr.c")
    2624                      .dwattr $C$DW$50, DW_AT_TI_begin_line(0xa71)
    2625                      .dwattr $C$DW$50, DW_AT_TI_begin_column(0x10)
    2626                      .dwattr $C$DW$50, DW_AT_TI_interrupt
    2627                      .dwattr $C$DW$50, DW_AT_TI_max_frame_size(-6)
    2628                      .dwpsn  file "../DeviceSupport/source/f28003x_defaultisr.c",line 2674,column 1,is_stmt,address _MCAN_
    2629              
    2630                      .dwfde $C$DW$CIE, _MCAN_ECC_ISR
    2631              
    2632              ;***************************************************************
    2633              ;* FNAME: _MCAN_ECC_ISR                 FR SIZE:   4           *
    2634              ;*                                                             *
    2635              ;* FUNCTION ENVIRONMENT                                        *
    2636              ;*                                                             *
    2637              ;* FUNCTION PROPERTIES                                         *
    2638              ;*                            0 Parameter,  0 Auto,  4 SOE     *
    2639              ;***************************************************************
    2640              
    2641 00000000       _MCAN_ECC_ISR:
    2642                      .dwcfi  cfa_offset, -2
    2643                      .dwcfi  save_reg_to_mem, 26, 0
    2644 00000000 761B          ASP       ; [CPU_ALU] 
    2645 00000001 FFF0          PUSH      RB                    ; [CPU_FPU] 
    2646                      .dwcfi  save_reg_to_mem, 74, 4
    2647                      .dwcfi  cfa_offset, -4
    2648 00000002 E200          MOV32     *SP++,STF             ; [CPU_FPU] 
         00000003 00BD 
    2649                      .dwcfi  save_reg_to_mem, 40, 6
    2650                      .dwcfi  cfa_offset, -6
    2651 00000004 E630          SETFLG    RNDF32=1, RNDF64=1    ; [CPU_FPU] 
TMS320C2000 Assembler PC v22.6.1 Wed May 21 09:51:54 2025

Copyright (c) 1996-2018 Texas Instruments Incorporated
C:\Users\Daniel\AppData\Local\Temp\{513EF8AD-E23E-4989-8EC9-611DE01417F7} PAGE   51

         00000005 0600 
    2652 00000006 2942          CLRC      PAGE0,OVM             ; [CPU_ALU] 
    2653 00000007 5616          CLRC      AMODE                 ; [CPU_ALU] 
    2654 00000008 7625        ESTOP0
    2655 00000009       $C$L50:    
    2656                      .dwpsn  file "../DeviceSupport/source/f28003x_defaultisr.c",line 2690,column 5,is_stmt,isa 0
    2657 00000009 6F00          B         $C$L50,UNC            ; [CPU_ALU] |2690| 
    2658                      ; branch occurs ; [] |2690| 
    2659                      .dwattr $C$DW$50, DW_AT_TI_end_file("../DeviceSupport/source/f28003x_defaultisr.c")
    2660                      .dwattr $C$DW$50, DW_AT_TI_end_line(0xa83)
    2661                      .dwattr $C$DW$50, DW_AT_TI_end_column(0x01)
    2662                      .dwendentry
    2663                      .dwendtag $C$DW$50
    2664              
    2665 00000000               .sect   ".text:_MCAN_1_ISR"
    2666                      .retain
    2667                      .retainrefs
    2668                      .global _MCAN_1_ISR
    2669              
    2670              $C$DW$51        .dwtag  DW_TAG_subprogram
    2671                      .dwattr $C$DW$51, DW_AT_name("MCAN_1_ISR")
    2672                      .dwattr $C$DW$51, DW_AT_low_pc(_MCAN_1_ISR)
    2673                      .dwattr $C$DW$51, DW_AT_high_pc(0x00)
    2674                      .dwattr $C$DW$51, DW_AT_TI_symbol_name("_MCAN_1_ISR")
    2675                      .dwattr $C$DW$51, DW_AT_external
    2676                      .dwattr $C$DW$51, DW_AT_TI_begin_file("../DeviceSupport/source/f28003x_defaultisr.c")
    2677                      .dwattr $C$DW$51, DW_AT_TI_begin_line(0xa5a)
    2678                      .dwattr $C$DW$51, DW_AT_TI_begin_column(0x10)
    2679                      .dwattr $C$DW$51, DW_AT_TI_interrupt
    2680                      .dwattr $C$DW$51, DW_AT_TI_max_frame_size(-6)
    2681                      .dwpsn  file "../DeviceSupport/source/f28003x_defaultisr.c",line 2651,column 1,is_stmt,address _MCAN_
    2682              
    2683                      .dwfde $C$DW$CIE, _MCAN_1_ISR
    2684              
    2685              ;***************************************************************
    2686              ;* FNAME: _MCAN_1_ISR                   FR SIZE:   4           *
    2687              ;*                                                             *
    2688              ;* FUNCTION ENVIRONMENT                                        *
    2689              ;*                                                             *
    2690              ;* FUNCTION PROPERTIES                                         *
    2691              ;*                            0 Parameter,  0 Auto,  4 SOE     *
    2692              ;***************************************************************
    2693              
    2694 00000000       _MCAN_1_ISR:
    2695                      .dwcfi  cfa_offset, -2
    2696                      .dwcfi  save_reg_to_mem, 26, 0
    2697 00000000 761B          ASP       ; [CPU_ALU] 
    2698 00000001 FFF0          PUSH      RB                    ; [CPU_FPU] 
    2699                      .dwcfi  save_reg_to_mem, 74, 4
    2700                      .dwcfi  cfa_offset, -4
    2701 00000002 E200          MOV32     *SP++,STF             ; [CPU_FPU] 
         00000003 00BD 
    2702                      .dwcfi  save_reg_to_mem, 40, 6
    2703                      .dwcfi  cfa_offset, -6
    2704 00000004 E630          SETFLG    RNDF32=1, RNDF64=1    ; [CPU_FPU] 
TMS320C2000 Assembler PC v22.6.1 Wed May 21 09:51:54 2025

Copyright (c) 1996-2018 Texas Instruments Incorporated
C:\Users\Daniel\AppData\Local\Temp\{513EF8AD-E23E-4989-8EC9-611DE01417F7} PAGE   52

         00000005 0600 
    2705 00000006 2942          CLRC      PAGE0,OVM             ; [CPU_ALU] 
    2706 00000007 5616          CLRC      AMODE                 ; [CPU_ALU] 
    2707 00000008 7625        ESTOP0
    2708 00000009       $C$L51:    
    2709                      .dwpsn  file "../DeviceSupport/source/f28003x_defaultisr.c",line 2667,column 5,is_stmt,isa 0
    2710 00000009 6F00          B         $C$L51,UNC            ; [CPU_ALU] |2667| 
    2711                      ; branch occurs ; [] |2667| 
    2712                      .dwattr $C$DW$51, DW_AT_TI_end_file("../DeviceSupport/source/f28003x_defaultisr.c")
    2713                      .dwattr $C$DW$51, DW_AT_TI_end_line(0xa6c)
    2714                      .dwattr $C$DW$51, DW_AT_TI_end_column(0x01)
    2715                      .dwendentry
    2716                      .dwendtag $C$DW$51
    2717              
    2718 00000000               .sect   ".text:_MCAN_0_ISR"
    2719                      .retain
    2720                      .retainrefs
    2721                      .global _MCAN_0_ISR
    2722              
    2723              $C$DW$52        .dwtag  DW_TAG_subprogram
    2724                      .dwattr $C$DW$52, DW_AT_name("MCAN_0_ISR")
    2725                      .dwattr $C$DW$52, DW_AT_low_pc(_MCAN_0_ISR)
    2726                      .dwattr $C$DW$52, DW_AT_high_pc(0x00)
    2727                      .dwattr $C$DW$52, DW_AT_TI_symbol_name("_MCAN_0_ISR")
    2728                      .dwattr $C$DW$52, DW_AT_external
    2729                      .dwattr $C$DW$52, DW_AT_TI_begin_file("../DeviceSupport/source/f28003x_defaultisr.c")
    2730                      .dwattr $C$DW$52, DW_AT_TI_begin_line(0xa43)
    2731                      .dwattr $C$DW$52, DW_AT_TI_begin_column(0x10)
    2732                      .dwattr $C$DW$52, DW_AT_TI_interrupt
    2733                      .dwattr $C$DW$52, DW_AT_TI_max_frame_size(-6)
    2734                      .dwpsn  file "../DeviceSupport/source/f28003x_defaultisr.c",line 2628,column 1,is_stmt,address _MCAN_
    2735              
    2736                      .dwfde $C$DW$CIE, _MCAN_0_ISR
    2737              
    2738              ;***************************************************************
    2739              ;* FNAME: _MCAN_0_ISR                   FR SIZE:   4           *
    2740              ;*                                                             *
    2741              ;* FUNCTION ENVIRONMENT                                        *
    2742              ;*                                                             *
    2743              ;* FUNCTION PROPERTIES                                         *
    2744              ;*                            0 Parameter,  0 Auto,  4 SOE     *
    2745              ;***************************************************************
    2746              
    2747 00000000       _MCAN_0_ISR:
    2748                      .dwcfi  cfa_offset, -2
    2749                      .dwcfi  save_reg_to_mem, 26, 0
    2750 00000000 761B          ASP       ; [CPU_ALU] 
    2751 00000001 FFF0          PUSH      RB                    ; [CPU_FPU] 
    2752                      .dwcfi  save_reg_to_mem, 74, 4
    2753                      .dwcfi  cfa_offset, -4
    2754 00000002 E200          MOV32     *SP++,STF             ; [CPU_FPU] 
         00000003 00BD 
    2755                      .dwcfi  save_reg_to_mem, 40, 6
    2756                      .dwcfi  cfa_offset, -6
    2757 00000004 E630          SETFLG    RNDF32=1, RNDF64=1    ; [CPU_FPU] 
TMS320C2000 Assembler PC v22.6.1 Wed May 21 09:51:54 2025

Copyright (c) 1996-2018 Texas Instruments Incorporated
C:\Users\Daniel\AppData\Local\Temp\{513EF8AD-E23E-4989-8EC9-611DE01417F7} PAGE   53

         00000005 0600 
    2758 00000006 2942          CLRC      PAGE0,OVM             ; [CPU_ALU] 
    2759 00000007 5616          CLRC      AMODE                 ; [CPU_ALU] 
    2760 00000008 7625        ESTOP0
    2761 00000009       $C$L52:    
    2762                      .dwpsn  file "../DeviceSupport/source/f28003x_defaultisr.c",line 2644,column 5,is_stmt,isa 0
    2763 00000009 6F00          B         $C$L52,UNC            ; [CPU_ALU] |2644| 
    2764                      ; branch occurs ; [] |2644| 
    2765                      .dwattr $C$DW$52, DW_AT_TI_end_file("../DeviceSupport/source/f28003x_defaultisr.c")
    2766                      .dwattr $C$DW$52, DW_AT_TI_end_line(0xa55)
    2767                      .dwattr $C$DW$52, DW_AT_TI_end_column(0x01)
    2768                      .dwendentry
    2769                      .dwendtag $C$DW$52
    2770              
    2771 00000000               .sect   ".text:_LINB_1_ISR"
    2772                      .retain
    2773                      .retainrefs
    2774                      .global _LINB_1_ISR
    2775              
    2776              $C$DW$53        .dwtag  DW_TAG_subprogram
    2777                      .dwattr $C$DW$53, DW_AT_name("LINB_1_ISR")
    2778                      .dwattr $C$DW$53, DW_AT_low_pc(_LINB_1_ISR)
    2779                      .dwattr $C$DW$53, DW_AT_high_pc(0x00)
    2780                      .dwattr $C$DW$53, DW_AT_TI_symbol_name("_LINB_1_ISR")
    2781                      .dwattr $C$DW$53, DW_AT_external
    2782                      .dwattr $C$DW$53, DW_AT_TI_begin_file("../DeviceSupport/source/f28003x_defaultisr.c")
    2783                      .dwattr $C$DW$53, DW_AT_TI_begin_line(0x9fe)
    2784                      .dwattr $C$DW$53, DW_AT_TI_begin_column(0x10)
    2785                      .dwattr $C$DW$53, DW_AT_TI_interrupt
    2786                      .dwattr $C$DW$53, DW_AT_TI_max_frame_size(-6)
    2787                      .dwpsn  file "../DeviceSupport/source/f28003x_defaultisr.c",line 2559,column 1,is_stmt,address _LINB_
    2788              
    2789                      .dwfde $C$DW$CIE, _LINB_1_ISR
    2790              
    2791              ;***************************************************************
    2792              ;* FNAME: _LINB_1_ISR                   FR SIZE:   4           *
    2793              ;*                                                             *
    2794              ;* FUNCTION ENVIRONMENT                                        *
    2795              ;*                                                             *
    2796              ;* FUNCTION PROPERTIES                                         *
    2797              ;*                            0 Parameter,  0 Auto,  4 SOE     *
    2798              ;***************************************************************
    2799              
    2800 00000000       _LINB_1_ISR:
    2801                      .dwcfi  cfa_offset, -2
    2802                      .dwcfi  save_reg_to_mem, 26, 0
    2803 00000000 761B          ASP       ; [CPU_ALU] 
    2804 00000001 FFF0          PUSH      RB                    ; [CPU_FPU] 
    2805                      .dwcfi  save_reg_to_mem, 74, 4
    2806                      .dwcfi  cfa_offset, -4
    2807 00000002 E200          MOV32     *SP++,STF             ; [CPU_FPU] 
         00000003 00BD 
    2808                      .dwcfi  save_reg_to_mem, 40, 6
    2809                      .dwcfi  cfa_offset, -6
    2810 00000004 E630          SETFLG    RNDF32=1, RNDF64=1    ; [CPU_FPU] 
TMS320C2000 Assembler PC v22.6.1 Wed May 21 09:51:54 2025

Copyright (c) 1996-2018 Texas Instruments Incorporated
C:\Users\Daniel\AppData\Local\Temp\{513EF8AD-E23E-4989-8EC9-611DE01417F7} PAGE   54

         00000005 0600 
    2811 00000006 2942          CLRC      PAGE0,OVM             ; [CPU_ALU] 
    2812 00000007 5616          CLRC      AMODE                 ; [CPU_ALU] 
    2813 00000008 7625        ESTOP0
    2814 00000009       $C$L53:    
    2815                      .dwpsn  file "../DeviceSupport/source/f28003x_defaultisr.c",line 2575,column 5,is_stmt,isa 0
    2816 00000009 6F00          B         $C$L53,UNC            ; [CPU_ALU] |2575| 
    2817                      ; branch occurs ; [] |2575| 
    2818                      .dwattr $C$DW$53, DW_AT_TI_end_file("../DeviceSupport/source/f28003x_defaultisr.c")
    2819                      .dwattr $C$DW$53, DW_AT_TI_end_line(0xa10)
    2820                      .dwattr $C$DW$53, DW_AT_TI_end_column(0x01)
    2821                      .dwendentry
    2822                      .dwendtag $C$DW$53
    2823              
    2824 00000000               .sect   ".text:_LINB_0_ISR"
    2825                      .retain
    2826                      .retainrefs
    2827                      .global _LINB_0_ISR
    2828              
    2829              $C$DW$54        .dwtag  DW_TAG_subprogram
    2830                      .dwattr $C$DW$54, DW_AT_name("LINB_0_ISR")
    2831                      .dwattr $C$DW$54, DW_AT_low_pc(_LINB_0_ISR)
    2832                      .dwattr $C$DW$54, DW_AT_high_pc(0x00)
    2833                      .dwattr $C$DW$54, DW_AT_TI_symbol_name("_LINB_0_ISR")
    2834                      .dwattr $C$DW$54, DW_AT_external
    2835                      .dwattr $C$DW$54, DW_AT_TI_begin_file("../DeviceSupport/source/f28003x_defaultisr.c")
    2836                      .dwattr $C$DW$54, DW_AT_TI_begin_line(0x9e7)
    2837                      .dwattr $C$DW$54, DW_AT_TI_begin_column(0x10)
    2838                      .dwattr $C$DW$54, DW_AT_TI_interrupt
    2839                      .dwattr $C$DW$54, DW_AT_TI_max_frame_size(-6)
    2840                      .dwpsn  file "../DeviceSupport/source/f28003x_defaultisr.c",line 2536,column 1,is_stmt,address _LINB_
    2841              
    2842                      .dwfde $C$DW$CIE, _LINB_0_ISR
    2843              
    2844              ;***************************************************************
    2845              ;* FNAME: _LINB_0_ISR                   FR SIZE:   4           *
    2846              ;*                                                             *
    2847              ;* FUNCTION ENVIRONMENT                                        *
    2848              ;*                                                             *
    2849              ;* FUNCTION PROPERTIES                                         *
    2850              ;*                            0 Parameter,  0 Auto,  4 SOE     *
    2851              ;***************************************************************
    2852              
    2853 00000000       _LINB_0_ISR:
    2854                      .dwcfi  cfa_offset, -2
    2855                      .dwcfi  save_reg_to_mem, 26, 0
    2856 00000000 761B          ASP       ; [CPU_ALU] 
    2857 00000001 FFF0          PUSH      RB                    ; [CPU_FPU] 
    2858                      .dwcfi  save_reg_to_mem, 74, 4
    2859                      .dwcfi  cfa_offset, -4
    2860 00000002 E200          MOV32     *SP++,STF             ; [CPU_FPU] 
         00000003 00BD 
    2861                      .dwcfi  save_reg_to_mem, 40, 6
    2862                      .dwcfi  cfa_offset, -6
    2863 00000004 E630          SETFLG    RNDF32=1, RNDF64=1    ; [CPU_FPU] 
TMS320C2000 Assembler PC v22.6.1 Wed May 21 09:51:54 2025

Copyright (c) 1996-2018 Texas Instruments Incorporated
C:\Users\Daniel\AppData\Local\Temp\{513EF8AD-E23E-4989-8EC9-611DE01417F7} PAGE   55

         00000005 0600 
    2864 00000006 2942          CLRC      PAGE0,OVM             ; [CPU_ALU] 
    2865 00000007 5616          CLRC      AMODE                 ; [CPU_ALU] 
    2866 00000008 7625        ESTOP0
    2867 00000009       $C$L54:    
    2868                      .dwpsn  file "../DeviceSupport/source/f28003x_defaultisr.c",line 2552,column 5,is_stmt,isa 0
    2869 00000009 6F00          B         $C$L54,UNC            ; [CPU_ALU] |2552| 
    2870                      ; branch occurs ; [] |2552| 
    2871                      .dwattr $C$DW$54, DW_AT_TI_end_file("../DeviceSupport/source/f28003x_defaultisr.c")
    2872                      .dwattr $C$DW$54, DW_AT_TI_end_line(0x9f9)
    2873                      .dwattr $C$DW$54, DW_AT_TI_end_column(0x01)
    2874                      .dwendentry
    2875                      .dwendtag $C$DW$54
    2876              
    2877 00000000               .sect   ".text:_LINA_1_ISR"
    2878                      .retain
    2879                      .retainrefs
    2880                      .global _LINA_1_ISR
    2881              
    2882              $C$DW$55        .dwtag  DW_TAG_subprogram
    2883                      .dwattr $C$DW$55, DW_AT_name("LINA_1_ISR")
    2884                      .dwattr $C$DW$55, DW_AT_low_pc(_LINA_1_ISR)
    2885                      .dwattr $C$DW$55, DW_AT_high_pc(0x00)
    2886                      .dwattr $C$DW$55, DW_AT_TI_symbol_name("_LINA_1_ISR")
    2887                      .dwattr $C$DW$55, DW_AT_external
    2888                      .dwattr $C$DW$55, DW_AT_TI_begin_file("../DeviceSupport/source/f28003x_defaultisr.c")
    2889                      .dwattr $C$DW$55, DW_AT_TI_begin_line(0x9d0)
    2890                      .dwattr $C$DW$55, DW_AT_TI_begin_column(0x10)
    2891                      .dwattr $C$DW$55, DW_AT_TI_interrupt
    2892                      .dwattr $C$DW$55, DW_AT_TI_max_frame_size(-6)
    2893                      .dwpsn  file "../DeviceSupport/source/f28003x_defaultisr.c",line 2513,column 1,is_stmt,address _LINA_
    2894              
    2895                      .dwfde $C$DW$CIE, _LINA_1_ISR
    2896              
    2897              ;***************************************************************
    2898              ;* FNAME: _LINA_1_ISR                   FR SIZE:   4           *
    2899              ;*                                                             *
    2900              ;* FUNCTION ENVIRONMENT                                        *
    2901              ;*                                                             *
    2902              ;* FUNCTION PROPERTIES                                         *
    2903              ;*                            0 Parameter,  0 Auto,  4 SOE     *
    2904              ;***************************************************************
    2905              
    2906 00000000       _LINA_1_ISR:
    2907                      .dwcfi  cfa_offset, -2
    2908                      .dwcfi  save_reg_to_mem, 26, 0
    2909 00000000 761B          ASP       ; [CPU_ALU] 
    2910 00000001 FFF0          PUSH      RB                    ; [CPU_FPU] 
    2911                      .dwcfi  save_reg_to_mem, 74, 4
    2912                      .dwcfi  cfa_offset, -4
    2913 00000002 E200          MOV32     *SP++,STF             ; [CPU_FPU] 
         00000003 00BD 
    2914                      .dwcfi  save_reg_to_mem, 40, 6
    2915                      .dwcfi  cfa_offset, -6
    2916 00000004 E630          SETFLG    RNDF32=1, RNDF64=1    ; [CPU_FPU] 
TMS320C2000 Assembler PC v22.6.1 Wed May 21 09:51:54 2025

Copyright (c) 1996-2018 Texas Instruments Incorporated
C:\Users\Daniel\AppData\Local\Temp\{513EF8AD-E23E-4989-8EC9-611DE01417F7} PAGE   56

         00000005 0600 
    2917 00000006 2942          CLRC      PAGE0,OVM             ; [CPU_ALU] 
    2918 00000007 5616          CLRC      AMODE                 ; [CPU_ALU] 
    2919 00000008 7625        ESTOP0
    2920 00000009       $C$L55:    
    2921                      .dwpsn  file "../DeviceSupport/source/f28003x_defaultisr.c",line 2529,column 5,is_stmt,isa 0
    2922 00000009 6F00          B         $C$L55,UNC            ; [CPU_ALU] |2529| 
    2923                      ; branch occurs ; [] |2529| 
    2924                      .dwattr $C$DW$55, DW_AT_TI_end_file("../DeviceSupport/source/f28003x_defaultisr.c")
    2925                      .dwattr $C$DW$55, DW_AT_TI_end_line(0x9e2)
    2926                      .dwattr $C$DW$55, DW_AT_TI_end_column(0x01)
    2927                      .dwendentry
    2928                      .dwendtag $C$DW$55
    2929              
    2930 00000000               .sect   ".text:_LINA_0_ISR"
    2931                      .retain
    2932                      .retainrefs
    2933                      .global _LINA_0_ISR
    2934              
    2935              $C$DW$56        .dwtag  DW_TAG_subprogram
    2936                      .dwattr $C$DW$56, DW_AT_name("LINA_0_ISR")
    2937                      .dwattr $C$DW$56, DW_AT_low_pc(_LINA_0_ISR)
    2938                      .dwattr $C$DW$56, DW_AT_high_pc(0x00)
    2939                      .dwattr $C$DW$56, DW_AT_TI_symbol_name("_LINA_0_ISR")
    2940                      .dwattr $C$DW$56, DW_AT_external
    2941                      .dwattr $C$DW$56, DW_AT_TI_begin_file("../DeviceSupport/source/f28003x_defaultisr.c")
    2942                      .dwattr $C$DW$56, DW_AT_TI_begin_line(0x9b9)
    2943                      .dwattr $C$DW$56, DW_AT_TI_begin_column(0x10)
    2944                      .dwattr $C$DW$56, DW_AT_TI_interrupt
    2945                      .dwattr $C$DW$56, DW_AT_TI_max_frame_size(-6)
    2946                      .dwpsn  file "../DeviceSupport/source/f28003x_defaultisr.c",line 2490,column 1,is_stmt,address _LINA_
    2947              
    2948                      .dwfde $C$DW$CIE, _LINA_0_ISR
    2949              
    2950              ;***************************************************************
    2951              ;* FNAME: _LINA_0_ISR                   FR SIZE:   4           *
    2952              ;*                                                             *
    2953              ;* FUNCTION ENVIRONMENT                                        *
    2954              ;*                                                             *
    2955              ;* FUNCTION PROPERTIES                                         *
    2956              ;*                            0 Parameter,  0 Auto,  4 SOE     *
    2957              ;***************************************************************
    2958              
    2959 00000000       _LINA_0_ISR:
    2960                      .dwcfi  cfa_offset, -2
    2961                      .dwcfi  save_reg_to_mem, 26, 0
    2962 00000000 761B          ASP       ; [CPU_ALU] 
    2963 00000001 FFF0          PUSH      RB                    ; [CPU_FPU] 
    2964                      .dwcfi  save_reg_to_mem, 74, 4
    2965                      .dwcfi  cfa_offset, -4
    2966 00000002 E200          MOV32     *SP++,STF             ; [CPU_FPU] 
         00000003 00BD 
    2967                      .dwcfi  save_reg_to_mem, 40, 6
    2968                      .dwcfi  cfa_offset, -6
    2969 00000004 E630          SETFLG    RNDF32=1, RNDF64=1    ; [CPU_FPU] 
TMS320C2000 Assembler PC v22.6.1 Wed May 21 09:51:54 2025

Copyright (c) 1996-2018 Texas Instruments Incorporated
C:\Users\Daniel\AppData\Local\Temp\{513EF8AD-E23E-4989-8EC9-611DE01417F7} PAGE   57

         00000005 0600 
    2970 00000006 2942          CLRC      PAGE0,OVM             ; [CPU_ALU] 
    2971 00000007 5616          CLRC      AMODE                 ; [CPU_ALU] 
    2972 00000008 7625        ESTOP0
    2973 00000009       $C$L56:    
    2974                      .dwpsn  file "../DeviceSupport/source/f28003x_defaultisr.c",line 2506,column 5,is_stmt,isa 0
    2975 00000009 6F00          B         $C$L56,UNC            ; [CPU_ALU] |2506| 
    2976                      ; branch occurs ; [] |2506| 
    2977                      .dwattr $C$DW$56, DW_AT_TI_end_file("../DeviceSupport/source/f28003x_defaultisr.c")
    2978                      .dwattr $C$DW$56, DW_AT_TI_end_line(0x9cb)
    2979                      .dwattr $C$DW$56, DW_AT_TI_end_column(0x01)
    2980                      .dwendentry
    2981                      .dwendtag $C$DW$56
    2982              
    2983 00000000               .sect   ".text:_ILLEGAL_ISR"
    2984                      .retain
    2985                      .retainrefs
    2986                      .global _ILLEGAL_ISR
    2987              
    2988              $C$DW$57        .dwtag  DW_TAG_subprogram
    2989                      .dwattr $C$DW$57, DW_AT_name("ILLEGAL_ISR")
    2990                      .dwattr $C$DW$57, DW_AT_low_pc(_ILLEGAL_ISR)
    2991                      .dwattr $C$DW$57, DW_AT_high_pc(0x00)
    2992                      .dwattr $C$DW$57, DW_AT_TI_symbol_name("_ILLEGAL_ISR")
    2993                      .dwattr $C$DW$57, DW_AT_external
    2994                      .dwattr $C$DW$57, DW_AT_TI_begin_file("../DeviceSupport/source/f28003x_defaultisr.c")
    2995                      .dwattr $C$DW$57, DW_AT_TI_begin_line(0x98)
    2996                      .dwattr $C$DW$57, DW_AT_TI_begin_column(0x10)
    2997                      .dwattr $C$DW$57, DW_AT_TI_interrupt
    2998                      .dwattr $C$DW$57, DW_AT_TI_max_frame_size(-6)
    2999                      .dwpsn  file "../DeviceSupport/source/f28003x_defaultisr.c",line 153,column 1,is_stmt,address _ILLEGA
    3000              
    3001                      .dwfde $C$DW$CIE, _ILLEGAL_ISR
    3002              
    3003              ;***************************************************************
    3004              ;* FNAME: _ILLEGAL_ISR                  FR SIZE:   4           *
    3005              ;*                                                             *
    3006              ;* FUNCTION ENVIRONMENT                                        *
    3007              ;*                                                             *
    3008              ;* FUNCTION PROPERTIES                                         *
    3009              ;*                            0 Parameter,  0 Auto,  4 SOE     *
    3010              ;***************************************************************
    3011              
    3012 00000000       _ILLEGAL_ISR:
    3013                      .dwcfi  cfa_offset, -2
    3014                      .dwcfi  save_reg_to_mem, 26, 0
    3015 00000000 761B          ASP       ; [CPU_ALU] 
    3016 00000001 FFF0          PUSH      RB                    ; [CPU_FPU] 
    3017                      .dwcfi  save_reg_to_mem, 74, 4
    3018                      .dwcfi  cfa_offset, -4
    3019 00000002 E200          MOV32     *SP++,STF             ; [CPU_FPU] 
         00000003 00BD 
    3020                      .dwcfi  save_reg_to_mem, 40, 6
    3021                      .dwcfi  cfa_offset, -6
    3022 00000004 E630          SETFLG    RNDF32=1, RNDF64=1    ; [CPU_FPU] 
TMS320C2000 Assembler PC v22.6.1 Wed May 21 09:51:54 2025

Copyright (c) 1996-2018 Texas Instruments Incorporated
C:\Users\Daniel\AppData\Local\Temp\{513EF8AD-E23E-4989-8EC9-611DE01417F7} PAGE   58

         00000005 0600 
    3023 00000006 2942          CLRC      PAGE0,OVM             ; [CPU_ALU] 
    3024 00000007 5616          CLRC      AMODE                 ; [CPU_ALU] 
    3025 00000008 7625        ESTOP0
    3026 00000009       $C$L57:    
    3027                      .dwpsn  file "../DeviceSupport/source/f28003x_defaultisr.c",line 163,column 5,is_stmt,isa 0
    3028 00000009 6F00          B         $C$L57,UNC            ; [CPU_ALU] |163| 
    3029                      ; branch occurs ; [] |163| 
    3030                      .dwattr $C$DW$57, DW_AT_TI_end_file("../DeviceSupport/source/f28003x_defaultisr.c")
    3031                      .dwattr $C$DW$57, DW_AT_TI_end_line(0xa4)
    3032                      .dwattr $C$DW$57, DW_AT_TI_end_column(0x01)
    3033                      .dwendentry
    3034                      .dwendtag $C$DW$57
    3035              
    3036 00000000               .sect   ".text:_I2CB_ISR"
    3037                      .retain
    3038                      .retainrefs
    3039                      .global _I2CB_ISR
    3040              
    3041              $C$DW$58        .dwtag  DW_TAG_subprogram
    3042                      .dwattr $C$DW$58, DW_AT_name("I2CB_ISR")
    3043                      .dwattr $C$DW$58, DW_AT_low_pc(_I2CB_ISR)
    3044                      .dwattr $C$DW$58, DW_AT_high_pc(0x00)
    3045                      .dwattr $C$DW$58, DW_AT_TI_symbol_name("_I2CB_ISR")
    3046                      .dwattr $C$DW$58, DW_AT_external
    3047                      .dwattr $C$DW$58, DW_AT_TI_begin_file("../DeviceSupport/source/f28003x_defaultisr.c")
    3048                      .dwattr $C$DW$58, DW_AT_TI_begin_line(0x569)
    3049                      .dwattr $C$DW$58, DW_AT_TI_begin_column(0x10)
    3050                      .dwattr $C$DW$58, DW_AT_TI_interrupt
    3051                      .dwattr $C$DW$58, DW_AT_TI_max_frame_size(-6)
    3052                      .dwpsn  file "../DeviceSupport/source/f28003x_defaultisr.c",line 1386,column 1,is_stmt,address _I2CB_
    3053              
    3054                      .dwfde $C$DW$CIE, _I2CB_ISR
    3055              
    3056              ;***************************************************************
    3057              ;* FNAME: _I2CB_ISR                     FR SIZE:   4           *
    3058              ;*                                                             *
    3059              ;* FUNCTION ENVIRONMENT                                        *
    3060              ;*                                                             *
    3061              ;* FUNCTION PROPERTIES                                         *
    3062              ;*                            0 Parameter,  0 Auto,  4 SOE     *
    3063              ;***************************************************************
    3064              
    3065 00000000       _I2CB_ISR:
    3066                      .dwcfi  cfa_offset, -2
    3067                      .dwcfi  save_reg_to_mem, 26, 0
    3068 00000000 761B          ASP       ; [CPU_ALU] 
    3069 00000001 FFF0          PUSH      RB                    ; [CPU_FPU] 
    3070                      .dwcfi  save_reg_to_mem, 74, 4
    3071                      .dwcfi  cfa_offset, -4
    3072 00000002 E200          MOV32     *SP++,STF             ; [CPU_FPU] 
         00000003 00BD 
    3073                      .dwcfi  save_reg_to_mem, 40, 6
    3074                      .dwcfi  cfa_offset, -6
    3075 00000004 E630          SETFLG    RNDF32=1, RNDF64=1    ; [CPU_FPU] 
TMS320C2000 Assembler PC v22.6.1 Wed May 21 09:51:54 2025

Copyright (c) 1996-2018 Texas Instruments Incorporated
C:\Users\Daniel\AppData\Local\Temp\{513EF8AD-E23E-4989-8EC9-611DE01417F7} PAGE   59

         00000005 0600 
    3076 00000006 2942          CLRC      PAGE0,OVM             ; [CPU_ALU] 
    3077 00000007 5616          CLRC      AMODE                 ; [CPU_ALU] 
    3078 00000008 7625        ESTOP0
    3079 00000009       $C$L58:    
    3080                      .dwpsn  file "../DeviceSupport/source/f28003x_defaultisr.c",line 1402,column 5,is_stmt,isa 0
    3081 00000009 6F00          B         $C$L58,UNC            ; [CPU_ALU] |1402| 
    3082                      ; branch occurs ; [] |1402| 
    3083                      .dwattr $C$DW$58, DW_AT_TI_end_file("../DeviceSupport/source/f28003x_defaultisr.c")
    3084                      .dwattr $C$DW$58, DW_AT_TI_end_line(0x57b)
    3085                      .dwattr $C$DW$58, DW_AT_TI_end_column(0x01)
    3086                      .dwendentry
    3087                      .dwendtag $C$DW$58
    3088              
    3089 00000000               .sect   ".text:_I2CB_FIFO_ISR"
    3090                      .retain
    3091                      .retainrefs
    3092                      .global _I2CB_FIFO_ISR
    3093              
    3094              $C$DW$59        .dwtag  DW_TAG_subprogram
    3095                      .dwattr $C$DW$59, DW_AT_name("I2CB_FIFO_ISR")
    3096                      .dwattr $C$DW$59, DW_AT_low_pc(_I2CB_FIFO_ISR)
    3097                      .dwattr $C$DW$59, DW_AT_high_pc(0x00)
    3098                      .dwattr $C$DW$59, DW_AT_TI_symbol_name("_I2CB_FIFO_ISR")
    3099                      .dwattr $C$DW$59, DW_AT_external
    3100                      .dwattr $C$DW$59, DW_AT_TI_begin_file("../DeviceSupport/source/f28003x_defaultisr.c")
    3101                      .dwattr $C$DW$59, DW_AT_TI_begin_line(0x580)
    3102                      .dwattr $C$DW$59, DW_AT_TI_begin_column(0x10)
    3103                      .dwattr $C$DW$59, DW_AT_TI_interrupt
    3104                      .dwattr $C$DW$59, DW_AT_TI_max_frame_size(-6)
    3105                      .dwpsn  file "../DeviceSupport/source/f28003x_defaultisr.c",line 1409,column 1,is_stmt,address _I2CB_
    3106              
    3107                      .dwfde $C$DW$CIE, _I2CB_FIFO_ISR
    3108              
    3109              ;***************************************************************
    3110              ;* FNAME: _I2CB_FIFO_ISR                FR SIZE:   4           *
    3111              ;*                                                             *
    3112              ;* FUNCTION ENVIRONMENT                                        *
    3113              ;*                                                             *
    3114              ;* FUNCTION PROPERTIES                                         *
    3115              ;*                            0 Parameter,  0 Auto,  4 SOE     *
    3116              ;***************************************************************
    3117              
    3118 00000000       _I2CB_FIFO_ISR:
    3119                      .dwcfi  cfa_offset, -2
    3120                      .dwcfi  save_reg_to_mem, 26, 0
    3121 00000000 761B          ASP       ; [CPU_ALU] 
    3122 00000001 FFF0          PUSH      RB                    ; [CPU_FPU] 
    3123                      .dwcfi  save_reg_to_mem, 74, 4
    3124                      .dwcfi  cfa_offset, -4
    3125 00000002 E200          MOV32     *SP++,STF             ; [CPU_FPU] 
         00000003 00BD 
    3126                      .dwcfi  save_reg_to_mem, 40, 6
    3127                      .dwcfi  cfa_offset, -6
    3128 00000004 E630          SETFLG    RNDF32=1, RNDF64=1    ; [CPU_FPU] 
TMS320C2000 Assembler PC v22.6.1 Wed May 21 09:51:54 2025

Copyright (c) 1996-2018 Texas Instruments Incorporated
C:\Users\Daniel\AppData\Local\Temp\{513EF8AD-E23E-4989-8EC9-611DE01417F7} PAGE   60

         00000005 0600 
    3129 00000006 2942          CLRC      PAGE0,OVM             ; [CPU_ALU] 
    3130 00000007 5616          CLRC      AMODE                 ; [CPU_ALU] 
    3131 00000008 7625        ESTOP0
    3132 00000009       $C$L59:    
    3133                      .dwpsn  file "../DeviceSupport/source/f28003x_defaultisr.c",line 1425,column 5,is_stmt,isa 0
    3134 00000009 6F00          B         $C$L59,UNC            ; [CPU_ALU] |1425| 
    3135                      ; branch occurs ; [] |1425| 
    3136                      .dwattr $C$DW$59, DW_AT_TI_end_file("../DeviceSupport/source/f28003x_defaultisr.c")
    3137                      .dwattr $C$DW$59, DW_AT_TI_end_line(0x592)
    3138                      .dwattr $C$DW$59, DW_AT_TI_end_column(0x01)
    3139                      .dwendentry
    3140                      .dwendtag $C$DW$59
    3141              
    3142 00000000               .sect   ".text:_I2CA_ISR"
    3143                      .retain
    3144                      .retainrefs
    3145                      .global _I2CA_ISR
    3146              
    3147              $C$DW$60        .dwtag  DW_TAG_subprogram
    3148                      .dwattr $C$DW$60, DW_AT_name("I2CA_ISR")
    3149                      .dwattr $C$DW$60, DW_AT_low_pc(_I2CA_ISR)
    3150                      .dwattr $C$DW$60, DW_AT_high_pc(0x00)
    3151                      .dwattr $C$DW$60, DW_AT_TI_symbol_name("_I2CA_ISR")
    3152                      .dwattr $C$DW$60, DW_AT_external
    3153                      .dwattr $C$DW$60, DW_AT_TI_begin_file("../DeviceSupport/source/f28003x_defaultisr.c")
    3154                      .dwattr $C$DW$60, DW_AT_TI_begin_line(0x53b)
    3155                      .dwattr $C$DW$60, DW_AT_TI_begin_column(0x10)
    3156                      .dwattr $C$DW$60, DW_AT_TI_interrupt
    3157                      .dwattr $C$DW$60, DW_AT_TI_max_frame_size(-6)
    3158                      .dwpsn  file "../DeviceSupport/source/f28003x_defaultisr.c",line 1340,column 1,is_stmt,address _I2CA_
    3159              
    3160                      .dwfde $C$DW$CIE, _I2CA_ISR
    3161              
    3162              ;***************************************************************
    3163              ;* FNAME: _I2CA_ISR                     FR SIZE:   4           *
    3164              ;*                                                             *
    3165              ;* FUNCTION ENVIRONMENT                                        *
    3166              ;*                                                             *
    3167              ;* FUNCTION PROPERTIES                                         *
    3168              ;*                            0 Parameter,  0 Auto,  4 SOE     *
    3169              ;***************************************************************
    3170              
    3171 00000000       _I2CA_ISR:
    3172                      .dwcfi  cfa_offset, -2
    3173                      .dwcfi  save_reg_to_mem, 26, 0
    3174 00000000 761B          ASP       ; [CPU_ALU] 
    3175 00000001 FFF0          PUSH      RB                    ; [CPU_FPU] 
    3176                      .dwcfi  save_reg_to_mem, 74, 4
    3177                      .dwcfi  cfa_offset, -4
    3178 00000002 E200          MOV32     *SP++,STF             ; [CPU_FPU] 
         00000003 00BD 
    3179                      .dwcfi  save_reg_to_mem, 40, 6
    3180                      .dwcfi  cfa_offset, -6
    3181 00000004 E630          SETFLG    RNDF32=1, RNDF64=1    ; [CPU_FPU] 
TMS320C2000 Assembler PC v22.6.1 Wed May 21 09:51:54 2025

Copyright (c) 1996-2018 Texas Instruments Incorporated
C:\Users\Daniel\AppData\Local\Temp\{513EF8AD-E23E-4989-8EC9-611DE01417F7} PAGE   61

         00000005 0600 
    3182 00000006 2942          CLRC      PAGE0,OVM             ; [CPU_ALU] 
    3183 00000007 5616          CLRC      AMODE                 ; [CPU_ALU] 
    3184 00000008 7625        ESTOP0
    3185 00000009       $C$L60:    
    3186                      .dwpsn  file "../DeviceSupport/source/f28003x_defaultisr.c",line 1356,column 5,is_stmt,isa 0
    3187 00000009 6F00          B         $C$L60,UNC            ; [CPU_ALU] |1356| 
    3188                      ; branch occurs ; [] |1356| 
    3189                      .dwattr $C$DW$60, DW_AT_TI_end_file("../DeviceSupport/source/f28003x_defaultisr.c")
    3190                      .dwattr $C$DW$60, DW_AT_TI_end_line(0x54d)
    3191                      .dwattr $C$DW$60, DW_AT_TI_end_column(0x01)
    3192                      .dwendentry
    3193                      .dwendtag $C$DW$60
    3194              
    3195 00000000               .sect   ".text:_I2CA_FIFO_ISR"
    3196                      .retain
    3197                      .retainrefs
    3198                      .global _I2CA_FIFO_ISR
    3199              
    3200              $C$DW$61        .dwtag  DW_TAG_subprogram
    3201                      .dwattr $C$DW$61, DW_AT_name("I2CA_FIFO_ISR")
    3202                      .dwattr $C$DW$61, DW_AT_low_pc(_I2CA_FIFO_ISR)
    3203                      .dwattr $C$DW$61, DW_AT_high_pc(0x00)
    3204                      .dwattr $C$DW$61, DW_AT_TI_symbol_name("_I2CA_FIFO_ISR")
    3205                      .dwattr $C$DW$61, DW_AT_external
    3206                      .dwattr $C$DW$61, DW_AT_TI_begin_file("../DeviceSupport/source/f28003x_defaultisr.c")
    3207                      .dwattr $C$DW$61, DW_AT_TI_begin_line(0x552)
    3208                      .dwattr $C$DW$61, DW_AT_TI_begin_column(0x10)
    3209                      .dwattr $C$DW$61, DW_AT_TI_interrupt
    3210                      .dwattr $C$DW$61, DW_AT_TI_max_frame_size(-6)
    3211                      .dwpsn  file "../DeviceSupport/source/f28003x_defaultisr.c",line 1363,column 1,is_stmt,address _I2CA_
    3212              
    3213                      .dwfde $C$DW$CIE, _I2CA_FIFO_ISR
    3214              
    3215              ;***************************************************************
    3216              ;* FNAME: _I2CA_FIFO_ISR                FR SIZE:   4           *
    3217              ;*                                                             *
    3218              ;* FUNCTION ENVIRONMENT                                        *
    3219              ;*                                                             *
    3220              ;* FUNCTION PROPERTIES                                         *
    3221              ;*                            0 Parameter,  0 Auto,  4 SOE     *
    3222              ;***************************************************************
    3223              
    3224 00000000       _I2CA_FIFO_ISR:
    3225                      .dwcfi  cfa_offset, -2
    3226                      .dwcfi  save_reg_to_mem, 26, 0
    3227 00000000 761B          ASP       ; [CPU_ALU] 
    3228 00000001 FFF0          PUSH      RB                    ; [CPU_FPU] 
    3229                      .dwcfi  save_reg_to_mem, 74, 4
    3230                      .dwcfi  cfa_offset, -4
    3231 00000002 E200          MOV32     *SP++,STF             ; [CPU_FPU] 
         00000003 00BD 
    3232                      .dwcfi  save_reg_to_mem, 40, 6
    3233                      .dwcfi  cfa_offset, -6
    3234 00000004 E630          SETFLG    RNDF32=1, RNDF64=1    ; [CPU_FPU] 
TMS320C2000 Assembler PC v22.6.1 Wed May 21 09:51:54 2025

Copyright (c) 1996-2018 Texas Instruments Incorporated
C:\Users\Daniel\AppData\Local\Temp\{513EF8AD-E23E-4989-8EC9-611DE01417F7} PAGE   62

         00000005 0600 
    3235 00000006 2942          CLRC      PAGE0,OVM             ; [CPU_ALU] 
    3236 00000007 5616          CLRC      AMODE                 ; [CPU_ALU] 
    3237 00000008 7625        ESTOP0
    3238 00000009       $C$L61:    
    3239                      .dwpsn  file "../DeviceSupport/source/f28003x_defaultisr.c",line 1379,column 5,is_stmt,isa 0
    3240 00000009 6F00          B         $C$L61,UNC            ; [CPU_ALU] |1379| 
    3241                      ; branch occurs ; [] |1379| 
    3242                      .dwattr $C$DW$61, DW_AT_TI_end_file("../DeviceSupport/source/f28003x_defaultisr.c")
    3243                      .dwattr $C$DW$61, DW_AT_TI_end_line(0x564)
    3244                      .dwattr $C$DW$61, DW_AT_TI_end_column(0x01)
    3245                      .dwendentry
    3246                      .dwendtag $C$DW$61
    3247              
    3248 00000000               .sect   ".text:_HICA_ISR"
    3249                      .retain
    3250                      .retainrefs
    3251                      .global _HICA_ISR
    3252              
    3253              $C$DW$62        .dwtag  DW_TAG_subprogram
    3254                      .dwattr $C$DW$62, DW_AT_name("HICA_ISR")
    3255                      .dwattr $C$DW$62, DW_AT_low_pc(_HICA_ISR)
    3256                      .dwattr $C$DW$62, DW_AT_high_pc(0x00)
    3257                      .dwattr $C$DW$62, DW_AT_TI_symbol_name("_HICA_ISR")
    3258                      .dwattr $C$DW$62, DW_AT_external
    3259                      .dwattr $C$DW$62, DW_AT_TI_begin_file("../DeviceSupport/source/f28003x_defaultisr.c")
    3260                      .dwattr $C$DW$62, DW_AT_TI_begin_line(0xab6)
    3261                      .dwattr $C$DW$62, DW_AT_TI_begin_column(0x10)
    3262                      .dwattr $C$DW$62, DW_AT_TI_interrupt
    3263                      .dwattr $C$DW$62, DW_AT_TI_max_frame_size(-6)
    3264                      .dwpsn  file "../DeviceSupport/source/f28003x_defaultisr.c",line 2743,column 1,is_stmt,address _HICA_
    3265              
    3266                      .dwfde $C$DW$CIE, _HICA_ISR
    3267              
    3268              ;***************************************************************
    3269              ;* FNAME: _HICA_ISR                     FR SIZE:   4           *
    3270              ;*                                                             *
    3271              ;* FUNCTION ENVIRONMENT                                        *
    3272              ;*                                                             *
    3273              ;* FUNCTION PROPERTIES                                         *
    3274              ;*                            0 Parameter,  0 Auto,  4 SOE     *
    3275              ;***************************************************************
    3276              
    3277 00000000       _HICA_ISR:
    3278                      .dwcfi  cfa_offset, -2
    3279                      .dwcfi  save_reg_to_mem, 26, 0
    3280 00000000 761B          ASP       ; [CPU_ALU] 
    3281 00000001 FFF0          PUSH      RB                    ; [CPU_FPU] 
    3282                      .dwcfi  save_reg_to_mem, 74, 4
    3283                      .dwcfi  cfa_offset, -4
    3284 00000002 E200          MOV32     *SP++,STF             ; [CPU_FPU] 
         00000003 00BD 
    3285                      .dwcfi  save_reg_to_mem, 40, 6
    3286                      .dwcfi  cfa_offset, -6
    3287 00000004 E630          SETFLG    RNDF32=1, RNDF64=1    ; [CPU_FPU] 
TMS320C2000 Assembler PC v22.6.1 Wed May 21 09:51:54 2025

Copyright (c) 1996-2018 Texas Instruments Incorporated
C:\Users\Daniel\AppData\Local\Temp\{513EF8AD-E23E-4989-8EC9-611DE01417F7} PAGE   63

         00000005 0600 
    3288 00000006 2942          CLRC      PAGE0,OVM             ; [CPU_ALU] 
    3289 00000007 5616          CLRC      AMODE                 ; [CPU_ALU] 
    3290 00000008 7625        ESTOP0
    3291 00000009       $C$L62:    
    3292                      .dwpsn  file "../DeviceSupport/source/f28003x_defaultisr.c",line 2759,column 5,is_stmt,isa 0
    3293 00000009 6F00          B         $C$L62,UNC            ; [CPU_ALU] |2759| 
    3294                      ; branch occurs ; [] |2759| 
    3295                      .dwattr $C$DW$62, DW_AT_TI_end_file("../DeviceSupport/source/f28003x_defaultisr.c")
    3296                      .dwattr $C$DW$62, DW_AT_TI_end_line(0xac8)
    3297                      .dwattr $C$DW$62, DW_AT_TI_end_column(0x01)
    3298                      .dwendentry
    3299                      .dwendtag $C$DW$62
    3300              
    3301 00000000               .sect   ".text:_FSITXA2_ISR"
    3302                      .retain
    3303                      .retainrefs
    3304                      .global _FSITXA2_ISR
    3305              
    3306              $C$DW$63        .dwtag  DW_TAG_subprogram
    3307                      .dwattr $C$DW$63, DW_AT_name("FSITXA2_ISR")
    3308                      .dwattr $C$DW$63, DW_AT_low_pc(_FSITXA2_ISR)
    3309                      .dwattr $C$DW$63, DW_AT_high_pc(0x00)
    3310                      .dwattr $C$DW$63, DW_AT_TI_symbol_name("_FSITXA2_ISR")
    3311                      .dwattr $C$DW$63, DW_AT_external
    3312                      .dwattr $C$DW$63, DW_AT_TI_begin_file("../DeviceSupport/source/f28003x_defaultisr.c")
    3313                      .dwattr $C$DW$63, DW_AT_TI_begin_line(0x95d)
    3314                      .dwattr $C$DW$63, DW_AT_TI_begin_column(0x10)
    3315                      .dwattr $C$DW$63, DW_AT_TI_interrupt
    3316                      .dwattr $C$DW$63, DW_AT_TI_max_frame_size(-6)
    3317                      .dwpsn  file "../DeviceSupport/source/f28003x_defaultisr.c",line 2398,column 1,is_stmt,address _FSITX
    3318              
    3319                      .dwfde $C$DW$CIE, _FSITXA2_ISR
    3320              
    3321              ;***************************************************************
    3322              ;* FNAME: _FSITXA2_ISR                  FR SIZE:   4           *
    3323              ;*                                                             *
    3324              ;* FUNCTION ENVIRONMENT                                        *
    3325              ;*                                                             *
    3326              ;* FUNCTION PROPERTIES                                         *
    3327              ;*                            0 Parameter,  0 Auto,  4 SOE     *
    3328              ;***************************************************************
    3329              
    3330 00000000       _FSITXA2_ISR:
    3331                      .dwcfi  cfa_offset, -2
    3332                      .dwcfi  save_reg_to_mem, 26, 0
    3333 00000000 761B          ASP       ; [CPU_ALU] 
    3334 00000001 FFF0          PUSH      RB                    ; [CPU_FPU] 
    3335                      .dwcfi  save_reg_to_mem, 74, 4
    3336                      .dwcfi  cfa_offset, -4
    3337 00000002 E200          MOV32     *SP++,STF             ; [CPU_FPU] 
         00000003 00BD 
    3338                      .dwcfi  save_reg_to_mem, 40, 6
    3339                      .dwcfi  cfa_offset, -6
    3340 00000004 E630          SETFLG    RNDF32=1, RNDF64=1    ; [CPU_FPU] 
TMS320C2000 Assembler PC v22.6.1 Wed May 21 09:51:54 2025

Copyright (c) 1996-2018 Texas Instruments Incorporated
C:\Users\Daniel\AppData\Local\Temp\{513EF8AD-E23E-4989-8EC9-611DE01417F7} PAGE   64

         00000005 0600 
    3341 00000006 2942          CLRC      PAGE0,OVM             ; [CPU_ALU] 
    3342 00000007 5616          CLRC      AMODE                 ; [CPU_ALU] 
    3343 00000008 7625        ESTOP0
    3344 00000009       $C$L63:    
    3345                      .dwpsn  file "../DeviceSupport/source/f28003x_defaultisr.c",line 2414,column 5,is_stmt,isa 0
    3346 00000009 6F00          B         $C$L63,UNC            ; [CPU_ALU] |2414| 
    3347                      ; branch occurs ; [] |2414| 
    3348                      .dwattr $C$DW$63, DW_AT_TI_end_file("../DeviceSupport/source/f28003x_defaultisr.c")
    3349                      .dwattr $C$DW$63, DW_AT_TI_end_line(0x96f)
    3350                      .dwattr $C$DW$63, DW_AT_TI_end_column(0x01)
    3351                      .dwendentry
    3352                      .dwendtag $C$DW$63
    3353              
    3354 00000000               .sect   ".text:_FSITXA1_ISR"
    3355                      .retain
    3356                      .retainrefs
    3357                      .global _FSITXA1_ISR
    3358              
    3359              $C$DW$64        .dwtag  DW_TAG_subprogram
    3360                      .dwattr $C$DW$64, DW_AT_name("FSITXA1_ISR")
    3361                      .dwattr $C$DW$64, DW_AT_low_pc(_FSITXA1_ISR)
    3362                      .dwattr $C$DW$64, DW_AT_high_pc(0x00)
    3363                      .dwattr $C$DW$64, DW_AT_TI_symbol_name("_FSITXA1_ISR")
    3364                      .dwattr $C$DW$64, DW_AT_external
    3365                      .dwattr $C$DW$64, DW_AT_TI_begin_file("../DeviceSupport/source/f28003x_defaultisr.c")
    3366                      .dwattr $C$DW$64, DW_AT_TI_begin_line(0x946)
    3367                      .dwattr $C$DW$64, DW_AT_TI_begin_column(0x10)
    3368                      .dwattr $C$DW$64, DW_AT_TI_interrupt
    3369                      .dwattr $C$DW$64, DW_AT_TI_max_frame_size(-6)
    3370                      .dwpsn  file "../DeviceSupport/source/f28003x_defaultisr.c",line 2375,column 1,is_stmt,address _FSITX
    3371              
    3372                      .dwfde $C$DW$CIE, _FSITXA1_ISR
    3373              
    3374              ;***************************************************************
    3375              ;* FNAME: _FSITXA1_ISR                  FR SIZE:   4           *
    3376              ;*                                                             *
    3377              ;* FUNCTION ENVIRONMENT                                        *
    3378              ;*                                                             *
    3379              ;* FUNCTION PROPERTIES                                         *
    3380              ;*                            0 Parameter,  0 Auto,  4 SOE     *
    3381              ;***************************************************************
    3382              
    3383 00000000       _FSITXA1_ISR:
    3384                      .dwcfi  cfa_offset, -2
    3385                      .dwcfi  save_reg_to_mem, 26, 0
    3386 00000000 761B          ASP       ; [CPU_ALU] 
    3387 00000001 FFF0          PUSH      RB                    ; [CPU_FPU] 
    3388                      .dwcfi  save_reg_to_mem, 74, 4
    3389                      .dwcfi  cfa_offset, -4
    3390 00000002 E200          MOV32     *SP++,STF             ; [CPU_FPU] 
         00000003 00BD 
    3391                      .dwcfi  save_reg_to_mem, 40, 6
    3392                      .dwcfi  cfa_offset, -6
    3393 00000004 E630          SETFLG    RNDF32=1, RNDF64=1    ; [CPU_FPU] 
TMS320C2000 Assembler PC v22.6.1 Wed May 21 09:51:54 2025

Copyright (c) 1996-2018 Texas Instruments Incorporated
C:\Users\Daniel\AppData\Local\Temp\{513EF8AD-E23E-4989-8EC9-611DE01417F7} PAGE   65

         00000005 0600 
    3394 00000006 2942          CLRC      PAGE0,OVM             ; [CPU_ALU] 
    3395 00000007 5616          CLRC      AMODE                 ; [CPU_ALU] 
    3396 00000008 7625        ESTOP0
    3397 00000009       $C$L64:    
    3398                      .dwpsn  file "../DeviceSupport/source/f28003x_defaultisr.c",line 2391,column 5,is_stmt,isa 0
    3399 00000009 6F00          B         $C$L64,UNC            ; [CPU_ALU] |2391| 
    3400                      ; branch occurs ; [] |2391| 
    3401                      .dwattr $C$DW$64, DW_AT_TI_end_file("../DeviceSupport/source/f28003x_defaultisr.c")
    3402                      .dwattr $C$DW$64, DW_AT_TI_end_line(0x958)
    3403                      .dwattr $C$DW$64, DW_AT_TI_end_column(0x01)
    3404                      .dwendentry
    3405                      .dwendtag $C$DW$64
    3406              
    3407 00000000               .sect   ".text:_FSIRXA2_ISR"
    3408                      .retain
    3409                      .retainrefs
    3410                      .global _FSIRXA2_ISR
    3411              
    3412              $C$DW$65        .dwtag  DW_TAG_subprogram
    3413                      .dwattr $C$DW$65, DW_AT_name("FSIRXA2_ISR")
    3414                      .dwattr $C$DW$65, DW_AT_low_pc(_FSIRXA2_ISR)
    3415                      .dwattr $C$DW$65, DW_AT_high_pc(0x00)
    3416                      .dwattr $C$DW$65, DW_AT_TI_symbol_name("_FSIRXA2_ISR")
    3417                      .dwattr $C$DW$65, DW_AT_external
    3418                      .dwattr $C$DW$65, DW_AT_TI_begin_file("../DeviceSupport/source/f28003x_defaultisr.c")
    3419                      .dwattr $C$DW$65, DW_AT_TI_begin_line(0x98b)
    3420                      .dwattr $C$DW$65, DW_AT_TI_begin_column(0x10)
    3421                      .dwattr $C$DW$65, DW_AT_TI_interrupt
    3422                      .dwattr $C$DW$65, DW_AT_TI_max_frame_size(-6)
    3423                      .dwpsn  file "../DeviceSupport/source/f28003x_defaultisr.c",line 2444,column 1,is_stmt,address _FSIRX
    3424              
    3425                      .dwfde $C$DW$CIE, _FSIRXA2_ISR
    3426              
    3427              ;***************************************************************
    3428              ;* FNAME: _FSIRXA2_ISR                  FR SIZE:   4           *
    3429              ;*                                                             *
    3430              ;* FUNCTION ENVIRONMENT                                        *
    3431              ;*                                                             *
    3432              ;* FUNCTION PROPERTIES                                         *
    3433              ;*                            0 Parameter,  0 Auto,  4 SOE     *
    3434              ;***************************************************************
    3435              
    3436 00000000       _FSIRXA2_ISR:
    3437                      .dwcfi  cfa_offset, -2
    3438                      .dwcfi  save_reg_to_mem, 26, 0
    3439 00000000 761B          ASP       ; [CPU_ALU] 
    3440 00000001 FFF0          PUSH      RB                    ; [CPU_FPU] 
    3441                      .dwcfi  save_reg_to_mem, 74, 4
    3442                      .dwcfi  cfa_offset, -4
    3443 00000002 E200          MOV32     *SP++,STF             ; [CPU_FPU] 
         00000003 00BD 
    3444                      .dwcfi  save_reg_to_mem, 40, 6
    3445                      .dwcfi  cfa_offset, -6
    3446 00000004 E630          SETFLG    RNDF32=1, RNDF64=1    ; [CPU_FPU] 
TMS320C2000 Assembler PC v22.6.1 Wed May 21 09:51:54 2025

Copyright (c) 1996-2018 Texas Instruments Incorporated
C:\Users\Daniel\AppData\Local\Temp\{513EF8AD-E23E-4989-8EC9-611DE01417F7} PAGE   66

         00000005 0600 
    3447 00000006 2942          CLRC      PAGE0,OVM             ; [CPU_ALU] 
    3448 00000007 5616          CLRC      AMODE                 ; [CPU_ALU] 
    3449 00000008 7625        ESTOP0
    3450 00000009       $C$L65:    
    3451                      .dwpsn  file "../DeviceSupport/source/f28003x_defaultisr.c",line 2460,column 5,is_stmt,isa 0
    3452 00000009 6F00          B         $C$L65,UNC            ; [CPU_ALU] |2460| 
    3453                      ; branch occurs ; [] |2460| 
    3454                      .dwattr $C$DW$65, DW_AT_TI_end_file("../DeviceSupport/source/f28003x_defaultisr.c")
    3455                      .dwattr $C$DW$65, DW_AT_TI_end_line(0x99d)
    3456                      .dwattr $C$DW$65, DW_AT_TI_end_column(0x01)
    3457                      .dwendentry
    3458                      .dwendtag $C$DW$65
    3459              
    3460 00000000               .sect   ".text:_FSIRXA1_ISR"
    3461                      .retain
    3462                      .retainrefs
    3463                      .global _FSIRXA1_ISR
    3464              
    3465              $C$DW$66        .dwtag  DW_TAG_subprogram
    3466                      .dwattr $C$DW$66, DW_AT_name("FSIRXA1_ISR")
    3467                      .dwattr $C$DW$66, DW_AT_low_pc(_FSIRXA1_ISR)
    3468                      .dwattr $C$DW$66, DW_AT_high_pc(0x00)
    3469                      .dwattr $C$DW$66, DW_AT_TI_symbol_name("_FSIRXA1_ISR")
    3470                      .dwattr $C$DW$66, DW_AT_external
    3471                      .dwattr $C$DW$66, DW_AT_TI_begin_file("../DeviceSupport/source/f28003x_defaultisr.c")
    3472                      .dwattr $C$DW$66, DW_AT_TI_begin_line(0x974)
    3473                      .dwattr $C$DW$66, DW_AT_TI_begin_column(0x10)
    3474                      .dwattr $C$DW$66, DW_AT_TI_interrupt
    3475                      .dwattr $C$DW$66, DW_AT_TI_max_frame_size(-6)
    3476                      .dwpsn  file "../DeviceSupport/source/f28003x_defaultisr.c",line 2421,column 1,is_stmt,address _FSIRX
    3477              
    3478                      .dwfde $C$DW$CIE, _FSIRXA1_ISR
    3479              
    3480              ;***************************************************************
    3481              ;* FNAME: _FSIRXA1_ISR                  FR SIZE:   4           *
    3482              ;*                                                             *
    3483              ;* FUNCTION ENVIRONMENT                                        *
    3484              ;*                                                             *
    3485              ;* FUNCTION PROPERTIES                                         *
    3486              ;*                            0 Parameter,  0 Auto,  4 SOE     *
    3487              ;***************************************************************
    3488              
    3489 00000000       _FSIRXA1_ISR:
    3490                      .dwcfi  cfa_offset, -2
    3491                      .dwcfi  save_reg_to_mem, 26, 0
    3492 00000000 761B          ASP       ; [CPU_ALU] 
    3493 00000001 FFF0          PUSH      RB                    ; [CPU_FPU] 
    3494                      .dwcfi  save_reg_to_mem, 74, 4
    3495                      .dwcfi  cfa_offset, -4
    3496 00000002 E200          MOV32     *SP++,STF             ; [CPU_FPU] 
         00000003 00BD 
    3497                      .dwcfi  save_reg_to_mem, 40, 6
    3498                      .dwcfi  cfa_offset, -6
    3499 00000004 E630          SETFLG    RNDF32=1, RNDF64=1    ; [CPU_FPU] 
TMS320C2000 Assembler PC v22.6.1 Wed May 21 09:51:54 2025

Copyright (c) 1996-2018 Texas Instruments Incorporated
C:\Users\Daniel\AppData\Local\Temp\{513EF8AD-E23E-4989-8EC9-611DE01417F7} PAGE   67

         00000005 0600 
    3500 00000006 2942          CLRC      PAGE0,OVM             ; [CPU_ALU] 
    3501 00000007 5616          CLRC      AMODE                 ; [CPU_ALU] 
    3502 00000008 7625        ESTOP0
    3503 00000009       $C$L66:    
    3504                      .dwpsn  file "../DeviceSupport/source/f28003x_defaultisr.c",line 2437,column 5,is_stmt,isa 0
    3505 00000009 6F00          B         $C$L66,UNC            ; [CPU_ALU] |2437| 
    3506                      ; branch occurs ; [] |2437| 
    3507                      .dwattr $C$DW$66, DW_AT_TI_end_file("../DeviceSupport/source/f28003x_defaultisr.c")
    3508                      .dwattr $C$DW$66, DW_AT_TI_end_line(0x986)
    3509                      .dwattr $C$DW$66, DW_AT_TI_end_column(0x01)
    3510                      .dwendentry
    3511                      .dwendtag $C$DW$66
    3512              
    3513 00000000               .sect   ".text:_FPU_UNDERFLOW_ISR"
    3514                      .retain
    3515                      .retainrefs
    3516                      .global _FPU_UNDERFLOW_ISR
    3517              
    3518              $C$DW$67        .dwtag  DW_TAG_subprogram
    3519                      .dwattr $C$DW$67, DW_AT_name("FPU_UNDERFLOW_ISR")
    3520                      .dwattr $C$DW$67, DW_AT_low_pc(_FPU_UNDERFLOW_ISR)
    3521                      .dwattr $C$DW$67, DW_AT_high_pc(0x00)
    3522                      .dwattr $C$DW$67, DW_AT_TI_symbol_name("_FPU_UNDERFLOW_ISR")
    3523                      .dwattr $C$DW$67, DW_AT_external
    3524                      .dwattr $C$DW$67, DW_AT_TI_begin_file("../DeviceSupport/source/f28003x_defaultisr.c")
    3525                      .dwattr $C$DW$67, DW_AT_TI_begin_line(0x81b)
    3526                      .dwattr $C$DW$67, DW_AT_TI_begin_column(0x10)
    3527                      .dwattr $C$DW$67, DW_AT_TI_interrupt
    3528                      .dwattr $C$DW$67, DW_AT_TI_max_frame_size(-6)
    3529                      .dwpsn  file "../DeviceSupport/source/f28003x_defaultisr.c",line 2076,column 1,is_stmt,address _FPU_U
    3530              
    3531                      .dwfde $C$DW$CIE, _FPU_UNDERFLOW_ISR
    3532              
    3533              ;***************************************************************
    3534              ;* FNAME: _FPU_UNDERFLOW_ISR            FR SIZE:   4           *
    3535              ;*                                                             *
    3536              ;* FUNCTION ENVIRONMENT                                        *
    3537              ;*                                                             *
    3538              ;* FUNCTION PROPERTIES                                         *
    3539              ;*                            0 Parameter,  0 Auto,  4 SOE     *
    3540              ;***************************************************************
    3541              
    3542 00000000       _FPU_UNDERFLOW_ISR:
    3543                      .dwcfi  cfa_offset, -2
    3544                      .dwcfi  save_reg_to_mem, 26, 0
    3545 00000000 761B          ASP       ; [CPU_ALU] 
    3546 00000001 FFF0          PUSH      RB                    ; [CPU_FPU] 
    3547                      .dwcfi  save_reg_to_mem, 74, 4
    3548                      .dwcfi  cfa_offset, -4
    3549 00000002 E200          MOV32     *SP++,STF             ; [CPU_FPU] 
         00000003 00BD 
    3550                      .dwcfi  save_reg_to_mem, 40, 6
    3551                      .dwcfi  cfa_offset, -6
    3552 00000004 E630          SETFLG    RNDF32=1, RNDF64=1    ; [CPU_FPU] 
TMS320C2000 Assembler PC v22.6.1 Wed May 21 09:51:54 2025

Copyright (c) 1996-2018 Texas Instruments Incorporated
C:\Users\Daniel\AppData\Local\Temp\{513EF8AD-E23E-4989-8EC9-611DE01417F7} PAGE   68

         00000005 0600 
    3553 00000006 2942          CLRC      PAGE0,OVM             ; [CPU_ALU] 
    3554 00000007 5616          CLRC      AMODE                 ; [CPU_ALU] 
    3555 00000008 7625        ESTOP0
    3556 00000009       $C$L67:    
    3557                      .dwpsn  file "../DeviceSupport/source/f28003x_defaultisr.c",line 2092,column 5,is_stmt,isa 0
    3558 00000009 6F00          B         $C$L67,UNC            ; [CPU_ALU] |2092| 
    3559                      ; branch occurs ; [] |2092| 
    3560                      .dwattr $C$DW$67, DW_AT_TI_end_file("../DeviceSupport/source/f28003x_defaultisr.c")
    3561                      .dwattr $C$DW$67, DW_AT_TI_end_line(0x82d)
    3562                      .dwattr $C$DW$67, DW_AT_TI_end_column(0x01)
    3563                      .dwendentry
    3564                      .dwendtag $C$DW$67
    3565              
    3566 00000000               .sect   ".text:_FPU_OVERFLOW_ISR"
    3567                      .retain
    3568                      .retainrefs
    3569                      .global _FPU_OVERFLOW_ISR
    3570              
    3571              $C$DW$68        .dwtag  DW_TAG_subprogram
    3572                      .dwattr $C$DW$68, DW_AT_name("FPU_OVERFLOW_ISR")
    3573                      .dwattr $C$DW$68, DW_AT_low_pc(_FPU_OVERFLOW_ISR)
    3574                      .dwattr $C$DW$68, DW_AT_high_pc(0x00)
    3575                      .dwattr $C$DW$68, DW_AT_TI_symbol_name("_FPU_OVERFLOW_ISR")
    3576                      .dwattr $C$DW$68, DW_AT_external
    3577                      .dwattr $C$DW$68, DW_AT_TI_begin_file("../DeviceSupport/source/f28003x_defaultisr.c")
    3578                      .dwattr $C$DW$68, DW_AT_TI_begin_line(0x804)
    3579                      .dwattr $C$DW$68, DW_AT_TI_begin_column(0x10)
    3580                      .dwattr $C$DW$68, DW_AT_TI_interrupt
    3581                      .dwattr $C$DW$68, DW_AT_TI_max_frame_size(-6)
    3582                      .dwpsn  file "../DeviceSupport/source/f28003x_defaultisr.c",line 2053,column 1,is_stmt,address _FPU_O
    3583              
    3584                      .dwfde $C$DW$CIE, _FPU_OVERFLOW_ISR
    3585              
    3586              ;***************************************************************
    3587              ;* FNAME: _FPU_OVERFLOW_ISR             FR SIZE:   4           *
    3588              ;*                                                             *
    3589              ;* FUNCTION ENVIRONMENT                                        *
    3590              ;*                                                             *
    3591              ;* FUNCTION PROPERTIES                                         *
    3592              ;*                            0 Parameter,  0 Auto,  4 SOE     *
    3593              ;***************************************************************
    3594              
    3595 00000000       _FPU_OVERFLOW_ISR:
    3596                      .dwcfi  cfa_offset, -2
    3597                      .dwcfi  save_reg_to_mem, 26, 0
    3598 00000000 761B          ASP       ; [CPU_ALU] 
    3599 00000001 FFF0          PUSH      RB                    ; [CPU_FPU] 
    3600                      .dwcfi  save_reg_to_mem, 74, 4
    3601                      .dwcfi  cfa_offset, -4
    3602 00000002 E200          MOV32     *SP++,STF             ; [CPU_FPU] 
         00000003 00BD 
    3603                      .dwcfi  save_reg_to_mem, 40, 6
    3604                      .dwcfi  cfa_offset, -6
    3605 00000004 E630          SETFLG    RNDF32=1, RNDF64=1    ; [CPU_FPU] 
TMS320C2000 Assembler PC v22.6.1 Wed May 21 09:51:54 2025

Copyright (c) 1996-2018 Texas Instruments Incorporated
C:\Users\Daniel\AppData\Local\Temp\{513EF8AD-E23E-4989-8EC9-611DE01417F7} PAGE   69

         00000005 0600 
    3606 00000006 2942          CLRC      PAGE0,OVM             ; [CPU_ALU] 
    3607 00000007 5616          CLRC      AMODE                 ; [CPU_ALU] 
    3608 00000008 7625        ESTOP0
    3609 00000009       $C$L68:    
    3610                      .dwpsn  file "../DeviceSupport/source/f28003x_defaultisr.c",line 2069,column 5,is_stmt,isa 0
    3611 00000009 6F00          B         $C$L68,UNC            ; [CPU_ALU] |2069| 
    3612                      ; branch occurs ; [] |2069| 
    3613                      .dwattr $C$DW$68, DW_AT_TI_end_file("../DeviceSupport/source/f28003x_defaultisr.c")
    3614                      .dwattr $C$DW$68, DW_AT_TI_end_line(0x816)
    3615                      .dwattr $C$DW$68, DW_AT_TI_end_column(0x01)
    3616                      .dwendentry
    3617                      .dwendtag $C$DW$68
    3618              
    3619 00000000               .sect   ".text:_FMC_ISR"
    3620                      .retain
    3621                      .retainrefs
    3622                      .global _FMC_ISR
    3623              
    3624              $C$DW$69        .dwtag  DW_TAG_subprogram
    3625                      .dwattr $C$DW$69, DW_AT_name("FMC_ISR")
    3626                      .dwattr $C$DW$69, DW_AT_low_pc(_FMC_ISR)
    3627                      .dwattr $C$DW$69, DW_AT_high_pc(0x00)
    3628                      .dwattr $C$DW$69, DW_AT_TI_symbol_name("_FMC_ISR")
    3629                      .dwattr $C$DW$69, DW_AT_external
    3630                      .dwattr $C$DW$69, DW_AT_TI_begin_file("../DeviceSupport/source/f28003x_defaultisr.c")
    3631                      .dwattr $C$DW$69, DW_AT_TI_begin_line(0x7ed)
    3632                      .dwattr $C$DW$69, DW_AT_TI_begin_column(0x10)
    3633                      .dwattr $C$DW$69, DW_AT_TI_interrupt
    3634                      .dwattr $C$DW$69, DW_AT_TI_max_frame_size(-6)
    3635                      .dwpsn  file "../DeviceSupport/source/f28003x_defaultisr.c",line 2030,column 1,is_stmt,address _FMC_I
    3636              
    3637                      .dwfde $C$DW$CIE, _FMC_ISR
    3638              
    3639              ;***************************************************************
    3640              ;* FNAME: _FMC_ISR                      FR SIZE:   4           *
    3641              ;*                                                             *
    3642              ;* FUNCTION ENVIRONMENT                                        *
    3643              ;*                                                             *
    3644              ;* FUNCTION PROPERTIES                                         *
    3645              ;*                            0 Parameter,  0 Auto,  4 SOE     *
    3646              ;***************************************************************
    3647              
    3648 00000000       _FMC_ISR:
    3649                      .dwcfi  cfa_offset, -2
    3650                      .dwcfi  save_reg_to_mem, 26, 0
    3651 00000000 761B          ASP       ; [CPU_ALU] 
    3652 00000001 FFF0          PUSH      RB                    ; [CPU_FPU] 
    3653                      .dwcfi  save_reg_to_mem, 74, 4
    3654                      .dwcfi  cfa_offset, -4
    3655 00000002 E200          MOV32     *SP++,STF             ; [CPU_FPU] 
         00000003 00BD 
    3656                      .dwcfi  save_reg_to_mem, 40, 6
    3657                      .dwcfi  cfa_offset, -6
    3658 00000004 E630          SETFLG    RNDF32=1, RNDF64=1    ; [CPU_FPU] 
TMS320C2000 Assembler PC v22.6.1 Wed May 21 09:51:54 2025

Copyright (c) 1996-2018 Texas Instruments Incorporated
C:\Users\Daniel\AppData\Local\Temp\{513EF8AD-E23E-4989-8EC9-611DE01417F7} PAGE   70

         00000005 0600 
    3659 00000006 2942          CLRC      PAGE0,OVM             ; [CPU_ALU] 
    3660 00000007 5616          CLRC      AMODE                 ; [CPU_ALU] 
    3661 00000008 7625        ESTOP0
    3662 00000009       $C$L69:    
    3663                      .dwpsn  file "../DeviceSupport/source/f28003x_defaultisr.c",line 2046,column 5,is_stmt,isa 0
    3664 00000009 6F00          B         $C$L69,UNC            ; [CPU_ALU] |2046| 
    3665                      ; branch occurs ; [] |2046| 
    3666                      .dwattr $C$DW$69, DW_AT_TI_end_file("../DeviceSupport/source/f28003x_defaultisr.c")
    3667                      .dwattr $C$DW$69, DW_AT_TI_end_line(0x7ff)
    3668                      .dwattr $C$DW$69, DW_AT_TI_end_column(0x01)
    3669                      .dwendentry
    3670                      .dwendtag $C$DW$69
    3671              
    3672 00000000               .sect   ".text:_FLASH_CORR_ERR_ISR"
    3673                      .retain
    3674                      .retainrefs
    3675                      .global _FLASH_CORR_ERR_ISR
    3676              
    3677              $C$DW$70        .dwtag  DW_TAG_subprogram
    3678                      .dwattr $C$DW$70, DW_AT_name("FLASH_CORR_ERR_ISR")
    3679                      .dwattr $C$DW$70, DW_AT_low_pc(_FLASH_CORR_ERR_ISR)
    3680                      .dwattr $C$DW$70, DW_AT_high_pc(0x00)
    3681                      .dwattr $C$DW$70, DW_AT_TI_symbol_name("_FLASH_CORR_ERR_ISR")
    3682                      .dwattr $C$DW$70, DW_AT_external
    3683                      .dwattr $C$DW$70, DW_AT_TI_begin_file("../DeviceSupport/source/f28003x_defaultisr.c")
    3684                      .dwattr $C$DW$70, DW_AT_TI_begin_line(0xb40)
    3685                      .dwattr $C$DW$70, DW_AT_TI_begin_column(0x10)
    3686                      .dwattr $C$DW$70, DW_AT_TI_interrupt
    3687                      .dwattr $C$DW$70, DW_AT_TI_max_frame_size(-6)
    3688                      .dwpsn  file "../DeviceSupport/source/f28003x_defaultisr.c",line 2881,column 1,is_stmt,address _FLASH
    3689              
    3690                      .dwfde $C$DW$CIE, _FLASH_CORR_ERR_ISR
    3691              
    3692              ;***************************************************************
    3693              ;* FNAME: _FLASH_CORR_ERR_ISR           FR SIZE:   4           *
    3694              ;*                                                             *
    3695              ;* FUNCTION ENVIRONMENT                                        *
    3696              ;*                                                             *
    3697              ;* FUNCTION PROPERTIES                                         *
    3698              ;*                            0 Parameter,  0 Auto,  4 SOE     *
    3699              ;***************************************************************
    3700              
    3701 00000000       _FLASH_CORR_ERR_ISR:
    3702                      .dwcfi  cfa_offset, -2
    3703                      .dwcfi  save_reg_to_mem, 26, 0
    3704 00000000 761B          ASP       ; [CPU_ALU] 
    3705 00000001 FFF0          PUSH      RB                    ; [CPU_FPU] 
    3706                      .dwcfi  save_reg_to_mem, 74, 4
    3707                      .dwcfi  cfa_offset, -4
    3708 00000002 E200          MOV32     *SP++,STF             ; [CPU_FPU] 
         00000003 00BD 
    3709                      .dwcfi  save_reg_to_mem, 40, 6
    3710                      .dwcfi  cfa_offset, -6
    3711 00000004 E630          SETFLG    RNDF32=1, RNDF64=1    ; [CPU_FPU] 
TMS320C2000 Assembler PC v22.6.1 Wed May 21 09:51:54 2025

Copyright (c) 1996-2018 Texas Instruments Incorporated
C:\Users\Daniel\AppData\Local\Temp\{513EF8AD-E23E-4989-8EC9-611DE01417F7} PAGE   71

         00000005 0600 
    3712 00000006 2942          CLRC      PAGE0,OVM             ; [CPU_ALU] 
    3713 00000007 5616          CLRC      AMODE                 ; [CPU_ALU] 
    3714 00000008 7625        ESTOP0
    3715 00000009       $C$L70:    
    3716                      .dwpsn  file "../DeviceSupport/source/f28003x_defaultisr.c",line 2897,column 5,is_stmt,isa 0
    3717 00000009 6F00          B         $C$L70,UNC            ; [CPU_ALU] |2897| 
    3718                      ; branch occurs ; [] |2897| 
    3719                      .dwattr $C$DW$70, DW_AT_TI_end_file("../DeviceSupport/source/f28003x_defaultisr.c")
    3720                      .dwattr $C$DW$70, DW_AT_TI_end_line(0xb52)
    3721                      .dwattr $C$DW$70, DW_AT_TI_end_column(0x01)
    3722                      .dwendentry
    3723                      .dwendtag $C$DW$70
    3724              
    3725 00000000               .sect   ".text:_EQEP2_ISR"
    3726                      .retain
    3727                      .retainrefs
    3728                      .global _EQEP2_ISR
    3729              
    3730              $C$DW$71        .dwtag  DW_TAG_subprogram
    3731                      .dwattr $C$DW$71, DW_AT_name("EQEP2_ISR")
    3732                      .dwattr $C$DW$71, DW_AT_low_pc(_EQEP2_ISR)
    3733                      .dwattr $C$DW$71, DW_AT_high_pc(0x00)
    3734                      .dwattr $C$DW$71, DW_AT_TI_symbol_name("_EQEP2_ISR")
    3735                      .dwattr $C$DW$71, DW_AT_external
    3736                      .dwattr $C$DW$71, DW_AT_TI_begin_file("../DeviceSupport/source/f28003x_defaultisr.c")
    3737                      .dwattr $C$DW$71, DW_AT_TI_begin_line(0x3e2)
    3738                      .dwattr $C$DW$71, DW_AT_TI_begin_column(0x10)
    3739                      .dwattr $C$DW$71, DW_AT_TI_interrupt
    3740                      .dwattr $C$DW$71, DW_AT_TI_max_frame_size(-6)
    3741                      .dwpsn  file "../DeviceSupport/source/f28003x_defaultisr.c",line 995,column 1,is_stmt,address _EQEP2_
    3742              
    3743                      .dwfde $C$DW$CIE, _EQEP2_ISR
    3744              
    3745              ;***************************************************************
    3746              ;* FNAME: _EQEP2_ISR                    FR SIZE:   4           *
    3747              ;*                                                             *
    3748              ;* FUNCTION ENVIRONMENT                                        *
    3749              ;*                                                             *
    3750              ;* FUNCTION PROPERTIES                                         *
    3751              ;*                            0 Parameter,  0 Auto,  4 SOE     *
    3752              ;***************************************************************
    3753              
    3754 00000000       _EQEP2_ISR:
    3755                      .dwcfi  cfa_offset, -2
    3756                      .dwcfi  save_reg_to_mem, 26, 0
    3757 00000000 761B          ASP       ; [CPU_ALU] 
    3758 00000001 FFF0          PUSH      RB                    ; [CPU_FPU] 
    3759                      .dwcfi  save_reg_to_mem, 74, 4
    3760                      .dwcfi  cfa_offset, -4
    3761 00000002 E200          MOV32     *SP++,STF             ; [CPU_FPU] 
         00000003 00BD 
    3762                      .dwcfi  save_reg_to_mem, 40, 6
    3763                      .dwcfi  cfa_offset, -6
    3764 00000004 E630          SETFLG    RNDF32=1, RNDF64=1    ; [CPU_FPU] 
TMS320C2000 Assembler PC v22.6.1 Wed May 21 09:51:54 2025

Copyright (c) 1996-2018 Texas Instruments Incorporated
C:\Users\Daniel\AppData\Local\Temp\{513EF8AD-E23E-4989-8EC9-611DE01417F7} PAGE   72

         00000005 0600 
    3765 00000006 2942          CLRC      PAGE0,OVM             ; [CPU_ALU] 
    3766 00000007 5616          CLRC      AMODE                 ; [CPU_ALU] 
    3767 00000008 7625        ESTOP0
    3768 00000009       $C$L71:    
    3769                      .dwpsn  file "../DeviceSupport/source/f28003x_defaultisr.c",line 1011,column 5,is_stmt,isa 0
    3770 00000009 6F00          B         $C$L71,UNC            ; [CPU_ALU] |1011| 
    3771                      ; branch occurs ; [] |1011| 
    3772                      .dwattr $C$DW$71, DW_AT_TI_end_file("../DeviceSupport/source/f28003x_defaultisr.c")
    3773                      .dwattr $C$DW$71, DW_AT_TI_end_line(0x3f4)
    3774                      .dwattr $C$DW$71, DW_AT_TI_end_column(0x01)
    3775                      .dwendentry
    3776                      .dwendtag $C$DW$71
    3777              
    3778 00000000               .sect   ".text:_EQEP1_ISR"
    3779                      .retain
    3780                      .retainrefs
    3781                      .global _EQEP1_ISR
    3782              
    3783              $C$DW$72        .dwtag  DW_TAG_subprogram
    3784                      .dwattr $C$DW$72, DW_AT_name("EQEP1_ISR")
    3785                      .dwattr $C$DW$72, DW_AT_low_pc(_EQEP1_ISR)
    3786                      .dwattr $C$DW$72, DW_AT_high_pc(0x00)
    3787                      .dwattr $C$DW$72, DW_AT_TI_symbol_name("_EQEP1_ISR")
    3788                      .dwattr $C$DW$72, DW_AT_external
    3789                      .dwattr $C$DW$72, DW_AT_TI_begin_file("../DeviceSupport/source/f28003x_defaultisr.c")
    3790                      .dwattr $C$DW$72, DW_AT_TI_begin_line(0x3cb)
    3791                      .dwattr $C$DW$72, DW_AT_TI_begin_column(0x10)
    3792                      .dwattr $C$DW$72, DW_AT_TI_interrupt
    3793                      .dwattr $C$DW$72, DW_AT_TI_max_frame_size(-6)
    3794                      .dwpsn  file "../DeviceSupport/source/f28003x_defaultisr.c",line 972,column 1,is_stmt,address _EQEP1_
    3795              
    3796                      .dwfde $C$DW$CIE, _EQEP1_ISR
    3797              
    3798              ;***************************************************************
    3799              ;* FNAME: _EQEP1_ISR                    FR SIZE:   4           *
    3800              ;*                                                             *
    3801              ;* FUNCTION ENVIRONMENT                                        *
    3802              ;*                                                             *
    3803              ;* FUNCTION PROPERTIES                                         *
    3804              ;*                            0 Parameter,  0 Auto,  4 SOE     *
    3805              ;***************************************************************
    3806              
    3807 00000000       _EQEP1_ISR:
    3808                      .dwcfi  cfa_offset, -2
    3809                      .dwcfi  save_reg_to_mem, 26, 0
    3810 00000000 761B          ASP       ; [CPU_ALU] 
    3811 00000001 FFF0          PUSH      RB                    ; [CPU_FPU] 
    3812                      .dwcfi  save_reg_to_mem, 74, 4
    3813                      .dwcfi  cfa_offset, -4
    3814 00000002 E200          MOV32     *SP++,STF             ; [CPU_FPU] 
         00000003 00BD 
    3815                      .dwcfi  save_reg_to_mem, 40, 6
    3816                      .dwcfi  cfa_offset, -6
    3817 00000004 E630          SETFLG    RNDF32=1, RNDF64=1    ; [CPU_FPU] 
TMS320C2000 Assembler PC v22.6.1 Wed May 21 09:51:54 2025

Copyright (c) 1996-2018 Texas Instruments Incorporated
C:\Users\Daniel\AppData\Local\Temp\{513EF8AD-E23E-4989-8EC9-611DE01417F7} PAGE   73

         00000005 0600 
    3818 00000006 2942          CLRC      PAGE0,OVM             ; [CPU_ALU] 
    3819 00000007 5616          CLRC      AMODE                 ; [CPU_ALU] 
    3820 00000008 7625        ESTOP0
    3821 00000009       $C$L72:    
    3822                      .dwpsn  file "../DeviceSupport/source/f28003x_defaultisr.c",line 988,column 5,is_stmt,isa 0
    3823 00000009 6F00          B         $C$L72,UNC            ; [CPU_ALU] |988| 
    3824                      ; branch occurs ; [] |988| 
    3825                      .dwattr $C$DW$72, DW_AT_TI_end_file("../DeviceSupport/source/f28003x_defaultisr.c")
    3826                      .dwattr $C$DW$72, DW_AT_TI_end_line(0x3dd)
    3827                      .dwattr $C$DW$72, DW_AT_TI_end_column(0x01)
    3828                      .dwendentry
    3829                      .dwendtag $C$DW$72
    3830              
    3831 00000000               .sect   ".text:_EPWM8_TZ_ISR"
    3832                      .retain
    3833                      .retainrefs
    3834                      .global _EPWM8_TZ_ISR
    3835              
    3836              $C$DW$73        .dwtag  DW_TAG_subprogram
    3837                      .dwattr $C$DW$73, DW_AT_name("EPWM8_TZ_ISR")
    3838                      .dwattr $C$DW$73, DW_AT_low_pc(_EPWM8_TZ_ISR)
    3839                      .dwattr $C$DW$73, DW_AT_high_pc(0x00)
    3840                      .dwattr $C$DW$73, DW_AT_TI_symbol_name("_EPWM8_TZ_ISR")
    3841                      .dwattr $C$DW$73, DW_AT_external
    3842                      .dwattr $C$DW$73, DW_AT_TI_begin_file("../DeviceSupport/source/f28003x_defaultisr.c")
    3843                      .dwattr $C$DW$73, DW_AT_TI_begin_line(0x2b7)
    3844                      .dwattr $C$DW$73, DW_AT_TI_begin_column(0x10)
    3845                      .dwattr $C$DW$73, DW_AT_TI_interrupt
    3846                      .dwattr $C$DW$73, DW_AT_TI_max_frame_size(-6)
    3847                      .dwpsn  file "../DeviceSupport/source/f28003x_defaultisr.c",line 696,column 1,is_stmt,address _EPWM8_
    3848              
    3849                      .dwfde $C$DW$CIE, _EPWM8_TZ_ISR
    3850              
    3851              ;***************************************************************
    3852              ;* FNAME: _EPWM8_TZ_ISR                 FR SIZE:   4           *
    3853              ;*                                                             *
    3854              ;* FUNCTION ENVIRONMENT                                        *
    3855              ;*                                                             *
    3856              ;* FUNCTION PROPERTIES                                         *
    3857              ;*                            0 Parameter,  0 Auto,  4 SOE     *
    3858              ;***************************************************************
    3859              
    3860 00000000       _EPWM8_TZ_ISR:
    3861                      .dwcfi  cfa_offset, -2
    3862                      .dwcfi  save_reg_to_mem, 26, 0
    3863 00000000 761B          ASP       ; [CPU_ALU] 
    3864 00000001 FFF0          PUSH      RB                    ; [CPU_FPU] 
    3865                      .dwcfi  save_reg_to_mem, 74, 4
    3866                      .dwcfi  cfa_offset, -4
    3867 00000002 E200          MOV32     *SP++,STF             ; [CPU_FPU] 
         00000003 00BD 
    3868                      .dwcfi  save_reg_to_mem, 40, 6
    3869                      .dwcfi  cfa_offset, -6
    3870 00000004 E630          SETFLG    RNDF32=1, RNDF64=1    ; [CPU_FPU] 
TMS320C2000 Assembler PC v22.6.1 Wed May 21 09:51:54 2025

Copyright (c) 1996-2018 Texas Instruments Incorporated
C:\Users\Daniel\AppData\Local\Temp\{513EF8AD-E23E-4989-8EC9-611DE01417F7} PAGE   74

         00000005 0600 
    3871 00000006 2942          CLRC      PAGE0,OVM             ; [CPU_ALU] 
    3872 00000007 5616          CLRC      AMODE                 ; [CPU_ALU] 
    3873 00000008 7625        ESTOP0
    3874 00000009       $C$L73:    
    3875                      .dwpsn  file "../DeviceSupport/source/f28003x_defaultisr.c",line 712,column 5,is_stmt,isa 0
    3876 00000009 6F00          B         $C$L73,UNC            ; [CPU_ALU] |712| 
    3877                      ; branch occurs ; [] |712| 
    3878                      .dwattr $C$DW$73, DW_AT_TI_end_file("../DeviceSupport/source/f28003x_defaultisr.c")
    3879                      .dwattr $C$DW$73, DW_AT_TI_end_line(0x2c9)
    3880                      .dwattr $C$DW$73, DW_AT_TI_end_column(0x01)
    3881                      .dwendentry
    3882                      .dwendtag $C$DW$73
    3883              
    3884 00000000               .sect   ".text:_EPWM8_ISR"
    3885                      .retain
    3886                      .retainrefs
    3887                      .global _EPWM8_ISR
    3888              
    3889              $C$DW$74        .dwtag  DW_TAG_subprogram
    3890                      .dwattr $C$DW$74, DW_AT_name("EPWM8_ISR")
    3891                      .dwattr $C$DW$74, DW_AT_low_pc(_EPWM8_ISR)
    3892                      .dwattr $C$DW$74, DW_AT_high_pc(0x00)
    3893                      .dwattr $C$DW$74, DW_AT_TI_symbol_name("_EPWM8_ISR")
    3894                      .dwattr $C$DW$74, DW_AT_external
    3895                      .dwattr $C$DW$74, DW_AT_TI_begin_file("../DeviceSupport/source/f28003x_defaultisr.c")
    3896                      .dwattr $C$DW$74, DW_AT_TI_begin_line(0x36f)
    3897                      .dwattr $C$DW$74, DW_AT_TI_begin_column(0x10)
    3898                      .dwattr $C$DW$74, DW_AT_TI_interrupt
    3899                      .dwattr $C$DW$74, DW_AT_TI_max_frame_size(-6)
    3900                      .dwpsn  file "../DeviceSupport/source/f28003x_defaultisr.c",line 880,column 1,is_stmt,address _EPWM8_
    3901              
    3902                      .dwfde $C$DW$CIE, _EPWM8_ISR
    3903              
    3904              ;***************************************************************
    3905              ;* FNAME: _EPWM8_ISR                    FR SIZE:   4           *
    3906              ;*                                                             *
    3907              ;* FUNCTION ENVIRONMENT                                        *
    3908              ;*                                                             *
    3909              ;* FUNCTION PROPERTIES                                         *
    3910              ;*                            0 Parameter,  0 Auto,  4 SOE     *
    3911              ;***************************************************************
    3912              
    3913 00000000       _EPWM8_ISR:
    3914                      .dwcfi  cfa_offset, -2
    3915                      .dwcfi  save_reg_to_mem, 26, 0
    3916 00000000 761B          ASP       ; [CPU_ALU] 
    3917 00000001 FFF0          PUSH      RB                    ; [CPU_FPU] 
    3918                      .dwcfi  save_reg_to_mem, 74, 4
    3919                      .dwcfi  cfa_offset, -4
    3920 00000002 E200          MOV32     *SP++,STF             ; [CPU_FPU] 
         00000003 00BD 
    3921                      .dwcfi  save_reg_to_mem, 40, 6
    3922                      .dwcfi  cfa_offset, -6
    3923 00000004 E630          SETFLG    RNDF32=1, RNDF64=1    ; [CPU_FPU] 
TMS320C2000 Assembler PC v22.6.1 Wed May 21 09:51:54 2025

Copyright (c) 1996-2018 Texas Instruments Incorporated
C:\Users\Daniel\AppData\Local\Temp\{513EF8AD-E23E-4989-8EC9-611DE01417F7} PAGE   75

         00000005 0600 
    3924 00000006 2942          CLRC      PAGE0,OVM             ; [CPU_ALU] 
    3925 00000007 5616          CLRC      AMODE                 ; [CPU_ALU] 
    3926 00000008 7625        ESTOP0
    3927 00000009       $C$L74:    
    3928                      .dwpsn  file "../DeviceSupport/source/f28003x_defaultisr.c",line 896,column 5,is_stmt,isa 0
    3929 00000009 6F00          B         $C$L74,UNC            ; [CPU_ALU] |896| 
    3930                      ; branch occurs ; [] |896| 
    3931                      .dwattr $C$DW$74, DW_AT_TI_end_file("../DeviceSupport/source/f28003x_defaultisr.c")
    3932                      .dwattr $C$DW$74, DW_AT_TI_end_line(0x381)
    3933                      .dwattr $C$DW$74, DW_AT_TI_end_column(0x01)
    3934                      .dwendentry
    3935                      .dwendtag $C$DW$74
    3936              
    3937 00000000               .sect   ".text:_EPWM7_TZ_ISR"
    3938                      .retain
    3939                      .retainrefs
    3940                      .global _EPWM7_TZ_ISR
    3941              
    3942              $C$DW$75        .dwtag  DW_TAG_subprogram
    3943                      .dwattr $C$DW$75, DW_AT_name("EPWM7_TZ_ISR")
    3944                      .dwattr $C$DW$75, DW_AT_low_pc(_EPWM7_TZ_ISR)
    3945                      .dwattr $C$DW$75, DW_AT_high_pc(0x00)
    3946                      .dwattr $C$DW$75, DW_AT_TI_symbol_name("_EPWM7_TZ_ISR")
    3947                      .dwattr $C$DW$75, DW_AT_external
    3948                      .dwattr $C$DW$75, DW_AT_TI_begin_file("../DeviceSupport/source/f28003x_defaultisr.c")
    3949                      .dwattr $C$DW$75, DW_AT_TI_begin_line(0x2a0)
    3950                      .dwattr $C$DW$75, DW_AT_TI_begin_column(0x10)
    3951                      .dwattr $C$DW$75, DW_AT_TI_interrupt
    3952                      .dwattr $C$DW$75, DW_AT_TI_max_frame_size(-6)
    3953                      .dwpsn  file "../DeviceSupport/source/f28003x_defaultisr.c",line 673,column 1,is_stmt,address _EPWM7_
    3954              
    3955                      .dwfde $C$DW$CIE, _EPWM7_TZ_ISR
    3956              
    3957              ;***************************************************************
    3958              ;* FNAME: _EPWM7_TZ_ISR                 FR SIZE:   4           *
    3959              ;*                                                             *
    3960              ;* FUNCTION ENVIRONMENT                                        *
    3961              ;*                                                             *
    3962              ;* FUNCTION PROPERTIES                                         *
    3963              ;*                            0 Parameter,  0 Auto,  4 SOE     *
    3964              ;***************************************************************
    3965              
    3966 00000000       _EPWM7_TZ_ISR:
    3967                      .dwcfi  cfa_offset, -2
    3968                      .dwcfi  save_reg_to_mem, 26, 0
    3969 00000000 761B          ASP       ; [CPU_ALU] 
    3970 00000001 FFF0          PUSH      RB                    ; [CPU_FPU] 
    3971                      .dwcfi  save_reg_to_mem, 74, 4
    3972                      .dwcfi  cfa_offset, -4
    3973 00000002 E200          MOV32     *SP++,STF             ; [CPU_FPU] 
         00000003 00BD 
    3974                      .dwcfi  save_reg_to_mem, 40, 6
    3975                      .dwcfi  cfa_offset, -6
    3976 00000004 E630          SETFLG    RNDF32=1, RNDF64=1    ; [CPU_FPU] 
TMS320C2000 Assembler PC v22.6.1 Wed May 21 09:51:54 2025

Copyright (c) 1996-2018 Texas Instruments Incorporated
C:\Users\Daniel\AppData\Local\Temp\{513EF8AD-E23E-4989-8EC9-611DE01417F7} PAGE   76

         00000005 0600 
    3977 00000006 2942          CLRC      PAGE0,OVM             ; [CPU_ALU] 
    3978 00000007 5616          CLRC      AMODE                 ; [CPU_ALU] 
    3979 00000008 7625        ESTOP0
    3980 00000009       $C$L75:    
    3981                      .dwpsn  file "../DeviceSupport/source/f28003x_defaultisr.c",line 689,column 5,is_stmt,isa 0
    3982 00000009 6F00          B         $C$L75,UNC            ; [CPU_ALU] |689| 
    3983                      ; branch occurs ; [] |689| 
    3984                      .dwattr $C$DW$75, DW_AT_TI_end_file("../DeviceSupport/source/f28003x_defaultisr.c")
    3985                      .dwattr $C$DW$75, DW_AT_TI_end_line(0x2b2)
    3986                      .dwattr $C$DW$75, DW_AT_TI_end_column(0x01)
    3987                      .dwendentry
    3988                      .dwendtag $C$DW$75
    3989              
    3990 00000000               .sect   ".text:_EPWM7_ISR"
    3991                      .retain
    3992                      .retainrefs
    3993                      .global _EPWM7_ISR
    3994              
    3995              $C$DW$76        .dwtag  DW_TAG_subprogram
    3996                      .dwattr $C$DW$76, DW_AT_name("EPWM7_ISR")
    3997                      .dwattr $C$DW$76, DW_AT_low_pc(_EPWM7_ISR)
    3998                      .dwattr $C$DW$76, DW_AT_high_pc(0x00)
    3999                      .dwattr $C$DW$76, DW_AT_TI_symbol_name("_EPWM7_ISR")
    4000                      .dwattr $C$DW$76, DW_AT_external
    4001                      .dwattr $C$DW$76, DW_AT_TI_begin_file("../DeviceSupport/source/f28003x_defaultisr.c")
    4002                      .dwattr $C$DW$76, DW_AT_TI_begin_line(0x358)
    4003                      .dwattr $C$DW$76, DW_AT_TI_begin_column(0x10)
    4004                      .dwattr $C$DW$76, DW_AT_TI_interrupt
    4005                      .dwattr $C$DW$76, DW_AT_TI_max_frame_size(-6)
    4006                      .dwpsn  file "../DeviceSupport/source/f28003x_defaultisr.c",line 857,column 1,is_stmt,address _EPWM7_
    4007              
    4008                      .dwfde $C$DW$CIE, _EPWM7_ISR
    4009              
    4010              ;***************************************************************
    4011              ;* FNAME: _EPWM7_ISR                    FR SIZE:   4           *
    4012              ;*                                                             *
    4013              ;* FUNCTION ENVIRONMENT                                        *
    4014              ;*                                                             *
    4015              ;* FUNCTION PROPERTIES                                         *
    4016              ;*                            0 Parameter,  0 Auto,  4 SOE     *
    4017              ;***************************************************************
    4018              
    4019 00000000       _EPWM7_ISR:
    4020                      .dwcfi  cfa_offset, -2
    4021                      .dwcfi  save_reg_to_mem, 26, 0
    4022 00000000 761B          ASP       ; [CPU_ALU] 
    4023 00000001 FFF0          PUSH      RB                    ; [CPU_FPU] 
    4024                      .dwcfi  save_reg_to_mem, 74, 4
    4025                      .dwcfi  cfa_offset, -4
    4026 00000002 E200          MOV32     *SP++,STF             ; [CPU_FPU] 
         00000003 00BD 
    4027                      .dwcfi  save_reg_to_mem, 40, 6
    4028                      .dwcfi  cfa_offset, -6
    4029 00000004 E630          SETFLG    RNDF32=1, RNDF64=1    ; [CPU_FPU] 
TMS320C2000 Assembler PC v22.6.1 Wed May 21 09:51:54 2025

Copyright (c) 1996-2018 Texas Instruments Incorporated
C:\Users\Daniel\AppData\Local\Temp\{513EF8AD-E23E-4989-8EC9-611DE01417F7} PAGE   77

         00000005 0600 
    4030 00000006 2942          CLRC      PAGE0,OVM             ; [CPU_ALU] 
    4031 00000007 5616          CLRC      AMODE                 ; [CPU_ALU] 
    4032 00000008 7625        ESTOP0
    4033 00000009       $C$L76:    
    4034                      .dwpsn  file "../DeviceSupport/source/f28003x_defaultisr.c",line 873,column 5,is_stmt,isa 0
    4035 00000009 6F00          B         $C$L76,UNC            ; [CPU_ALU] |873| 
    4036                      ; branch occurs ; [] |873| 
    4037                      .dwattr $C$DW$76, DW_AT_TI_end_file("../DeviceSupport/source/f28003x_defaultisr.c")
    4038                      .dwattr $C$DW$76, DW_AT_TI_end_line(0x36a)
    4039                      .dwattr $C$DW$76, DW_AT_TI_end_column(0x01)
    4040                      .dwendentry
    4041                      .dwendtag $C$DW$76
    4042              
    4043 00000000               .sect   ".text:_EPWM6_TZ_ISR"
    4044                      .retain
    4045                      .retainrefs
    4046                      .global _EPWM6_TZ_ISR
    4047              
    4048              $C$DW$77        .dwtag  DW_TAG_subprogram
    4049                      .dwattr $C$DW$77, DW_AT_name("EPWM6_TZ_ISR")
    4050                      .dwattr $C$DW$77, DW_AT_low_pc(_EPWM6_TZ_ISR)
    4051                      .dwattr $C$DW$77, DW_AT_high_pc(0x00)
    4052                      .dwattr $C$DW$77, DW_AT_TI_symbol_name("_EPWM6_TZ_ISR")
    4053                      .dwattr $C$DW$77, DW_AT_external
    4054                      .dwattr $C$DW$77, DW_AT_TI_begin_file("../DeviceSupport/source/f28003x_defaultisr.c")
    4055                      .dwattr $C$DW$77, DW_AT_TI_begin_line(0x289)
    4056                      .dwattr $C$DW$77, DW_AT_TI_begin_column(0x10)
    4057                      .dwattr $C$DW$77, DW_AT_TI_interrupt
    4058                      .dwattr $C$DW$77, DW_AT_TI_max_frame_size(-6)
    4059                      .dwpsn  file "../DeviceSupport/source/f28003x_defaultisr.c",line 650,column 1,is_stmt,address _EPWM6_
    4060              
    4061                      .dwfde $C$DW$CIE, _EPWM6_TZ_ISR
    4062              
    4063              ;***************************************************************
    4064              ;* FNAME: _EPWM6_TZ_ISR                 FR SIZE:   4           *
    4065              ;*                                                             *
    4066              ;* FUNCTION ENVIRONMENT                                        *
    4067              ;*                                                             *
    4068              ;* FUNCTION PROPERTIES                                         *
    4069              ;*                            0 Parameter,  0 Auto,  4 SOE     *
    4070              ;***************************************************************
    4071              
    4072 00000000       _EPWM6_TZ_ISR:
    4073                      .dwcfi  cfa_offset, -2
    4074                      .dwcfi  save_reg_to_mem, 26, 0
    4075 00000000 761B          ASP       ; [CPU_ALU] 
    4076 00000001 FFF0          PUSH      RB                    ; [CPU_FPU] 
    4077                      .dwcfi  save_reg_to_mem, 74, 4
    4078                      .dwcfi  cfa_offset, -4
    4079 00000002 E200          MOV32     *SP++,STF             ; [CPU_FPU] 
         00000003 00BD 
    4080                      .dwcfi  save_reg_to_mem, 40, 6
    4081                      .dwcfi  cfa_offset, -6
    4082 00000004 E630          SETFLG    RNDF32=1, RNDF64=1    ; [CPU_FPU] 
TMS320C2000 Assembler PC v22.6.1 Wed May 21 09:51:54 2025

Copyright (c) 1996-2018 Texas Instruments Incorporated
C:\Users\Daniel\AppData\Local\Temp\{513EF8AD-E23E-4989-8EC9-611DE01417F7} PAGE   78

         00000005 0600 
    4083 00000006 2942          CLRC      PAGE0,OVM             ; [CPU_ALU] 
    4084 00000007 5616          CLRC      AMODE                 ; [CPU_ALU] 
    4085 00000008 7625        ESTOP0
    4086 00000009       $C$L77:    
    4087                      .dwpsn  file "../DeviceSupport/source/f28003x_defaultisr.c",line 666,column 5,is_stmt,isa 0
    4088 00000009 6F00          B         $C$L77,UNC            ; [CPU_ALU] |666| 
    4089                      ; branch occurs ; [] |666| 
    4090                      .dwattr $C$DW$77, DW_AT_TI_end_file("../DeviceSupport/source/f28003x_defaultisr.c")
    4091                      .dwattr $C$DW$77, DW_AT_TI_end_line(0x29b)
    4092                      .dwattr $C$DW$77, DW_AT_TI_end_column(0x01)
    4093                      .dwendentry
    4094                      .dwendtag $C$DW$77
    4095              
    4096 00000000               .sect   ".text:_EPWM6_ISR"
    4097                      .retain
    4098                      .retainrefs
    4099                      .global _EPWM6_ISR
    4100              
    4101              $C$DW$78        .dwtag  DW_TAG_subprogram
    4102                      .dwattr $C$DW$78, DW_AT_name("EPWM6_ISR")
    4103                      .dwattr $C$DW$78, DW_AT_low_pc(_EPWM6_ISR)
    4104                      .dwattr $C$DW$78, DW_AT_high_pc(0x00)
    4105                      .dwattr $C$DW$78, DW_AT_TI_symbol_name("_EPWM6_ISR")
    4106                      .dwattr $C$DW$78, DW_AT_external
    4107                      .dwattr $C$DW$78, DW_AT_TI_begin_file("../DeviceSupport/source/f28003x_defaultisr.c")
    4108                      .dwattr $C$DW$78, DW_AT_TI_begin_line(0x341)
    4109                      .dwattr $C$DW$78, DW_AT_TI_begin_column(0x10)
    4110                      .dwattr $C$DW$78, DW_AT_TI_interrupt
    4111                      .dwattr $C$DW$78, DW_AT_TI_max_frame_size(-6)
    4112                      .dwpsn  file "../DeviceSupport/source/f28003x_defaultisr.c",line 834,column 1,is_stmt,address _EPWM6_
    4113              
    4114                      .dwfde $C$DW$CIE, _EPWM6_ISR
    4115              
    4116              ;***************************************************************
    4117              ;* FNAME: _EPWM6_ISR                    FR SIZE:   4           *
    4118              ;*                                                             *
    4119              ;* FUNCTION ENVIRONMENT                                        *
    4120              ;*                                                             *
    4121              ;* FUNCTION PROPERTIES                                         *
    4122              ;*                            0 Parameter,  0 Auto,  4 SOE     *
    4123              ;***************************************************************
    4124              
    4125 00000000       _EPWM6_ISR:
    4126                      .dwcfi  cfa_offset, -2
    4127                      .dwcfi  save_reg_to_mem, 26, 0
    4128 00000000 761B          ASP       ; [CPU_ALU] 
    4129 00000001 FFF0          PUSH      RB                    ; [CPU_FPU] 
    4130                      .dwcfi  save_reg_to_mem, 74, 4
    4131                      .dwcfi  cfa_offset, -4
    4132 00000002 E200          MOV32     *SP++,STF             ; [CPU_FPU] 
         00000003 00BD 
    4133                      .dwcfi  save_reg_to_mem, 40, 6
    4134                      .dwcfi  cfa_offset, -6
    4135 00000004 E630          SETFLG    RNDF32=1, RNDF64=1    ; [CPU_FPU] 
TMS320C2000 Assembler PC v22.6.1 Wed May 21 09:51:54 2025

Copyright (c) 1996-2018 Texas Instruments Incorporated
C:\Users\Daniel\AppData\Local\Temp\{513EF8AD-E23E-4989-8EC9-611DE01417F7} PAGE   79

         00000005 0600 
    4136 00000006 2942          CLRC      PAGE0,OVM             ; [CPU_ALU] 
    4137 00000007 5616          CLRC      AMODE                 ; [CPU_ALU] 
    4138 00000008 7625        ESTOP0
    4139 00000009       $C$L78:    
    4140                      .dwpsn  file "../DeviceSupport/source/f28003x_defaultisr.c",line 850,column 5,is_stmt,isa 0
    4141 00000009 6F00          B         $C$L78,UNC            ; [CPU_ALU] |850| 
    4142                      ; branch occurs ; [] |850| 
    4143                      .dwattr $C$DW$78, DW_AT_TI_end_file("../DeviceSupport/source/f28003x_defaultisr.c")
    4144                      .dwattr $C$DW$78, DW_AT_TI_end_line(0x353)
    4145                      .dwattr $C$DW$78, DW_AT_TI_end_column(0x01)
    4146                      .dwendentry
    4147                      .dwendtag $C$DW$78
    4148              
    4149 00000000               .sect   ".text:_EPWM5_TZ_ISR"
    4150                      .retain
    4151                      .retainrefs
    4152                      .global _EPWM5_TZ_ISR
    4153              
    4154              $C$DW$79        .dwtag  DW_TAG_subprogram
    4155                      .dwattr $C$DW$79, DW_AT_name("EPWM5_TZ_ISR")
    4156                      .dwattr $C$DW$79, DW_AT_low_pc(_EPWM5_TZ_ISR)
    4157                      .dwattr $C$DW$79, DW_AT_high_pc(0x00)
    4158                      .dwattr $C$DW$79, DW_AT_TI_symbol_name("_EPWM5_TZ_ISR")
    4159                      .dwattr $C$DW$79, DW_AT_external
    4160                      .dwattr $C$DW$79, DW_AT_TI_begin_file("../DeviceSupport/source/f28003x_defaultisr.c")
    4161                      .dwattr $C$DW$79, DW_AT_TI_begin_line(0x272)
    4162                      .dwattr $C$DW$79, DW_AT_TI_begin_column(0x10)
    4163                      .dwattr $C$DW$79, DW_AT_TI_interrupt
    4164                      .dwattr $C$DW$79, DW_AT_TI_max_frame_size(-6)
    4165                      .dwpsn  file "../DeviceSupport/source/f28003x_defaultisr.c",line 627,column 1,is_stmt,address _EPWM5_
    4166              
    4167                      .dwfde $C$DW$CIE, _EPWM5_TZ_ISR
    4168              
    4169              ;***************************************************************
    4170              ;* FNAME: _EPWM5_TZ_ISR                 FR SIZE:   4           *
    4171              ;*                                                             *
    4172              ;* FUNCTION ENVIRONMENT                                        *
    4173              ;*                                                             *
    4174              ;* FUNCTION PROPERTIES                                         *
    4175              ;*                            0 Parameter,  0 Auto,  4 SOE     *
    4176              ;***************************************************************
    4177              
    4178 00000000       _EPWM5_TZ_ISR:
    4179                      .dwcfi  cfa_offset, -2
    4180                      .dwcfi  save_reg_to_mem, 26, 0
    4181 00000000 761B          ASP       ; [CPU_ALU] 
    4182 00000001 FFF0          PUSH      RB                    ; [CPU_FPU] 
    4183                      .dwcfi  save_reg_to_mem, 74, 4
    4184                      .dwcfi  cfa_offset, -4
    4185 00000002 E200          MOV32     *SP++,STF             ; [CPU_FPU] 
         00000003 00BD 
    4186                      .dwcfi  save_reg_to_mem, 40, 6
    4187                      .dwcfi  cfa_offset, -6
    4188 00000004 E630          SETFLG    RNDF32=1, RNDF64=1    ; [CPU_FPU] 
TMS320C2000 Assembler PC v22.6.1 Wed May 21 09:51:54 2025

Copyright (c) 1996-2018 Texas Instruments Incorporated
C:\Users\Daniel\AppData\Local\Temp\{513EF8AD-E23E-4989-8EC9-611DE01417F7} PAGE   80

         00000005 0600 
    4189 00000006 2942          CLRC      PAGE0,OVM             ; [CPU_ALU] 
    4190 00000007 5616          CLRC      AMODE                 ; [CPU_ALU] 
    4191 00000008 7625        ESTOP0
    4192 00000009       $C$L79:    
    4193                      .dwpsn  file "../DeviceSupport/source/f28003x_defaultisr.c",line 643,column 5,is_stmt,isa 0
    4194 00000009 6F00          B         $C$L79,UNC            ; [CPU_ALU] |643| 
    4195                      ; branch occurs ; [] |643| 
    4196                      .dwattr $C$DW$79, DW_AT_TI_end_file("../DeviceSupport/source/f28003x_defaultisr.c")
    4197                      .dwattr $C$DW$79, DW_AT_TI_end_line(0x284)
    4198                      .dwattr $C$DW$79, DW_AT_TI_end_column(0x01)
    4199                      .dwendentry
    4200                      .dwendtag $C$DW$79
    4201              
    4202 00000000               .sect   ".text:_EPWM5_ISR"
    4203                      .retain
    4204                      .retainrefs
    4205                      .global _EPWM5_ISR
    4206              
    4207              $C$DW$80        .dwtag  DW_TAG_subprogram
    4208                      .dwattr $C$DW$80, DW_AT_name("EPWM5_ISR")
    4209                      .dwattr $C$DW$80, DW_AT_low_pc(_EPWM5_ISR)
    4210                      .dwattr $C$DW$80, DW_AT_high_pc(0x00)
    4211                      .dwattr $C$DW$80, DW_AT_TI_symbol_name("_EPWM5_ISR")
    4212                      .dwattr $C$DW$80, DW_AT_external
    4213                      .dwattr $C$DW$80, DW_AT_TI_begin_file("../DeviceSupport/source/f28003x_defaultisr.c")
    4214                      .dwattr $C$DW$80, DW_AT_TI_begin_line(0x32a)
    4215                      .dwattr $C$DW$80, DW_AT_TI_begin_column(0x10)
    4216                      .dwattr $C$DW$80, DW_AT_TI_interrupt
    4217                      .dwattr $C$DW$80, DW_AT_TI_max_frame_size(-6)
    4218                      .dwpsn  file "../DeviceSupport/source/f28003x_defaultisr.c",line 811,column 1,is_stmt,address _EPWM5_
    4219              
    4220                      .dwfde $C$DW$CIE, _EPWM5_ISR
    4221              
    4222              ;***************************************************************
    4223              ;* FNAME: _EPWM5_ISR                    FR SIZE:   4           *
    4224              ;*                                                             *
    4225              ;* FUNCTION ENVIRONMENT                                        *
    4226              ;*                                                             *
    4227              ;* FUNCTION PROPERTIES                                         *
    4228              ;*                            0 Parameter,  0 Auto,  4 SOE     *
    4229              ;***************************************************************
    4230              
    4231 00000000       _EPWM5_ISR:
    4232                      .dwcfi  cfa_offset, -2
    4233                      .dwcfi  save_reg_to_mem, 26, 0
    4234 00000000 761B          ASP       ; [CPU_ALU] 
    4235 00000001 FFF0          PUSH      RB                    ; [CPU_FPU] 
    4236                      .dwcfi  save_reg_to_mem, 74, 4
    4237                      .dwcfi  cfa_offset, -4
    4238 00000002 E200          MOV32     *SP++,STF             ; [CPU_FPU] 
         00000003 00BD 
    4239                      .dwcfi  save_reg_to_mem, 40, 6
    4240                      .dwcfi  cfa_offset, -6
    4241 00000004 E630          SETFLG    RNDF32=1, RNDF64=1    ; [CPU_FPU] 
TMS320C2000 Assembler PC v22.6.1 Wed May 21 09:51:54 2025

Copyright (c) 1996-2018 Texas Instruments Incorporated
C:\Users\Daniel\AppData\Local\Temp\{513EF8AD-E23E-4989-8EC9-611DE01417F7} PAGE   81

         00000005 0600 
    4242 00000006 2942          CLRC      PAGE0,OVM             ; [CPU_ALU] 
    4243 00000007 5616          CLRC      AMODE                 ; [CPU_ALU] 
    4244 00000008 7625        ESTOP0
    4245 00000009       $C$L80:    
    4246                      .dwpsn  file "../DeviceSupport/source/f28003x_defaultisr.c",line 827,column 5,is_stmt,isa 0
    4247 00000009 6F00          B         $C$L80,UNC            ; [CPU_ALU] |827| 
    4248                      ; branch occurs ; [] |827| 
    4249                      .dwattr $C$DW$80, DW_AT_TI_end_file("../DeviceSupport/source/f28003x_defaultisr.c")
    4250                      .dwattr $C$DW$80, DW_AT_TI_end_line(0x33c)
    4251                      .dwattr $C$DW$80, DW_AT_TI_end_column(0x01)
    4252                      .dwendentry
    4253                      .dwendtag $C$DW$80
    4254              
    4255 00000000               .sect   ".text:_EPWM4_TZ_ISR"
    4256                      .retain
    4257                      .retainrefs
    4258                      .global _EPWM4_TZ_ISR
    4259              
    4260              $C$DW$81        .dwtag  DW_TAG_subprogram
    4261                      .dwattr $C$DW$81, DW_AT_name("EPWM4_TZ_ISR")
    4262                      .dwattr $C$DW$81, DW_AT_low_pc(_EPWM4_TZ_ISR)
    4263                      .dwattr $C$DW$81, DW_AT_high_pc(0x00)
    4264                      .dwattr $C$DW$81, DW_AT_TI_symbol_name("_EPWM4_TZ_ISR")
    4265                      .dwattr $C$DW$81, DW_AT_external
    4266                      .dwattr $C$DW$81, DW_AT_TI_begin_file("../DeviceSupport/source/f28003x_defaultisr.c")
    4267                      .dwattr $C$DW$81, DW_AT_TI_begin_line(0x25b)
    4268                      .dwattr $C$DW$81, DW_AT_TI_begin_column(0x10)
    4269                      .dwattr $C$DW$81, DW_AT_TI_interrupt
    4270                      .dwattr $C$DW$81, DW_AT_TI_max_frame_size(-6)
    4271                      .dwpsn  file "../DeviceSupport/source/f28003x_defaultisr.c",line 604,column 1,is_stmt,address _EPWM4_
    4272              
    4273                      .dwfde $C$DW$CIE, _EPWM4_TZ_ISR
    4274              
    4275              ;***************************************************************
    4276              ;* FNAME: _EPWM4_TZ_ISR                 FR SIZE:   4           *
    4277              ;*                                                             *
    4278              ;* FUNCTION ENVIRONMENT                                        *
    4279              ;*                                                             *
    4280              ;* FUNCTION PROPERTIES                                         *
    4281              ;*                            0 Parameter,  0 Auto,  4 SOE     *
    4282              ;***************************************************************
    4283              
    4284 00000000       _EPWM4_TZ_ISR:
    4285                      .dwcfi  cfa_offset, -2
    4286                      .dwcfi  save_reg_to_mem, 26, 0
    4287 00000000 761B          ASP       ; [CPU_ALU] 
    4288 00000001 FFF0          PUSH      RB                    ; [CPU_FPU] 
    4289                      .dwcfi  save_reg_to_mem, 74, 4
    4290                      .dwcfi  cfa_offset, -4
    4291 00000002 E200          MOV32     *SP++,STF             ; [CPU_FPU] 
         00000003 00BD 
    4292                      .dwcfi  save_reg_to_mem, 40, 6
    4293                      .dwcfi  cfa_offset, -6
    4294 00000004 E630          SETFLG    RNDF32=1, RNDF64=1    ; [CPU_FPU] 
TMS320C2000 Assembler PC v22.6.1 Wed May 21 09:51:54 2025

Copyright (c) 1996-2018 Texas Instruments Incorporated
C:\Users\Daniel\AppData\Local\Temp\{513EF8AD-E23E-4989-8EC9-611DE01417F7} PAGE   82

         00000005 0600 
    4295 00000006 2942          CLRC      PAGE0,OVM             ; [CPU_ALU] 
    4296 00000007 5616          CLRC      AMODE                 ; [CPU_ALU] 
    4297 00000008 7625        ESTOP0
    4298 00000009       $C$L81:    
    4299                      .dwpsn  file "../DeviceSupport/source/f28003x_defaultisr.c",line 620,column 5,is_stmt,isa 0
    4300 00000009 6F00          B         $C$L81,UNC            ; [CPU_ALU] |620| 
    4301                      ; branch occurs ; [] |620| 
    4302                      .dwattr $C$DW$81, DW_AT_TI_end_file("../DeviceSupport/source/f28003x_defaultisr.c")
    4303                      .dwattr $C$DW$81, DW_AT_TI_end_line(0x26d)
    4304                      .dwattr $C$DW$81, DW_AT_TI_end_column(0x01)
    4305                      .dwendentry
    4306                      .dwendtag $C$DW$81
    4307              
    4308 00000000               .sect   ".text:_EPWM4_ISR"
    4309                      .retain
    4310                      .retainrefs
    4311                      .global _EPWM4_ISR
    4312              
    4313              $C$DW$82        .dwtag  DW_TAG_subprogram
    4314                      .dwattr $C$DW$82, DW_AT_name("EPWM4_ISR")
    4315                      .dwattr $C$DW$82, DW_AT_low_pc(_EPWM4_ISR)
    4316                      .dwattr $C$DW$82, DW_AT_high_pc(0x00)
    4317                      .dwattr $C$DW$82, DW_AT_TI_symbol_name("_EPWM4_ISR")
    4318                      .dwattr $C$DW$82, DW_AT_external
    4319                      .dwattr $C$DW$82, DW_AT_TI_begin_file("../DeviceSupport/source/f28003x_defaultisr.c")
    4320                      .dwattr $C$DW$82, DW_AT_TI_begin_line(0x313)
    4321                      .dwattr $C$DW$82, DW_AT_TI_begin_column(0x10)
    4322                      .dwattr $C$DW$82, DW_AT_TI_interrupt
    4323                      .dwattr $C$DW$82, DW_AT_TI_max_frame_size(-6)
    4324                      .dwpsn  file "../DeviceSupport/source/f28003x_defaultisr.c",line 788,column 1,is_stmt,address _EPWM4_
    4325              
    4326                      .dwfde $C$DW$CIE, _EPWM4_ISR
    4327              
    4328              ;***************************************************************
    4329              ;* FNAME: _EPWM4_ISR                    FR SIZE:   4           *
    4330              ;*                                                             *
    4331              ;* FUNCTION ENVIRONMENT                                        *
    4332              ;*                                                             *
    4333              ;* FUNCTION PROPERTIES                                         *
    4334              ;*                            0 Parameter,  0 Auto,  4 SOE     *
    4335              ;***************************************************************
    4336              
    4337 00000000       _EPWM4_ISR:
    4338                      .dwcfi  cfa_offset, -2
    4339                      .dwcfi  save_reg_to_mem, 26, 0
    4340 00000000 761B          ASP       ; [CPU_ALU] 
    4341 00000001 FFF0          PUSH      RB                    ; [CPU_FPU] 
    4342                      .dwcfi  save_reg_to_mem, 74, 4
    4343                      .dwcfi  cfa_offset, -4
    4344 00000002 E200          MOV32     *SP++,STF             ; [CPU_FPU] 
         00000003 00BD 
    4345                      .dwcfi  save_reg_to_mem, 40, 6
    4346                      .dwcfi  cfa_offset, -6
    4347 00000004 E630          SETFLG    RNDF32=1, RNDF64=1    ; [CPU_FPU] 
TMS320C2000 Assembler PC v22.6.1 Wed May 21 09:51:54 2025

Copyright (c) 1996-2018 Texas Instruments Incorporated
C:\Users\Daniel\AppData\Local\Temp\{513EF8AD-E23E-4989-8EC9-611DE01417F7} PAGE   83

         00000005 0600 
    4348 00000006 2942          CLRC      PAGE0,OVM             ; [CPU_ALU] 
    4349 00000007 5616          CLRC      AMODE                 ; [CPU_ALU] 
    4350 00000008 7625        ESTOP0
    4351 00000009       $C$L82:    
    4352                      .dwpsn  file "../DeviceSupport/source/f28003x_defaultisr.c",line 804,column 5,is_stmt,isa 0
    4353 00000009 6F00          B         $C$L82,UNC            ; [CPU_ALU] |804| 
    4354                      ; branch occurs ; [] |804| 
    4355                      .dwattr $C$DW$82, DW_AT_TI_end_file("../DeviceSupport/source/f28003x_defaultisr.c")
    4356                      .dwattr $C$DW$82, DW_AT_TI_end_line(0x325)
    4357                      .dwattr $C$DW$82, DW_AT_TI_end_column(0x01)
    4358                      .dwendentry
    4359                      .dwendtag $C$DW$82
    4360              
    4361 00000000               .sect   ".text:_EPWM3_TZ_ISR"
    4362                      .retain
    4363                      .retainrefs
    4364                      .global _EPWM3_TZ_ISR
    4365              
    4366              $C$DW$83        .dwtag  DW_TAG_subprogram
    4367                      .dwattr $C$DW$83, DW_AT_name("EPWM3_TZ_ISR")
    4368                      .dwattr $C$DW$83, DW_AT_low_pc(_EPWM3_TZ_ISR)
    4369                      .dwattr $C$DW$83, DW_AT_high_pc(0x00)
    4370                      .dwattr $C$DW$83, DW_AT_TI_symbol_name("_EPWM3_TZ_ISR")
    4371                      .dwattr $C$DW$83, DW_AT_external
    4372                      .dwattr $C$DW$83, DW_AT_TI_begin_file("../DeviceSupport/source/f28003x_defaultisr.c")
    4373                      .dwattr $C$DW$83, DW_AT_TI_begin_line(0x244)
    4374                      .dwattr $C$DW$83, DW_AT_TI_begin_column(0x10)
    4375                      .dwattr $C$DW$83, DW_AT_TI_interrupt
    4376                      .dwattr $C$DW$83, DW_AT_TI_max_frame_size(-6)
    4377                      .dwpsn  file "../DeviceSupport/source/f28003x_defaultisr.c",line 581,column 1,is_stmt,address _EPWM3_
    4378              
    4379                      .dwfde $C$DW$CIE, _EPWM3_TZ_ISR
    4380              
    4381              ;***************************************************************
    4382              ;* FNAME: _EPWM3_TZ_ISR                 FR SIZE:   4           *
    4383              ;*                                                             *
    4384              ;* FUNCTION ENVIRONMENT                                        *
    4385              ;*                                                             *
    4386              ;* FUNCTION PROPERTIES                                         *
    4387              ;*                            0 Parameter,  0 Auto,  4 SOE     *
    4388              ;***************************************************************
    4389              
    4390 00000000       _EPWM3_TZ_ISR:
    4391                      .dwcfi  cfa_offset, -2
    4392                      .dwcfi  save_reg_to_mem, 26, 0
    4393 00000000 761B          ASP       ; [CPU_ALU] 
    4394 00000001 FFF0          PUSH      RB                    ; [CPU_FPU] 
    4395                      .dwcfi  save_reg_to_mem, 74, 4
    4396                      .dwcfi  cfa_offset, -4
    4397 00000002 E200          MOV32     *SP++,STF             ; [CPU_FPU] 
         00000003 00BD 
    4398                      .dwcfi  save_reg_to_mem, 40, 6
    4399                      .dwcfi  cfa_offset, -6
    4400 00000004 E630          SETFLG    RNDF32=1, RNDF64=1    ; [CPU_FPU] 
TMS320C2000 Assembler PC v22.6.1 Wed May 21 09:51:54 2025

Copyright (c) 1996-2018 Texas Instruments Incorporated
C:\Users\Daniel\AppData\Local\Temp\{513EF8AD-E23E-4989-8EC9-611DE01417F7} PAGE   84

         00000005 0600 
    4401 00000006 2942          CLRC      PAGE0,OVM             ; [CPU_ALU] 
    4402 00000007 5616          CLRC      AMODE                 ; [CPU_ALU] 
    4403 00000008 7625        ESTOP0
    4404 00000009       $C$L83:    
    4405                      .dwpsn  file "../DeviceSupport/source/f28003x_defaultisr.c",line 597,column 5,is_stmt,isa 0
    4406 00000009 6F00          B         $C$L83,UNC            ; [CPU_ALU] |597| 
    4407                      ; branch occurs ; [] |597| 
    4408                      .dwattr $C$DW$83, DW_AT_TI_end_file("../DeviceSupport/source/f28003x_defaultisr.c")
    4409                      .dwattr $C$DW$83, DW_AT_TI_end_line(0x256)
    4410                      .dwattr $C$DW$83, DW_AT_TI_end_column(0x01)
    4411                      .dwendentry
    4412                      .dwendtag $C$DW$83
    4413              
    4414 00000000               .sect   ".text:_EPWM3_ISR"
    4415                      .retain
    4416                      .retainrefs
    4417                      .global _EPWM3_ISR
    4418              
    4419              $C$DW$84        .dwtag  DW_TAG_subprogram
    4420                      .dwattr $C$DW$84, DW_AT_name("EPWM3_ISR")
    4421                      .dwattr $C$DW$84, DW_AT_low_pc(_EPWM3_ISR)
    4422                      .dwattr $C$DW$84, DW_AT_high_pc(0x00)
    4423                      .dwattr $C$DW$84, DW_AT_TI_symbol_name("_EPWM3_ISR")
    4424                      .dwattr $C$DW$84, DW_AT_external
    4425                      .dwattr $C$DW$84, DW_AT_TI_begin_file("../DeviceSupport/source/f28003x_defaultisr.c")
    4426                      .dwattr $C$DW$84, DW_AT_TI_begin_line(0x2fc)
    4427                      .dwattr $C$DW$84, DW_AT_TI_begin_column(0x10)
    4428                      .dwattr $C$DW$84, DW_AT_TI_interrupt
    4429                      .dwattr $C$DW$84, DW_AT_TI_max_frame_size(-6)
    4430                      .dwpsn  file "../DeviceSupport/source/f28003x_defaultisr.c",line 765,column 1,is_stmt,address _EPWM3_
    4431              
    4432                      .dwfde $C$DW$CIE, _EPWM3_ISR
    4433              
    4434              ;***************************************************************
    4435              ;* FNAME: _EPWM3_ISR                    FR SIZE:   4           *
    4436              ;*                                                             *
    4437              ;* FUNCTION ENVIRONMENT                                        *
    4438              ;*                                                             *
    4439              ;* FUNCTION PROPERTIES                                         *
    4440              ;*                            0 Parameter,  0 Auto,  4 SOE     *
    4441              ;***************************************************************
    4442              
    4443 00000000       _EPWM3_ISR:
    4444                      .dwcfi  cfa_offset, -2
    4445                      .dwcfi  save_reg_to_mem, 26, 0
    4446 00000000 761B          ASP       ; [CPU_ALU] 
    4447 00000001 FFF0          PUSH      RB                    ; [CPU_FPU] 
    4448                      .dwcfi  save_reg_to_mem, 74, 4
    4449                      .dwcfi  cfa_offset, -4
    4450 00000002 E200          MOV32     *SP++,STF             ; [CPU_FPU] 
         00000003 00BD 
    4451                      .dwcfi  save_reg_to_mem, 40, 6
    4452                      .dwcfi  cfa_offset, -6
    4453 00000004 E630          SETFLG    RNDF32=1, RNDF64=1    ; [CPU_FPU] 
TMS320C2000 Assembler PC v22.6.1 Wed May 21 09:51:54 2025

Copyright (c) 1996-2018 Texas Instruments Incorporated
C:\Users\Daniel\AppData\Local\Temp\{513EF8AD-E23E-4989-8EC9-611DE01417F7} PAGE   85

         00000005 0600 
    4454 00000006 2942          CLRC      PAGE0,OVM             ; [CPU_ALU] 
    4455 00000007 5616          CLRC      AMODE                 ; [CPU_ALU] 
    4456 00000008 7625        ESTOP0
    4457 00000009       $C$L84:    
    4458                      .dwpsn  file "../DeviceSupport/source/f28003x_defaultisr.c",line 781,column 5,is_stmt,isa 0
    4459 00000009 6F00          B         $C$L84,UNC            ; [CPU_ALU] |781| 
    4460                      ; branch occurs ; [] |781| 
    4461                      .dwattr $C$DW$84, DW_AT_TI_end_file("../DeviceSupport/source/f28003x_defaultisr.c")
    4462                      .dwattr $C$DW$84, DW_AT_TI_end_line(0x30e)
    4463                      .dwattr $C$DW$84, DW_AT_TI_end_column(0x01)
    4464                      .dwendentry
    4465                      .dwendtag $C$DW$84
    4466              
    4467 00000000               .sect   ".text:_EPWM2_TZ_ISR"
    4468                      .retain
    4469                      .retainrefs
    4470                      .global _EPWM2_TZ_ISR
    4471              
    4472              $C$DW$85        .dwtag  DW_TAG_subprogram
    4473                      .dwattr $C$DW$85, DW_AT_name("EPWM2_TZ_ISR")
    4474                      .dwattr $C$DW$85, DW_AT_low_pc(_EPWM2_TZ_ISR)
    4475                      .dwattr $C$DW$85, DW_AT_high_pc(0x00)
    4476                      .dwattr $C$DW$85, DW_AT_TI_symbol_name("_EPWM2_TZ_ISR")
    4477                      .dwattr $C$DW$85, DW_AT_external
    4478                      .dwattr $C$DW$85, DW_AT_TI_begin_file("../DeviceSupport/source/f28003x_defaultisr.c")
    4479                      .dwattr $C$DW$85, DW_AT_TI_begin_line(0x22d)
    4480                      .dwattr $C$DW$85, DW_AT_TI_begin_column(0x10)
    4481                      .dwattr $C$DW$85, DW_AT_TI_interrupt
    4482                      .dwattr $C$DW$85, DW_AT_TI_max_frame_size(-6)
    4483                      .dwpsn  file "../DeviceSupport/source/f28003x_defaultisr.c",line 558,column 1,is_stmt,address _EPWM2_
    4484              
    4485                      .dwfde $C$DW$CIE, _EPWM2_TZ_ISR
    4486              
    4487              ;***************************************************************
    4488              ;* FNAME: _EPWM2_TZ_ISR                 FR SIZE:   4           *
    4489              ;*                                                             *
    4490              ;* FUNCTION ENVIRONMENT                                        *
    4491              ;*                                                             *
    4492              ;* FUNCTION PROPERTIES                                         *
    4493              ;*                            0 Parameter,  0 Auto,  4 SOE     *
    4494              ;***************************************************************
    4495              
    4496 00000000       _EPWM2_TZ_ISR:
    4497                      .dwcfi  cfa_offset, -2
    4498                      .dwcfi  save_reg_to_mem, 26, 0
    4499 00000000 761B          ASP       ; [CPU_ALU] 
    4500 00000001 FFF0          PUSH      RB                    ; [CPU_FPU] 
    4501                      .dwcfi  save_reg_to_mem, 74, 4
    4502                      .dwcfi  cfa_offset, -4
    4503 00000002 E200          MOV32     *SP++,STF             ; [CPU_FPU] 
         00000003 00BD 
    4504                      .dwcfi  save_reg_to_mem, 40, 6
    4505                      .dwcfi  cfa_offset, -6
    4506 00000004 E630          SETFLG    RNDF32=1, RNDF64=1    ; [CPU_FPU] 
TMS320C2000 Assembler PC v22.6.1 Wed May 21 09:51:54 2025

Copyright (c) 1996-2018 Texas Instruments Incorporated
C:\Users\Daniel\AppData\Local\Temp\{513EF8AD-E23E-4989-8EC9-611DE01417F7} PAGE   86

         00000005 0600 
    4507 00000006 2942          CLRC      PAGE0,OVM             ; [CPU_ALU] 
    4508 00000007 5616          CLRC      AMODE                 ; [CPU_ALU] 
    4509 00000008 7625        ESTOP0
    4510 00000009       $C$L85:    
    4511                      .dwpsn  file "../DeviceSupport/source/f28003x_defaultisr.c",line 574,column 5,is_stmt,isa 0
    4512 00000009 6F00          B         $C$L85,UNC            ; [CPU_ALU] |574| 
    4513                      ; branch occurs ; [] |574| 
    4514                      .dwattr $C$DW$85, DW_AT_TI_end_file("../DeviceSupport/source/f28003x_defaultisr.c")
    4515                      .dwattr $C$DW$85, DW_AT_TI_end_line(0x23f)
    4516                      .dwattr $C$DW$85, DW_AT_TI_end_column(0x01)
    4517                      .dwendentry
    4518                      .dwendtag $C$DW$85
    4519              
    4520 00000000               .sect   ".text:_EPWM2_ISR"
    4521                      .retain
    4522                      .retainrefs
    4523                      .global _EPWM2_ISR
    4524              
    4525              $C$DW$86        .dwtag  DW_TAG_subprogram
    4526                      .dwattr $C$DW$86, DW_AT_name("EPWM2_ISR")
    4527                      .dwattr $C$DW$86, DW_AT_low_pc(_EPWM2_ISR)
    4528                      .dwattr $C$DW$86, DW_AT_high_pc(0x00)
    4529                      .dwattr $C$DW$86, DW_AT_TI_symbol_name("_EPWM2_ISR")
    4530                      .dwattr $C$DW$86, DW_AT_external
    4531                      .dwattr $C$DW$86, DW_AT_TI_begin_file("../DeviceSupport/source/f28003x_defaultisr.c")
    4532                      .dwattr $C$DW$86, DW_AT_TI_begin_line(0x2e5)
    4533                      .dwattr $C$DW$86, DW_AT_TI_begin_column(0x10)
    4534                      .dwattr $C$DW$86, DW_AT_TI_interrupt
    4535                      .dwattr $C$DW$86, DW_AT_TI_max_frame_size(-6)
    4536                      .dwpsn  file "../DeviceSupport/source/f28003x_defaultisr.c",line 742,column 1,is_stmt,address _EPWM2_
    4537              
    4538                      .dwfde $C$DW$CIE, _EPWM2_ISR
    4539              
    4540              ;***************************************************************
    4541              ;* FNAME: _EPWM2_ISR                    FR SIZE:   4           *
    4542              ;*                                                             *
    4543              ;* FUNCTION ENVIRONMENT                                        *
    4544              ;*                                                             *
    4545              ;* FUNCTION PROPERTIES                                         *
    4546              ;*                            0 Parameter,  0 Auto,  4 SOE     *
    4547              ;***************************************************************
    4548              
    4549 00000000       _EPWM2_ISR:
    4550                      .dwcfi  cfa_offset, -2
    4551                      .dwcfi  save_reg_to_mem, 26, 0
    4552 00000000 761B          ASP       ; [CPU_ALU] 
    4553 00000001 FFF0          PUSH      RB                    ; [CPU_FPU] 
    4554                      .dwcfi  save_reg_to_mem, 74, 4
    4555                      .dwcfi  cfa_offset, -4
    4556 00000002 E200          MOV32     *SP++,STF             ; [CPU_FPU] 
         00000003 00BD 
    4557                      .dwcfi  save_reg_to_mem, 40, 6
    4558                      .dwcfi  cfa_offset, -6
    4559 00000004 E630          SETFLG    RNDF32=1, RNDF64=1    ; [CPU_FPU] 
TMS320C2000 Assembler PC v22.6.1 Wed May 21 09:51:54 2025

Copyright (c) 1996-2018 Texas Instruments Incorporated
C:\Users\Daniel\AppData\Local\Temp\{513EF8AD-E23E-4989-8EC9-611DE01417F7} PAGE   87

         00000005 0600 
    4560 00000006 2942          CLRC      PAGE0,OVM             ; [CPU_ALU] 
    4561 00000007 5616          CLRC      AMODE                 ; [CPU_ALU] 
    4562 00000008 7625        ESTOP0
    4563 00000009       $C$L86:    
    4564                      .dwpsn  file "../DeviceSupport/source/f28003x_defaultisr.c",line 758,column 5,is_stmt,isa 0
    4565 00000009 6F00          B         $C$L86,UNC            ; [CPU_ALU] |758| 
    4566                      ; branch occurs ; [] |758| 
    4567                      .dwattr $C$DW$86, DW_AT_TI_end_file("../DeviceSupport/source/f28003x_defaultisr.c")
    4568                      .dwattr $C$DW$86, DW_AT_TI_end_line(0x2f7)
    4569                      .dwattr $C$DW$86, DW_AT_TI_end_column(0x01)
    4570                      .dwendentry
    4571                      .dwendtag $C$DW$86
    4572              
    4573 00000000               .sect   ".text:_EPWM1_TZ_ISR"
    4574                      .retain
    4575                      .retainrefs
    4576                      .global _EPWM1_TZ_ISR
    4577              
    4578              $C$DW$87        .dwtag  DW_TAG_subprogram
    4579                      .dwattr $C$DW$87, DW_AT_name("EPWM1_TZ_ISR")
    4580                      .dwattr $C$DW$87, DW_AT_low_pc(_EPWM1_TZ_ISR)
    4581                      .dwattr $C$DW$87, DW_AT_high_pc(0x00)
    4582                      .dwattr $C$DW$87, DW_AT_TI_symbol_name("_EPWM1_TZ_ISR")
    4583                      .dwattr $C$DW$87, DW_AT_external
    4584                      .dwattr $C$DW$87, DW_AT_TI_begin_file("../DeviceSupport/source/f28003x_defaultisr.c")
    4585                      .dwattr $C$DW$87, DW_AT_TI_begin_line(0x216)
    4586                      .dwattr $C$DW$87, DW_AT_TI_begin_column(0x10)
    4587                      .dwattr $C$DW$87, DW_AT_TI_interrupt
    4588                      .dwattr $C$DW$87, DW_AT_TI_max_frame_size(-6)
    4589                      .dwpsn  file "../DeviceSupport/source/f28003x_defaultisr.c",line 535,column 1,is_stmt,address _EPWM1_
    4590              
    4591                      .dwfde $C$DW$CIE, _EPWM1_TZ_ISR
    4592              
    4593              ;***************************************************************
    4594              ;* FNAME: _EPWM1_TZ_ISR                 FR SIZE:   4           *
    4595              ;*                                                             *
    4596              ;* FUNCTION ENVIRONMENT                                        *
    4597              ;*                                                             *
    4598              ;* FUNCTION PROPERTIES                                         *
    4599              ;*                            0 Parameter,  0 Auto,  4 SOE     *
    4600              ;***************************************************************
    4601              
    4602 00000000       _EPWM1_TZ_ISR:
    4603                      .dwcfi  cfa_offset, -2
    4604                      .dwcfi  save_reg_to_mem, 26, 0
    4605 00000000 761B          ASP       ; [CPU_ALU] 
    4606 00000001 FFF0          PUSH      RB                    ; [CPU_FPU] 
    4607                      .dwcfi  save_reg_to_mem, 74, 4
    4608                      .dwcfi  cfa_offset, -4
    4609 00000002 E200          MOV32     *SP++,STF             ; [CPU_FPU] 
         00000003 00BD 
    4610                      .dwcfi  save_reg_to_mem, 40, 6
    4611                      .dwcfi  cfa_offset, -6
    4612 00000004 E630          SETFLG    RNDF32=1, RNDF64=1    ; [CPU_FPU] 
TMS320C2000 Assembler PC v22.6.1 Wed May 21 09:51:54 2025

Copyright (c) 1996-2018 Texas Instruments Incorporated
C:\Users\Daniel\AppData\Local\Temp\{513EF8AD-E23E-4989-8EC9-611DE01417F7} PAGE   88

         00000005 0600 
    4613 00000006 2942          CLRC      PAGE0,OVM             ; [CPU_ALU] 
    4614 00000007 5616          CLRC      AMODE                 ; [CPU_ALU] 
    4615 00000008 7625        ESTOP0
    4616 00000009       $C$L87:    
    4617                      .dwpsn  file "../DeviceSupport/source/f28003x_defaultisr.c",line 551,column 5,is_stmt,isa 0
    4618 00000009 6F00          B         $C$L87,UNC            ; [CPU_ALU] |551| 
    4619                      ; branch occurs ; [] |551| 
    4620                      .dwattr $C$DW$87, DW_AT_TI_end_file("../DeviceSupport/source/f28003x_defaultisr.c")
    4621                      .dwattr $C$DW$87, DW_AT_TI_end_line(0x228)
    4622                      .dwattr $C$DW$87, DW_AT_TI_end_column(0x01)
    4623                      .dwendentry
    4624                      .dwendtag $C$DW$87
    4625              
    4626 00000000               .sect   ".text:_EPWM1_ISR"
    4627                      .retain
    4628                      .retainrefs
    4629                      .global _EPWM1_ISR
    4630              
    4631              $C$DW$88        .dwtag  DW_TAG_subprogram
    4632                      .dwattr $C$DW$88, DW_AT_name("EPWM1_ISR")
    4633                      .dwattr $C$DW$88, DW_AT_low_pc(_EPWM1_ISR)
    4634                      .dwattr $C$DW$88, DW_AT_high_pc(0x00)
    4635                      .dwattr $C$DW$88, DW_AT_TI_symbol_name("_EPWM1_ISR")
    4636                      .dwattr $C$DW$88, DW_AT_external
    4637                      .dwattr $C$DW$88, DW_AT_TI_begin_file("../DeviceSupport/source/f28003x_defaultisr.c")
    4638                      .dwattr $C$DW$88, DW_AT_TI_begin_line(0x2ce)
    4639                      .dwattr $C$DW$88, DW_AT_TI_begin_column(0x10)
    4640                      .dwattr $C$DW$88, DW_AT_TI_interrupt
    4641                      .dwattr $C$DW$88, DW_AT_TI_max_frame_size(-6)
    4642                      .dwpsn  file "../DeviceSupport/source/f28003x_defaultisr.c",line 719,column 1,is_stmt,address _EPWM1_
    4643              
    4644                      .dwfde $C$DW$CIE, _EPWM1_ISR
    4645              
    4646              ;***************************************************************
    4647              ;* FNAME: _EPWM1_ISR                    FR SIZE:   4           *
    4648              ;*                                                             *
    4649              ;* FUNCTION ENVIRONMENT                                        *
    4650              ;*                                                             *
    4651              ;* FUNCTION PROPERTIES                                         *
    4652              ;*                            0 Parameter,  0 Auto,  4 SOE     *
    4653              ;***************************************************************
    4654              
    4655 00000000       _EPWM1_ISR:
    4656                      .dwcfi  cfa_offset, -2
    4657                      .dwcfi  save_reg_to_mem, 26, 0
    4658 00000000 761B          ASP       ; [CPU_ALU] 
    4659 00000001 FFF0          PUSH      RB                    ; [CPU_FPU] 
    4660                      .dwcfi  save_reg_to_mem, 74, 4
    4661                      .dwcfi  cfa_offset, -4
    4662 00000002 E200          MOV32     *SP++,STF             ; [CPU_FPU] 
         00000003 00BD 
    4663                      .dwcfi  save_reg_to_mem, 40, 6
    4664                      .dwcfi  cfa_offset, -6
    4665 00000004 E630          SETFLG    RNDF32=1, RNDF64=1    ; [CPU_FPU] 
TMS320C2000 Assembler PC v22.6.1 Wed May 21 09:51:54 2025

Copyright (c) 1996-2018 Texas Instruments Incorporated
C:\Users\Daniel\AppData\Local\Temp\{513EF8AD-E23E-4989-8EC9-611DE01417F7} PAGE   89

         00000005 0600 
    4666 00000006 2942          CLRC      PAGE0,OVM             ; [CPU_ALU] 
    4667 00000007 5616          CLRC      AMODE                 ; [CPU_ALU] 
    4668 00000008 7625        ESTOP0
    4669 00000009       $C$L88:    
    4670                      .dwpsn  file "../DeviceSupport/source/f28003x_defaultisr.c",line 735,column 5,is_stmt,isa 0
    4671 00000009 6F00          B         $C$L88,UNC            ; [CPU_ALU] |735| 
    4672                      ; branch occurs ; [] |735| 
    4673                      .dwattr $C$DW$88, DW_AT_TI_end_file("../DeviceSupport/source/f28003x_defaultisr.c")
    4674                      .dwattr $C$DW$88, DW_AT_TI_end_line(0x2e0)
    4675                      .dwattr $C$DW$88, DW_AT_TI_end_column(0x01)
    4676                      .dwendentry
    4677                      .dwendtag $C$DW$88
    4678              
    4679 00000000               .sect   ".text:_EMU_ISR"
    4680                      .retain
    4681                      .retainrefs
    4682                      .global _EMU_ISR
    4683              
    4684              $C$DW$89        .dwtag  DW_TAG_subprogram
    4685                      .dwattr $C$DW$89, DW_AT_name("EMU_ISR")
    4686                      .dwattr $C$DW$89, DW_AT_low_pc(_EMU_ISR)
    4687                      .dwattr $C$DW$89, DW_AT_high_pc(0x00)
    4688                      .dwattr $C$DW$89, DW_AT_TI_symbol_name("_EMU_ISR")
    4689                      .dwattr $C$DW$89, DW_AT_external
    4690                      .dwattr $C$DW$89, DW_AT_TI_begin_file("../DeviceSupport/source/f28003x_defaultisr.c")
    4691                      .dwattr $C$DW$89, DW_AT_TI_begin_line(0x76)
    4692                      .dwattr $C$DW$89, DW_AT_TI_begin_column(0x10)
    4693                      .dwattr $C$DW$89, DW_AT_TI_interrupt
    4694                      .dwattr $C$DW$89, DW_AT_TI_max_frame_size(-6)
    4695                      .dwpsn  file "../DeviceSupport/source/f28003x_defaultisr.c",line 119,column 1,is_stmt,address _EMU_IS
    4696              
    4697                      .dwfde $C$DW$CIE, _EMU_ISR
    4698              
    4699              ;***************************************************************
    4700              ;* FNAME: _EMU_ISR                      FR SIZE:   4           *
    4701              ;*                                                             *
    4702              ;* FUNCTION ENVIRONMENT                                        *
    4703              ;*                                                             *
    4704              ;* FUNCTION PROPERTIES                                         *
    4705              ;*                            0 Parameter,  0 Auto,  4 SOE     *
    4706              ;***************************************************************
    4707              
    4708 00000000       _EMU_ISR:
    4709                      .dwcfi  cfa_offset, -2
    4710                      .dwcfi  save_reg_to_mem, 26, 0
    4711 00000000 761B          ASP       ; [CPU_ALU] 
    4712 00000001 FFF0          PUSH      RB                    ; [CPU_FPU] 
    4713                      .dwcfi  save_reg_to_mem, 74, 4
    4714                      .dwcfi  cfa_offset, -4
    4715 00000002 E200          MOV32     *SP++,STF             ; [CPU_FPU] 
         00000003 00BD 
    4716                      .dwcfi  save_reg_to_mem, 40, 6
    4717                      .dwcfi  cfa_offset, -6
    4718 00000004 E630          SETFLG    RNDF32=1, RNDF64=1    ; [CPU_FPU] 
TMS320C2000 Assembler PC v22.6.1 Wed May 21 09:51:54 2025

Copyright (c) 1996-2018 Texas Instruments Incorporated
C:\Users\Daniel\AppData\Local\Temp\{513EF8AD-E23E-4989-8EC9-611DE01417F7} PAGE   90

         00000005 0600 
    4719 00000006 2942          CLRC      PAGE0,OVM             ; [CPU_ALU] 
    4720 00000007 5616          CLRC      AMODE                 ; [CPU_ALU] 
    4721 00000008 7625        ESTOP0
    4722 00000009       $C$L89:    
    4723                      .dwpsn  file "../DeviceSupport/source/f28003x_defaultisr.c",line 129,column 5,is_stmt,isa 0
    4724 00000009 6F00          B         $C$L89,UNC            ; [CPU_ALU] |129| 
    4725                      ; branch occurs ; [] |129| 
    4726                      .dwattr $C$DW$89, DW_AT_TI_end_file("../DeviceSupport/source/f28003x_defaultisr.c")
    4727                      .dwattr $C$DW$89, DW_AT_TI_end_line(0x82)
    4728                      .dwattr $C$DW$89, DW_AT_TI_end_column(0x01)
    4729                      .dwendentry
    4730                      .dwendtag $C$DW$89
    4731              
    4732 00000000               .sect   ".text:_EMPTY_ISR"
    4733                      .retain
    4734                      .retainrefs
    4735                      .global _EMPTY_ISR
    4736              
    4737              $C$DW$90        .dwtag  DW_TAG_subprogram
    4738                      .dwattr $C$DW$90, DW_AT_name("EMPTY_ISR")
    4739                      .dwattr $C$DW$90, DW_AT_low_pc(_EMPTY_ISR)
    4740                      .dwattr $C$DW$90, DW_AT_high_pc(0x00)
    4741                      .dwattr $C$DW$90, DW_AT_TI_symbol_name("_EMPTY_ISR")
    4742                      .dwattr $C$DW$90, DW_AT_external
    4743                      .dwattr $C$DW$90, DW_AT_TI_begin_file("../DeviceSupport/source/f28003x_defaultisr.c")
    4744                      .dwattr $C$DW$90, DW_AT_TI_begin_line(0xbd7)
    4745                      .dwattr $C$DW$90, DW_AT_TI_begin_column(0x10)
    4746                      .dwattr $C$DW$90, DW_AT_TI_interrupt
    4747                      .dwattr $C$DW$90, DW_AT_TI_max_frame_size(-6)
    4748                      .dwpsn  file "../DeviceSupport/source/f28003x_defaultisr.c",line 3032,column 1,is_stmt,address _EMPTY
    4749              
    4750                      .dwfde $C$DW$CIE, _EMPTY_ISR
    4751              
    4752              ;***************************************************************
    4753              ;* FNAME: _EMPTY_ISR                    FR SIZE:   4           *
    4754              ;*                                                             *
    4755              ;* FUNCTION ENVIRONMENT                                        *
    4756              ;*                                                             *
    4757              ;* FUNCTION PROPERTIES                                         *
    4758              ;*                            0 Parameter,  0 Auto,  4 SOE     *
    4759              ;***************************************************************
    4760              
    4761 00000000       _EMPTY_ISR:
    4762                      .dwcfi  cfa_offset, -2
    4763                      .dwcfi  save_reg_to_mem, 26, 0
    4764 00000000 761B          ASP       ; [CPU_ALU] 
    4765 00000001 FFF0          PUSH      RB                    ; [CPU_FPU] 
    4766                      .dwcfi  save_reg_to_mem, 74, 4
    4767                      .dwcfi  cfa_offset, -4
    4768 00000002 E200          MOV32     *SP++,STF             ; [CPU_FPU] 
         00000003 00BD 
    4769                      .dwcfi  save_reg_to_mem, 40, 6
    4770                      .dwcfi  cfa_offset, -6
    4771 00000004 E630          SETFLG    RNDF32=1, RNDF64=1    ; [CPU_FPU] 
TMS320C2000 Assembler PC v22.6.1 Wed May 21 09:51:54 2025

Copyright (c) 1996-2018 Texas Instruments Incorporated
C:\Users\Daniel\AppData\Local\Temp\{513EF8AD-E23E-4989-8EC9-611DE01417F7} PAGE   91

         00000005 0600 
    4772 00000006 2942          CLRC      PAGE0,OVM             ; [CPU_ALU] 
    4773 00000007 5616          CLRC      AMODE                 ; [CPU_ALU] 
    4774 00000008 E280          MOV32     STF,*--SP             ; [CPU_FPU] 
         00000009 00BE 
    4775                      .dwcfi  cfa_offset, -4
    4776                      .dwcfi  restore_reg, 40
    4777 0000000a FFF1          POP       RB                    ; [CPU_FPU] 
    4778                      .dwcfi  cfa_offset, -2
    4779                      .dwcfi  restore_reg, 74
    4780 0000000b 7617          NASP      ; [CPU_ALU] 
    4781              $C$DW$91        .dwtag  DW_TAG_TI_branch
    4782                      .dwattr $C$DW$91, DW_AT_low_pc(0x00)
    4783                      .dwattr $C$DW$91, DW_AT_TI_return
    4784              
    4785 0000000c 7602          IRET      ; [CPU_ALU] 
    4786                      ; return occurs ; [] 
    4787                      .dwattr $C$DW$90, DW_AT_TI_end_file("../DeviceSupport/source/f28003x_defaultisr.c")
    4788                      .dwattr $C$DW$90, DW_AT_TI_end_line(0xbda)
    4789                      .dwattr $C$DW$90, DW_AT_TI_end_column(0x01)
    4790                      .dwendentry
    4791                      .dwendtag $C$DW$90
    4792              
    4793 00000000               .sect   ".text:_ECAP3_ISR"
    4794                      .retain
    4795                      .retainrefs
    4796                      .global _ECAP3_ISR
    4797              
    4798              $C$DW$92        .dwtag  DW_TAG_subprogram
    4799                      .dwattr $C$DW$92, DW_AT_name("ECAP3_ISR")
    4800                      .dwattr $C$DW$92, DW_AT_low_pc(_ECAP3_ISR)
    4801                      .dwattr $C$DW$92, DW_AT_high_pc(0x00)
    4802                      .dwattr $C$DW$92, DW_AT_TI_symbol_name("_ECAP3_ISR")
    4803                      .dwattr $C$DW$92, DW_AT_external
    4804                      .dwattr $C$DW$92, DW_AT_TI_begin_file("../DeviceSupport/source/f28003x_defaultisr.c")
    4805                      .dwattr $C$DW$92, DW_AT_TI_begin_line(0x3b4)
    4806                      .dwattr $C$DW$92, DW_AT_TI_begin_column(0x10)
    4807                      .dwattr $C$DW$92, DW_AT_TI_interrupt
    4808                      .dwattr $C$DW$92, DW_AT_TI_max_frame_size(-6)
    4809                      .dwpsn  file "../DeviceSupport/source/f28003x_defaultisr.c",line 949,column 1,is_stmt,address _ECAP3_
    4810              
    4811                      .dwfde $C$DW$CIE, _ECAP3_ISR
    4812              
    4813              ;***************************************************************
    4814              ;* FNAME: _ECAP3_ISR                    FR SIZE:   4           *
    4815              ;*                                                             *
    4816              ;* FUNCTION ENVIRONMENT                                        *
    4817              ;*                                                             *
    4818              ;* FUNCTION PROPERTIES                                         *
    4819              ;*                            0 Parameter,  0 Auto,  4 SOE     *
    4820              ;***************************************************************
    4821              
    4822 00000000       _ECAP3_ISR:
    4823                      .dwcfi  cfa_offset, -2
    4824                      .dwcfi  save_reg_to_mem, 26, 0
TMS320C2000 Assembler PC v22.6.1 Wed May 21 09:51:54 2025

Copyright (c) 1996-2018 Texas Instruments Incorporated
C:\Users\Daniel\AppData\Local\Temp\{513EF8AD-E23E-4989-8EC9-611DE01417F7} PAGE   92

    4825 00000000 761B          ASP       ; [CPU_ALU] 
    4826 00000001 FFF0          PUSH      RB                    ; [CPU_FPU] 
    4827                      .dwcfi  save_reg_to_mem, 74, 4
    4828                      .dwcfi  cfa_offset, -4
    4829 00000002 E200          MOV32     *SP++,STF             ; [CPU_FPU] 
         00000003 00BD 
    4830                      .dwcfi  save_reg_to_mem, 40, 6
    4831                      .dwcfi  cfa_offset, -6
    4832 00000004 E630          SETFLG    RNDF32=1, RNDF64=1    ; [CPU_FPU] 
         00000005 0600 
    4833 00000006 2942          CLRC      PAGE0,OVM             ; [CPU_ALU] 
    4834 00000007 5616          CLRC      AMODE                 ; [CPU_ALU] 
    4835 00000008 7625        ESTOP0
    4836 00000009       $C$L90:    
    4837                      .dwpsn  file "../DeviceSupport/source/f28003x_defaultisr.c",line 965,column 5,is_stmt,isa 0
    4838 00000009 6F00          B         $C$L90,UNC            ; [CPU_ALU] |965| 
    4839                      ; branch occurs ; [] |965| 
    4840                      .dwattr $C$DW$92, DW_AT_TI_end_file("../DeviceSupport/source/f28003x_defaultisr.c")
    4841                      .dwattr $C$DW$92, DW_AT_TI_end_line(0x3c6)
    4842                      .dwattr $C$DW$92, DW_AT_TI_end_column(0x01)
    4843                      .dwendentry
    4844                      .dwendtag $C$DW$92
    4845              
    4846 00000000               .sect   ".text:_ECAP3_2_ISR"
    4847                      .retain
    4848                      .retainrefs
    4849                      .global _ECAP3_2_ISR
    4850              
    4851              $C$DW$93        .dwtag  DW_TAG_subprogram
    4852                      .dwattr $C$DW$93, DW_AT_name("ECAP3_2_ISR")
    4853                      .dwattr $C$DW$93, DW_AT_low_pc(_ECAP3_2_ISR)
    4854                      .dwattr $C$DW$93, DW_AT_high_pc(0x00)
    4855                      .dwattr $C$DW$93, DW_AT_TI_symbol_name("_ECAP3_2_ISR")
    4856                      .dwattr $C$DW$93, DW_AT_external
    4857                      .dwattr $C$DW$93, DW_AT_TI_begin_file("../DeviceSupport/source/f28003x_defaultisr.c")
    4858                      .dwattr $C$DW$93, DW_AT_TI_begin_line(0x849)
    4859                      .dwattr $C$DW$93, DW_AT_TI_begin_column(0x10)
    4860                      .dwattr $C$DW$93, DW_AT_TI_interrupt
    4861                      .dwattr $C$DW$93, DW_AT_TI_max_frame_size(-6)
    4862                      .dwpsn  file "../DeviceSupport/source/f28003x_defaultisr.c",line 2122,column 1,is_stmt,address _ECAP3
    4863              
    4864                      .dwfde $C$DW$CIE, _ECAP3_2_ISR
    4865              
    4866              ;***************************************************************
    4867              ;* FNAME: _ECAP3_2_ISR                  FR SIZE:   4           *
    4868              ;*                                                             *
    4869              ;* FUNCTION ENVIRONMENT                                        *
    4870              ;*                                                             *
    4871              ;* FUNCTION PROPERTIES                                         *
    4872              ;*                            0 Parameter,  0 Auto,  4 SOE     *
    4873              ;***************************************************************
    4874              
    4875 00000000       _ECAP3_2_ISR:
    4876                      .dwcfi  cfa_offset, -2
    4877                      .dwcfi  save_reg_to_mem, 26, 0
TMS320C2000 Assembler PC v22.6.1 Wed May 21 09:51:54 2025

Copyright (c) 1996-2018 Texas Instruments Incorporated
C:\Users\Daniel\AppData\Local\Temp\{513EF8AD-E23E-4989-8EC9-611DE01417F7} PAGE   93

    4878 00000000 761B          ASP       ; [CPU_ALU] 
    4879 00000001 FFF0          PUSH      RB                    ; [CPU_FPU] 
    4880                      .dwcfi  save_reg_to_mem, 74, 4
    4881                      .dwcfi  cfa_offset, -4
    4882 00000002 E200          MOV32     *SP++,STF             ; [CPU_FPU] 
         00000003 00BD 
    4883                      .dwcfi  save_reg_to_mem, 40, 6
    4884                      .dwcfi  cfa_offset, -6
    4885 00000004 E630          SETFLG    RNDF32=1, RNDF64=1    ; [CPU_FPU] 
         00000005 0600 
    4886 00000006 2942          CLRC      PAGE0,OVM             ; [CPU_ALU] 
    4887 00000007 5616          CLRC      AMODE                 ; [CPU_ALU] 
    4888 00000008 7625        ESTOP0
    4889 00000009       $C$L91:    
    4890                      .dwpsn  file "../DeviceSupport/source/f28003x_defaultisr.c",line 2138,column 5,is_stmt,isa 0
    4891 00000009 6F00          B         $C$L91,UNC            ; [CPU_ALU] |2138| 
    4892                      ; branch occurs ; [] |2138| 
    4893                      .dwattr $C$DW$93, DW_AT_TI_end_file("../DeviceSupport/source/f28003x_defaultisr.c")
    4894                      .dwattr $C$DW$93, DW_AT_TI_end_line(0x85b)
    4895                      .dwattr $C$DW$93, DW_AT_TI_end_column(0x01)
    4896                      .dwendentry
    4897                      .dwendtag $C$DW$93
    4898              
    4899 00000000               .sect   ".text:_ECAP2_ISR"
    4900                      .retain
    4901                      .retainrefs
    4902                      .global _ECAP2_ISR
    4903              
    4904              $C$DW$94        .dwtag  DW_TAG_subprogram
    4905                      .dwattr $C$DW$94, DW_AT_name("ECAP2_ISR")
    4906                      .dwattr $C$DW$94, DW_AT_low_pc(_ECAP2_ISR)
    4907                      .dwattr $C$DW$94, DW_AT_high_pc(0x00)
    4908                      .dwattr $C$DW$94, DW_AT_TI_symbol_name("_ECAP2_ISR")
    4909                      .dwattr $C$DW$94, DW_AT_external
    4910                      .dwattr $C$DW$94, DW_AT_TI_begin_file("../DeviceSupport/source/f28003x_defaultisr.c")
    4911                      .dwattr $C$DW$94, DW_AT_TI_begin_line(0x39d)
    4912                      .dwattr $C$DW$94, DW_AT_TI_begin_column(0x10)
    4913                      .dwattr $C$DW$94, DW_AT_TI_interrupt
    4914                      .dwattr $C$DW$94, DW_AT_TI_max_frame_size(-6)
    4915                      .dwpsn  file "../DeviceSupport/source/f28003x_defaultisr.c",line 926,column 1,is_stmt,address _ECAP2_
    4916              
    4917                      .dwfde $C$DW$CIE, _ECAP2_ISR
    4918              
    4919              ;***************************************************************
    4920              ;* FNAME: _ECAP2_ISR                    FR SIZE:   4           *
    4921              ;*                                                             *
    4922              ;* FUNCTION ENVIRONMENT                                        *
    4923              ;*                                                             *
    4924              ;* FUNCTION PROPERTIES                                         *
    4925              ;*                            0 Parameter,  0 Auto,  4 SOE     *
    4926              ;***************************************************************
    4927              
    4928 00000000       _ECAP2_ISR:
    4929                      .dwcfi  cfa_offset, -2
    4930                      .dwcfi  save_reg_to_mem, 26, 0
TMS320C2000 Assembler PC v22.6.1 Wed May 21 09:51:54 2025

Copyright (c) 1996-2018 Texas Instruments Incorporated
C:\Users\Daniel\AppData\Local\Temp\{513EF8AD-E23E-4989-8EC9-611DE01417F7} PAGE   94

    4931 00000000 761B          ASP       ; [CPU_ALU] 
    4932 00000001 FFF0          PUSH      RB                    ; [CPU_FPU] 
    4933                      .dwcfi  save_reg_to_mem, 74, 4
    4934                      .dwcfi  cfa_offset, -4
    4935 00000002 E200          MOV32     *SP++,STF             ; [CPU_FPU] 
         00000003 00BD 
    4936                      .dwcfi  save_reg_to_mem, 40, 6
    4937                      .dwcfi  cfa_offset, -6
    4938 00000004 E630          SETFLG    RNDF32=1, RNDF64=1    ; [CPU_FPU] 
         00000005 0600 
    4939 00000006 2942          CLRC      PAGE0,OVM             ; [CPU_ALU] 
    4940 00000007 5616          CLRC      AMODE                 ; [CPU_ALU] 
    4941 00000008 7625        ESTOP0
    4942 00000009       $C$L92:    
    4943                      .dwpsn  file "../DeviceSupport/source/f28003x_defaultisr.c",line 942,column 5,is_stmt,isa 0
    4944 00000009 6F00          B         $C$L92,UNC            ; [CPU_ALU] |942| 
    4945                      ; branch occurs ; [] |942| 
    4946                      .dwattr $C$DW$94, DW_AT_TI_end_file("../DeviceSupport/source/f28003x_defaultisr.c")
    4947                      .dwattr $C$DW$94, DW_AT_TI_end_line(0x3af)
    4948                      .dwattr $C$DW$94, DW_AT_TI_end_column(0x01)
    4949                      .dwendentry
    4950                      .dwendtag $C$DW$94
    4951              
    4952 00000000               .sect   ".text:_ECAP1_ISR"
    4953                      .retain
    4954                      .retainrefs
    4955                      .global _ECAP1_ISR
    4956              
    4957              $C$DW$95        .dwtag  DW_TAG_subprogram
    4958                      .dwattr $C$DW$95, DW_AT_name("ECAP1_ISR")
    4959                      .dwattr $C$DW$95, DW_AT_low_pc(_ECAP1_ISR)
    4960                      .dwattr $C$DW$95, DW_AT_high_pc(0x00)
    4961                      .dwattr $C$DW$95, DW_AT_TI_symbol_name("_ECAP1_ISR")
    4962                      .dwattr $C$DW$95, DW_AT_external
    4963                      .dwattr $C$DW$95, DW_AT_TI_begin_file("../DeviceSupport/source/f28003x_defaultisr.c")
    4964                      .dwattr $C$DW$95, DW_AT_TI_begin_line(0x386)
    4965                      .dwattr $C$DW$95, DW_AT_TI_begin_column(0x10)
    4966                      .dwattr $C$DW$95, DW_AT_TI_interrupt
    4967                      .dwattr $C$DW$95, DW_AT_TI_max_frame_size(-6)
    4968                      .dwpsn  file "../DeviceSupport/source/f28003x_defaultisr.c",line 903,column 1,is_stmt,address _ECAP1_
    4969              
    4970                      .dwfde $C$DW$CIE, _ECAP1_ISR
    4971              
    4972              ;***************************************************************
    4973              ;* FNAME: _ECAP1_ISR                    FR SIZE:   4           *
    4974              ;*                                                             *
    4975              ;* FUNCTION ENVIRONMENT                                        *
    4976              ;*                                                             *
    4977              ;* FUNCTION PROPERTIES                                         *
    4978              ;*                            0 Parameter,  0 Auto,  4 SOE     *
    4979              ;***************************************************************
    4980              
    4981 00000000       _ECAP1_ISR:
    4982                      .dwcfi  cfa_offset, -2
    4983                      .dwcfi  save_reg_to_mem, 26, 0
TMS320C2000 Assembler PC v22.6.1 Wed May 21 09:51:54 2025

Copyright (c) 1996-2018 Texas Instruments Incorporated
C:\Users\Daniel\AppData\Local\Temp\{513EF8AD-E23E-4989-8EC9-611DE01417F7} PAGE   95

    4984 00000000 761B          ASP       ; [CPU_ALU] 
    4985 00000001 FFF0          PUSH      RB                    ; [CPU_FPU] 
    4986                      .dwcfi  save_reg_to_mem, 74, 4
    4987                      .dwcfi  cfa_offset, -4
    4988 00000002 E200          MOV32     *SP++,STF             ; [CPU_FPU] 
         00000003 00BD 
    4989                      .dwcfi  save_reg_to_mem, 40, 6
    4990                      .dwcfi  cfa_offset, -6
    4991 00000004 E630          SETFLG    RNDF32=1, RNDF64=1    ; [CPU_FPU] 
         00000005 0600 
    4992 00000006 2942          CLRC      PAGE0,OVM             ; [CPU_ALU] 
    4993 00000007 5616          CLRC      AMODE                 ; [CPU_ALU] 
    4994 00000008 7625        ESTOP0
    4995 00000009       $C$L93:    
    4996                      .dwpsn  file "../DeviceSupport/source/f28003x_defaultisr.c",line 919,column 5,is_stmt,isa 0
    4997 00000009 6F00          B         $C$L93,UNC            ; [CPU_ALU] |919| 
    4998                      ; branch occurs ; [] |919| 
    4999                      .dwattr $C$DW$95, DW_AT_TI_end_file("../DeviceSupport/source/f28003x_defaultisr.c")
    5000                      .dwattr $C$DW$95, DW_AT_TI_end_line(0x398)
    5001                      .dwattr $C$DW$95, DW_AT_TI_end_column(0x01)
    5002                      .dwendentry
    5003                      .dwendtag $C$DW$95
    5004              
    5005 00000000               .sect   ".text:_DMA_CH6_ISR"
    5006                      .retain
    5007                      .retainrefs
    5008                      .global _DMA_CH6_ISR
    5009              
    5010              $C$DW$96        .dwtag  DW_TAG_subprogram
    5011                      .dwattr $C$DW$96, DW_AT_name("DMA_CH6_ISR")
    5012                      .dwattr $C$DW$96, DW_AT_low_pc(_DMA_CH6_ISR)
    5013                      .dwattr $C$DW$96, DW_AT_high_pc(0x00)
    5014                      .dwattr $C$DW$96, DW_AT_TI_symbol_name("_DMA_CH6_ISR")
    5015                      .dwattr $C$DW$96, DW_AT_external
    5016                      .dwattr $C$DW$96, DW_AT_TI_begin_file("../DeviceSupport/source/f28003x_defaultisr.c")
    5017                      .dwattr $C$DW$96, DW_AT_TI_begin_line(0x524)
    5018                      .dwattr $C$DW$96, DW_AT_TI_begin_column(0x10)
    5019                      .dwattr $C$DW$96, DW_AT_TI_interrupt
    5020                      .dwattr $C$DW$96, DW_AT_TI_max_frame_size(-6)
    5021                      .dwpsn  file "../DeviceSupport/source/f28003x_defaultisr.c",line 1317,column 1,is_stmt,address _DMA_C
    5022              
    5023                      .dwfde $C$DW$CIE, _DMA_CH6_ISR
    5024              
    5025              ;***************************************************************
    5026              ;* FNAME: _DMA_CH6_ISR                  FR SIZE:   4           *
    5027              ;*                                                             *
    5028              ;* FUNCTION ENVIRONMENT                                        *
    5029              ;*                                                             *
    5030              ;* FUNCTION PROPERTIES                                         *
    5031              ;*                            0 Parameter,  0 Auto,  4 SOE     *
    5032              ;***************************************************************
    5033              
    5034 00000000       _DMA_CH6_ISR:
    5035                      .dwcfi  cfa_offset, -2
    5036                      .dwcfi  save_reg_to_mem, 26, 0
TMS320C2000 Assembler PC v22.6.1 Wed May 21 09:51:54 2025

Copyright (c) 1996-2018 Texas Instruments Incorporated
C:\Users\Daniel\AppData\Local\Temp\{513EF8AD-E23E-4989-8EC9-611DE01417F7} PAGE   96

    5037 00000000 761B          ASP       ; [CPU_ALU] 
    5038 00000001 FFF0          PUSH      RB                    ; [CPU_FPU] 
    5039                      .dwcfi  save_reg_to_mem, 74, 4
    5040                      .dwcfi  cfa_offset, -4
    5041 00000002 E200          MOV32     *SP++,STF             ; [CPU_FPU] 
         00000003 00BD 
    5042                      .dwcfi  save_reg_to_mem, 40, 6
    5043                      .dwcfi  cfa_offset, -6
    5044 00000004 E630          SETFLG    RNDF32=1, RNDF64=1    ; [CPU_FPU] 
         00000005 0600 
    5045 00000006 2942          CLRC      PAGE0,OVM             ; [CPU_ALU] 
    5046 00000007 5616          CLRC      AMODE                 ; [CPU_ALU] 
    5047 00000008 7625        ESTOP0
    5048 00000009       $C$L94:    
    5049                      .dwpsn  file "../DeviceSupport/source/f28003x_defaultisr.c",line 1333,column 5,is_stmt,isa 0
    5050 00000009 6F00          B         $C$L94,UNC            ; [CPU_ALU] |1333| 
    5051                      ; branch occurs ; [] |1333| 
    5052                      .dwattr $C$DW$96, DW_AT_TI_end_file("../DeviceSupport/source/f28003x_defaultisr.c")
    5053                      .dwattr $C$DW$96, DW_AT_TI_end_line(0x536)
    5054                      .dwattr $C$DW$96, DW_AT_TI_end_column(0x01)
    5055                      .dwendentry
    5056                      .dwendtag $C$DW$96
    5057              
    5058 00000000               .sect   ".text:_DMA_CH5_ISR"
    5059                      .retain
    5060                      .retainrefs
    5061                      .global _DMA_CH5_ISR
    5062              
    5063              $C$DW$97        .dwtag  DW_TAG_subprogram
    5064                      .dwattr $C$DW$97, DW_AT_name("DMA_CH5_ISR")
    5065                      .dwattr $C$DW$97, DW_AT_low_pc(_DMA_CH5_ISR)
    5066                      .dwattr $C$DW$97, DW_AT_high_pc(0x00)
    5067                      .dwattr $C$DW$97, DW_AT_TI_symbol_name("_DMA_CH5_ISR")
    5068                      .dwattr $C$DW$97, DW_AT_external
    5069                      .dwattr $C$DW$97, DW_AT_TI_begin_file("../DeviceSupport/source/f28003x_defaultisr.c")
    5070                      .dwattr $C$DW$97, DW_AT_TI_begin_line(0x50d)
    5071                      .dwattr $C$DW$97, DW_AT_TI_begin_column(0x10)
    5072                      .dwattr $C$DW$97, DW_AT_TI_interrupt
    5073                      .dwattr $C$DW$97, DW_AT_TI_max_frame_size(-6)
    5074                      .dwpsn  file "../DeviceSupport/source/f28003x_defaultisr.c",line 1294,column 1,is_stmt,address _DMA_C
    5075              
    5076                      .dwfde $C$DW$CIE, _DMA_CH5_ISR
    5077              
    5078              ;***************************************************************
    5079              ;* FNAME: _DMA_CH5_ISR                  FR SIZE:   4           *
    5080              ;*                                                             *
    5081              ;* FUNCTION ENVIRONMENT                                        *
    5082              ;*                                                             *
    5083              ;* FUNCTION PROPERTIES                                         *
    5084              ;*                            0 Parameter,  0 Auto,  4 SOE     *
    5085              ;***************************************************************
    5086              
    5087 00000000       _DMA_CH5_ISR:
    5088                      .dwcfi  cfa_offset, -2
    5089                      .dwcfi  save_reg_to_mem, 26, 0
TMS320C2000 Assembler PC v22.6.1 Wed May 21 09:51:54 2025

Copyright (c) 1996-2018 Texas Instruments Incorporated
C:\Users\Daniel\AppData\Local\Temp\{513EF8AD-E23E-4989-8EC9-611DE01417F7} PAGE   97

    5090 00000000 761B          ASP       ; [CPU_ALU] 
    5091 00000001 FFF0          PUSH      RB                    ; [CPU_FPU] 
    5092                      .dwcfi  save_reg_to_mem, 74, 4
    5093                      .dwcfi  cfa_offset, -4
    5094 00000002 E200          MOV32     *SP++,STF             ; [CPU_FPU] 
         00000003 00BD 
    5095                      .dwcfi  save_reg_to_mem, 40, 6
    5096                      .dwcfi  cfa_offset, -6
    5097 00000004 E630          SETFLG    RNDF32=1, RNDF64=1    ; [CPU_FPU] 
         00000005 0600 
    5098 00000006 2942          CLRC      PAGE0,OVM             ; [CPU_ALU] 
    5099 00000007 5616          CLRC      AMODE                 ; [CPU_ALU] 
    5100 00000008 7625        ESTOP0
    5101 00000009       $C$L95:    
    5102                      .dwpsn  file "../DeviceSupport/source/f28003x_defaultisr.c",line 1310,column 5,is_stmt,isa 0
    5103 00000009 6F00          B         $C$L95,UNC            ; [CPU_ALU] |1310| 
    5104                      ; branch occurs ; [] |1310| 
    5105                      .dwattr $C$DW$97, DW_AT_TI_end_file("../DeviceSupport/source/f28003x_defaultisr.c")
    5106                      .dwattr $C$DW$97, DW_AT_TI_end_line(0x51f)
    5107                      .dwattr $C$DW$97, DW_AT_TI_end_column(0x01)
    5108                      .dwendentry
    5109                      .dwendtag $C$DW$97
    5110              
    5111 00000000               .sect   ".text:_DMA_CH4_ISR"
    5112                      .retain
    5113                      .retainrefs
    5114                      .global _DMA_CH4_ISR
    5115              
    5116              $C$DW$98        .dwtag  DW_TAG_subprogram
    5117                      .dwattr $C$DW$98, DW_AT_name("DMA_CH4_ISR")
    5118                      .dwattr $C$DW$98, DW_AT_low_pc(_DMA_CH4_ISR)
    5119                      .dwattr $C$DW$98, DW_AT_high_pc(0x00)
    5120                      .dwattr $C$DW$98, DW_AT_TI_symbol_name("_DMA_CH4_ISR")
    5121                      .dwattr $C$DW$98, DW_AT_external
    5122                      .dwattr $C$DW$98, DW_AT_TI_begin_file("../DeviceSupport/source/f28003x_defaultisr.c")
    5123                      .dwattr $C$DW$98, DW_AT_TI_begin_line(0x4f6)
    5124                      .dwattr $C$DW$98, DW_AT_TI_begin_column(0x10)
    5125                      .dwattr $C$DW$98, DW_AT_TI_interrupt
    5126                      .dwattr $C$DW$98, DW_AT_TI_max_frame_size(-6)
    5127                      .dwpsn  file "../DeviceSupport/source/f28003x_defaultisr.c",line 1271,column 1,is_stmt,address _DMA_C
    5128              
    5129                      .dwfde $C$DW$CIE, _DMA_CH4_ISR
    5130              
    5131              ;***************************************************************
    5132              ;* FNAME: _DMA_CH4_ISR                  FR SIZE:   4           *
    5133              ;*                                                             *
    5134              ;* FUNCTION ENVIRONMENT                                        *
    5135              ;*                                                             *
    5136              ;* FUNCTION PROPERTIES                                         *
    5137              ;*                            0 Parameter,  0 Auto,  4 SOE     *
    5138              ;***************************************************************
    5139              
    5140 00000000       _DMA_CH4_ISR:
    5141                      .dwcfi  cfa_offset, -2
    5142                      .dwcfi  save_reg_to_mem, 26, 0
TMS320C2000 Assembler PC v22.6.1 Wed May 21 09:51:54 2025

Copyright (c) 1996-2018 Texas Instruments Incorporated
C:\Users\Daniel\AppData\Local\Temp\{513EF8AD-E23E-4989-8EC9-611DE01417F7} PAGE   98

    5143 00000000 761B          ASP       ; [CPU_ALU] 
    5144 00000001 FFF0          PUSH      RB                    ; [CPU_FPU] 
    5145                      .dwcfi  save_reg_to_mem, 74, 4
    5146                      .dwcfi  cfa_offset, -4
    5147 00000002 E200          MOV32     *SP++,STF             ; [CPU_FPU] 
         00000003 00BD 
    5148                      .dwcfi  save_reg_to_mem, 40, 6
    5149                      .dwcfi  cfa_offset, -6
    5150 00000004 E630          SETFLG    RNDF32=1, RNDF64=1    ; [CPU_FPU] 
         00000005 0600 
    5151 00000006 2942          CLRC      PAGE0,OVM             ; [CPU_ALU] 
    5152 00000007 5616          CLRC      AMODE                 ; [CPU_ALU] 
    5153 00000008 7625        ESTOP0
    5154 00000009       $C$L96:    
    5155                      .dwpsn  file "../DeviceSupport/source/f28003x_defaultisr.c",line 1287,column 5,is_stmt,isa 0
    5156 00000009 6F00          B         $C$L96,UNC            ; [CPU_ALU] |1287| 
    5157                      ; branch occurs ; [] |1287| 
    5158                      .dwattr $C$DW$98, DW_AT_TI_end_file("../DeviceSupport/source/f28003x_defaultisr.c")
    5159                      .dwattr $C$DW$98, DW_AT_TI_end_line(0x508)
    5160                      .dwattr $C$DW$98, DW_AT_TI_end_column(0x01)
    5161                      .dwendentry
    5162                      .dwendtag $C$DW$98
    5163              
    5164 00000000               .sect   ".text:_DMA_CH3_ISR"
    5165                      .retain
    5166                      .retainrefs
    5167                      .global _DMA_CH3_ISR
    5168              
    5169              $C$DW$99        .dwtag  DW_TAG_subprogram
    5170                      .dwattr $C$DW$99, DW_AT_name("DMA_CH3_ISR")
    5171                      .dwattr $C$DW$99, DW_AT_low_pc(_DMA_CH3_ISR)
    5172                      .dwattr $C$DW$99, DW_AT_high_pc(0x00)
    5173                      .dwattr $C$DW$99, DW_AT_TI_symbol_name("_DMA_CH3_ISR")
    5174                      .dwattr $C$DW$99, DW_AT_external
    5175                      .dwattr $C$DW$99, DW_AT_TI_begin_file("../DeviceSupport/source/f28003x_defaultisr.c")
    5176                      .dwattr $C$DW$99, DW_AT_TI_begin_line(0x4df)
    5177                      .dwattr $C$DW$99, DW_AT_TI_begin_column(0x10)
    5178                      .dwattr $C$DW$99, DW_AT_TI_interrupt
    5179                      .dwattr $C$DW$99, DW_AT_TI_max_frame_size(-6)
    5180                      .dwpsn  file "../DeviceSupport/source/f28003x_defaultisr.c",line 1248,column 1,is_stmt,address _DMA_C
    5181              
    5182                      .dwfde $C$DW$CIE, _DMA_CH3_ISR
    5183              
    5184              ;***************************************************************
    5185              ;* FNAME: _DMA_CH3_ISR                  FR SIZE:   4           *
    5186              ;*                                                             *
    5187              ;* FUNCTION ENVIRONMENT                                        *
    5188              ;*                                                             *
    5189              ;* FUNCTION PROPERTIES                                         *
    5190              ;*                            0 Parameter,  0 Auto,  4 SOE     *
    5191              ;***************************************************************
    5192              
    5193 00000000       _DMA_CH3_ISR:
    5194                      .dwcfi  cfa_offset, -2
    5195                      .dwcfi  save_reg_to_mem, 26, 0
TMS320C2000 Assembler PC v22.6.1 Wed May 21 09:51:54 2025

Copyright (c) 1996-2018 Texas Instruments Incorporated
C:\Users\Daniel\AppData\Local\Temp\{513EF8AD-E23E-4989-8EC9-611DE01417F7} PAGE   99

    5196 00000000 761B          ASP       ; [CPU_ALU] 
    5197 00000001 FFF0          PUSH      RB                    ; [CPU_FPU] 
    5198                      .dwcfi  save_reg_to_mem, 74, 4
    5199                      .dwcfi  cfa_offset, -4
    5200 00000002 E200          MOV32     *SP++,STF             ; [CPU_FPU] 
         00000003 00BD 
    5201                      .dwcfi  save_reg_to_mem, 40, 6
    5202                      .dwcfi  cfa_offset, -6
    5203 00000004 E630          SETFLG    RNDF32=1, RNDF64=1    ; [CPU_FPU] 
         00000005 0600 
    5204 00000006 2942          CLRC      PAGE0,OVM             ; [CPU_ALU] 
    5205 00000007 5616          CLRC      AMODE                 ; [CPU_ALU] 
    5206 00000008 7625        ESTOP0
    5207 00000009       $C$L97:    
    5208                      .dwpsn  file "../DeviceSupport/source/f28003x_defaultisr.c",line 1264,column 5,is_stmt,isa 0
    5209 00000009 6F00          B         $C$L97,UNC            ; [CPU_ALU] |1264| 
    5210                      ; branch occurs ; [] |1264| 
    5211                      .dwattr $C$DW$99, DW_AT_TI_end_file("../DeviceSupport/source/f28003x_defaultisr.c")
    5212                      .dwattr $C$DW$99, DW_AT_TI_end_line(0x4f1)
    5213                      .dwattr $C$DW$99, DW_AT_TI_end_column(0x01)
    5214                      .dwendentry
    5215                      .dwendtag $C$DW$99
    5216              
    5217 00000000               .sect   ".text:_DMA_CH2_ISR"
    5218                      .retain
    5219                      .retainrefs
    5220                      .global _DMA_CH2_ISR
    5221              
    5222              $C$DW$100       .dwtag  DW_TAG_subprogram
    5223                      .dwattr $C$DW$100, DW_AT_name("DMA_CH2_ISR")
    5224                      .dwattr $C$DW$100, DW_AT_low_pc(_DMA_CH2_ISR)
    5225                      .dwattr $C$DW$100, DW_AT_high_pc(0x00)
    5226                      .dwattr $C$DW$100, DW_AT_TI_symbol_name("_DMA_CH2_ISR")
    5227                      .dwattr $C$DW$100, DW_AT_external
    5228                      .dwattr $C$DW$100, DW_AT_TI_begin_file("../DeviceSupport/source/f28003x_defaultisr.c")
    5229                      .dwattr $C$DW$100, DW_AT_TI_begin_line(0x4c8)
    5230                      .dwattr $C$DW$100, DW_AT_TI_begin_column(0x10)
    5231                      .dwattr $C$DW$100, DW_AT_TI_interrupt
    5232                      .dwattr $C$DW$100, DW_AT_TI_max_frame_size(-6)
    5233                      .dwpsn  file "../DeviceSupport/source/f28003x_defaultisr.c",line 1225,column 1,is_stmt,address _DMA_C
    5234              
    5235                      .dwfde $C$DW$CIE, _DMA_CH2_ISR
    5236              
    5237              ;***************************************************************
    5238              ;* FNAME: _DMA_CH2_ISR                  FR SIZE:   4           *
    5239              ;*                                                             *
    5240              ;* FUNCTION ENVIRONMENT                                        *
    5241              ;*                                                             *
    5242              ;* FUNCTION PROPERTIES                                         *
    5243              ;*                            0 Parameter,  0 Auto,  4 SOE     *
    5244              ;***************************************************************
    5245              
    5246 00000000       _DMA_CH2_ISR:
    5247                      .dwcfi  cfa_offset, -2
    5248                      .dwcfi  save_reg_to_mem, 26, 0
TMS320C2000 Assembler PC v22.6.1 Wed May 21 09:51:54 2025

Copyright (c) 1996-2018 Texas Instruments Incorporated
C:\Users\Daniel\AppData\Local\Temp\{513EF8AD-E23E-4989-8EC9-611DE01417F7} PAGE  100

    5249 00000000 761B          ASP       ; [CPU_ALU] 
    5250 00000001 FFF0          PUSH      RB                    ; [CPU_FPU] 
    5251                      .dwcfi  save_reg_to_mem, 74, 4
    5252                      .dwcfi  cfa_offset, -4
    5253 00000002 E200          MOV32     *SP++,STF             ; [CPU_FPU] 
         00000003 00BD 
    5254                      .dwcfi  save_reg_to_mem, 40, 6
    5255                      .dwcfi  cfa_offset, -6
    5256 00000004 E630          SETFLG    RNDF32=1, RNDF64=1    ; [CPU_FPU] 
         00000005 0600 
    5257 00000006 2942          CLRC      PAGE0,OVM             ; [CPU_ALU] 
    5258 00000007 5616          CLRC      AMODE                 ; [CPU_ALU] 
    5259 00000008 7625        ESTOP0
    5260 00000009       $C$L98:    
    5261                      .dwpsn  file "../DeviceSupport/source/f28003x_defaultisr.c",line 1241,column 5,is_stmt,isa 0
    5262 00000009 6F00          B         $C$L98,UNC            ; [CPU_ALU] |1241| 
    5263                      ; branch occurs ; [] |1241| 
    5264                      .dwattr $C$DW$100, DW_AT_TI_end_file("../DeviceSupport/source/f28003x_defaultisr.c")
    5265                      .dwattr $C$DW$100, DW_AT_TI_end_line(0x4da)
    5266                      .dwattr $C$DW$100, DW_AT_TI_end_column(0x01)
    5267                      .dwendentry
    5268                      .dwendtag $C$DW$100
    5269              
    5270 00000000               .sect   ".text:_DMA_CH1_ISR"
    5271                      .retain
    5272                      .retainrefs
    5273                      .global _DMA_CH1_ISR
    5274              
    5275              $C$DW$101       .dwtag  DW_TAG_subprogram
    5276                      .dwattr $C$DW$101, DW_AT_name("DMA_CH1_ISR")
    5277                      .dwattr $C$DW$101, DW_AT_low_pc(_DMA_CH1_ISR)
    5278                      .dwattr $C$DW$101, DW_AT_high_pc(0x00)
    5279                      .dwattr $C$DW$101, DW_AT_TI_symbol_name("_DMA_CH1_ISR")
    5280                      .dwattr $C$DW$101, DW_AT_external
    5281                      .dwattr $C$DW$101, DW_AT_TI_begin_file("../DeviceSupport/source/f28003x_defaultisr.c")
    5282                      .dwattr $C$DW$101, DW_AT_TI_begin_line(0x4b1)
    5283                      .dwattr $C$DW$101, DW_AT_TI_begin_column(0x10)
    5284                      .dwattr $C$DW$101, DW_AT_TI_interrupt
    5285                      .dwattr $C$DW$101, DW_AT_TI_max_frame_size(-6)
    5286                      .dwpsn  file "../DeviceSupport/source/f28003x_defaultisr.c",line 1202,column 1,is_stmt,address _DMA_C
    5287              
    5288                      .dwfde $C$DW$CIE, _DMA_CH1_ISR
    5289              
    5290              ;***************************************************************
    5291              ;* FNAME: _DMA_CH1_ISR                  FR SIZE:   4           *
    5292              ;*                                                             *
    5293              ;* FUNCTION ENVIRONMENT                                        *
    5294              ;*                                                             *
    5295              ;* FUNCTION PROPERTIES                                         *
    5296              ;*                            0 Parameter,  0 Auto,  4 SOE     *
    5297              ;***************************************************************
    5298              
    5299 00000000       _DMA_CH1_ISR:
    5300                      .dwcfi  cfa_offset, -2
    5301                      .dwcfi  save_reg_to_mem, 26, 0
TMS320C2000 Assembler PC v22.6.1 Wed May 21 09:51:54 2025

Copyright (c) 1996-2018 Texas Instruments Incorporated
C:\Users\Daniel\AppData\Local\Temp\{513EF8AD-E23E-4989-8EC9-611DE01417F7} PAGE  101

    5302 00000000 761B          ASP       ; [CPU_ALU] 
    5303 00000001 FFF0          PUSH      RB                    ; [CPU_FPU] 
    5304                      .dwcfi  save_reg_to_mem, 74, 4
    5305                      .dwcfi  cfa_offset, -4
    5306 00000002 E200          MOV32     *SP++,STF             ; [CPU_FPU] 
         00000003 00BD 
    5307                      .dwcfi  save_reg_to_mem, 40, 6
    5308                      .dwcfi  cfa_offset, -6
    5309 00000004 E630          SETFLG    RNDF32=1, RNDF64=1    ; [CPU_FPU] 
         00000005 0600 
    5310 00000006 2942          CLRC      PAGE0,OVM             ; [CPU_ALU] 
    5311 00000007 5616          CLRC      AMODE                 ; [CPU_ALU] 
    5312 00000008 7625        ESTOP0
    5313 00000009       $C$L99:    
    5314                      .dwpsn  file "../DeviceSupport/source/f28003x_defaultisr.c",line 1218,column 5,is_stmt,isa 0
    5315 00000009 6F00          B         $C$L99,UNC            ; [CPU_ALU] |1218| 
    5316                      ; branch occurs ; [] |1218| 
    5317                      .dwattr $C$DW$101, DW_AT_TI_end_file("../DeviceSupport/source/f28003x_defaultisr.c")
    5318                      .dwattr $C$DW$101, DW_AT_TI_end_line(0x4c3)
    5319                      .dwattr $C$DW$101, DW_AT_TI_end_column(0x01)
    5320                      .dwendentry
    5321                      .dwendtag $C$DW$101
    5322              
    5323 00000000               .sect   ".text:_DCC1_ISR"
    5324                      .retain
    5325                      .retainrefs
    5326                      .global _DCC1_ISR
    5327              
    5328              $C$DW$102       .dwtag  DW_TAG_subprogram
    5329                      .dwattr $C$DW$102, DW_AT_name("DCC1_ISR")
    5330                      .dwattr $C$DW$102, DW_AT_low_pc(_DCC1_ISR)
    5331                      .dwattr $C$DW$102, DW_AT_high_pc(0x00)
    5332                      .dwattr $C$DW$102, DW_AT_TI_symbol_name("_DCC1_ISR")
    5333                      .dwattr $C$DW$102, DW_AT_external
    5334                      .dwattr $C$DW$102, DW_AT_TI_begin_file("../DeviceSupport/source/f28003x_defaultisr.c")
    5335                      .dwattr $C$DW$102, DW_AT_TI_begin_line(0xa2c)
    5336                      .dwattr $C$DW$102, DW_AT_TI_begin_column(0x10)
    5337                      .dwattr $C$DW$102, DW_AT_TI_interrupt
    5338                      .dwattr $C$DW$102, DW_AT_TI_max_frame_size(-6)
    5339                      .dwpsn  file "../DeviceSupport/source/f28003x_defaultisr.c",line 2605,column 1,is_stmt,address _DCC1_
    5340              
    5341                      .dwfde $C$DW$CIE, _DCC1_ISR
    5342              
    5343              ;***************************************************************
    5344              ;* FNAME: _DCC1_ISR                     FR SIZE:   4           *
    5345              ;*                                                             *
    5346              ;* FUNCTION ENVIRONMENT                                        *
    5347              ;*                                                             *
    5348              ;* FUNCTION PROPERTIES                                         *
    5349              ;*                            0 Parameter,  0 Auto,  4 SOE     *
    5350              ;***************************************************************
    5351              
    5352 00000000       _DCC1_ISR:
    5353                      .dwcfi  cfa_offset, -2
    5354                      .dwcfi  save_reg_to_mem, 26, 0
TMS320C2000 Assembler PC v22.6.1 Wed May 21 09:51:54 2025

Copyright (c) 1996-2018 Texas Instruments Incorporated
C:\Users\Daniel\AppData\Local\Temp\{513EF8AD-E23E-4989-8EC9-611DE01417F7} PAGE  102

    5355 00000000 761B          ASP       ; [CPU_ALU] 
    5356 00000001 FFF0          PUSH      RB                    ; [CPU_FPU] 
    5357                      .dwcfi  save_reg_to_mem, 74, 4
    5358                      .dwcfi  cfa_offset, -4
    5359 00000002 E200          MOV32     *SP++,STF             ; [CPU_FPU] 
         00000003 00BD 
    5360                      .dwcfi  save_reg_to_mem, 40, 6
    5361                      .dwcfi  cfa_offset, -6
    5362 00000004 E630          SETFLG    RNDF32=1, RNDF64=1    ; [CPU_FPU] 
         00000005 0600 
    5363 00000006 2942          CLRC      PAGE0,OVM             ; [CPU_ALU] 
    5364 00000007 5616          CLRC      AMODE                 ; [CPU_ALU] 
    5365 00000008 7625        ESTOP0
    5366 00000009       $C$L100:    
    5367                      .dwpsn  file "../DeviceSupport/source/f28003x_defaultisr.c",line 2621,column 5,is_stmt,isa 0
    5368 00000009 6F00          B         $C$L100,UNC           ; [CPU_ALU] |2621| 
    5369                      ; branch occurs ; [] |2621| 
    5370                      .dwattr $C$DW$102, DW_AT_TI_end_file("../DeviceSupport/source/f28003x_defaultisr.c")
    5371                      .dwattr $C$DW$102, DW_AT_TI_end_line(0xa3e)
    5372                      .dwattr $C$DW$102, DW_AT_TI_end_column(0x01)
    5373                      .dwendentry
    5374                      .dwendtag $C$DW$102
    5375              
    5376 00000000               .sect   ".text:_DCC0_ISR"
    5377                      .retain
    5378                      .retainrefs
    5379                      .global _DCC0_ISR
    5380              
    5381              $C$DW$103       .dwtag  DW_TAG_subprogram
    5382                      .dwattr $C$DW$103, DW_AT_name("DCC0_ISR")
    5383                      .dwattr $C$DW$103, DW_AT_low_pc(_DCC0_ISR)
    5384                      .dwattr $C$DW$103, DW_AT_high_pc(0x00)
    5385                      .dwattr $C$DW$103, DW_AT_TI_symbol_name("_DCC0_ISR")
    5386                      .dwattr $C$DW$103, DW_AT_external
    5387                      .dwattr $C$DW$103, DW_AT_TI_begin_file("../DeviceSupport/source/f28003x_defaultisr.c")
    5388                      .dwattr $C$DW$103, DW_AT_TI_begin_line(0x9a2)
    5389                      .dwattr $C$DW$103, DW_AT_TI_begin_column(0x10)
    5390                      .dwattr $C$DW$103, DW_AT_TI_interrupt
    5391                      .dwattr $C$DW$103, DW_AT_TI_max_frame_size(-6)
    5392                      .dwpsn  file "../DeviceSupport/source/f28003x_defaultisr.c",line 2467,column 1,is_stmt,address _DCC0_
    5393              
    5394                      .dwfde $C$DW$CIE, _DCC0_ISR
    5395              
    5396              ;***************************************************************
    5397              ;* FNAME: _DCC0_ISR                     FR SIZE:   4           *
    5398              ;*                                                             *
    5399              ;* FUNCTION ENVIRONMENT                                        *
    5400              ;*                                                             *
    5401              ;* FUNCTION PROPERTIES                                         *
    5402              ;*                            0 Parameter,  0 Auto,  4 SOE     *
    5403              ;***************************************************************
    5404              
    5405 00000000       _DCC0_ISR:
    5406                      .dwcfi  cfa_offset, -2
    5407                      .dwcfi  save_reg_to_mem, 26, 0
TMS320C2000 Assembler PC v22.6.1 Wed May 21 09:51:54 2025

Copyright (c) 1996-2018 Texas Instruments Incorporated
C:\Users\Daniel\AppData\Local\Temp\{513EF8AD-E23E-4989-8EC9-611DE01417F7} PAGE  103

    5408 00000000 761B          ASP       ; [CPU_ALU] 
    5409 00000001 FFF0          PUSH      RB                    ; [CPU_FPU] 
    5410                      .dwcfi  save_reg_to_mem, 74, 4
    5411                      .dwcfi  cfa_offset, -4
    5412 00000002 E200          MOV32     *SP++,STF             ; [CPU_FPU] 
         00000003 00BD 
    5413                      .dwcfi  save_reg_to_mem, 40, 6
    5414                      .dwcfi  cfa_offset, -6
    5415 00000004 E630          SETFLG    RNDF32=1, RNDF64=1    ; [CPU_FPU] 
         00000005 0600 
    5416 00000006 2942          CLRC      PAGE0,OVM             ; [CPU_ALU] 
    5417 00000007 5616          CLRC      AMODE                 ; [CPU_ALU] 
    5418 00000008 7625        ESTOP0
    5419 00000009       $C$L101:    
    5420                      .dwpsn  file "../DeviceSupport/source/f28003x_defaultisr.c",line 2483,column 5,is_stmt,isa 0
    5421 00000009 6F00          B         $C$L101,UNC           ; [CPU_ALU] |2483| 
    5422                      ; branch occurs ; [] |2483| 
    5423                      .dwattr $C$DW$103, DW_AT_TI_end_file("../DeviceSupport/source/f28003x_defaultisr.c")
    5424                      .dwattr $C$DW$103, DW_AT_TI_end_line(0x9b4)
    5425                      .dwattr $C$DW$103, DW_AT_TI_end_column(0x01)
    5426                      .dwendentry
    5427                      .dwendtag $C$DW$103
    5428              
    5429 00000000               .sect   ".text:_DATALOG_ISR"
    5430                      .retain
    5431                      .retainrefs
    5432                      .global _DATALOG_ISR
    5433              
    5434              $C$DW$104       .dwtag  DW_TAG_subprogram
    5435                      .dwattr $C$DW$104, DW_AT_name("DATALOG_ISR")
    5436                      .dwattr $C$DW$104, DW_AT_low_pc(_DATALOG_ISR)
    5437                      .dwattr $C$DW$104, DW_AT_high_pc(0x00)
    5438                      .dwattr $C$DW$104, DW_AT_TI_symbol_name("_DATALOG_ISR")
    5439                      .dwattr $C$DW$104, DW_AT_external
    5440                      .dwattr $C$DW$104, DW_AT_TI_begin_file("../DeviceSupport/source/f28003x_defaultisr.c")
    5441                      .dwattr $C$DW$104, DW_AT_TI_begin_line(0x54)
    5442                      .dwattr $C$DW$104, DW_AT_TI_begin_column(0x10)
    5443                      .dwattr $C$DW$104, DW_AT_TI_interrupt
    5444                      .dwattr $C$DW$104, DW_AT_TI_max_frame_size(-6)
    5445                      .dwpsn  file "../DeviceSupport/source/f28003x_defaultisr.c",line 85,column 1,is_stmt,address _DATALOG
    5446              
    5447                      .dwfde $C$DW$CIE, _DATALOG_ISR
    5448              
    5449              ;***************************************************************
    5450              ;* FNAME: _DATALOG_ISR                  FR SIZE:   4           *
    5451              ;*                                                             *
    5452              ;* FUNCTION ENVIRONMENT                                        *
    5453              ;*                                                             *
    5454              ;* FUNCTION PROPERTIES                                         *
    5455              ;*                            0 Parameter,  0 Auto,  4 SOE     *
    5456              ;***************************************************************
    5457              
    5458 00000000       _DATALOG_ISR:
    5459                      .dwcfi  cfa_offset, -2
    5460                      .dwcfi  save_reg_to_mem, 26, 0
TMS320C2000 Assembler PC v22.6.1 Wed May 21 09:51:54 2025

Copyright (c) 1996-2018 Texas Instruments Incorporated
C:\Users\Daniel\AppData\Local\Temp\{513EF8AD-E23E-4989-8EC9-611DE01417F7} PAGE  104

    5461 00000000 761B          ASP       ; [CPU_ALU] 
    5462 00000001 FFF0          PUSH      RB                    ; [CPU_FPU] 
    5463                      .dwcfi  save_reg_to_mem, 74, 4
    5464                      .dwcfi  cfa_offset, -4
    5465 00000002 E200          MOV32     *SP++,STF             ; [CPU_FPU] 
         00000003 00BD 
    5466                      .dwcfi  save_reg_to_mem, 40, 6
    5467                      .dwcfi  cfa_offset, -6
    5468 00000004 E630          SETFLG    RNDF32=1, RNDF64=1    ; [CPU_FPU] 
         00000005 0600 
    5469 00000006 2942          CLRC      PAGE0,OVM             ; [CPU_ALU] 
    5470 00000007 5616          CLRC      AMODE                 ; [CPU_ALU] 
    5471 00000008 7625        ESTOP0
    5472 00000009       $C$L102:    
    5473                      .dwpsn  file "../DeviceSupport/source/f28003x_defaultisr.c",line 95,column 5,is_stmt,isa 0
    5474 00000009 6F00          B         $C$L102,UNC           ; [CPU_ALU] |95| 
    5475                      ; branch occurs ; [] |95| 
    5476                      .dwattr $C$DW$104, DW_AT_TI_end_file("../DeviceSupport/source/f28003x_defaultisr.c")
    5477                      .dwattr $C$DW$104, DW_AT_TI_end_line(0x60)
    5478                      .dwattr $C$DW$104, DW_AT_TI_end_column(0x01)
    5479                      .dwendentry
    5480                      .dwendtag $C$DW$104
    5481              
    5482 00000000               .sect   ".text:_CLB4_ISR"
    5483                      .retain
    5484                      .retainrefs
    5485                      .global _CLB4_ISR
    5486              
    5487              $C$DW$105       .dwtag  DW_TAG_subprogram
    5488                      .dwattr $C$DW$105, DW_AT_name("CLB4_ISR")
    5489                      .dwattr $C$DW$105, DW_AT_low_pc(_CLB4_ISR)
    5490                      .dwattr $C$DW$105, DW_AT_high_pc(0x00)
    5491                      .dwattr $C$DW$105, DW_AT_TI_symbol_name("_CLB4_ISR")
    5492                      .dwattr $C$DW$105, DW_AT_external
    5493                      .dwattr $C$DW$105, DW_AT_TI_begin_file("../DeviceSupport/source/f28003x_defaultisr.c")
    5494                      .dwattr $C$DW$105, DW_AT_TI_begin_line(0x43e)
    5495                      .dwattr $C$DW$105, DW_AT_TI_begin_column(0x10)
    5496                      .dwattr $C$DW$105, DW_AT_TI_interrupt
    5497                      .dwattr $C$DW$105, DW_AT_TI_max_frame_size(-6)
    5498                      .dwpsn  file "../DeviceSupport/source/f28003x_defaultisr.c",line 1087,column 1,is_stmt,address _CLB4_
    5499              
    5500                      .dwfde $C$DW$CIE, _CLB4_ISR
    5501              
    5502              ;***************************************************************
    5503              ;* FNAME: _CLB4_ISR                     FR SIZE:   4           *
    5504              ;*                                                             *
    5505              ;* FUNCTION ENVIRONMENT                                        *
    5506              ;*                                                             *
    5507              ;* FUNCTION PROPERTIES                                         *
    5508              ;*                            0 Parameter,  0 Auto,  4 SOE     *
    5509              ;***************************************************************
    5510              
    5511 00000000       _CLB4_ISR:
    5512                      .dwcfi  cfa_offset, -2
    5513                      .dwcfi  save_reg_to_mem, 26, 0
TMS320C2000 Assembler PC v22.6.1 Wed May 21 09:51:54 2025

Copyright (c) 1996-2018 Texas Instruments Incorporated
C:\Users\Daniel\AppData\Local\Temp\{513EF8AD-E23E-4989-8EC9-611DE01417F7} PAGE  105

    5514 00000000 761B          ASP       ; [CPU_ALU] 
    5515 00000001 FFF0          PUSH      RB                    ; [CPU_FPU] 
    5516                      .dwcfi  save_reg_to_mem, 74, 4
    5517                      .dwcfi  cfa_offset, -4
    5518 00000002 E200          MOV32     *SP++,STF             ; [CPU_FPU] 
         00000003 00BD 
    5519                      .dwcfi  save_reg_to_mem, 40, 6
    5520                      .dwcfi  cfa_offset, -6
    5521 00000004 E630          SETFLG    RNDF32=1, RNDF64=1    ; [CPU_FPU] 
         00000005 0600 
    5522 00000006 2942          CLRC      PAGE0,OVM             ; [CPU_ALU] 
    5523 00000007 5616          CLRC      AMODE                 ; [CPU_ALU] 
    5524 00000008 7625        ESTOP0
    5525 00000009       $C$L103:    
    5526                      .dwpsn  file "../DeviceSupport/source/f28003x_defaultisr.c",line 1103,column 5,is_stmt,isa 0
    5527 00000009 6F00          B         $C$L103,UNC           ; [CPU_ALU] |1103| 
    5528                      ; branch occurs ; [] |1103| 
    5529                      .dwattr $C$DW$105, DW_AT_TI_end_file("../DeviceSupport/source/f28003x_defaultisr.c")
    5530                      .dwattr $C$DW$105, DW_AT_TI_end_line(0x450)
    5531                      .dwattr $C$DW$105, DW_AT_TI_end_column(0x01)
    5532                      .dwendentry
    5533                      .dwendtag $C$DW$105
    5534              
    5535 00000000               .sect   ".text:_CLB3_ISR"
    5536                      .retain
    5537                      .retainrefs
    5538                      .global _CLB3_ISR
    5539              
    5540              $C$DW$106       .dwtag  DW_TAG_subprogram
    5541                      .dwattr $C$DW$106, DW_AT_name("CLB3_ISR")
    5542                      .dwattr $C$DW$106, DW_AT_low_pc(_CLB3_ISR)
    5543                      .dwattr $C$DW$106, DW_AT_high_pc(0x00)
    5544                      .dwattr $C$DW$106, DW_AT_TI_symbol_name("_CLB3_ISR")
    5545                      .dwattr $C$DW$106, DW_AT_external
    5546                      .dwattr $C$DW$106, DW_AT_TI_begin_file("../DeviceSupport/source/f28003x_defaultisr.c")
    5547                      .dwattr $C$DW$106, DW_AT_TI_begin_line(0x427)
    5548                      .dwattr $C$DW$106, DW_AT_TI_begin_column(0x10)
    5549                      .dwattr $C$DW$106, DW_AT_TI_interrupt
    5550                      .dwattr $C$DW$106, DW_AT_TI_max_frame_size(-6)
    5551                      .dwpsn  file "../DeviceSupport/source/f28003x_defaultisr.c",line 1064,column 1,is_stmt,address _CLB3_
    5552              
    5553                      .dwfde $C$DW$CIE, _CLB3_ISR
    5554              
    5555              ;***************************************************************
    5556              ;* FNAME: _CLB3_ISR                     FR SIZE:   4           *
    5557              ;*                                                             *
    5558              ;* FUNCTION ENVIRONMENT                                        *
    5559              ;*                                                             *
    5560              ;* FUNCTION PROPERTIES                                         *
    5561              ;*                            0 Parameter,  0 Auto,  4 SOE     *
    5562              ;***************************************************************
    5563              
    5564 00000000       _CLB3_ISR:
    5565                      .dwcfi  cfa_offset, -2
    5566                      .dwcfi  save_reg_to_mem, 26, 0
TMS320C2000 Assembler PC v22.6.1 Wed May 21 09:51:54 2025

Copyright (c) 1996-2018 Texas Instruments Incorporated
C:\Users\Daniel\AppData\Local\Temp\{513EF8AD-E23E-4989-8EC9-611DE01417F7} PAGE  106

    5567 00000000 761B          ASP       ; [CPU_ALU] 
    5568 00000001 FFF0          PUSH      RB                    ; [CPU_FPU] 
    5569                      .dwcfi  save_reg_to_mem, 74, 4
    5570                      .dwcfi  cfa_offset, -4
    5571 00000002 E200          MOV32     *SP++,STF             ; [CPU_FPU] 
         00000003 00BD 
    5572                      .dwcfi  save_reg_to_mem, 40, 6
    5573                      .dwcfi  cfa_offset, -6
    5574 00000004 E630          SETFLG    RNDF32=1, RNDF64=1    ; [CPU_FPU] 
         00000005 0600 
    5575 00000006 2942          CLRC      PAGE0,OVM             ; [CPU_ALU] 
    5576 00000007 5616          CLRC      AMODE                 ; [CPU_ALU] 
    5577 00000008 7625        ESTOP0
    5578 00000009       $C$L104:    
    5579                      .dwpsn  file "../DeviceSupport/source/f28003x_defaultisr.c",line 1080,column 5,is_stmt,isa 0
    5580 00000009 6F00          B         $C$L104,UNC           ; [CPU_ALU] |1080| 
    5581                      ; branch occurs ; [] |1080| 
    5582                      .dwattr $C$DW$106, DW_AT_TI_end_file("../DeviceSupport/source/f28003x_defaultisr.c")
    5583                      .dwattr $C$DW$106, DW_AT_TI_end_line(0x439)
    5584                      .dwattr $C$DW$106, DW_AT_TI_end_column(0x01)
    5585                      .dwendentry
    5586                      .dwendtag $C$DW$106
    5587              
    5588 00000000               .sect   ".text:_CLB2_ISR"
    5589                      .retain
    5590                      .retainrefs
    5591                      .global _CLB2_ISR
    5592              
    5593              $C$DW$107       .dwtag  DW_TAG_subprogram
    5594                      .dwattr $C$DW$107, DW_AT_name("CLB2_ISR")
    5595                      .dwattr $C$DW$107, DW_AT_low_pc(_CLB2_ISR)
    5596                      .dwattr $C$DW$107, DW_AT_high_pc(0x00)
    5597                      .dwattr $C$DW$107, DW_AT_TI_symbol_name("_CLB2_ISR")
    5598                      .dwattr $C$DW$107, DW_AT_external
    5599                      .dwattr $C$DW$107, DW_AT_TI_begin_file("../DeviceSupport/source/f28003x_defaultisr.c")
    5600                      .dwattr $C$DW$107, DW_AT_TI_begin_line(0x410)
    5601                      .dwattr $C$DW$107, DW_AT_TI_begin_column(0x10)
    5602                      .dwattr $C$DW$107, DW_AT_TI_interrupt
    5603                      .dwattr $C$DW$107, DW_AT_TI_max_frame_size(-6)
    5604                      .dwpsn  file "../DeviceSupport/source/f28003x_defaultisr.c",line 1041,column 1,is_stmt,address _CLB2_
    5605              
    5606                      .dwfde $C$DW$CIE, _CLB2_ISR
    5607              
    5608              ;***************************************************************
    5609              ;* FNAME: _CLB2_ISR                     FR SIZE:   4           *
    5610              ;*                                                             *
    5611              ;* FUNCTION ENVIRONMENT                                        *
    5612              ;*                                                             *
    5613              ;* FUNCTION PROPERTIES                                         *
    5614              ;*                            0 Parameter,  0 Auto,  4 SOE     *
    5615              ;***************************************************************
    5616              
    5617 00000000       _CLB2_ISR:
    5618                      .dwcfi  cfa_offset, -2
    5619                      .dwcfi  save_reg_to_mem, 26, 0
TMS320C2000 Assembler PC v22.6.1 Wed May 21 09:51:54 2025

Copyright (c) 1996-2018 Texas Instruments Incorporated
C:\Users\Daniel\AppData\Local\Temp\{513EF8AD-E23E-4989-8EC9-611DE01417F7} PAGE  107

    5620 00000000 761B          ASP       ; [CPU_ALU] 
    5621 00000001 FFF0          PUSH      RB                    ; [CPU_FPU] 
    5622                      .dwcfi  save_reg_to_mem, 74, 4
    5623                      .dwcfi  cfa_offset, -4
    5624 00000002 E200          MOV32     *SP++,STF             ; [CPU_FPU] 
         00000003 00BD 
    5625                      .dwcfi  save_reg_to_mem, 40, 6
    5626                      .dwcfi  cfa_offset, -6
    5627 00000004 E630          SETFLG    RNDF32=1, RNDF64=1    ; [CPU_FPU] 
         00000005 0600 
    5628 00000006 2942          CLRC      PAGE0,OVM             ; [CPU_ALU] 
    5629 00000007 5616          CLRC      AMODE                 ; [CPU_ALU] 
    5630 00000008 7625        ESTOP0
    5631 00000009       $C$L105:    
    5632                      .dwpsn  file "../DeviceSupport/source/f28003x_defaultisr.c",line 1057,column 5,is_stmt,isa 0
    5633 00000009 6F00          B         $C$L105,UNC           ; [CPU_ALU] |1057| 
    5634                      ; branch occurs ; [] |1057| 
    5635                      .dwattr $C$DW$107, DW_AT_TI_end_file("../DeviceSupport/source/f28003x_defaultisr.c")
    5636                      .dwattr $C$DW$107, DW_AT_TI_end_line(0x422)
    5637                      .dwattr $C$DW$107, DW_AT_TI_end_column(0x01)
    5638                      .dwendentry
    5639                      .dwendtag $C$DW$107
    5640              
    5641 00000000               .sect   ".text:_CLB1_ISR"
    5642                      .retain
    5643                      .retainrefs
    5644                      .global _CLB1_ISR
    5645              
    5646              $C$DW$108       .dwtag  DW_TAG_subprogram
    5647                      .dwattr $C$DW$108, DW_AT_name("CLB1_ISR")
    5648                      .dwattr $C$DW$108, DW_AT_low_pc(_CLB1_ISR)
    5649                      .dwattr $C$DW$108, DW_AT_high_pc(0x00)
    5650                      .dwattr $C$DW$108, DW_AT_TI_symbol_name("_CLB1_ISR")
    5651                      .dwattr $C$DW$108, DW_AT_external
    5652                      .dwattr $C$DW$108, DW_AT_TI_begin_file("../DeviceSupport/source/f28003x_defaultisr.c")
    5653                      .dwattr $C$DW$108, DW_AT_TI_begin_line(0x3f9)
    5654                      .dwattr $C$DW$108, DW_AT_TI_begin_column(0x10)
    5655                      .dwattr $C$DW$108, DW_AT_TI_interrupt
    5656                      .dwattr $C$DW$108, DW_AT_TI_max_frame_size(-6)
    5657                      .dwpsn  file "../DeviceSupport/source/f28003x_defaultisr.c",line 1018,column 1,is_stmt,address _CLB1_
    5658              
    5659                      .dwfde $C$DW$CIE, _CLB1_ISR
    5660              
    5661              ;***************************************************************
    5662              ;* FNAME: _CLB1_ISR                     FR SIZE:   4           *
    5663              ;*                                                             *
    5664              ;* FUNCTION ENVIRONMENT                                        *
    5665              ;*                                                             *
    5666              ;* FUNCTION PROPERTIES                                         *
    5667              ;*                            0 Parameter,  0 Auto,  4 SOE     *
    5668              ;***************************************************************
    5669              
    5670 00000000       _CLB1_ISR:
    5671                      .dwcfi  cfa_offset, -2
    5672                      .dwcfi  save_reg_to_mem, 26, 0
TMS320C2000 Assembler PC v22.6.1 Wed May 21 09:51:54 2025

Copyright (c) 1996-2018 Texas Instruments Incorporated
C:\Users\Daniel\AppData\Local\Temp\{513EF8AD-E23E-4989-8EC9-611DE01417F7} PAGE  108

    5673 00000000 761B          ASP       ; [CPU_ALU] 
    5674 00000001 FFF0          PUSH      RB                    ; [CPU_FPU] 
    5675                      .dwcfi  save_reg_to_mem, 74, 4
    5676                      .dwcfi  cfa_offset, -4
    5677 00000002 E200          MOV32     *SP++,STF             ; [CPU_FPU] 
         00000003 00BD 
    5678                      .dwcfi  save_reg_to_mem, 40, 6
    5679                      .dwcfi  cfa_offset, -6
    5680 00000004 E630          SETFLG    RNDF32=1, RNDF64=1    ; [CPU_FPU] 
         00000005 0600 
    5681 00000006 2942          CLRC      PAGE0,OVM             ; [CPU_ALU] 
    5682 00000007 5616          CLRC      AMODE                 ; [CPU_ALU] 
    5683 00000008 7625        ESTOP0
    5684 00000009       $C$L106:    
    5685                      .dwpsn  file "../DeviceSupport/source/f28003x_defaultisr.c",line 1034,column 5,is_stmt,isa 0
    5686 00000009 6F00          B         $C$L106,UNC           ; [CPU_ALU] |1034| 
    5687                      ; branch occurs ; [] |1034| 
    5688                      .dwattr $C$DW$108, DW_AT_TI_end_file("../DeviceSupport/source/f28003x_defaultisr.c")
    5689                      .dwattr $C$DW$108, DW_AT_TI_end_line(0x40b)
    5690                      .dwattr $C$DW$108, DW_AT_TI_end_column(0x01)
    5691                      .dwendentry
    5692                      .dwendtag $C$DW$108
    5693              
    5694 00000000               .sect   ".text:_CLA_UNDERFLOW_ISR"
    5695                      .retain
    5696                      .retainrefs
    5697                      .global _CLA_UNDERFLOW_ISR
    5698              
    5699              $C$DW$109       .dwtag  DW_TAG_subprogram
    5700                      .dwattr $C$DW$109, DW_AT_name("CLA_UNDERFLOW_ISR")
    5701                      .dwattr $C$DW$109, DW_AT_low_pc(_CLA_UNDERFLOW_ISR)
    5702                      .dwattr $C$DW$109, DW_AT_high_pc(0x00)
    5703                      .dwattr $C$DW$109, DW_AT_TI_symbol_name("_CLA_UNDERFLOW_ISR")
    5704                      .dwattr $C$DW$109, DW_AT_external
    5705                      .dwattr $C$DW$109, DW_AT_TI_begin_file("../DeviceSupport/source/f28003x_defaultisr.c")
    5706                      .dwattr $C$DW$109, DW_AT_TI_begin_line(0xbb3)
    5707                      .dwattr $C$DW$109, DW_AT_TI_begin_column(0x10)
    5708                      .dwattr $C$DW$109, DW_AT_TI_interrupt
    5709                      .dwattr $C$DW$109, DW_AT_TI_max_frame_size(-6)
    5710                      .dwpsn  file "../DeviceSupport/source/f28003x_defaultisr.c",line 2996,column 1,is_stmt,address _CLA_U
    5711              
    5712                      .dwfde $C$DW$CIE, _CLA_UNDERFLOW_ISR
    5713              
    5714              ;***************************************************************
    5715              ;* FNAME: _CLA_UNDERFLOW_ISR            FR SIZE:   4           *
    5716              ;*                                                             *
    5717              ;* FUNCTION ENVIRONMENT                                        *
    5718              ;*                                                             *
    5719              ;* FUNCTION PROPERTIES                                         *
    5720              ;*                            0 Parameter,  0 Auto,  4 SOE     *
    5721              ;***************************************************************
    5722              
    5723 00000000       _CLA_UNDERFLOW_ISR:
    5724                      .dwcfi  cfa_offset, -2
    5725                      .dwcfi  save_reg_to_mem, 26, 0
TMS320C2000 Assembler PC v22.6.1 Wed May 21 09:51:54 2025

Copyright (c) 1996-2018 Texas Instruments Incorporated
C:\Users\Daniel\AppData\Local\Temp\{513EF8AD-E23E-4989-8EC9-611DE01417F7} PAGE  109

    5726 00000000 761B          ASP       ; [CPU_ALU] 
    5727 00000001 FFF0          PUSH      RB                    ; [CPU_FPU] 
    5728                      .dwcfi  save_reg_to_mem, 74, 4
    5729                      .dwcfi  cfa_offset, -4
    5730 00000002 E200          MOV32     *SP++,STF             ; [CPU_FPU] 
         00000003 00BD 
    5731                      .dwcfi  save_reg_to_mem, 40, 6
    5732                      .dwcfi  cfa_offset, -6
    5733 00000004 E630          SETFLG    RNDF32=1, RNDF64=1    ; [CPU_FPU] 
         00000005 0600 
    5734 00000006 2942          CLRC      PAGE0,OVM             ; [CPU_ALU] 
    5735 00000007 5616          CLRC      AMODE                 ; [CPU_ALU] 
    5736 00000008 7625        ESTOP0
    5737 00000009       $C$L107:    
    5738                      .dwpsn  file "../DeviceSupport/source/f28003x_defaultisr.c",line 3012,column 5,is_stmt,isa 0
    5739 00000009 6F00          B         $C$L107,UNC           ; [CPU_ALU] |3012| 
    5740                      ; branch occurs ; [] |3012| 
    5741                      .dwattr $C$DW$109, DW_AT_TI_end_file("../DeviceSupport/source/f28003x_defaultisr.c")
    5742                      .dwattr $C$DW$109, DW_AT_TI_end_line(0xbc5)
    5743                      .dwattr $C$DW$109, DW_AT_TI_end_column(0x01)
    5744                      .dwendentry
    5745                      .dwendtag $C$DW$109
    5746              
    5747 00000000               .sect   ".text:_CLA_OVERFLOW_ISR"
    5748                      .retain
    5749                      .retainrefs
    5750                      .global _CLA_OVERFLOW_ISR
    5751              
    5752              $C$DW$110       .dwtag  DW_TAG_subprogram
    5753                      .dwattr $C$DW$110, DW_AT_name("CLA_OVERFLOW_ISR")
    5754                      .dwattr $C$DW$110, DW_AT_low_pc(_CLA_OVERFLOW_ISR)
    5755                      .dwattr $C$DW$110, DW_AT_high_pc(0x00)
    5756                      .dwattr $C$DW$110, DW_AT_TI_symbol_name("_CLA_OVERFLOW_ISR")
    5757                      .dwattr $C$DW$110, DW_AT_external
    5758                      .dwattr $C$DW$110, DW_AT_TI_begin_file("../DeviceSupport/source/f28003x_defaultisr.c")
    5759                      .dwattr $C$DW$110, DW_AT_TI_begin_line(0xb9c)
    5760                      .dwattr $C$DW$110, DW_AT_TI_begin_column(0x10)
    5761                      .dwattr $C$DW$110, DW_AT_TI_interrupt
    5762                      .dwattr $C$DW$110, DW_AT_TI_max_frame_size(-6)
    5763                      .dwpsn  file "../DeviceSupport/source/f28003x_defaultisr.c",line 2973,column 1,is_stmt,address _CLA_O
    5764              
    5765                      .dwfde $C$DW$CIE, _CLA_OVERFLOW_ISR
    5766              
    5767              ;***************************************************************
    5768              ;* FNAME: _CLA_OVERFLOW_ISR             FR SIZE:   4           *
    5769              ;*                                                             *
    5770              ;* FUNCTION ENVIRONMENT                                        *
    5771              ;*                                                             *
    5772              ;* FUNCTION PROPERTIES                                         *
    5773              ;*                            0 Parameter,  0 Auto,  4 SOE     *
    5774              ;***************************************************************
    5775              
    5776 00000000       _CLA_OVERFLOW_ISR:
    5777                      .dwcfi  cfa_offset, -2
    5778                      .dwcfi  save_reg_to_mem, 26, 0
TMS320C2000 Assembler PC v22.6.1 Wed May 21 09:51:54 2025

Copyright (c) 1996-2018 Texas Instruments Incorporated
C:\Users\Daniel\AppData\Local\Temp\{513EF8AD-E23E-4989-8EC9-611DE01417F7} PAGE  110

    5779 00000000 761B          ASP       ; [CPU_ALU] 
    5780 00000001 FFF0          PUSH      RB                    ; [CPU_FPU] 
    5781                      .dwcfi  save_reg_to_mem, 74, 4
    5782                      .dwcfi  cfa_offset, -4
    5783 00000002 E200          MOV32     *SP++,STF             ; [CPU_FPU] 
         00000003 00BD 
    5784                      .dwcfi  save_reg_to_mem, 40, 6
    5785                      .dwcfi  cfa_offset, -6
    5786 00000004 E630          SETFLG    RNDF32=1, RNDF64=1    ; [CPU_FPU] 
         00000005 0600 
    5787 00000006 2942          CLRC      PAGE0,OVM             ; [CPU_ALU] 
    5788 00000007 5616          CLRC      AMODE                 ; [CPU_ALU] 
    5789 00000008 7625        ESTOP0
    5790 00000009       $C$L108:    
    5791                      .dwpsn  file "../DeviceSupport/source/f28003x_defaultisr.c",line 2989,column 5,is_stmt,isa 0
    5792 00000009 6F00          B         $C$L108,UNC           ; [CPU_ALU] |2989| 
    5793                      ; branch occurs ; [] |2989| 
    5794                      .dwattr $C$DW$110, DW_AT_TI_end_file("../DeviceSupport/source/f28003x_defaultisr.c")
    5795                      .dwattr $C$DW$110, DW_AT_TI_end_line(0xbae)
    5796                      .dwattr $C$DW$110, DW_AT_TI_end_column(0x01)
    5797                      .dwendentry
    5798                      .dwendtag $C$DW$110
    5799              
    5800 00000000               .sect   ".text:_CLA1_8_ISR"
    5801                      .retain
    5802                      .retainrefs
    5803                      .global _CLA1_8_ISR
    5804              
    5805              $C$DW$111       .dwtag  DW_TAG_subprogram
    5806                      .dwattr $C$DW$111, DW_AT_name("CLA1_8_ISR")
    5807                      .dwattr $C$DW$111, DW_AT_low_pc(_CLA1_8_ISR)
    5808                      .dwattr $C$DW$111, DW_AT_high_pc(0x00)
    5809                      .dwattr $C$DW$111, DW_AT_TI_symbol_name("_CLA1_8_ISR")
    5810                      .dwattr $C$DW$111, DW_AT_external
    5811                      .dwattr $C$DW$111, DW_AT_TI_begin_file("../DeviceSupport/source/f28003x_defaultisr.c")
    5812                      .dwattr $C$DW$111, DW_AT_TI_begin_line(0x77a)
    5813                      .dwattr $C$DW$111, DW_AT_TI_begin_column(0x10)
    5814                      .dwattr $C$DW$111, DW_AT_TI_interrupt
    5815                      .dwattr $C$DW$111, DW_AT_TI_max_frame_size(-6)
    5816                      .dwpsn  file "../DeviceSupport/source/f28003x_defaultisr.c",line 1915,column 1,is_stmt,address _CLA1_
    5817              
    5818                      .dwfde $C$DW$CIE, _CLA1_8_ISR
    5819              
    5820              ;***************************************************************
    5821              ;* FNAME: _CLA1_8_ISR                   FR SIZE:   4           *
    5822              ;*                                                             *
    5823              ;* FUNCTION ENVIRONMENT                                        *
    5824              ;*                                                             *
    5825              ;* FUNCTION PROPERTIES                                         *
    5826              ;*                            0 Parameter,  0 Auto,  4 SOE     *
    5827              ;***************************************************************
    5828              
    5829 00000000       _CLA1_8_ISR:
    5830                      .dwcfi  cfa_offset, -2
    5831                      .dwcfi  save_reg_to_mem, 26, 0
TMS320C2000 Assembler PC v22.6.1 Wed May 21 09:51:54 2025

Copyright (c) 1996-2018 Texas Instruments Incorporated
C:\Users\Daniel\AppData\Local\Temp\{513EF8AD-E23E-4989-8EC9-611DE01417F7} PAGE  111

    5832 00000000 761B          ASP       ; [CPU_ALU] 
    5833 00000001 FFF0          PUSH      RB                    ; [CPU_FPU] 
    5834                      .dwcfi  save_reg_to_mem, 74, 4
    5835                      .dwcfi  cfa_offset, -4
    5836 00000002 E200          MOV32     *SP++,STF             ; [CPU_FPU] 
         00000003 00BD 
    5837                      .dwcfi  save_reg_to_mem, 40, 6
    5838                      .dwcfi  cfa_offset, -6
    5839 00000004 E630          SETFLG    RNDF32=1, RNDF64=1    ; [CPU_FPU] 
         00000005 0600 
    5840 00000006 2942          CLRC      PAGE0,OVM             ; [CPU_ALU] 
    5841 00000007 5616          CLRC      AMODE                 ; [CPU_ALU] 
    5842 00000008 7625        ESTOP0
    5843 00000009       $C$L109:    
    5844                      .dwpsn  file "../DeviceSupport/source/f28003x_defaultisr.c",line 1931,column 5,is_stmt,isa 0
    5845 00000009 6F00          B         $C$L109,UNC           ; [CPU_ALU] |1931| 
    5846                      ; branch occurs ; [] |1931| 
    5847                      .dwattr $C$DW$111, DW_AT_TI_end_file("../DeviceSupport/source/f28003x_defaultisr.c")
    5848                      .dwattr $C$DW$111, DW_AT_TI_end_line(0x78c)
    5849                      .dwattr $C$DW$111, DW_AT_TI_end_column(0x01)
    5850                      .dwendentry
    5851                      .dwendtag $C$DW$111
    5852              
    5853 00000000               .sect   ".text:_CLA1_7_ISR"
    5854                      .retain
    5855                      .retainrefs
    5856                      .global _CLA1_7_ISR
    5857              
    5858              $C$DW$112       .dwtag  DW_TAG_subprogram
    5859                      .dwattr $C$DW$112, DW_AT_name("CLA1_7_ISR")
    5860                      .dwattr $C$DW$112, DW_AT_low_pc(_CLA1_7_ISR)
    5861                      .dwattr $C$DW$112, DW_AT_high_pc(0x00)
    5862                      .dwattr $C$DW$112, DW_AT_TI_symbol_name("_CLA1_7_ISR")
    5863                      .dwattr $C$DW$112, DW_AT_external
    5864                      .dwattr $C$DW$112, DW_AT_TI_begin_file("../DeviceSupport/source/f28003x_defaultisr.c")
    5865                      .dwattr $C$DW$112, DW_AT_TI_begin_line(0x763)
    5866                      .dwattr $C$DW$112, DW_AT_TI_begin_column(0x10)
    5867                      .dwattr $C$DW$112, DW_AT_TI_interrupt
    5868                      .dwattr $C$DW$112, DW_AT_TI_max_frame_size(-6)
    5869                      .dwpsn  file "../DeviceSupport/source/f28003x_defaultisr.c",line 1892,column 1,is_stmt,address _CLA1_
    5870              
    5871                      .dwfde $C$DW$CIE, _CLA1_7_ISR
    5872              
    5873              ;***************************************************************
    5874              ;* FNAME: _CLA1_7_ISR                   FR SIZE:   4           *
    5875              ;*                                                             *
    5876              ;* FUNCTION ENVIRONMENT                                        *
    5877              ;*                                                             *
    5878              ;* FUNCTION PROPERTIES                                         *
    5879              ;*                            0 Parameter,  0 Auto,  4 SOE     *
    5880              ;***************************************************************
    5881              
    5882 00000000       _CLA1_7_ISR:
    5883                      .dwcfi  cfa_offset, -2
    5884                      .dwcfi  save_reg_to_mem, 26, 0
TMS320C2000 Assembler PC v22.6.1 Wed May 21 09:51:54 2025

Copyright (c) 1996-2018 Texas Instruments Incorporated
C:\Users\Daniel\AppData\Local\Temp\{513EF8AD-E23E-4989-8EC9-611DE01417F7} PAGE  112

    5885 00000000 761B          ASP       ; [CPU_ALU] 
    5886 00000001 FFF0          PUSH      RB                    ; [CPU_FPU] 
    5887                      .dwcfi  save_reg_to_mem, 74, 4
    5888                      .dwcfi  cfa_offset, -4
    5889 00000002 E200          MOV32     *SP++,STF             ; [CPU_FPU] 
         00000003 00BD 
    5890                      .dwcfi  save_reg_to_mem, 40, 6
    5891                      .dwcfi  cfa_offset, -6
    5892 00000004 E630          SETFLG    RNDF32=1, RNDF64=1    ; [CPU_FPU] 
         00000005 0600 
    5893 00000006 2942          CLRC      PAGE0,OVM             ; [CPU_ALU] 
    5894 00000007 5616          CLRC      AMODE                 ; [CPU_ALU] 
    5895 00000008 7625        ESTOP0
    5896 00000009       $C$L110:    
    5897                      .dwpsn  file "../DeviceSupport/source/f28003x_defaultisr.c",line 1908,column 5,is_stmt,isa 0
    5898 00000009 6F00          B         $C$L110,UNC           ; [CPU_ALU] |1908| 
    5899                      ; branch occurs ; [] |1908| 
    5900                      .dwattr $C$DW$112, DW_AT_TI_end_file("../DeviceSupport/source/f28003x_defaultisr.c")
    5901                      .dwattr $C$DW$112, DW_AT_TI_end_line(0x775)
    5902                      .dwattr $C$DW$112, DW_AT_TI_end_column(0x01)
    5903                      .dwendentry
    5904                      .dwendtag $C$DW$112
    5905              
    5906 00000000               .sect   ".text:_CLA1_6_ISR"
    5907                      .retain
    5908                      .retainrefs
    5909                      .global _CLA1_6_ISR
    5910              
    5911              $C$DW$113       .dwtag  DW_TAG_subprogram
    5912                      .dwattr $C$DW$113, DW_AT_name("CLA1_6_ISR")
    5913                      .dwattr $C$DW$113, DW_AT_low_pc(_CLA1_6_ISR)
    5914                      .dwattr $C$DW$113, DW_AT_high_pc(0x00)
    5915                      .dwattr $C$DW$113, DW_AT_TI_symbol_name("_CLA1_6_ISR")
    5916                      .dwattr $C$DW$113, DW_AT_external
    5917                      .dwattr $C$DW$113, DW_AT_TI_begin_file("../DeviceSupport/source/f28003x_defaultisr.c")
    5918                      .dwattr $C$DW$113, DW_AT_TI_begin_line(0x74c)
    5919                      .dwattr $C$DW$113, DW_AT_TI_begin_column(0x10)
    5920                      .dwattr $C$DW$113, DW_AT_TI_interrupt
    5921                      .dwattr $C$DW$113, DW_AT_TI_max_frame_size(-6)
    5922                      .dwpsn  file "../DeviceSupport/source/f28003x_defaultisr.c",line 1869,column 1,is_stmt,address _CLA1_
    5923              
    5924                      .dwfde $C$DW$CIE, _CLA1_6_ISR
    5925              
    5926              ;***************************************************************
    5927              ;* FNAME: _CLA1_6_ISR                   FR SIZE:   4           *
    5928              ;*                                                             *
    5929              ;* FUNCTION ENVIRONMENT                                        *
    5930              ;*                                                             *
    5931              ;* FUNCTION PROPERTIES                                         *
    5932              ;*                            0 Parameter,  0 Auto,  4 SOE     *
    5933              ;***************************************************************
    5934              
    5935 00000000       _CLA1_6_ISR:
    5936                      .dwcfi  cfa_offset, -2
    5937                      .dwcfi  save_reg_to_mem, 26, 0
TMS320C2000 Assembler PC v22.6.1 Wed May 21 09:51:54 2025

Copyright (c) 1996-2018 Texas Instruments Incorporated
C:\Users\Daniel\AppData\Local\Temp\{513EF8AD-E23E-4989-8EC9-611DE01417F7} PAGE  113

    5938 00000000 761B          ASP       ; [CPU_ALU] 
    5939 00000001 FFF0          PUSH      RB                    ; [CPU_FPU] 
    5940                      .dwcfi  save_reg_to_mem, 74, 4
    5941                      .dwcfi  cfa_offset, -4
    5942 00000002 E200          MOV32     *SP++,STF             ; [CPU_FPU] 
         00000003 00BD 
    5943                      .dwcfi  save_reg_to_mem, 40, 6
    5944                      .dwcfi  cfa_offset, -6
    5945 00000004 E630          SETFLG    RNDF32=1, RNDF64=1    ; [CPU_FPU] 
         00000005 0600 
    5946 00000006 2942          CLRC      PAGE0,OVM             ; [CPU_ALU] 
    5947 00000007 5616          CLRC      AMODE                 ; [CPU_ALU] 
    5948 00000008 7625        ESTOP0
    5949 00000009       $C$L111:    
    5950                      .dwpsn  file "../DeviceSupport/source/f28003x_defaultisr.c",line 1885,column 5,is_stmt,isa 0
    5951 00000009 6F00          B         $C$L111,UNC           ; [CPU_ALU] |1885| 
    5952                      ; branch occurs ; [] |1885| 
    5953                      .dwattr $C$DW$113, DW_AT_TI_end_file("../DeviceSupport/source/f28003x_defaultisr.c")
    5954                      .dwattr $C$DW$113, DW_AT_TI_end_line(0x75e)
    5955                      .dwattr $C$DW$113, DW_AT_TI_end_column(0x01)
    5956                      .dwendentry
    5957                      .dwendtag $C$DW$113
    5958              
    5959 00000000               .sect   ".text:_CLA1_5_ISR"
    5960                      .retain
    5961                      .retainrefs
    5962                      .global _CLA1_5_ISR
    5963              
    5964              $C$DW$114       .dwtag  DW_TAG_subprogram
    5965                      .dwattr $C$DW$114, DW_AT_name("CLA1_5_ISR")
    5966                      .dwattr $C$DW$114, DW_AT_low_pc(_CLA1_5_ISR)
    5967                      .dwattr $C$DW$114, DW_AT_high_pc(0x00)
    5968                      .dwattr $C$DW$114, DW_AT_TI_symbol_name("_CLA1_5_ISR")
    5969                      .dwattr $C$DW$114, DW_AT_external
    5970                      .dwattr $C$DW$114, DW_AT_TI_begin_file("../DeviceSupport/source/f28003x_defaultisr.c")
    5971                      .dwattr $C$DW$114, DW_AT_TI_begin_line(0x735)
    5972                      .dwattr $C$DW$114, DW_AT_TI_begin_column(0x10)
    5973                      .dwattr $C$DW$114, DW_AT_TI_interrupt
    5974                      .dwattr $C$DW$114, DW_AT_TI_max_frame_size(-6)
    5975                      .dwpsn  file "../DeviceSupport/source/f28003x_defaultisr.c",line 1846,column 1,is_stmt,address _CLA1_
    5976              
    5977                      .dwfde $C$DW$CIE, _CLA1_5_ISR
    5978              
    5979              ;***************************************************************
    5980              ;* FNAME: _CLA1_5_ISR                   FR SIZE:   4           *
    5981              ;*                                                             *
    5982              ;* FUNCTION ENVIRONMENT                                        *
    5983              ;*                                                             *
    5984              ;* FUNCTION PROPERTIES                                         *
    5985              ;*                            0 Parameter,  0 Auto,  4 SOE     *
    5986              ;***************************************************************
    5987              
    5988 00000000       _CLA1_5_ISR:
    5989                      .dwcfi  cfa_offset, -2
    5990                      .dwcfi  save_reg_to_mem, 26, 0
TMS320C2000 Assembler PC v22.6.1 Wed May 21 09:51:54 2025

Copyright (c) 1996-2018 Texas Instruments Incorporated
C:\Users\Daniel\AppData\Local\Temp\{513EF8AD-E23E-4989-8EC9-611DE01417F7} PAGE  114

    5991 00000000 761B          ASP       ; [CPU_ALU] 
    5992 00000001 FFF0          PUSH      RB                    ; [CPU_FPU] 
    5993                      .dwcfi  save_reg_to_mem, 74, 4
    5994                      .dwcfi  cfa_offset, -4
    5995 00000002 E200          MOV32     *SP++,STF             ; [CPU_FPU] 
         00000003 00BD 
    5996                      .dwcfi  save_reg_to_mem, 40, 6
    5997                      .dwcfi  cfa_offset, -6
    5998 00000004 E630          SETFLG    RNDF32=1, RNDF64=1    ; [CPU_FPU] 
         00000005 0600 
    5999 00000006 2942          CLRC      PAGE0,OVM             ; [CPU_ALU] 
    6000 00000007 5616          CLRC      AMODE                 ; [CPU_ALU] 
    6001 00000008 7625        ESTOP0
    6002 00000009       $C$L112:    
    6003                      .dwpsn  file "../DeviceSupport/source/f28003x_defaultisr.c",line 1862,column 5,is_stmt,isa 0
    6004 00000009 6F00          B         $C$L112,UNC           ; [CPU_ALU] |1862| 
    6005                      ; branch occurs ; [] |1862| 
    6006                      .dwattr $C$DW$114, DW_AT_TI_end_file("../DeviceSupport/source/f28003x_defaultisr.c")
    6007                      .dwattr $C$DW$114, DW_AT_TI_end_line(0x747)
    6008                      .dwattr $C$DW$114, DW_AT_TI_end_column(0x01)
    6009                      .dwendentry
    6010                      .dwendtag $C$DW$114
    6011              
    6012 00000000               .sect   ".text:_CLA1_4_ISR"
    6013                      .retain
    6014                      .retainrefs
    6015                      .global _CLA1_4_ISR
    6016              
    6017              $C$DW$115       .dwtag  DW_TAG_subprogram
    6018                      .dwattr $C$DW$115, DW_AT_name("CLA1_4_ISR")
    6019                      .dwattr $C$DW$115, DW_AT_low_pc(_CLA1_4_ISR)
    6020                      .dwattr $C$DW$115, DW_AT_high_pc(0x00)
    6021                      .dwattr $C$DW$115, DW_AT_TI_symbol_name("_CLA1_4_ISR")
    6022                      .dwattr $C$DW$115, DW_AT_external
    6023                      .dwattr $C$DW$115, DW_AT_TI_begin_file("../DeviceSupport/source/f28003x_defaultisr.c")
    6024                      .dwattr $C$DW$115, DW_AT_TI_begin_line(0x71e)
    6025                      .dwattr $C$DW$115, DW_AT_TI_begin_column(0x10)
    6026                      .dwattr $C$DW$115, DW_AT_TI_interrupt
    6027                      .dwattr $C$DW$115, DW_AT_TI_max_frame_size(-6)
    6028                      .dwpsn  file "../DeviceSupport/source/f28003x_defaultisr.c",line 1823,column 1,is_stmt,address _CLA1_
    6029              
    6030                      .dwfde $C$DW$CIE, _CLA1_4_ISR
    6031              
    6032              ;***************************************************************
    6033              ;* FNAME: _CLA1_4_ISR                   FR SIZE:   4           *
    6034              ;*                                                             *
    6035              ;* FUNCTION ENVIRONMENT                                        *
    6036              ;*                                                             *
    6037              ;* FUNCTION PROPERTIES                                         *
    6038              ;*                            0 Parameter,  0 Auto,  4 SOE     *
    6039              ;***************************************************************
    6040              
    6041 00000000       _CLA1_4_ISR:
    6042                      .dwcfi  cfa_offset, -2
    6043                      .dwcfi  save_reg_to_mem, 26, 0
TMS320C2000 Assembler PC v22.6.1 Wed May 21 09:51:54 2025

Copyright (c) 1996-2018 Texas Instruments Incorporated
C:\Users\Daniel\AppData\Local\Temp\{513EF8AD-E23E-4989-8EC9-611DE01417F7} PAGE  115

    6044 00000000 761B          ASP       ; [CPU_ALU] 
    6045 00000001 FFF0          PUSH      RB                    ; [CPU_FPU] 
    6046                      .dwcfi  save_reg_to_mem, 74, 4
    6047                      .dwcfi  cfa_offset, -4
    6048 00000002 E200          MOV32     *SP++,STF             ; [CPU_FPU] 
         00000003 00BD 
    6049                      .dwcfi  save_reg_to_mem, 40, 6
    6050                      .dwcfi  cfa_offset, -6
    6051 00000004 E630          SETFLG    RNDF32=1, RNDF64=1    ; [CPU_FPU] 
         00000005 0600 
    6052 00000006 2942          CLRC      PAGE0,OVM             ; [CPU_ALU] 
    6053 00000007 5616          CLRC      AMODE                 ; [CPU_ALU] 
    6054 00000008 7625        ESTOP0
    6055 00000009       $C$L113:    
    6056                      .dwpsn  file "../DeviceSupport/source/f28003x_defaultisr.c",line 1839,column 5,is_stmt,isa 0
    6057 00000009 6F00          B         $C$L113,UNC           ; [CPU_ALU] |1839| 
    6058                      ; branch occurs ; [] |1839| 
    6059                      .dwattr $C$DW$115, DW_AT_TI_end_file("../DeviceSupport/source/f28003x_defaultisr.c")
    6060                      .dwattr $C$DW$115, DW_AT_TI_end_line(0x730)
    6061                      .dwattr $C$DW$115, DW_AT_TI_end_column(0x01)
    6062                      .dwendentry
    6063                      .dwendtag $C$DW$115
    6064              
    6065 00000000               .sect   ".text:_CLA1_3_ISR"
    6066                      .retain
    6067                      .retainrefs
    6068                      .global _CLA1_3_ISR
    6069              
    6070              $C$DW$116       .dwtag  DW_TAG_subprogram
    6071                      .dwattr $C$DW$116, DW_AT_name("CLA1_3_ISR")
    6072                      .dwattr $C$DW$116, DW_AT_low_pc(_CLA1_3_ISR)
    6073                      .dwattr $C$DW$116, DW_AT_high_pc(0x00)
    6074                      .dwattr $C$DW$116, DW_AT_TI_symbol_name("_CLA1_3_ISR")
    6075                      .dwattr $C$DW$116, DW_AT_external
    6076                      .dwattr $C$DW$116, DW_AT_TI_begin_file("../DeviceSupport/source/f28003x_defaultisr.c")
    6077                      .dwattr $C$DW$116, DW_AT_TI_begin_line(0x707)
    6078                      .dwattr $C$DW$116, DW_AT_TI_begin_column(0x10)
    6079                      .dwattr $C$DW$116, DW_AT_TI_interrupt
    6080                      .dwattr $C$DW$116, DW_AT_TI_max_frame_size(-6)
    6081                      .dwpsn  file "../DeviceSupport/source/f28003x_defaultisr.c",line 1800,column 1,is_stmt,address _CLA1_
    6082              
    6083                      .dwfde $C$DW$CIE, _CLA1_3_ISR
    6084              
    6085              ;***************************************************************
    6086              ;* FNAME: _CLA1_3_ISR                   FR SIZE:   4           *
    6087              ;*                                                             *
    6088              ;* FUNCTION ENVIRONMENT                                        *
    6089              ;*                                                             *
    6090              ;* FUNCTION PROPERTIES                                         *
    6091              ;*                            0 Parameter,  0 Auto,  4 SOE     *
    6092              ;***************************************************************
    6093              
    6094 00000000       _CLA1_3_ISR:
    6095                      .dwcfi  cfa_offset, -2
    6096                      .dwcfi  save_reg_to_mem, 26, 0
TMS320C2000 Assembler PC v22.6.1 Wed May 21 09:51:54 2025

Copyright (c) 1996-2018 Texas Instruments Incorporated
C:\Users\Daniel\AppData\Local\Temp\{513EF8AD-E23E-4989-8EC9-611DE01417F7} PAGE  116

    6097 00000000 761B          ASP       ; [CPU_ALU] 
    6098 00000001 FFF0          PUSH      RB                    ; [CPU_FPU] 
    6099                      .dwcfi  save_reg_to_mem, 74, 4
    6100                      .dwcfi  cfa_offset, -4
    6101 00000002 E200          MOV32     *SP++,STF             ; [CPU_FPU] 
         00000003 00BD 
    6102                      .dwcfi  save_reg_to_mem, 40, 6
    6103                      .dwcfi  cfa_offset, -6
    6104 00000004 E630          SETFLG    RNDF32=1, RNDF64=1    ; [CPU_FPU] 
         00000005 0600 
    6105 00000006 2942          CLRC      PAGE0,OVM             ; [CPU_ALU] 
    6106 00000007 5616          CLRC      AMODE                 ; [CPU_ALU] 
    6107 00000008 7625        ESTOP0
    6108 00000009       $C$L114:    
    6109                      .dwpsn  file "../DeviceSupport/source/f28003x_defaultisr.c",line 1816,column 5,is_stmt,isa 0
    6110 00000009 6F00          B         $C$L114,UNC           ; [CPU_ALU] |1816| 
    6111                      ; branch occurs ; [] |1816| 
    6112                      .dwattr $C$DW$116, DW_AT_TI_end_file("../DeviceSupport/source/f28003x_defaultisr.c")
    6113                      .dwattr $C$DW$116, DW_AT_TI_end_line(0x719)
    6114                      .dwattr $C$DW$116, DW_AT_TI_end_column(0x01)
    6115                      .dwendentry
    6116                      .dwendtag $C$DW$116
    6117              
    6118 00000000               .sect   ".text:_CLA1_2_ISR"
    6119                      .retain
    6120                      .retainrefs
    6121                      .global _CLA1_2_ISR
    6122              
    6123              $C$DW$117       .dwtag  DW_TAG_subprogram
    6124                      .dwattr $C$DW$117, DW_AT_name("CLA1_2_ISR")
    6125                      .dwattr $C$DW$117, DW_AT_low_pc(_CLA1_2_ISR)
    6126                      .dwattr $C$DW$117, DW_AT_high_pc(0x00)
    6127                      .dwattr $C$DW$117, DW_AT_TI_symbol_name("_CLA1_2_ISR")
    6128                      .dwattr $C$DW$117, DW_AT_external
    6129                      .dwattr $C$DW$117, DW_AT_TI_begin_file("../DeviceSupport/source/f28003x_defaultisr.c")
    6130                      .dwattr $C$DW$117, DW_AT_TI_begin_line(0x6f0)
    6131                      .dwattr $C$DW$117, DW_AT_TI_begin_column(0x10)
    6132                      .dwattr $C$DW$117, DW_AT_TI_interrupt
    6133                      .dwattr $C$DW$117, DW_AT_TI_max_frame_size(-6)
    6134                      .dwpsn  file "../DeviceSupport/source/f28003x_defaultisr.c",line 1777,column 1,is_stmt,address _CLA1_
    6135              
    6136                      .dwfde $C$DW$CIE, _CLA1_2_ISR
    6137              
    6138              ;***************************************************************
    6139              ;* FNAME: _CLA1_2_ISR                   FR SIZE:   4           *
    6140              ;*                                                             *
    6141              ;* FUNCTION ENVIRONMENT                                        *
    6142              ;*                                                             *
    6143              ;* FUNCTION PROPERTIES                                         *
    6144              ;*                            0 Parameter,  0 Auto,  4 SOE     *
    6145              ;***************************************************************
    6146              
    6147 00000000       _CLA1_2_ISR:
    6148                      .dwcfi  cfa_offset, -2
    6149                      .dwcfi  save_reg_to_mem, 26, 0
TMS320C2000 Assembler PC v22.6.1 Wed May 21 09:51:54 2025

Copyright (c) 1996-2018 Texas Instruments Incorporated
C:\Users\Daniel\AppData\Local\Temp\{513EF8AD-E23E-4989-8EC9-611DE01417F7} PAGE  117

    6150 00000000 761B          ASP       ; [CPU_ALU] 
    6151 00000001 FFF0          PUSH      RB                    ; [CPU_FPU] 
    6152                      .dwcfi  save_reg_to_mem, 74, 4
    6153                      .dwcfi  cfa_offset, -4
    6154 00000002 E200          MOV32     *SP++,STF             ; [CPU_FPU] 
         00000003 00BD 
    6155                      .dwcfi  save_reg_to_mem, 40, 6
    6156                      .dwcfi  cfa_offset, -6
    6157 00000004 E630          SETFLG    RNDF32=1, RNDF64=1    ; [CPU_FPU] 
         00000005 0600 
    6158 00000006 2942          CLRC      PAGE0,OVM             ; [CPU_ALU] 
    6159 00000007 5616          CLRC      AMODE                 ; [CPU_ALU] 
    6160 00000008 7625        ESTOP0
    6161 00000009       $C$L115:    
    6162                      .dwpsn  file "../DeviceSupport/source/f28003x_defaultisr.c",line 1793,column 5,is_stmt,isa 0
    6163 00000009 6F00          B         $C$L115,UNC           ; [CPU_ALU] |1793| 
    6164                      ; branch occurs ; [] |1793| 
    6165                      .dwattr $C$DW$117, DW_AT_TI_end_file("../DeviceSupport/source/f28003x_defaultisr.c")
    6166                      .dwattr $C$DW$117, DW_AT_TI_end_line(0x702)
    6167                      .dwattr $C$DW$117, DW_AT_TI_end_column(0x01)
    6168                      .dwendentry
    6169                      .dwendtag $C$DW$117
    6170              
    6171 00000000               .sect   ".text:_CLA1_1_ISR"
    6172                      .retain
    6173                      .retainrefs
    6174                      .global _CLA1_1_ISR
    6175              
    6176              $C$DW$118       .dwtag  DW_TAG_subprogram
    6177                      .dwattr $C$DW$118, DW_AT_name("CLA1_1_ISR")
    6178                      .dwattr $C$DW$118, DW_AT_low_pc(_CLA1_1_ISR)
    6179                      .dwattr $C$DW$118, DW_AT_high_pc(0x00)
    6180                      .dwattr $C$DW$118, DW_AT_TI_symbol_name("_CLA1_1_ISR")
    6181                      .dwattr $C$DW$118, DW_AT_external
    6182                      .dwattr $C$DW$118, DW_AT_TI_begin_file("../DeviceSupport/source/f28003x_defaultisr.c")
    6183                      .dwattr $C$DW$118, DW_AT_TI_begin_line(0x6d9)
    6184                      .dwattr $C$DW$118, DW_AT_TI_begin_column(0x10)
    6185                      .dwattr $C$DW$118, DW_AT_TI_interrupt
    6186                      .dwattr $C$DW$118, DW_AT_TI_max_frame_size(-6)
    6187                      .dwpsn  file "../DeviceSupport/source/f28003x_defaultisr.c",line 1754,column 1,is_stmt,address _CLA1_
    6188              
    6189                      .dwfde $C$DW$CIE, _CLA1_1_ISR
    6190              
    6191              ;***************************************************************
    6192              ;* FNAME: _CLA1_1_ISR                   FR SIZE:   4           *
    6193              ;*                                                             *
    6194              ;* FUNCTION ENVIRONMENT                                        *
    6195              ;*                                                             *
    6196              ;* FUNCTION PROPERTIES                                         *
    6197              ;*                            0 Parameter,  0 Auto,  4 SOE     *
    6198              ;***************************************************************
    6199              
    6200 00000000       _CLA1_1_ISR:
    6201                      .dwcfi  cfa_offset, -2
    6202                      .dwcfi  save_reg_to_mem, 26, 0
TMS320C2000 Assembler PC v22.6.1 Wed May 21 09:51:54 2025

Copyright (c) 1996-2018 Texas Instruments Incorporated
C:\Users\Daniel\AppData\Local\Temp\{513EF8AD-E23E-4989-8EC9-611DE01417F7} PAGE  118

    6203 00000000 761B          ASP       ; [CPU_ALU] 
    6204 00000001 FFF0          PUSH      RB                    ; [CPU_FPU] 
    6205                      .dwcfi  save_reg_to_mem, 74, 4
    6206                      .dwcfi  cfa_offset, -4
    6207 00000002 E200          MOV32     *SP++,STF             ; [CPU_FPU] 
         00000003 00BD 
    6208                      .dwcfi  save_reg_to_mem, 40, 6
    6209                      .dwcfi  cfa_offset, -6
    6210 00000004 E630          SETFLG    RNDF32=1, RNDF64=1    ; [CPU_FPU] 
         00000005 0600 
    6211 00000006 2942          CLRC      PAGE0,OVM             ; [CPU_ALU] 
    6212 00000007 5616          CLRC      AMODE                 ; [CPU_ALU] 
    6213 00000008 7625        ESTOP0
    6214 00000009       $C$L116:    
    6215                      .dwpsn  file "../DeviceSupport/source/f28003x_defaultisr.c",line 1770,column 5,is_stmt,isa 0
    6216 00000009 6F00          B         $C$L116,UNC           ; [CPU_ALU] |1770| 
    6217                      ; branch occurs ; [] |1770| 
    6218                      .dwattr $C$DW$118, DW_AT_TI_end_file("../DeviceSupport/source/f28003x_defaultisr.c")
    6219                      .dwattr $C$DW$118, DW_AT_TI_end_line(0x6eb)
    6220                      .dwattr $C$DW$118, DW_AT_TI_end_column(0x01)
    6221                      .dwendentry
    6222                      .dwendtag $C$DW$118
    6223              
    6224 00000000               .sect   ".text:_CANA1_ISR"
    6225                      .retain
    6226                      .retainrefs
    6227                      .global _CANA1_ISR
    6228              
    6229              $C$DW$119       .dwtag  DW_TAG_subprogram
    6230                      .dwattr $C$DW$119, DW_AT_name("CANA1_ISR")
    6231                      .dwattr $C$DW$119, DW_AT_low_pc(_CANA1_ISR)
    6232                      .dwattr $C$DW$119, DW_AT_high_pc(0x00)
    6233                      .dwattr $C$DW$119, DW_AT_TI_symbol_name("_CANA1_ISR")
    6234                      .dwattr $C$DW$119, DW_AT_external
    6235                      .dwattr $C$DW$119, DW_AT_TI_begin_file("../DeviceSupport/source/f28003x_defaultisr.c")
    6236                      .dwattr $C$DW$119, DW_AT_TI_begin_line(0x60a)
    6237                      .dwattr $C$DW$119, DW_AT_TI_begin_column(0x10)
    6238                      .dwattr $C$DW$119, DW_AT_TI_interrupt
    6239                      .dwattr $C$DW$119, DW_AT_TI_max_frame_size(-6)
    6240                      .dwpsn  file "../DeviceSupport/source/f28003x_defaultisr.c",line 1547,column 1,is_stmt,address _CANA1
    6241              
    6242                      .dwfde $C$DW$CIE, _CANA1_ISR
    6243              
    6244              ;***************************************************************
    6245              ;* FNAME: _CANA1_ISR                    FR SIZE:   4           *
    6246              ;*                                                             *
    6247              ;* FUNCTION ENVIRONMENT                                        *
    6248              ;*                                                             *
    6249              ;* FUNCTION PROPERTIES                                         *
    6250              ;*                            0 Parameter,  0 Auto,  4 SOE     *
    6251              ;***************************************************************
    6252              
    6253 00000000       _CANA1_ISR:
    6254                      .dwcfi  cfa_offset, -2
    6255                      .dwcfi  save_reg_to_mem, 26, 0
TMS320C2000 Assembler PC v22.6.1 Wed May 21 09:51:54 2025

Copyright (c) 1996-2018 Texas Instruments Incorporated
C:\Users\Daniel\AppData\Local\Temp\{513EF8AD-E23E-4989-8EC9-611DE01417F7} PAGE  119

    6256 00000000 761B          ASP       ; [CPU_ALU] 
    6257 00000001 FFF0          PUSH      RB                    ; [CPU_FPU] 
    6258                      .dwcfi  save_reg_to_mem, 74, 4
    6259                      .dwcfi  cfa_offset, -4
    6260 00000002 E200          MOV32     *SP++,STF             ; [CPU_FPU] 
         00000003 00BD 
    6261                      .dwcfi  save_reg_to_mem, 40, 6
    6262                      .dwcfi  cfa_offset, -6
    6263 00000004 E630          SETFLG    RNDF32=1, RNDF64=1    ; [CPU_FPU] 
         00000005 0600 
    6264 00000006 2942          CLRC      PAGE0,OVM             ; [CPU_ALU] 
    6265 00000007 5616          CLRC      AMODE                 ; [CPU_ALU] 
    6266 00000008 7625        ESTOP0
    6267 00000009       $C$L117:    
    6268                      .dwpsn  file "../DeviceSupport/source/f28003x_defaultisr.c",line 1563,column 5,is_stmt,isa 0
    6269 00000009 6F00          B         $C$L117,UNC           ; [CPU_ALU] |1563| 
    6270                      ; branch occurs ; [] |1563| 
    6271                      .dwattr $C$DW$119, DW_AT_TI_end_file("../DeviceSupport/source/f28003x_defaultisr.c")
    6272                      .dwattr $C$DW$119, DW_AT_TI_end_line(0x61c)
    6273                      .dwattr $C$DW$119, DW_AT_TI_end_column(0x01)
    6274                      .dwendentry
    6275                      .dwendtag $C$DW$119
    6276              
    6277 00000000               .sect   ".text:_CANA0_ISR"
    6278                      .retain
    6279                      .retainrefs
    6280                      .global _CANA0_ISR
    6281              
    6282              $C$DW$120       .dwtag  DW_TAG_subprogram
    6283                      .dwattr $C$DW$120, DW_AT_name("CANA0_ISR")
    6284                      .dwattr $C$DW$120, DW_AT_low_pc(_CANA0_ISR)
    6285                      .dwattr $C$DW$120, DW_AT_high_pc(0x00)
    6286                      .dwattr $C$DW$120, DW_AT_TI_symbol_name("_CANA0_ISR")
    6287                      .dwattr $C$DW$120, DW_AT_external
    6288                      .dwattr $C$DW$120, DW_AT_TI_begin_file("../DeviceSupport/source/f28003x_defaultisr.c")
    6289                      .dwattr $C$DW$120, DW_AT_TI_begin_line(0x5f3)
    6290                      .dwattr $C$DW$120, DW_AT_TI_begin_column(0x10)
    6291                      .dwattr $C$DW$120, DW_AT_TI_interrupt
    6292                      .dwattr $C$DW$120, DW_AT_TI_max_frame_size(-6)
    6293                      .dwpsn  file "../DeviceSupport/source/f28003x_defaultisr.c",line 1524,column 1,is_stmt,address _CANA0
    6294              
    6295                      .dwfde $C$DW$CIE, _CANA0_ISR
    6296              
    6297              ;***************************************************************
    6298              ;* FNAME: _CANA0_ISR                    FR SIZE:   4           *
    6299              ;*                                                             *
    6300              ;* FUNCTION ENVIRONMENT                                        *
    6301              ;*                                                             *
    6302              ;* FUNCTION PROPERTIES                                         *
    6303              ;*                            0 Parameter,  0 Auto,  4 SOE     *
    6304              ;***************************************************************
    6305              
    6306 00000000       _CANA0_ISR:
    6307                      .dwcfi  cfa_offset, -2
    6308                      .dwcfi  save_reg_to_mem, 26, 0
TMS320C2000 Assembler PC v22.6.1 Wed May 21 09:51:54 2025

Copyright (c) 1996-2018 Texas Instruments Incorporated
C:\Users\Daniel\AppData\Local\Temp\{513EF8AD-E23E-4989-8EC9-611DE01417F7} PAGE  120

    6309 00000000 761B          ASP       ; [CPU_ALU] 
    6310 00000001 FFF0          PUSH      RB                    ; [CPU_FPU] 
    6311                      .dwcfi  save_reg_to_mem, 74, 4
    6312                      .dwcfi  cfa_offset, -4
    6313 00000002 E200          MOV32     *SP++,STF             ; [CPU_FPU] 
         00000003 00BD 
    6314                      .dwcfi  save_reg_to_mem, 40, 6
    6315                      .dwcfi  cfa_offset, -6
    6316 00000004 E630          SETFLG    RNDF32=1, RNDF64=1    ; [CPU_FPU] 
         00000005 0600 
    6317 00000006 2942          CLRC      PAGE0,OVM             ; [CPU_ALU] 
    6318 00000007 5616          CLRC      AMODE                 ; [CPU_ALU] 
    6319 00000008 7625        ESTOP0
    6320 00000009       $C$L118:    
    6321                      .dwpsn  file "../DeviceSupport/source/f28003x_defaultisr.c",line 1540,column 5,is_stmt,isa 0
    6322 00000009 6F00          B         $C$L118,UNC           ; [CPU_ALU] |1540| 
    6323                      ; branch occurs ; [] |1540| 
    6324                      .dwattr $C$DW$120, DW_AT_TI_end_file("../DeviceSupport/source/f28003x_defaultisr.c")
    6325                      .dwattr $C$DW$120, DW_AT_TI_end_line(0x605)
    6326                      .dwattr $C$DW$120, DW_AT_TI_end_column(0x01)
    6327                      .dwendentry
    6328                      .dwendtag $C$DW$120
    6329              
    6330 00000000               .sect   ".text:_BGCRC_ISR"
    6331                      .retain
    6332                      .retainrefs
    6333                      .global _BGCRC_ISR
    6334              
    6335              $C$DW$121       .dwtag  DW_TAG_subprogram
    6336                      .dwattr $C$DW$121, DW_AT_name("BGCRC_ISR")
    6337                      .dwattr $C$DW$121, DW_AT_low_pc(_BGCRC_ISR)
    6338                      .dwattr $C$DW$121, DW_AT_high_pc(0x00)
    6339                      .dwattr $C$DW$121, DW_AT_TI_symbol_name("_BGCRC_ISR")
    6340                      .dwattr $C$DW$121, DW_AT_external
    6341                      .dwattr $C$DW$121, DW_AT_TI_begin_file("../DeviceSupport/source/f28003x_defaultisr.c")
    6342                      .dwattr $C$DW$121, DW_AT_TI_begin_line(0xa9f)
    6343                      .dwattr $C$DW$121, DW_AT_TI_begin_column(0x10)
    6344                      .dwattr $C$DW$121, DW_AT_TI_interrupt
    6345                      .dwattr $C$DW$121, DW_AT_TI_max_frame_size(-6)
    6346                      .dwpsn  file "../DeviceSupport/source/f28003x_defaultisr.c",line 2720,column 1,is_stmt,address _BGCRC
    6347              
    6348                      .dwfde $C$DW$CIE, _BGCRC_ISR
    6349              
    6350              ;***************************************************************
    6351              ;* FNAME: _BGCRC_ISR                    FR SIZE:   4           *
    6352              ;*                                                             *
    6353              ;* FUNCTION ENVIRONMENT                                        *
    6354              ;*                                                             *
    6355              ;* FUNCTION PROPERTIES                                         *
    6356              ;*                            0 Parameter,  0 Auto,  4 SOE     *
    6357              ;***************************************************************
    6358              
    6359 00000000       _BGCRC_ISR:
    6360                      .dwcfi  cfa_offset, -2
    6361                      .dwcfi  save_reg_to_mem, 26, 0
TMS320C2000 Assembler PC v22.6.1 Wed May 21 09:51:54 2025

Copyright (c) 1996-2018 Texas Instruments Incorporated
C:\Users\Daniel\AppData\Local\Temp\{513EF8AD-E23E-4989-8EC9-611DE01417F7} PAGE  121

    6362 00000000 761B          ASP       ; [CPU_ALU] 
    6363 00000001 FFF0          PUSH      RB                    ; [CPU_FPU] 
    6364                      .dwcfi  save_reg_to_mem, 74, 4
    6365                      .dwcfi  cfa_offset, -4
    6366 00000002 E200          MOV32     *SP++,STF             ; [CPU_FPU] 
         00000003 00BD 
    6367                      .dwcfi  save_reg_to_mem, 40, 6
    6368                      .dwcfi  cfa_offset, -6
    6369 00000004 E630          SETFLG    RNDF32=1, RNDF64=1    ; [CPU_FPU] 
         00000005 0600 
    6370 00000006 2942          CLRC      PAGE0,OVM             ; [CPU_ALU] 
    6371 00000007 5616          CLRC      AMODE                 ; [CPU_ALU] 
    6372 00000008 7625        ESTOP0
    6373 00000009       $C$L119:    
    6374                      .dwpsn  file "../DeviceSupport/source/f28003x_defaultisr.c",line 2736,column 5,is_stmt,isa 0
    6375 00000009 6F00          B         $C$L119,UNC           ; [CPU_ALU] |2736| 
    6376                      ; branch occurs ; [] |2736| 
    6377                      .dwattr $C$DW$121, DW_AT_TI_end_file("../DeviceSupport/source/f28003x_defaultisr.c")
    6378                      .dwattr $C$DW$121, DW_AT_TI_end_line(0xab1)
    6379                      .dwattr $C$DW$121, DW_AT_TI_end_column(0x01)
    6380                      .dwendentry
    6381                      .dwendtag $C$DW$121
    6382              
    6383 00000000               .sect   ".text:_BGCRC_CLA1_ISR"
    6384                      .retain
    6385                      .retainrefs
    6386                      .global _BGCRC_CLA1_ISR
    6387              
    6388              $C$DW$122       .dwtag  DW_TAG_subprogram
    6389                      .dwattr $C$DW$122, DW_AT_name("BGCRC_CLA1_ISR")
    6390                      .dwattr $C$DW$122, DW_AT_low_pc(_BGCRC_CLA1_ISR)
    6391                      .dwattr $C$DW$122, DW_AT_high_pc(0x00)
    6392                      .dwattr $C$DW$122, DW_AT_TI_symbol_name("_BGCRC_CLA1_ISR")
    6393                      .dwattr $C$DW$122, DW_AT_external
    6394                      .dwattr $C$DW$122, DW_AT_TI_begin_file("../DeviceSupport/source/f28003x_defaultisr.c")
    6395                      .dwattr $C$DW$122, DW_AT_TI_begin_line(0xb85)
    6396                      .dwattr $C$DW$122, DW_AT_TI_begin_column(0x10)
    6397                      .dwattr $C$DW$122, DW_AT_TI_interrupt
    6398                      .dwattr $C$DW$122, DW_AT_TI_max_frame_size(-6)
    6399                      .dwpsn  file "../DeviceSupport/source/f28003x_defaultisr.c",line 2950,column 1,is_stmt,address _BGCRC
    6400              
    6401                      .dwfde $C$DW$CIE, _BGCRC_CLA1_ISR
    6402              
    6403              ;***************************************************************
    6404              ;* FNAME: _BGCRC_CLA1_ISR               FR SIZE:   4           *
    6405              ;*                                                             *
    6406              ;* FUNCTION ENVIRONMENT                                        *
    6407              ;*                                                             *
    6408              ;* FUNCTION PROPERTIES                                         *
    6409              ;*                            0 Parameter,  0 Auto,  4 SOE     *
    6410              ;***************************************************************
    6411              
    6412 00000000       _BGCRC_CLA1_ISR:
    6413                      .dwcfi  cfa_offset, -2
    6414                      .dwcfi  save_reg_to_mem, 26, 0
TMS320C2000 Assembler PC v22.6.1 Wed May 21 09:51:54 2025

Copyright (c) 1996-2018 Texas Instruments Incorporated
C:\Users\Daniel\AppData\Local\Temp\{513EF8AD-E23E-4989-8EC9-611DE01417F7} PAGE  122

    6415 00000000 761B          ASP       ; [CPU_ALU] 
    6416 00000001 FFF0          PUSH      RB                    ; [CPU_FPU] 
    6417                      .dwcfi  save_reg_to_mem, 74, 4
    6418                      .dwcfi  cfa_offset, -4
    6419 00000002 E200          MOV32     *SP++,STF             ; [CPU_FPU] 
         00000003 00BD 
    6420                      .dwcfi  save_reg_to_mem, 40, 6
    6421                      .dwcfi  cfa_offset, -6
    6422 00000004 E630          SETFLG    RNDF32=1, RNDF64=1    ; [CPU_FPU] 
         00000005 0600 
    6423 00000006 2942          CLRC      PAGE0,OVM             ; [CPU_ALU] 
    6424 00000007 5616          CLRC      AMODE                 ; [CPU_ALU] 
    6425 00000008 7625        ESTOP0
    6426 00000009       $C$L120:    
    6427                      .dwpsn  file "../DeviceSupport/source/f28003x_defaultisr.c",line 2966,column 5,is_stmt,isa 0
    6428 00000009 6F00          B         $C$L120,UNC           ; [CPU_ALU] |2966| 
    6429                      ; branch occurs ; [] |2966| 
    6430                      .dwattr $C$DW$122, DW_AT_TI_end_file("../DeviceSupport/source/f28003x_defaultisr.c")
    6431                      .dwattr $C$DW$122, DW_AT_TI_end_line(0xb97)
    6432                      .dwattr $C$DW$122, DW_AT_TI_end_column(0x01)
    6433                      .dwendentry
    6434                      .dwendtag $C$DW$122
    6435              
    6436 00000000               .sect   ".text:_AES_SINTREQUEST_ISR"
    6437                      .retain
    6438                      .retainrefs
    6439                      .global _AES_SINTREQUEST_ISR
    6440              
    6441              $C$DW$123       .dwtag  DW_TAG_subprogram
    6442                      .dwattr $C$DW$123, DW_AT_name("AES_SINTREQUEST_ISR")
    6443                      .dwattr $C$DW$123, DW_AT_low_pc(_AES_SINTREQUEST_ISR)
    6444                      .dwattr $C$DW$123, DW_AT_high_pc(0x00)
    6445                      .dwattr $C$DW$123, DW_AT_TI_symbol_name("_AES_SINTREQUEST_ISR")
    6446                      .dwattr $C$DW$123, DW_AT_external
    6447                      .dwattr $C$DW$123, DW_AT_TI_begin_file("../DeviceSupport/source/f28003x_defaultisr.c")
    6448                      .dwattr $C$DW$123, DW_AT_TI_begin_line(0xb6e)
    6449                      .dwattr $C$DW$123, DW_AT_TI_begin_column(0x10)
    6450                      .dwattr $C$DW$123, DW_AT_TI_interrupt
    6451                      .dwattr $C$DW$123, DW_AT_TI_max_frame_size(-6)
    6452                      .dwpsn  file "../DeviceSupport/source/f28003x_defaultisr.c",line 2927,column 1,is_stmt,address _AES_S
    6453              
    6454                      .dwfde $C$DW$CIE, _AES_SINTREQUEST_ISR
    6455              
    6456              ;***************************************************************
    6457              ;* FNAME: _AES_SINTREQUEST_ISR          FR SIZE:   4           *
    6458              ;*                                                             *
    6459              ;* FUNCTION ENVIRONMENT                                        *
    6460              ;*                                                             *
    6461              ;* FUNCTION PROPERTIES                                         *
    6462              ;*                            0 Parameter,  0 Auto,  4 SOE     *
    6463              ;***************************************************************
    6464              
    6465 00000000       _AES_SINTREQUEST_ISR:
    6466                      .dwcfi  cfa_offset, -2
    6467                      .dwcfi  save_reg_to_mem, 26, 0
TMS320C2000 Assembler PC v22.6.1 Wed May 21 09:51:54 2025

Copyright (c) 1996-2018 Texas Instruments Incorporated
C:\Users\Daniel\AppData\Local\Temp\{513EF8AD-E23E-4989-8EC9-611DE01417F7} PAGE  123

    6468 00000000 761B          ASP       ; [CPU_ALU] 
    6469 00000001 FFF0          PUSH      RB                    ; [CPU_FPU] 
    6470                      .dwcfi  save_reg_to_mem, 74, 4
    6471                      .dwcfi  cfa_offset, -4
    6472 00000002 E200          MOV32     *SP++,STF             ; [CPU_FPU] 
         00000003 00BD 
    6473                      .dwcfi  save_reg_to_mem, 40, 6
    6474                      .dwcfi  cfa_offset, -6
    6475 00000004 E630          SETFLG    RNDF32=1, RNDF64=1    ; [CPU_FPU] 
         00000005 0600 
    6476 00000006 2942          CLRC      PAGE0,OVM             ; [CPU_ALU] 
    6477 00000007 5616          CLRC      AMODE                 ; [CPU_ALU] 
    6478 00000008 7625        ESTOP0
    6479 00000009       $C$L121:    
    6480                      .dwpsn  file "../DeviceSupport/source/f28003x_defaultisr.c",line 2943,column 5,is_stmt,isa 0
    6481 00000009 6F00          B         $C$L121,UNC           ; [CPU_ALU] |2943| 
    6482                      ; branch occurs ; [] |2943| 
    6483                      .dwattr $C$DW$123, DW_AT_TI_end_file("../DeviceSupport/source/f28003x_defaultisr.c")
    6484                      .dwattr $C$DW$123, DW_AT_TI_end_line(0xb80)
    6485                      .dwattr $C$DW$123, DW_AT_TI_end_column(0x01)
    6486                      .dwendentry
    6487                      .dwendtag $C$DW$123
    6488              
    6489 00000000               .sect   ".text:_ADCC_EVT_ISR"
    6490                      .retain
    6491                      .retainrefs
    6492                      .global _ADCC_EVT_ISR
    6493              
    6494              $C$DW$124       .dwtag  DW_TAG_subprogram
    6495                      .dwattr $C$DW$124, DW_AT_name("ADCC_EVT_ISR")
    6496                      .dwattr $C$DW$124, DW_AT_low_pc(_ADCC_EVT_ISR)
    6497                      .dwattr $C$DW$124, DW_AT_high_pc(0x00)
    6498                      .dwattr $C$DW$124, DW_AT_TI_symbol_name("_ADCC_EVT_ISR")
    6499                      .dwattr $C$DW$124, DW_AT_external
    6500                      .dwattr $C$DW$124, DW_AT_TI_begin_file("../DeviceSupport/source/f28003x_defaultisr.c")
    6501                      .dwattr $C$DW$124, DW_AT_TI_begin_line(0xacd)
    6502                      .dwattr $C$DW$124, DW_AT_TI_begin_column(0x10)
    6503                      .dwattr $C$DW$124, DW_AT_TI_interrupt
    6504                      .dwattr $C$DW$124, DW_AT_TI_max_frame_size(-6)
    6505                      .dwpsn  file "../DeviceSupport/source/f28003x_defaultisr.c",line 2766,column 1,is_stmt,address _ADCC_
    6506              
    6507                      .dwfde $C$DW$CIE, _ADCC_EVT_ISR
    6508              
    6509              ;***************************************************************
    6510              ;* FNAME: _ADCC_EVT_ISR                 FR SIZE:   4           *
    6511              ;*                                                             *
    6512              ;* FUNCTION ENVIRONMENT                                        *
    6513              ;*                                                             *
    6514              ;* FUNCTION PROPERTIES                                         *
    6515              ;*                            0 Parameter,  0 Auto,  4 SOE     *
    6516              ;***************************************************************
    6517              
    6518 00000000       _ADCC_EVT_ISR:
    6519                      .dwcfi  cfa_offset, -2
    6520                      .dwcfi  save_reg_to_mem, 26, 0
TMS320C2000 Assembler PC v22.6.1 Wed May 21 09:51:54 2025

Copyright (c) 1996-2018 Texas Instruments Incorporated
C:\Users\Daniel\AppData\Local\Temp\{513EF8AD-E23E-4989-8EC9-611DE01417F7} PAGE  124

    6521 00000000 761B          ASP       ; [CPU_ALU] 
    6522 00000001 FFF0          PUSH      RB                    ; [CPU_FPU] 
    6523                      .dwcfi  save_reg_to_mem, 74, 4
    6524                      .dwcfi  cfa_offset, -4
    6525 00000002 E200          MOV32     *SP++,STF             ; [CPU_FPU] 
         00000003 00BD 
    6526                      .dwcfi  save_reg_to_mem, 40, 6
    6527                      .dwcfi  cfa_offset, -6
    6528 00000004 E630          SETFLG    RNDF32=1, RNDF64=1    ; [CPU_FPU] 
         00000005 0600 
    6529 00000006 2942          CLRC      PAGE0,OVM             ; [CPU_ALU] 
    6530 00000007 5616          CLRC      AMODE                 ; [CPU_ALU] 
    6531 00000008 7625        ESTOP0
    6532 00000009       $C$L122:    
    6533                      .dwpsn  file "../DeviceSupport/source/f28003x_defaultisr.c",line 2782,column 5,is_stmt,isa 0
    6534 00000009 6F00          B         $C$L122,UNC           ; [CPU_ALU] |2782| 
    6535                      ; branch occurs ; [] |2782| 
    6536                      .dwattr $C$DW$124, DW_AT_TI_end_file("../DeviceSupport/source/f28003x_defaultisr.c")
    6537                      .dwattr $C$DW$124, DW_AT_TI_end_line(0xadf)
    6538                      .dwattr $C$DW$124, DW_AT_TI_end_column(0x01)
    6539                      .dwendentry
    6540                      .dwendtag $C$DW$124
    6541              
    6542 00000000               .sect   ".text:_ADCC4_ISR"
    6543                      .retain
    6544                      .retainrefs
    6545                      .global _ADCC4_ISR
    6546              
    6547              $C$DW$125       .dwtag  DW_TAG_subprogram
    6548                      .dwattr $C$DW$125, DW_AT_name("ADCC4_ISR")
    6549                      .dwattr $C$DW$125, DW_AT_low_pc(_ADCC4_ISR)
    6550                      .dwattr $C$DW$125, DW_AT_high_pc(0x00)
    6551                      .dwattr $C$DW$125, DW_AT_TI_symbol_name("_ADCC4_ISR")
    6552                      .dwattr $C$DW$125, DW_AT_external
    6553                      .dwattr $C$DW$125, DW_AT_TI_begin_file("../DeviceSupport/source/f28003x_defaultisr.c")
    6554                      .dwattr $C$DW$125, DW_AT_TI_begin_line(0xb12)
    6555                      .dwattr $C$DW$125, DW_AT_TI_begin_column(0x10)
    6556                      .dwattr $C$DW$125, DW_AT_TI_interrupt
    6557                      .dwattr $C$DW$125, DW_AT_TI_max_frame_size(-6)
    6558                      .dwpsn  file "../DeviceSupport/source/f28003x_defaultisr.c",line 2835,column 1,is_stmt,address _ADCC4
    6559              
    6560                      .dwfde $C$DW$CIE, _ADCC4_ISR
    6561              
    6562              ;***************************************************************
    6563              ;* FNAME: _ADCC4_ISR                    FR SIZE:   4           *
    6564              ;*                                                             *
    6565              ;* FUNCTION ENVIRONMENT                                        *
    6566              ;*                                                             *
    6567              ;* FUNCTION PROPERTIES                                         *
    6568              ;*                            0 Parameter,  0 Auto,  4 SOE     *
    6569              ;***************************************************************
    6570              
    6571 00000000       _ADCC4_ISR:
    6572                      .dwcfi  cfa_offset, -2
    6573                      .dwcfi  save_reg_to_mem, 26, 0
TMS320C2000 Assembler PC v22.6.1 Wed May 21 09:51:54 2025

Copyright (c) 1996-2018 Texas Instruments Incorporated
C:\Users\Daniel\AppData\Local\Temp\{513EF8AD-E23E-4989-8EC9-611DE01417F7} PAGE  125

    6574 00000000 761B          ASP       ; [CPU_ALU] 
    6575 00000001 FFF0          PUSH      RB                    ; [CPU_FPU] 
    6576                      .dwcfi  save_reg_to_mem, 74, 4
    6577                      .dwcfi  cfa_offset, -4
    6578 00000002 E200          MOV32     *SP++,STF             ; [CPU_FPU] 
         00000003 00BD 
    6579                      .dwcfi  save_reg_to_mem, 40, 6
    6580                      .dwcfi  cfa_offset, -6
    6581 00000004 E630          SETFLG    RNDF32=1, RNDF64=1    ; [CPU_FPU] 
         00000005 0600 
    6582 00000006 2942          CLRC      PAGE0,OVM             ; [CPU_ALU] 
    6583 00000007 5616          CLRC      AMODE                 ; [CPU_ALU] 
    6584 00000008 7625        ESTOP0
    6585 00000009       $C$L123:    
    6586                      .dwpsn  file "../DeviceSupport/source/f28003x_defaultisr.c",line 2851,column 5,is_stmt,isa 0
    6587 00000009 6F00          B         $C$L123,UNC           ; [CPU_ALU] |2851| 
    6588                      ; branch occurs ; [] |2851| 
    6589                      .dwattr $C$DW$125, DW_AT_TI_end_file("../DeviceSupport/source/f28003x_defaultisr.c")
    6590                      .dwattr $C$DW$125, DW_AT_TI_end_line(0xb24)
    6591                      .dwattr $C$DW$125, DW_AT_TI_end_column(0x01)
    6592                      .dwendentry
    6593                      .dwendtag $C$DW$125
    6594              
    6595 00000000               .sect   ".text:_ADCC3_ISR"
    6596                      .retain
    6597                      .retainrefs
    6598                      .global _ADCC3_ISR
    6599              
    6600              $C$DW$126       .dwtag  DW_TAG_subprogram
    6601                      .dwattr $C$DW$126, DW_AT_name("ADCC3_ISR")
    6602                      .dwattr $C$DW$126, DW_AT_low_pc(_ADCC3_ISR)
    6603                      .dwattr $C$DW$126, DW_AT_high_pc(0x00)
    6604                      .dwattr $C$DW$126, DW_AT_TI_symbol_name("_ADCC3_ISR")
    6605                      .dwattr $C$DW$126, DW_AT_external
    6606                      .dwattr $C$DW$126, DW_AT_TI_begin_file("../DeviceSupport/source/f28003x_defaultisr.c")
    6607                      .dwattr $C$DW$126, DW_AT_TI_begin_line(0xafb)
    6608                      .dwattr $C$DW$126, DW_AT_TI_begin_column(0x10)
    6609                      .dwattr $C$DW$126, DW_AT_TI_interrupt
    6610                      .dwattr $C$DW$126, DW_AT_TI_max_frame_size(-6)
    6611                      .dwpsn  file "../DeviceSupport/source/f28003x_defaultisr.c",line 2812,column 1,is_stmt,address _ADCC3
    6612              
    6613                      .dwfde $C$DW$CIE, _ADCC3_ISR
    6614              
    6615              ;***************************************************************
    6616              ;* FNAME: _ADCC3_ISR                    FR SIZE:   4           *
    6617              ;*                                                             *
    6618              ;* FUNCTION ENVIRONMENT                                        *
    6619              ;*                                                             *
    6620              ;* FUNCTION PROPERTIES                                         *
    6621              ;*                            0 Parameter,  0 Auto,  4 SOE     *
    6622              ;***************************************************************
    6623              
    6624 00000000       _ADCC3_ISR:
    6625                      .dwcfi  cfa_offset, -2
    6626                      .dwcfi  save_reg_to_mem, 26, 0
TMS320C2000 Assembler PC v22.6.1 Wed May 21 09:51:54 2025

Copyright (c) 1996-2018 Texas Instruments Incorporated
C:\Users\Daniel\AppData\Local\Temp\{513EF8AD-E23E-4989-8EC9-611DE01417F7} PAGE  126

    6627 00000000 761B          ASP       ; [CPU_ALU] 
    6628 00000001 FFF0          PUSH      RB                    ; [CPU_FPU] 
    6629                      .dwcfi  save_reg_to_mem, 74, 4
    6630                      .dwcfi  cfa_offset, -4
    6631 00000002 E200          MOV32     *SP++,STF             ; [CPU_FPU] 
         00000003 00BD 
    6632                      .dwcfi  save_reg_to_mem, 40, 6
    6633                      .dwcfi  cfa_offset, -6
    6634 00000004 E630          SETFLG    RNDF32=1, RNDF64=1    ; [CPU_FPU] 
         00000005 0600 
    6635 00000006 2942          CLRC      PAGE0,OVM             ; [CPU_ALU] 
    6636 00000007 5616          CLRC      AMODE                 ; [CPU_ALU] 
    6637 00000008 7625        ESTOP0
    6638 00000009       $C$L124:    
    6639                      .dwpsn  file "../DeviceSupport/source/f28003x_defaultisr.c",line 2828,column 5,is_stmt,isa 0
    6640 00000009 6F00          B         $C$L124,UNC           ; [CPU_ALU] |2828| 
    6641                      ; branch occurs ; [] |2828| 
    6642                      .dwattr $C$DW$126, DW_AT_TI_end_file("../DeviceSupport/source/f28003x_defaultisr.c")
    6643                      .dwattr $C$DW$126, DW_AT_TI_end_line(0xb0d)
    6644                      .dwattr $C$DW$126, DW_AT_TI_end_column(0x01)
    6645                      .dwendentry
    6646                      .dwendtag $C$DW$126
    6647              
    6648 00000000               .sect   ".text:_ADCC2_ISR"
    6649                      .retain
    6650                      .retainrefs
    6651                      .global _ADCC2_ISR
    6652              
    6653              $C$DW$127       .dwtag  DW_TAG_subprogram
    6654                      .dwattr $C$DW$127, DW_AT_name("ADCC2_ISR")
    6655                      .dwattr $C$DW$127, DW_AT_low_pc(_ADCC2_ISR)
    6656                      .dwattr $C$DW$127, DW_AT_high_pc(0x00)
    6657                      .dwattr $C$DW$127, DW_AT_TI_symbol_name("_ADCC2_ISR")
    6658                      .dwattr $C$DW$127, DW_AT_external
    6659                      .dwattr $C$DW$127, DW_AT_TI_begin_file("../DeviceSupport/source/f28003x_defaultisr.c")
    6660                      .dwattr $C$DW$127, DW_AT_TI_begin_line(0xae4)
    6661                      .dwattr $C$DW$127, DW_AT_TI_begin_column(0x10)
    6662                      .dwattr $C$DW$127, DW_AT_TI_interrupt
    6663                      .dwattr $C$DW$127, DW_AT_TI_max_frame_size(-6)
    6664                      .dwpsn  file "../DeviceSupport/source/f28003x_defaultisr.c",line 2789,column 1,is_stmt,address _ADCC2
    6665              
    6666                      .dwfde $C$DW$CIE, _ADCC2_ISR
    6667              
    6668              ;***************************************************************
    6669              ;* FNAME: _ADCC2_ISR                    FR SIZE:   4           *
    6670              ;*                                                             *
    6671              ;* FUNCTION ENVIRONMENT                                        *
    6672              ;*                                                             *
    6673              ;* FUNCTION PROPERTIES                                         *
    6674              ;*                            0 Parameter,  0 Auto,  4 SOE     *
    6675              ;***************************************************************
    6676              
    6677 00000000       _ADCC2_ISR:
    6678                      .dwcfi  cfa_offset, -2
    6679                      .dwcfi  save_reg_to_mem, 26, 0
TMS320C2000 Assembler PC v22.6.1 Wed May 21 09:51:54 2025

Copyright (c) 1996-2018 Texas Instruments Incorporated
C:\Users\Daniel\AppData\Local\Temp\{513EF8AD-E23E-4989-8EC9-611DE01417F7} PAGE  127

    6680 00000000 761B          ASP       ; [CPU_ALU] 
    6681 00000001 FFF0          PUSH      RB                    ; [CPU_FPU] 
    6682                      .dwcfi  save_reg_to_mem, 74, 4
    6683                      .dwcfi  cfa_offset, -4
    6684 00000002 E200          MOV32     *SP++,STF             ; [CPU_FPU] 
         00000003 00BD 
    6685                      .dwcfi  save_reg_to_mem, 40, 6
    6686                      .dwcfi  cfa_offset, -6
    6687 00000004 E630          SETFLG    RNDF32=1, RNDF64=1    ; [CPU_FPU] 
         00000005 0600 
    6688 00000006 2942          CLRC      PAGE0,OVM             ; [CPU_ALU] 
    6689 00000007 5616          CLRC      AMODE                 ; [CPU_ALU] 
    6690 00000008 7625        ESTOP0
    6691 00000009       $C$L125:    
    6692                      .dwpsn  file "../DeviceSupport/source/f28003x_defaultisr.c",line 2805,column 5,is_stmt,isa 0
    6693 00000009 6F00          B         $C$L125,UNC           ; [CPU_ALU] |2805| 
    6694                      ; branch occurs ; [] |2805| 
    6695                      .dwattr $C$DW$127, DW_AT_TI_end_file("../DeviceSupport/source/f28003x_defaultisr.c")
    6696                      .dwattr $C$DW$127, DW_AT_TI_end_line(0xaf6)
    6697                      .dwattr $C$DW$127, DW_AT_TI_end_column(0x01)
    6698                      .dwendentry
    6699                      .dwendtag $C$DW$127
    6700              
    6701 00000000               .sect   ".text:_ADCC1_ISR"
    6702                      .retain
    6703                      .retainrefs
    6704                      .global _ADCC1_ISR
    6705              
    6706              $C$DW$128       .dwtag  DW_TAG_subprogram
    6707                      .dwattr $C$DW$128, DW_AT_name("ADCC1_ISR")
    6708                      .dwattr $C$DW$128, DW_AT_low_pc(_ADCC1_ISR)
    6709                      .dwattr $C$DW$128, DW_AT_high_pc(0x00)
    6710                      .dwattr $C$DW$128, DW_AT_TI_symbol_name("_ADCC1_ISR")
    6711                      .dwattr $C$DW$128, DW_AT_external
    6712                      .dwattr $C$DW$128, DW_AT_TI_begin_file("../DeviceSupport/source/f28003x_defaultisr.c")
    6713                      .dwattr $C$DW$128, DW_AT_TI_begin_line(0x1a3)
    6714                      .dwattr $C$DW$128, DW_AT_TI_begin_column(0x10)
    6715                      .dwattr $C$DW$128, DW_AT_TI_interrupt
    6716                      .dwattr $C$DW$128, DW_AT_TI_max_frame_size(-6)
    6717                      .dwpsn  file "../DeviceSupport/source/f28003x_defaultisr.c",line 420,column 1,is_stmt,address _ADCC1_
    6718              
    6719                      .dwfde $C$DW$CIE, _ADCC1_ISR
    6720              
    6721              ;***************************************************************
    6722              ;* FNAME: _ADCC1_ISR                    FR SIZE:   4           *
    6723              ;*                                                             *
    6724              ;* FUNCTION ENVIRONMENT                                        *
    6725              ;*                                                             *
    6726              ;* FUNCTION PROPERTIES                                         *
    6727              ;*                            0 Parameter,  0 Auto,  4 SOE     *
    6728              ;***************************************************************
    6729              
    6730 00000000       _ADCC1_ISR:
    6731                      .dwcfi  cfa_offset, -2
    6732                      .dwcfi  save_reg_to_mem, 26, 0
TMS320C2000 Assembler PC v22.6.1 Wed May 21 09:51:54 2025

Copyright (c) 1996-2018 Texas Instruments Incorporated
C:\Users\Daniel\AppData\Local\Temp\{513EF8AD-E23E-4989-8EC9-611DE01417F7} PAGE  128

    6733 00000000 761B          ASP       ; [CPU_ALU] 
    6734 00000001 FFF0          PUSH      RB                    ; [CPU_FPU] 
    6735                      .dwcfi  save_reg_to_mem, 74, 4
    6736                      .dwcfi  cfa_offset, -4
    6737 00000002 E200          MOV32     *SP++,STF             ; [CPU_FPU] 
         00000003 00BD 
    6738                      .dwcfi  save_reg_to_mem, 40, 6
    6739                      .dwcfi  cfa_offset, -6
    6740 00000004 E630          SETFLG    RNDF32=1, RNDF64=1    ; [CPU_FPU] 
         00000005 0600 
    6741 00000006 2942          CLRC      PAGE0,OVM             ; [CPU_ALU] 
    6742 00000007 5616          CLRC      AMODE                 ; [CPU_ALU] 
    6743 00000008 7625        ESTOP0
    6744 00000009       $C$L126:    
    6745                      .dwpsn  file "../DeviceSupport/source/f28003x_defaultisr.c",line 436,column 5,is_stmt,isa 0
    6746 00000009 6F00          B         $C$L126,UNC           ; [CPU_ALU] |436| 
    6747                      ; branch occurs ; [] |436| 
    6748                      .dwattr $C$DW$128, DW_AT_TI_end_file("../DeviceSupport/source/f28003x_defaultisr.c")
    6749                      .dwattr $C$DW$128, DW_AT_TI_end_line(0x1b5)
    6750                      .dwattr $C$DW$128, DW_AT_TI_end_column(0x01)
    6751                      .dwendentry
    6752                      .dwendtag $C$DW$128
    6753              
    6754 00000000               .sect   ".text:_ADCB_EVT_ISR"
    6755                      .retain
    6756                      .retainrefs
    6757                      .global _ADCB_EVT_ISR
    6758              
    6759              $C$DW$129       .dwtag  DW_TAG_subprogram
    6760                      .dwattr $C$DW$129, DW_AT_name("ADCB_EVT_ISR")
    6761                      .dwattr $C$DW$129, DW_AT_low_pc(_ADCB_EVT_ISR)
    6762                      .dwattr $C$DW$129, DW_AT_high_pc(0x00)
    6763                      .dwattr $C$DW$129, DW_AT_TI_symbol_name("_ADCB_EVT_ISR")
    6764                      .dwattr $C$DW$129, DW_AT_external
    6765                      .dwattr $C$DW$129, DW_AT_TI_begin_file("../DeviceSupport/source/f28003x_defaultisr.c")
    6766                      .dwattr $C$DW$129, DW_AT_TI_begin_line(0x67d)
    6767                      .dwattr $C$DW$129, DW_AT_TI_begin_column(0x10)
    6768                      .dwattr $C$DW$129, DW_AT_TI_interrupt
    6769                      .dwattr $C$DW$129, DW_AT_TI_max_frame_size(-6)
    6770                      .dwpsn  file "../DeviceSupport/source/f28003x_defaultisr.c",line 1662,column 1,is_stmt,address _ADCB_
    6771              
    6772                      .dwfde $C$DW$CIE, _ADCB_EVT_ISR
    6773              
    6774              ;***************************************************************
    6775              ;* FNAME: _ADCB_EVT_ISR                 FR SIZE:   4           *
    6776              ;*                                                             *
    6777              ;* FUNCTION ENVIRONMENT                                        *
    6778              ;*                                                             *
    6779              ;* FUNCTION PROPERTIES                                         *
    6780              ;*                            0 Parameter,  0 Auto,  4 SOE     *
    6781              ;***************************************************************
    6782              
    6783 00000000       _ADCB_EVT_ISR:
    6784                      .dwcfi  cfa_offset, -2
    6785                      .dwcfi  save_reg_to_mem, 26, 0
TMS320C2000 Assembler PC v22.6.1 Wed May 21 09:51:54 2025

Copyright (c) 1996-2018 Texas Instruments Incorporated
C:\Users\Daniel\AppData\Local\Temp\{513EF8AD-E23E-4989-8EC9-611DE01417F7} PAGE  129

    6786 00000000 761B          ASP       ; [CPU_ALU] 
    6787 00000001 FFF0          PUSH      RB                    ; [CPU_FPU] 
    6788                      .dwcfi  save_reg_to_mem, 74, 4
    6789                      .dwcfi  cfa_offset, -4
    6790 00000002 E200          MOV32     *SP++,STF             ; [CPU_FPU] 
         00000003 00BD 
    6791                      .dwcfi  save_reg_to_mem, 40, 6
    6792                      .dwcfi  cfa_offset, -6
    6793 00000004 E630          SETFLG    RNDF32=1, RNDF64=1    ; [CPU_FPU] 
         00000005 0600 
    6794 00000006 2942          CLRC      PAGE0,OVM             ; [CPU_ALU] 
    6795 00000007 5616          CLRC      AMODE                 ; [CPU_ALU] 
    6796 00000008 7625        ESTOP0
    6797 00000009       $C$L127:    
    6798                      .dwpsn  file "../DeviceSupport/source/f28003x_defaultisr.c",line 1678,column 5,is_stmt,isa 0
    6799 00000009 6F00          B         $C$L127,UNC           ; [CPU_ALU] |1678| 
    6800                      ; branch occurs ; [] |1678| 
    6801                      .dwattr $C$DW$129, DW_AT_TI_end_file("../DeviceSupport/source/f28003x_defaultisr.c")
    6802                      .dwattr $C$DW$129, DW_AT_TI_end_line(0x68f)
    6803                      .dwattr $C$DW$129, DW_AT_TI_end_column(0x01)
    6804                      .dwendentry
    6805                      .dwendtag $C$DW$129
    6806              
    6807 00000000               .sect   ".text:_ADCB4_ISR"
    6808                      .retain
    6809                      .retainrefs
    6810                      .global _ADCB4_ISR
    6811              
    6812              $C$DW$130       .dwtag  DW_TAG_subprogram
    6813                      .dwattr $C$DW$130, DW_AT_name("ADCB4_ISR")
    6814                      .dwattr $C$DW$130, DW_AT_low_pc(_ADCB4_ISR)
    6815                      .dwattr $C$DW$130, DW_AT_high_pc(0x00)
    6816                      .dwattr $C$DW$130, DW_AT_TI_symbol_name("_ADCB4_ISR")
    6817                      .dwattr $C$DW$130, DW_AT_external
    6818                      .dwattr $C$DW$130, DW_AT_TI_begin_file("../DeviceSupport/source/f28003x_defaultisr.c")
    6819                      .dwattr $C$DW$130, DW_AT_TI_begin_line(0x6c2)
    6820                      .dwattr $C$DW$130, DW_AT_TI_begin_column(0x10)
    6821                      .dwattr $C$DW$130, DW_AT_TI_interrupt
    6822                      .dwattr $C$DW$130, DW_AT_TI_max_frame_size(-6)
    6823                      .dwpsn  file "../DeviceSupport/source/f28003x_defaultisr.c",line 1731,column 1,is_stmt,address _ADCB4
    6824              
    6825                      .dwfde $C$DW$CIE, _ADCB4_ISR
    6826              
    6827              ;***************************************************************
    6828              ;* FNAME: _ADCB4_ISR                    FR SIZE:   4           *
    6829              ;*                                                             *
    6830              ;* FUNCTION ENVIRONMENT                                        *
    6831              ;*                                                             *
    6832              ;* FUNCTION PROPERTIES                                         *
    6833              ;*                            0 Parameter,  0 Auto,  4 SOE     *
    6834              ;***************************************************************
    6835              
    6836 00000000       _ADCB4_ISR:
    6837                      .dwcfi  cfa_offset, -2
    6838                      .dwcfi  save_reg_to_mem, 26, 0
TMS320C2000 Assembler PC v22.6.1 Wed May 21 09:51:54 2025

Copyright (c) 1996-2018 Texas Instruments Incorporated
C:\Users\Daniel\AppData\Local\Temp\{513EF8AD-E23E-4989-8EC9-611DE01417F7} PAGE  130

    6839 00000000 761B          ASP       ; [CPU_ALU] 
    6840 00000001 FFF0          PUSH      RB                    ; [CPU_FPU] 
    6841                      .dwcfi  save_reg_to_mem, 74, 4
    6842                      .dwcfi  cfa_offset, -4
    6843 00000002 E200          MOV32     *SP++,STF             ; [CPU_FPU] 
         00000003 00BD 
    6844                      .dwcfi  save_reg_to_mem, 40, 6
    6845                      .dwcfi  cfa_offset, -6
    6846 00000004 E630          SETFLG    RNDF32=1, RNDF64=1    ; [CPU_FPU] 
         00000005 0600 
    6847 00000006 2942          CLRC      PAGE0,OVM             ; [CPU_ALU] 
    6848 00000007 5616          CLRC      AMODE                 ; [CPU_ALU] 
    6849 00000008 7625        ESTOP0
    6850 00000009       $C$L128:    
    6851                      .dwpsn  file "../DeviceSupport/source/f28003x_defaultisr.c",line 1747,column 5,is_stmt,isa 0
    6852 00000009 6F00          B         $C$L128,UNC           ; [CPU_ALU] |1747| 
    6853                      ; branch occurs ; [] |1747| 
    6854                      .dwattr $C$DW$130, DW_AT_TI_end_file("../DeviceSupport/source/f28003x_defaultisr.c")
    6855                      .dwattr $C$DW$130, DW_AT_TI_end_line(0x6d4)
    6856                      .dwattr $C$DW$130, DW_AT_TI_end_column(0x01)
    6857                      .dwendentry
    6858                      .dwendtag $C$DW$130
    6859              
    6860 00000000               .sect   ".text:_ADCB3_ISR"
    6861                      .retain
    6862                      .retainrefs
    6863                      .global _ADCB3_ISR
    6864              
    6865              $C$DW$131       .dwtag  DW_TAG_subprogram
    6866                      .dwattr $C$DW$131, DW_AT_name("ADCB3_ISR")
    6867                      .dwattr $C$DW$131, DW_AT_low_pc(_ADCB3_ISR)
    6868                      .dwattr $C$DW$131, DW_AT_high_pc(0x00)
    6869                      .dwattr $C$DW$131, DW_AT_TI_symbol_name("_ADCB3_ISR")
    6870                      .dwattr $C$DW$131, DW_AT_external
    6871                      .dwattr $C$DW$131, DW_AT_TI_begin_file("../DeviceSupport/source/f28003x_defaultisr.c")
    6872                      .dwattr $C$DW$131, DW_AT_TI_begin_line(0x6ab)
    6873                      .dwattr $C$DW$131, DW_AT_TI_begin_column(0x10)
    6874                      .dwattr $C$DW$131, DW_AT_TI_interrupt
    6875                      .dwattr $C$DW$131, DW_AT_TI_max_frame_size(-6)
    6876                      .dwpsn  file "../DeviceSupport/source/f28003x_defaultisr.c",line 1708,column 1,is_stmt,address _ADCB3
    6877              
    6878                      .dwfde $C$DW$CIE, _ADCB3_ISR
    6879              
    6880              ;***************************************************************
    6881              ;* FNAME: _ADCB3_ISR                    FR SIZE:   4           *
    6882              ;*                                                             *
    6883              ;* FUNCTION ENVIRONMENT                                        *
    6884              ;*                                                             *
    6885              ;* FUNCTION PROPERTIES                                         *
    6886              ;*                            0 Parameter,  0 Auto,  4 SOE     *
    6887              ;***************************************************************
    6888              
    6889 00000000       _ADCB3_ISR:
    6890                      .dwcfi  cfa_offset, -2
    6891                      .dwcfi  save_reg_to_mem, 26, 0
TMS320C2000 Assembler PC v22.6.1 Wed May 21 09:51:54 2025

Copyright (c) 1996-2018 Texas Instruments Incorporated
C:\Users\Daniel\AppData\Local\Temp\{513EF8AD-E23E-4989-8EC9-611DE01417F7} PAGE  131

    6892 00000000 761B          ASP       ; [CPU_ALU] 
    6893 00000001 FFF0          PUSH      RB                    ; [CPU_FPU] 
    6894                      .dwcfi  save_reg_to_mem, 74, 4
    6895                      .dwcfi  cfa_offset, -4
    6896 00000002 E200          MOV32     *SP++,STF             ; [CPU_FPU] 
         00000003 00BD 
    6897                      .dwcfi  save_reg_to_mem, 40, 6
    6898                      .dwcfi  cfa_offset, -6
    6899 00000004 E630          SETFLG    RNDF32=1, RNDF64=1    ; [CPU_FPU] 
         00000005 0600 
    6900 00000006 2942          CLRC      PAGE0,OVM             ; [CPU_ALU] 
    6901 00000007 5616          CLRC      AMODE                 ; [CPU_ALU] 
    6902 00000008 7625        ESTOP0
    6903 00000009       $C$L129:    
    6904                      .dwpsn  file "../DeviceSupport/source/f28003x_defaultisr.c",line 1724,column 5,is_stmt,isa 0
    6905 00000009 6F00          B         $C$L129,UNC           ; [CPU_ALU] |1724| 
    6906                      ; branch occurs ; [] |1724| 
    6907                      .dwattr $C$DW$131, DW_AT_TI_end_file("../DeviceSupport/source/f28003x_defaultisr.c")
    6908                      .dwattr $C$DW$131, DW_AT_TI_end_line(0x6bd)
    6909                      .dwattr $C$DW$131, DW_AT_TI_end_column(0x01)
    6910                      .dwendentry
    6911                      .dwendtag $C$DW$131
    6912              
    6913 00000000               .sect   ".text:_ADCB2_ISR"
    6914                      .retain
    6915                      .retainrefs
    6916                      .global _ADCB2_ISR
    6917              
    6918              $C$DW$132       .dwtag  DW_TAG_subprogram
    6919                      .dwattr $C$DW$132, DW_AT_name("ADCB2_ISR")
    6920                      .dwattr $C$DW$132, DW_AT_low_pc(_ADCB2_ISR)
    6921                      .dwattr $C$DW$132, DW_AT_high_pc(0x00)
    6922                      .dwattr $C$DW$132, DW_AT_TI_symbol_name("_ADCB2_ISR")
    6923                      .dwattr $C$DW$132, DW_AT_external
    6924                      .dwattr $C$DW$132, DW_AT_TI_begin_file("../DeviceSupport/source/f28003x_defaultisr.c")
    6925                      .dwattr $C$DW$132, DW_AT_TI_begin_line(0x694)
    6926                      .dwattr $C$DW$132, DW_AT_TI_begin_column(0x10)
    6927                      .dwattr $C$DW$132, DW_AT_TI_interrupt
    6928                      .dwattr $C$DW$132, DW_AT_TI_max_frame_size(-6)
    6929                      .dwpsn  file "../DeviceSupport/source/f28003x_defaultisr.c",line 1685,column 1,is_stmt,address _ADCB2
    6930              
    6931                      .dwfde $C$DW$CIE, _ADCB2_ISR
    6932              
    6933              ;***************************************************************
    6934              ;* FNAME: _ADCB2_ISR                    FR SIZE:   4           *
    6935              ;*                                                             *
    6936              ;* FUNCTION ENVIRONMENT                                        *
    6937              ;*                                                             *
    6938              ;* FUNCTION PROPERTIES                                         *
    6939              ;*                            0 Parameter,  0 Auto,  4 SOE     *
    6940              ;***************************************************************
    6941              
    6942 00000000       _ADCB2_ISR:
    6943                      .dwcfi  cfa_offset, -2
    6944                      .dwcfi  save_reg_to_mem, 26, 0
TMS320C2000 Assembler PC v22.6.1 Wed May 21 09:51:54 2025

Copyright (c) 1996-2018 Texas Instruments Incorporated
C:\Users\Daniel\AppData\Local\Temp\{513EF8AD-E23E-4989-8EC9-611DE01417F7} PAGE  132

    6945 00000000 761B          ASP       ; [CPU_ALU] 
    6946 00000001 FFF0          PUSH      RB                    ; [CPU_FPU] 
    6947                      .dwcfi  save_reg_to_mem, 74, 4
    6948                      .dwcfi  cfa_offset, -4
    6949 00000002 E200          MOV32     *SP++,STF             ; [CPU_FPU] 
         00000003 00BD 
    6950                      .dwcfi  save_reg_to_mem, 40, 6
    6951                      .dwcfi  cfa_offset, -6
    6952 00000004 E630          SETFLG    RNDF32=1, RNDF64=1    ; [CPU_FPU] 
         00000005 0600 
    6953 00000006 2942          CLRC      PAGE0,OVM             ; [CPU_ALU] 
    6954 00000007 5616          CLRC      AMODE                 ; [CPU_ALU] 
    6955 00000008 7625        ESTOP0
    6956 00000009       $C$L130:    
    6957                      .dwpsn  file "../DeviceSupport/source/f28003x_defaultisr.c",line 1701,column 5,is_stmt,isa 0
    6958 00000009 6F00          B         $C$L130,UNC           ; [CPU_ALU] |1701| 
    6959                      ; branch occurs ; [] |1701| 
    6960                      .dwattr $C$DW$132, DW_AT_TI_end_file("../DeviceSupport/source/f28003x_defaultisr.c")
    6961                      .dwattr $C$DW$132, DW_AT_TI_end_line(0x6a6)
    6962                      .dwattr $C$DW$132, DW_AT_TI_end_column(0x01)
    6963                      .dwendentry
    6964                      .dwendtag $C$DW$132
    6965              
    6966 00000000               .sect   ".text:_ADCB1_ISR"
    6967                      .retain
    6968                      .retainrefs
    6969                      .global _ADCB1_ISR
    6970              
    6971              $C$DW$133       .dwtag  DW_TAG_subprogram
    6972                      .dwattr $C$DW$133, DW_AT_name("ADCB1_ISR")
    6973                      .dwattr $C$DW$133, DW_AT_low_pc(_ADCB1_ISR)
    6974                      .dwattr $C$DW$133, DW_AT_high_pc(0x00)
    6975                      .dwattr $C$DW$133, DW_AT_TI_symbol_name("_ADCB1_ISR")
    6976                      .dwattr $C$DW$133, DW_AT_external
    6977                      .dwattr $C$DW$133, DW_AT_TI_begin_file("../DeviceSupport/source/f28003x_defaultisr.c")
    6978                      .dwattr $C$DW$133, DW_AT_TI_begin_line(0x18c)
    6979                      .dwattr $C$DW$133, DW_AT_TI_begin_column(0x10)
    6980                      .dwattr $C$DW$133, DW_AT_TI_interrupt
    6981                      .dwattr $C$DW$133, DW_AT_TI_max_frame_size(-6)
    6982                      .dwpsn  file "../DeviceSupport/source/f28003x_defaultisr.c",line 397,column 1,is_stmt,address _ADCB1_
    6983              
    6984                      .dwfde $C$DW$CIE, _ADCB1_ISR
    6985              
    6986              ;***************************************************************
    6987              ;* FNAME: _ADCB1_ISR                    FR SIZE:   4           *
    6988              ;*                                                             *
    6989              ;* FUNCTION ENVIRONMENT                                        *
    6990              ;*                                                             *
    6991              ;* FUNCTION PROPERTIES                                         *
    6992              ;*                            0 Parameter,  0 Auto,  4 SOE     *
    6993              ;***************************************************************
    6994              
    6995 00000000       _ADCB1_ISR:
    6996                      .dwcfi  cfa_offset, -2
    6997                      .dwcfi  save_reg_to_mem, 26, 0
TMS320C2000 Assembler PC v22.6.1 Wed May 21 09:51:54 2025

Copyright (c) 1996-2018 Texas Instruments Incorporated
C:\Users\Daniel\AppData\Local\Temp\{513EF8AD-E23E-4989-8EC9-611DE01417F7} PAGE  133

    6998 00000000 761B          ASP       ; [CPU_ALU] 
    6999 00000001 FFF0          PUSH      RB                    ; [CPU_FPU] 
    7000                      .dwcfi  save_reg_to_mem, 74, 4
    7001                      .dwcfi  cfa_offset, -4
    7002 00000002 E200          MOV32     *SP++,STF             ; [CPU_FPU] 
         00000003 00BD 
    7003                      .dwcfi  save_reg_to_mem, 40, 6
    7004                      .dwcfi  cfa_offset, -6
    7005 00000004 E630          SETFLG    RNDF32=1, RNDF64=1    ; [CPU_FPU] 
         00000005 0600 
    7006 00000006 2942          CLRC      PAGE0,OVM             ; [CPU_ALU] 
    7007 00000007 5616          CLRC      AMODE                 ; [CPU_ALU] 
    7008 00000008 7625        ESTOP0
    7009 00000009       $C$L131:    
    7010                      .dwpsn  file "../DeviceSupport/source/f28003x_defaultisr.c",line 413,column 5,is_stmt,isa 0
    7011 00000009 6F00          B         $C$L131,UNC           ; [CPU_ALU] |413| 
    7012                      ; branch occurs ; [] |413| 
    7013                      .dwattr $C$DW$133, DW_AT_TI_end_file("../DeviceSupport/source/f28003x_defaultisr.c")
    7014                      .dwattr $C$DW$133, DW_AT_TI_end_line(0x19e)
    7015                      .dwattr $C$DW$133, DW_AT_TI_end_column(0x01)
    7016                      .dwendentry
    7017                      .dwendtag $C$DW$133
    7018              
    7019 00000000               .sect   ".text:_ADCA_EVT_ISR"
    7020                      .retain
    7021                      .retainrefs
    7022                      .global _ADCA_EVT_ISR
    7023              
    7024              $C$DW$134       .dwtag  DW_TAG_subprogram
    7025                      .dwattr $C$DW$134, DW_AT_name("ADCA_EVT_ISR")
    7026                      .dwattr $C$DW$134, DW_AT_low_pc(_ADCA_EVT_ISR)
    7027                      .dwattr $C$DW$134, DW_AT_high_pc(0x00)
    7028                      .dwattr $C$DW$134, DW_AT_TI_symbol_name("_ADCA_EVT_ISR")
    7029                      .dwattr $C$DW$134, DW_AT_external
    7030                      .dwattr $C$DW$134, DW_AT_TI_begin_file("../DeviceSupport/source/f28003x_defaultisr.c")
    7031                      .dwattr $C$DW$134, DW_AT_TI_begin_line(0x621)
    7032                      .dwattr $C$DW$134, DW_AT_TI_begin_column(0x10)
    7033                      .dwattr $C$DW$134, DW_AT_TI_interrupt
    7034                      .dwattr $C$DW$134, DW_AT_TI_max_frame_size(-6)
    7035                      .dwpsn  file "../DeviceSupport/source/f28003x_defaultisr.c",line 1570,column 1,is_stmt,address _ADCA_
    7036              
    7037                      .dwfde $C$DW$CIE, _ADCA_EVT_ISR
    7038              
    7039              ;***************************************************************
    7040              ;* FNAME: _ADCA_EVT_ISR                 FR SIZE:   4           *
    7041              ;*                                                             *
    7042              ;* FUNCTION ENVIRONMENT                                        *
    7043              ;*                                                             *
    7044              ;* FUNCTION PROPERTIES                                         *
    7045              ;*                            0 Parameter,  0 Auto,  4 SOE     *
    7046              ;***************************************************************
    7047              
    7048 00000000       _ADCA_EVT_ISR:
    7049                      .dwcfi  cfa_offset, -2
    7050                      .dwcfi  save_reg_to_mem, 26, 0
TMS320C2000 Assembler PC v22.6.1 Wed May 21 09:51:54 2025

Copyright (c) 1996-2018 Texas Instruments Incorporated
C:\Users\Daniel\AppData\Local\Temp\{513EF8AD-E23E-4989-8EC9-611DE01417F7} PAGE  134

    7051 00000000 761B          ASP       ; [CPU_ALU] 
    7052 00000001 FFF0          PUSH      RB                    ; [CPU_FPU] 
    7053                      .dwcfi  save_reg_to_mem, 74, 4
    7054                      .dwcfi  cfa_offset, -4
    7055 00000002 E200          MOV32     *SP++,STF             ; [CPU_FPU] 
         00000003 00BD 
    7056                      .dwcfi  save_reg_to_mem, 40, 6
    7057                      .dwcfi  cfa_offset, -6
    7058 00000004 E630          SETFLG    RNDF32=1, RNDF64=1    ; [CPU_FPU] 
         00000005 0600 
    7059 00000006 2942          CLRC      PAGE0,OVM             ; [CPU_ALU] 
    7060 00000007 5616          CLRC      AMODE                 ; [CPU_ALU] 
    7061 00000008 7625        ESTOP0
    7062 00000009       $C$L132:    
    7063                      .dwpsn  file "../DeviceSupport/source/f28003x_defaultisr.c",line 1586,column 5,is_stmt,isa 0
    7064 00000009 6F00          B         $C$L132,UNC           ; [CPU_ALU] |1586| 
    7065                      ; branch occurs ; [] |1586| 
    7066                      .dwattr $C$DW$134, DW_AT_TI_end_file("../DeviceSupport/source/f28003x_defaultisr.c")
    7067                      .dwattr $C$DW$134, DW_AT_TI_end_line(0x633)
    7068                      .dwattr $C$DW$134, DW_AT_TI_end_column(0x01)
    7069                      .dwendentry
    7070                      .dwendtag $C$DW$134
    7071              
    7072 00000000               .sect   ".text:_ADCA4_ISR"
    7073                      .retain
    7074                      .retainrefs
    7075                      .global _ADCA4_ISR
    7076              
    7077              $C$DW$135       .dwtag  DW_TAG_subprogram
    7078                      .dwattr $C$DW$135, DW_AT_name("ADCA4_ISR")
    7079                      .dwattr $C$DW$135, DW_AT_low_pc(_ADCA4_ISR)
    7080                      .dwattr $C$DW$135, DW_AT_high_pc(0x00)
    7081                      .dwattr $C$DW$135, DW_AT_TI_symbol_name("_ADCA4_ISR")
    7082                      .dwattr $C$DW$135, DW_AT_external
    7083                      .dwattr $C$DW$135, DW_AT_TI_begin_file("../DeviceSupport/source/f28003x_defaultisr.c")
    7084                      .dwattr $C$DW$135, DW_AT_TI_begin_line(0x666)
    7085                      .dwattr $C$DW$135, DW_AT_TI_begin_column(0x10)
    7086                      .dwattr $C$DW$135, DW_AT_TI_interrupt
    7087                      .dwattr $C$DW$135, DW_AT_TI_max_frame_size(-6)
    7088                      .dwpsn  file "../DeviceSupport/source/f28003x_defaultisr.c",line 1639,column 1,is_stmt,address _ADCA4
    7089              
    7090                      .dwfde $C$DW$CIE, _ADCA4_ISR
    7091              
    7092              ;***************************************************************
    7093              ;* FNAME: _ADCA4_ISR                    FR SIZE:   4           *
    7094              ;*                                                             *
    7095              ;* FUNCTION ENVIRONMENT                                        *
    7096              ;*                                                             *
    7097              ;* FUNCTION PROPERTIES                                         *
    7098              ;*                            0 Parameter,  0 Auto,  4 SOE     *
    7099              ;***************************************************************
    7100              
    7101 00000000       _ADCA4_ISR:
    7102                      .dwcfi  cfa_offset, -2
    7103                      .dwcfi  save_reg_to_mem, 26, 0
TMS320C2000 Assembler PC v22.6.1 Wed May 21 09:51:54 2025

Copyright (c) 1996-2018 Texas Instruments Incorporated
C:\Users\Daniel\AppData\Local\Temp\{513EF8AD-E23E-4989-8EC9-611DE01417F7} PAGE  135

    7104 00000000 761B          ASP       ; [CPU_ALU] 
    7105 00000001 FFF0          PUSH      RB                    ; [CPU_FPU] 
    7106                      .dwcfi  save_reg_to_mem, 74, 4
    7107                      .dwcfi  cfa_offset, -4
    7108 00000002 E200          MOV32     *SP++,STF             ; [CPU_FPU] 
         00000003 00BD 
    7109                      .dwcfi  save_reg_to_mem, 40, 6
    7110                      .dwcfi  cfa_offset, -6
    7111 00000004 E630          SETFLG    RNDF32=1, RNDF64=1    ; [CPU_FPU] 
         00000005 0600 
    7112 00000006 2942          CLRC      PAGE0,OVM             ; [CPU_ALU] 
    7113 00000007 5616          CLRC      AMODE                 ; [CPU_ALU] 
    7114 00000008 7625        ESTOP0
    7115 00000009       $C$L133:    
    7116                      .dwpsn  file "../DeviceSupport/source/f28003x_defaultisr.c",line 1655,column 5,is_stmt,isa 0
    7117 00000009 6F00          B         $C$L133,UNC           ; [CPU_ALU] |1655| 
    7118                      ; branch occurs ; [] |1655| 
    7119                      .dwattr $C$DW$135, DW_AT_TI_end_file("../DeviceSupport/source/f28003x_defaultisr.c")
    7120                      .dwattr $C$DW$135, DW_AT_TI_end_line(0x678)
    7121                      .dwattr $C$DW$135, DW_AT_TI_end_column(0x01)
    7122                      .dwendentry
    7123                      .dwendtag $C$DW$135
    7124              
    7125 00000000               .sect   ".text:_ADCA3_ISR"
    7126                      .retain
    7127                      .retainrefs
    7128                      .global _ADCA3_ISR
    7129              
    7130              $C$DW$136       .dwtag  DW_TAG_subprogram
    7131                      .dwattr $C$DW$136, DW_AT_name("ADCA3_ISR")
    7132                      .dwattr $C$DW$136, DW_AT_low_pc(_ADCA3_ISR)
    7133                      .dwattr $C$DW$136, DW_AT_high_pc(0x00)
    7134                      .dwattr $C$DW$136, DW_AT_TI_symbol_name("_ADCA3_ISR")
    7135                      .dwattr $C$DW$136, DW_AT_external
    7136                      .dwattr $C$DW$136, DW_AT_TI_begin_file("../DeviceSupport/source/f28003x_defaultisr.c")
    7137                      .dwattr $C$DW$136, DW_AT_TI_begin_line(0x64f)
    7138                      .dwattr $C$DW$136, DW_AT_TI_begin_column(0x10)
    7139                      .dwattr $C$DW$136, DW_AT_TI_interrupt
    7140                      .dwattr $C$DW$136, DW_AT_TI_max_frame_size(-6)
    7141                      .dwpsn  file "../DeviceSupport/source/f28003x_defaultisr.c",line 1616,column 1,is_stmt,address _ADCA3
    7142              
    7143                      .dwfde $C$DW$CIE, _ADCA3_ISR
    7144              
    7145              ;***************************************************************
    7146              ;* FNAME: _ADCA3_ISR                    FR SIZE:   4           *
    7147              ;*                                                             *
    7148              ;* FUNCTION ENVIRONMENT                                        *
    7149              ;*                                                             *
    7150              ;* FUNCTION PROPERTIES                                         *
    7151              ;*                            0 Parameter,  0 Auto,  4 SOE     *
    7152              ;***************************************************************
    7153              
    7154 00000000       _ADCA3_ISR:
    7155                      .dwcfi  cfa_offset, -2
    7156                      .dwcfi  save_reg_to_mem, 26, 0
TMS320C2000 Assembler PC v22.6.1 Wed May 21 09:51:54 2025

Copyright (c) 1996-2018 Texas Instruments Incorporated
C:\Users\Daniel\AppData\Local\Temp\{513EF8AD-E23E-4989-8EC9-611DE01417F7} PAGE  136

    7157 00000000 761B          ASP       ; [CPU_ALU] 
    7158 00000001 FFF0          PUSH      RB                    ; [CPU_FPU] 
    7159                      .dwcfi  save_reg_to_mem, 74, 4
    7160                      .dwcfi  cfa_offset, -4
    7161 00000002 E200          MOV32     *SP++,STF             ; [CPU_FPU] 
         00000003 00BD 
    7162                      .dwcfi  save_reg_to_mem, 40, 6
    7163                      .dwcfi  cfa_offset, -6
    7164 00000004 E630          SETFLG    RNDF32=1, RNDF64=1    ; [CPU_FPU] 
         00000005 0600 
    7165 00000006 2942          CLRC      PAGE0,OVM             ; [CPU_ALU] 
    7166 00000007 5616          CLRC      AMODE                 ; [CPU_ALU] 
    7167 00000008 7625        ESTOP0
    7168 00000009       $C$L134:    
    7169                      .dwpsn  file "../DeviceSupport/source/f28003x_defaultisr.c",line 1632,column 5,is_stmt,isa 0
    7170 00000009 6F00          B         $C$L134,UNC           ; [CPU_ALU] |1632| 
    7171                      ; branch occurs ; [] |1632| 
    7172                      .dwattr $C$DW$136, DW_AT_TI_end_file("../DeviceSupport/source/f28003x_defaultisr.c")
    7173                      .dwattr $C$DW$136, DW_AT_TI_end_line(0x661)
    7174                      .dwattr $C$DW$136, DW_AT_TI_end_column(0x01)
    7175                      .dwendentry
    7176                      .dwendtag $C$DW$136
    7177              
    7178 00000000               .sect   ".text:_ADCA2_ISR"
    7179                      .retain
    7180                      .retainrefs
    7181                      .global _ADCA2_ISR
    7182              
    7183              $C$DW$137       .dwtag  DW_TAG_subprogram
    7184                      .dwattr $C$DW$137, DW_AT_name("ADCA2_ISR")
    7185                      .dwattr $C$DW$137, DW_AT_low_pc(_ADCA2_ISR)
    7186                      .dwattr $C$DW$137, DW_AT_high_pc(0x00)
    7187                      .dwattr $C$DW$137, DW_AT_TI_symbol_name("_ADCA2_ISR")
    7188                      .dwattr $C$DW$137, DW_AT_external
    7189                      .dwattr $C$DW$137, DW_AT_TI_begin_file("../DeviceSupport/source/f28003x_defaultisr.c")
    7190                      .dwattr $C$DW$137, DW_AT_TI_begin_line(0x638)
    7191                      .dwattr $C$DW$137, DW_AT_TI_begin_column(0x10)
    7192                      .dwattr $C$DW$137, DW_AT_TI_interrupt
    7193                      .dwattr $C$DW$137, DW_AT_TI_max_frame_size(-6)
    7194                      .dwpsn  file "../DeviceSupport/source/f28003x_defaultisr.c",line 1593,column 1,is_stmt,address _ADCA2
    7195              
    7196                      .dwfde $C$DW$CIE, _ADCA2_ISR
    7197              
    7198              ;***************************************************************
    7199              ;* FNAME: _ADCA2_ISR                    FR SIZE:   4           *
    7200              ;*                                                             *
    7201              ;* FUNCTION ENVIRONMENT                                        *
    7202              ;*                                                             *
    7203              ;* FUNCTION PROPERTIES                                         *
    7204              ;*                            0 Parameter,  0 Auto,  4 SOE     *
    7205              ;***************************************************************
    7206              
    7207 00000000       _ADCA2_ISR:
    7208                      .dwcfi  cfa_offset, -2
    7209                      .dwcfi  save_reg_to_mem, 26, 0
TMS320C2000 Assembler PC v22.6.1 Wed May 21 09:51:54 2025

Copyright (c) 1996-2018 Texas Instruments Incorporated
C:\Users\Daniel\AppData\Local\Temp\{513EF8AD-E23E-4989-8EC9-611DE01417F7} PAGE  137

    7210 00000000 761B          ASP       ; [CPU_ALU] 
    7211 00000001 FFF0          PUSH      RB                    ; [CPU_FPU] 
    7212                      .dwcfi  save_reg_to_mem, 74, 4
    7213                      .dwcfi  cfa_offset, -4
    7214 00000002 E200          MOV32     *SP++,STF             ; [CPU_FPU] 
         00000003 00BD 
    7215                      .dwcfi  save_reg_to_mem, 40, 6
    7216                      .dwcfi  cfa_offset, -6
    7217 00000004 E630          SETFLG    RNDF32=1, RNDF64=1    ; [CPU_FPU] 
         00000005 0600 
    7218 00000006 2942          CLRC      PAGE0,OVM             ; [CPU_ALU] 
    7219 00000007 5616          CLRC      AMODE                 ; [CPU_ALU] 
    7220 00000008 7625        ESTOP0
    7221 00000009       $C$L135:    
    7222                      .dwpsn  file "../DeviceSupport/source/f28003x_defaultisr.c",line 1609,column 5,is_stmt,isa 0
    7223 00000009 6F00          B         $C$L135,UNC           ; [CPU_ALU] |1609| 
    7224                      ; branch occurs ; [] |1609| 
    7225                      .dwattr $C$DW$137, DW_AT_TI_end_file("../DeviceSupport/source/f28003x_defaultisr.c")
    7226                      .dwattr $C$DW$137, DW_AT_TI_end_line(0x64a)
    7227                      .dwattr $C$DW$137, DW_AT_TI_end_column(0x01)
    7228                      .dwendentry
    7229                      .dwendtag $C$DW$137
    7230              
    7231 00000000               .sect   ".text:_ADCA1_ISR"
    7232                      .retain
    7233                      .retainrefs
    7234                      .global _ADCA1_ISR
    7235              
    7236              $C$DW$138       .dwtag  DW_TAG_subprogram
    7237                      .dwattr $C$DW$138, DW_AT_name("ADCA1_ISR")
    7238                      .dwattr $C$DW$138, DW_AT_low_pc(_ADCA1_ISR)
    7239                      .dwattr $C$DW$138, DW_AT_high_pc(0x00)
    7240                      .dwattr $C$DW$138, DW_AT_TI_symbol_name("_ADCA1_ISR")
    7241                      .dwattr $C$DW$138, DW_AT_external
    7242                      .dwattr $C$DW$138, DW_AT_TI_begin_file("../DeviceSupport/source/f28003x_defaultisr.c")
    7243                      .dwattr $C$DW$138, DW_AT_TI_begin_line(0x175)
    7244                      .dwattr $C$DW$138, DW_AT_TI_begin_column(0x10)
    7245                      .dwattr $C$DW$138, DW_AT_TI_interrupt
    7246                      .dwattr $C$DW$138, DW_AT_TI_max_frame_size(-6)
    7247                      .dwpsn  file "../DeviceSupport/source/f28003x_defaultisr.c",line 374,column 1,is_stmt,address _ADCA1_
    7248              
    7249                      .dwfde $C$DW$CIE, _ADCA1_ISR
    7250              
    7251              ;***************************************************************
    7252              ;* FNAME: _ADCA1_ISR                    FR SIZE:   4           *
    7253              ;*                                                             *
    7254              ;* FUNCTION ENVIRONMENT                                        *
    7255              ;*                                                             *
    7256              ;* FUNCTION PROPERTIES                                         *
    7257              ;*                            0 Parameter,  0 Auto,  4 SOE     *
    7258              ;***************************************************************
    7259              
    7260 00000000       _ADCA1_ISR:
    7261                      .dwcfi  cfa_offset, -2
    7262                      .dwcfi  save_reg_to_mem, 26, 0
TMS320C2000 Assembler PC v22.6.1 Wed May 21 09:51:54 2025

Copyright (c) 1996-2018 Texas Instruments Incorporated
C:\Users\Daniel\AppData\Local\Temp\{513EF8AD-E23E-4989-8EC9-611DE01417F7} PAGE  138

    7263 00000000 761B          ASP       ; [CPU_ALU] 
    7264 00000001 FFF0          PUSH      RB                    ; [CPU_FPU] 
    7265                      .dwcfi  save_reg_to_mem, 74, 4
    7266                      .dwcfi  cfa_offset, -4
    7267 00000002 E200          MOV32     *SP++,STF             ; [CPU_FPU] 
         00000003 00BD 
    7268                      .dwcfi  save_reg_to_mem, 40, 6
    7269                      .dwcfi  cfa_offset, -6
    7270 00000004 E630          SETFLG    RNDF32=1, RNDF64=1    ; [CPU_FPU] 
         00000005 0600 
    7271 00000006 2942          CLRC      PAGE0,OVM             ; [CPU_ALU] 
    7272 00000007 5616          CLRC      AMODE                 ; [CPU_ALU] 
    7273 00000008 7625        ESTOP0
    7274 00000009       $C$L136:    
    7275                      .dwpsn  file "../DeviceSupport/source/f28003x_defaultisr.c",line 390,column 5,is_stmt,isa 0
    7276 00000009 6F00          B         $C$L136,UNC           ; [CPU_ALU] |390| 
    7277                      ; branch occurs ; [] |390| 
    7278                      .dwattr $C$DW$138, DW_AT_TI_end_file("../DeviceSupport/source/f28003x_defaultisr.c")
    7279                      .dwattr $C$DW$138, DW_AT_TI_end_line(0x187)
    7280                      .dwattr $C$DW$138, DW_AT_TI_end_column(0x01)
    7281                      .dwendentry
    7282                      .dwendtag $C$DW$138
    7283              
    7284              
    7285              ;***************************************************************
    7286              ;* TYPE INFORMATION                                            *
    7287              ;***************************************************************
    7288              $C$DW$T$2       .dwtag  DW_TAG_unspecified_type
    7289                      .dwattr $C$DW$T$2, DW_AT_name("void")
    7290              
    7291              $C$DW$T$4       .dwtag  DW_TAG_base_type
    7292                      .dwattr $C$DW$T$4, DW_AT_encoding(DW_ATE_boolean)
    7293                      .dwattr $C$DW$T$4, DW_AT_name("bool")
    7294                      .dwattr $C$DW$T$4, DW_AT_byte_size(0x01)
    7295              
    7296              $C$DW$T$5       .dwtag  DW_TAG_base_type
    7297                      .dwattr $C$DW$T$5, DW_AT_encoding(DW_ATE_signed_char)
    7298                      .dwattr $C$DW$T$5, DW_AT_name("signed char")
    7299                      .dwattr $C$DW$T$5, DW_AT_byte_size(0x01)
    7300              
    7301              $C$DW$T$6       .dwtag  DW_TAG_base_type
    7302                      .dwattr $C$DW$T$6, DW_AT_encoding(DW_ATE_unsigned_char)
    7303                      .dwattr $C$DW$T$6, DW_AT_name("unsigned char")
    7304                      .dwattr $C$DW$T$6, DW_AT_byte_size(0x01)
    7305              
    7306              $C$DW$T$7       .dwtag  DW_TAG_base_type
    7307                      .dwattr $C$DW$T$7, DW_AT_encoding(DW_ATE_signed_char)
    7308                      .dwattr $C$DW$T$7, DW_AT_name("wchar_t")
    7309                      .dwattr $C$DW$T$7, DW_AT_byte_size(0x01)
    7310              
    7311              $C$DW$T$8       .dwtag  DW_TAG_base_type
    7312                      .dwattr $C$DW$T$8, DW_AT_encoding(DW_ATE_signed)
    7313                      .dwattr $C$DW$T$8, DW_AT_name("short")
    7314                      .dwattr $C$DW$T$8, DW_AT_byte_size(0x01)
    7315              
TMS320C2000 Assembler PC v22.6.1 Wed May 21 09:51:54 2025

Copyright (c) 1996-2018 Texas Instruments Incorporated
C:\Users\Daniel\AppData\Local\Temp\{513EF8AD-E23E-4989-8EC9-611DE01417F7} PAGE  139

    7316              $C$DW$T$9       .dwtag  DW_TAG_base_type
    7317                      .dwattr $C$DW$T$9, DW_AT_encoding(DW_ATE_unsigned)
    7318                      .dwattr $C$DW$T$9, DW_AT_name("unsigned short")
    7319                      .dwattr $C$DW$T$9, DW_AT_byte_size(0x01)
    7320              
    7321              $C$DW$T$10      .dwtag  DW_TAG_base_type
    7322                      .dwattr $C$DW$T$10, DW_AT_encoding(DW_ATE_signed)
    7323                      .dwattr $C$DW$T$10, DW_AT_name("int")
    7324                      .dwattr $C$DW$T$10, DW_AT_byte_size(0x01)
    7325              
    7326              $C$DW$T$11      .dwtag  DW_TAG_base_type
    7327                      .dwattr $C$DW$T$11, DW_AT_encoding(DW_ATE_unsigned)
    7328                      .dwattr $C$DW$T$11, DW_AT_name("unsigned int")
    7329                      .dwattr $C$DW$T$11, DW_AT_byte_size(0x01)
    7330              
    7331              $C$DW$T$12      .dwtag  DW_TAG_base_type
    7332                      .dwattr $C$DW$T$12, DW_AT_encoding(DW_ATE_signed)
    7333                      .dwattr $C$DW$T$12, DW_AT_name("long")
    7334                      .dwattr $C$DW$T$12, DW_AT_byte_size(0x02)
    7335              
    7336              $C$DW$T$13      .dwtag  DW_TAG_base_type
    7337                      .dwattr $C$DW$T$13, DW_AT_encoding(DW_ATE_unsigned)
    7338                      .dwattr $C$DW$T$13, DW_AT_name("unsigned long")
    7339                      .dwattr $C$DW$T$13, DW_AT_byte_size(0x02)
    7340              
    7341              $C$DW$T$14      .dwtag  DW_TAG_base_type
    7342                      .dwattr $C$DW$T$14, DW_AT_encoding(DW_ATE_signed)
    7343                      .dwattr $C$DW$T$14, DW_AT_name("long long")
    7344                      .dwattr $C$DW$T$14, DW_AT_byte_size(0x04)
    7345              
    7346              $C$DW$T$15      .dwtag  DW_TAG_base_type
    7347                      .dwattr $C$DW$T$15, DW_AT_encoding(DW_ATE_unsigned)
    7348                      .dwattr $C$DW$T$15, DW_AT_name("unsigned long long")
    7349                      .dwattr $C$DW$T$15, DW_AT_byte_size(0x04)
    7350              
    7351              $C$DW$T$16      .dwtag  DW_TAG_base_type
    7352                      .dwattr $C$DW$T$16, DW_AT_encoding(DW_ATE_float)
    7353                      .dwattr $C$DW$T$16, DW_AT_name("float")
    7354                      .dwattr $C$DW$T$16, DW_AT_byte_size(0x02)
    7355              
    7356              $C$DW$T$17      .dwtag  DW_TAG_base_type
    7357                      .dwattr $C$DW$T$17, DW_AT_encoding(DW_ATE_float)
    7358                      .dwattr $C$DW$T$17, DW_AT_name("double")
    7359                      .dwattr $C$DW$T$17, DW_AT_byte_size(0x02)
    7360              
    7361              $C$DW$T$18      .dwtag  DW_TAG_base_type
    7362                      .dwattr $C$DW$T$18, DW_AT_encoding(DW_ATE_float)
    7363                      .dwattr $C$DW$T$18, DW_AT_name("long double")
    7364                      .dwattr $C$DW$T$18, DW_AT_byte_size(0x04)
    7365              
    7366                      .dwattr $C$DW$CU, DW_AT_language(DW_LANG_C)
    7367              
    7368              ;***************************************************************
    7369              ;* DWARF CIE ENTRIES                                           *
    7370              ;***************************************************************
TMS320C2000 Assembler PC v22.6.1 Wed May 21 09:51:54 2025

Copyright (c) 1996-2018 Texas Instruments Incorporated
C:\Users\Daniel\AppData\Local\Temp\{513EF8AD-E23E-4989-8EC9-611DE01417F7} PAGE  140

    7371              
    7372              $C$DW$CIE       .dwcie 26
    7373                      .dwcfi  cfa_register, 20
    7374                      .dwcfi  cfa_offset, 0
    7375                      .dwcfi  same_value, 28
    7376                      .dwcfi  same_value, 6
    7377                      .dwcfi  same_value, 7
    7378                      .dwcfi  same_value, 8
    7379                      .dwcfi  same_value, 9
    7380                      .dwcfi  same_value, 10
    7381                      .dwcfi  same_value, 11
    7382                      .dwcfi  same_value, 59
    7383                      .dwcfi  same_value, 63
    7384                      .dwcfi  same_value, 67
    7385                      .dwcfi  same_value, 71
    7386                      .dwendentry
    7387              
    7388              ;***************************************************************
    7389              ;* DWARF REGISTER MAP                                          *
    7390              ;***************************************************************
    7391              
    7392              $C$DW$139       .dwtag  DW_TAG_TI_assign_register
    7393                      .dwattr $C$DW$139, DW_AT_name("AL")
    7394                      .dwattr $C$DW$139, DW_AT_location[DW_OP_reg0]
    7395              
    7396              $C$DW$140       .dwtag  DW_TAG_TI_assign_register
    7397                      .dwattr $C$DW$140, DW_AT_name("AH")
    7398                      .dwattr $C$DW$140, DW_AT_location[DW_OP_reg1]
    7399              
    7400              $C$DW$141       .dwtag  DW_TAG_TI_assign_register
    7401                      .dwattr $C$DW$141, DW_AT_name("PL")
    7402                      .dwattr $C$DW$141, DW_AT_location[DW_OP_reg2]
    7403              
    7404              $C$DW$142       .dwtag  DW_TAG_TI_assign_register
    7405                      .dwattr $C$DW$142, DW_AT_name("PH")
    7406                      .dwattr $C$DW$142, DW_AT_location[DW_OP_reg3]
    7407              
    7408              $C$DW$143       .dwtag  DW_TAG_TI_assign_register
    7409                      .dwattr $C$DW$143, DW_AT_name("SP")
    7410                      .dwattr $C$DW$143, DW_AT_location[DW_OP_reg20]
    7411              
    7412              $C$DW$144       .dwtag  DW_TAG_TI_assign_register
    7413                      .dwattr $C$DW$144, DW_AT_name("XT")
    7414                      .dwattr $C$DW$144, DW_AT_location[DW_OP_reg21]
    7415              
    7416              $C$DW$145       .dwtag  DW_TAG_TI_assign_register
    7417                      .dwattr $C$DW$145, DW_AT_name("T")
    7418                      .dwattr $C$DW$145, DW_AT_location[DW_OP_reg22]
    7419              
    7420              $C$DW$146       .dwtag  DW_TAG_TI_assign_register
    7421                      .dwattr $C$DW$146, DW_AT_name("ST0")
    7422                      .dwattr $C$DW$146, DW_AT_location[DW_OP_reg23]
    7423              
    7424              $C$DW$147       .dwtag  DW_TAG_TI_assign_register
    7425                      .dwattr $C$DW$147, DW_AT_name("ST1")
TMS320C2000 Assembler PC v22.6.1 Wed May 21 09:51:54 2025

Copyright (c) 1996-2018 Texas Instruments Incorporated
C:\Users\Daniel\AppData\Local\Temp\{513EF8AD-E23E-4989-8EC9-611DE01417F7} PAGE  141

    7426                      .dwattr $C$DW$147, DW_AT_location[DW_OP_reg24]
    7427              
    7428              $C$DW$148       .dwtag  DW_TAG_TI_assign_register
    7429                      .dwattr $C$DW$148, DW_AT_name("PC")
    7430                      .dwattr $C$DW$148, DW_AT_location[DW_OP_reg25]
    7431              
    7432              $C$DW$149       .dwtag  DW_TAG_TI_assign_register
    7433                      .dwattr $C$DW$149, DW_AT_name("RPC")
    7434                      .dwattr $C$DW$149, DW_AT_location[DW_OP_reg26]
    7435              
    7436              $C$DW$150       .dwtag  DW_TAG_TI_assign_register
    7437                      .dwattr $C$DW$150, DW_AT_name("FP")
    7438                      .dwattr $C$DW$150, DW_AT_location[DW_OP_reg28]
    7439              
    7440              $C$DW$151       .dwtag  DW_TAG_TI_assign_register
    7441                      .dwattr $C$DW$151, DW_AT_name("DP")
    7442                      .dwattr $C$DW$151, DW_AT_location[DW_OP_reg29]
    7443              
    7444              $C$DW$152       .dwtag  DW_TAG_TI_assign_register
    7445                      .dwattr $C$DW$152, DW_AT_name("SXM")
    7446                      .dwattr $C$DW$152, DW_AT_location[DW_OP_reg30]
    7447              
    7448              $C$DW$153       .dwtag  DW_TAG_TI_assign_register
    7449                      .dwattr $C$DW$153, DW_AT_name("PM")
    7450                      .dwattr $C$DW$153, DW_AT_location[DW_OP_reg31]
    7451              
    7452              $C$DW$154       .dwtag  DW_TAG_TI_assign_register
    7453                      .dwattr $C$DW$154, DW_AT_name("OVM")
    7454                      .dwattr $C$DW$154, DW_AT_location[DW_OP_regx 0x20]
    7455              
    7456              $C$DW$155       .dwtag  DW_TAG_TI_assign_register
    7457                      .dwattr $C$DW$155, DW_AT_name("PAGE0")
    7458                      .dwattr $C$DW$155, DW_AT_location[DW_OP_regx 0x21]
    7459              
    7460              $C$DW$156       .dwtag  DW_TAG_TI_assign_register
    7461                      .dwattr $C$DW$156, DW_AT_name("AMODE")
    7462                      .dwattr $C$DW$156, DW_AT_location[DW_OP_regx 0x22]
    7463              
    7464              $C$DW$157       .dwtag  DW_TAG_TI_assign_register
    7465                      .dwattr $C$DW$157, DW_AT_name("EALLOW")
    7466                      .dwattr $C$DW$157, DW_AT_location[DW_OP_regx 0x4e]
    7467              
    7468              $C$DW$158       .dwtag  DW_TAG_TI_assign_register
    7469                      .dwattr $C$DW$158, DW_AT_name("INTM")
    7470                      .dwattr $C$DW$158, DW_AT_location[DW_OP_regx 0x23]
    7471              
    7472              $C$DW$159       .dwtag  DW_TAG_TI_assign_register
    7473                      .dwattr $C$DW$159, DW_AT_name("IFR")
    7474                      .dwattr $C$DW$159, DW_AT_location[DW_OP_regx 0x24]
    7475              
    7476              $C$DW$160       .dwtag  DW_TAG_TI_assign_register
    7477                      .dwattr $C$DW$160, DW_AT_name("IER")
    7478                      .dwattr $C$DW$160, DW_AT_location[DW_OP_regx 0x25]
    7479              
    7480              $C$DW$161       .dwtag  DW_TAG_TI_assign_register
TMS320C2000 Assembler PC v22.6.1 Wed May 21 09:51:54 2025

Copyright (c) 1996-2018 Texas Instruments Incorporated
C:\Users\Daniel\AppData\Local\Temp\{513EF8AD-E23E-4989-8EC9-611DE01417F7} PAGE  142

    7481                      .dwattr $C$DW$161, DW_AT_name("V")
    7482                      .dwattr $C$DW$161, DW_AT_location[DW_OP_regx 0x26]
    7483              
    7484              $C$DW$162       .dwtag  DW_TAG_TI_assign_register
    7485                      .dwattr $C$DW$162, DW_AT_name("PSEUDOH")
    7486                      .dwattr $C$DW$162, DW_AT_location[DW_OP_regx 0x4c]
    7487              
    7488              $C$DW$163       .dwtag  DW_TAG_TI_assign_register
    7489                      .dwattr $C$DW$163, DW_AT_name("VOL")
    7490                      .dwattr $C$DW$163, DW_AT_location[DW_OP_regx 0x4d]
    7491              
    7492              $C$DW$164       .dwtag  DW_TAG_TI_assign_register
    7493                      .dwattr $C$DW$164, DW_AT_name("AR0")
    7494                      .dwattr $C$DW$164, DW_AT_location[DW_OP_reg4]
    7495              
    7496              $C$DW$165       .dwtag  DW_TAG_TI_assign_register
    7497                      .dwattr $C$DW$165, DW_AT_name("XAR0")
    7498                      .dwattr $C$DW$165, DW_AT_location[DW_OP_reg5]
    7499              
    7500              $C$DW$166       .dwtag  DW_TAG_TI_assign_register
    7501                      .dwattr $C$DW$166, DW_AT_name("AR1")
    7502                      .dwattr $C$DW$166, DW_AT_location[DW_OP_reg6]
    7503              
    7504              $C$DW$167       .dwtag  DW_TAG_TI_assign_register
    7505                      .dwattr $C$DW$167, DW_AT_name("XAR1")
    7506                      .dwattr $C$DW$167, DW_AT_location[DW_OP_reg7]
    7507              
    7508              $C$DW$168       .dwtag  DW_TAG_TI_assign_register
    7509                      .dwattr $C$DW$168, DW_AT_name("AR2")
    7510                      .dwattr $C$DW$168, DW_AT_location[DW_OP_reg8]
    7511              
    7512              $C$DW$169       .dwtag  DW_TAG_TI_assign_register
    7513                      .dwattr $C$DW$169, DW_AT_name("XAR2")
    7514                      .dwattr $C$DW$169, DW_AT_location[DW_OP_reg9]
    7515              
    7516              $C$DW$170       .dwtag  DW_TAG_TI_assign_register
    7517                      .dwattr $C$DW$170, DW_AT_name("AR3")
    7518                      .dwattr $C$DW$170, DW_AT_location[DW_OP_reg10]
    7519              
    7520              $C$DW$171       .dwtag  DW_TAG_TI_assign_register
    7521                      .dwattr $C$DW$171, DW_AT_name("XAR3")
    7522                      .dwattr $C$DW$171, DW_AT_location[DW_OP_reg11]
    7523              
    7524              $C$DW$172       .dwtag  DW_TAG_TI_assign_register
    7525                      .dwattr $C$DW$172, DW_AT_name("AR4")
    7526                      .dwattr $C$DW$172, DW_AT_location[DW_OP_reg12]
    7527              
    7528              $C$DW$173       .dwtag  DW_TAG_TI_assign_register
    7529                      .dwattr $C$DW$173, DW_AT_name("XAR4")
    7530                      .dwattr $C$DW$173, DW_AT_location[DW_OP_reg13]
    7531              
    7532              $C$DW$174       .dwtag  DW_TAG_TI_assign_register
    7533                      .dwattr $C$DW$174, DW_AT_name("AR5")
    7534                      .dwattr $C$DW$174, DW_AT_location[DW_OP_reg14]
    7535              
TMS320C2000 Assembler PC v22.6.1 Wed May 21 09:51:54 2025

Copyright (c) 1996-2018 Texas Instruments Incorporated
C:\Users\Daniel\AppData\Local\Temp\{513EF8AD-E23E-4989-8EC9-611DE01417F7} PAGE  143

    7536              $C$DW$175       .dwtag  DW_TAG_TI_assign_register
    7537                      .dwattr $C$DW$175, DW_AT_name("XAR5")
    7538                      .dwattr $C$DW$175, DW_AT_location[DW_OP_reg15]
    7539              
    7540              $C$DW$176       .dwtag  DW_TAG_TI_assign_register
    7541                      .dwattr $C$DW$176, DW_AT_name("AR6")
    7542                      .dwattr $C$DW$176, DW_AT_location[DW_OP_reg16]
    7543              
    7544              $C$DW$177       .dwtag  DW_TAG_TI_assign_register
    7545                      .dwattr $C$DW$177, DW_AT_name("XAR6")
    7546                      .dwattr $C$DW$177, DW_AT_location[DW_OP_reg17]
    7547              
    7548              $C$DW$178       .dwtag  DW_TAG_TI_assign_register
    7549                      .dwattr $C$DW$178, DW_AT_name("AR7")
    7550                      .dwattr $C$DW$178, DW_AT_location[DW_OP_reg18]
    7551              
    7552              $C$DW$179       .dwtag  DW_TAG_TI_assign_register
    7553                      .dwattr $C$DW$179, DW_AT_name("XAR7")
    7554                      .dwattr $C$DW$179, DW_AT_location[DW_OP_reg19]
    7555              
    7556              $C$DW$180       .dwtag  DW_TAG_TI_assign_register
    7557                      .dwattr $C$DW$180, DW_AT_name("R0H")
    7558                      .dwattr $C$DW$180, DW_AT_location[DW_OP_regx 0x2b]
    7559              
    7560              $C$DW$181       .dwtag  DW_TAG_TI_assign_register
    7561                      .dwattr $C$DW$181, DW_AT_name("R1H")
    7562                      .dwattr $C$DW$181, DW_AT_location[DW_OP_regx 0x2f]
    7563              
    7564              $C$DW$182       .dwtag  DW_TAG_TI_assign_register
    7565                      .dwattr $C$DW$182, DW_AT_name("R2H")
    7566                      .dwattr $C$DW$182, DW_AT_location[DW_OP_regx 0x33]
    7567              
    7568              $C$DW$183       .dwtag  DW_TAG_TI_assign_register
    7569                      .dwattr $C$DW$183, DW_AT_name("R3H")
    7570                      .dwattr $C$DW$183, DW_AT_location[DW_OP_regx 0x37]
    7571              
    7572              $C$DW$184       .dwtag  DW_TAG_TI_assign_register
    7573                      .dwattr $C$DW$184, DW_AT_name("R4H")
    7574                      .dwattr $C$DW$184, DW_AT_location[DW_OP_regx 0x3b]
    7575              
    7576              $C$DW$185       .dwtag  DW_TAG_TI_assign_register
    7577                      .dwattr $C$DW$185, DW_AT_name("R5H")
    7578                      .dwattr $C$DW$185, DW_AT_location[DW_OP_regx 0x3f]
    7579              
    7580              $C$DW$186       .dwtag  DW_TAG_TI_assign_register
    7581                      .dwattr $C$DW$186, DW_AT_name("R6H")
    7582                      .dwattr $C$DW$186, DW_AT_location[DW_OP_regx 0x43]
    7583              
    7584              $C$DW$187       .dwtag  DW_TAG_TI_assign_register
    7585                      .dwattr $C$DW$187, DW_AT_name("R7H")
    7586                      .dwattr $C$DW$187, DW_AT_location[DW_OP_regx 0x47]
    7587              
    7588              $C$DW$188       .dwtag  DW_TAG_TI_assign_register
    7589                      .dwattr $C$DW$188, DW_AT_name("RB")
    7590                      .dwattr $C$DW$188, DW_AT_location[DW_OP_regx 0x4a]
TMS320C2000 Assembler PC v22.6.1 Wed May 21 09:51:54 2025

Copyright (c) 1996-2018 Texas Instruments Incorporated
C:\Users\Daniel\AppData\Local\Temp\{513EF8AD-E23E-4989-8EC9-611DE01417F7} PAGE  144

    7591              
    7592              $C$DW$189       .dwtag  DW_TAG_TI_assign_register
    7593                      .dwattr $C$DW$189, DW_AT_name("STF")
    7594                      .dwattr $C$DW$189, DW_AT_location[DW_OP_regx 0x28]
    7595              
    7596              $C$DW$190       .dwtag  DW_TAG_TI_assign_register
    7597                      .dwattr $C$DW$190, DW_AT_name("FPUHAZ")
    7598                      .dwattr $C$DW$190, DW_AT_location[DW_OP_reg27]
    7599              
    7600              $C$DW$191       .dwtag  DW_TAG_TI_assign_register
    7601                      .dwattr $C$DW$191, DW_AT_name("STF_HWDIV")
    7602                      .dwattr $C$DW$191, DW_AT_location[DW_OP_regx 0x4f]
    7603              
    7604              $C$DW$192       .dwtag  DW_TAG_TI_assign_register
    7605                      .dwattr $C$DW$192, DW_AT_name("VCRC")
    7606                      .dwattr $C$DW$192, DW_AT_location[DW_OP_regx 0x50]
    7607              
    7608              $C$DW$193       .dwtag  DW_TAG_TI_assign_register
    7609                      .dwattr $C$DW$193, DW_AT_name("VSTATUS")
    7610                      .dwattr $C$DW$193, DW_AT_location[DW_OP_regx 0x51]
    7611              
    7612              $C$DW$194       .dwtag  DW_TAG_TI_assign_register
    7613                      .dwattr $C$DW$194, DW_AT_name("VCRCPOLY")
    7614                      .dwattr $C$DW$194, DW_AT_location[DW_OP_regx 0x52]
    7615              
    7616              $C$DW$195       .dwtag  DW_TAG_TI_assign_register
    7617                      .dwattr $C$DW$195, DW_AT_name("VCRCSIZE")
    7618                      .dwattr $C$DW$195, DW_AT_location[DW_OP_regx 0x53]
    7619              
    7620                      .dwendtag $C$DW$CU
    7621              

No Assembly Errors, No Assembly Warnings
