TMS320C2000 Assembler PC v22.6.1 Wed May 21 09:51:54 2025

Copyright (c) 1996-2018 Texas Instruments Incorporated
C:\Users\Daniel\AppData\Local\Temp\{513EF8AD-E23E-4989-8EC9-611DE01417F7} PAGE    1

       1              ;***************************************************************
       2              ;* TMS320C2000 G3 C/C++ Codegen                               PC v22.6.1.LTS *
       3              ;* Date/Time created: Wed May 21 09:51:54 2025                 *
       4              ;***************************************************************
       5                      .compiler_opts --abi=coffabi --cla_support=cla2 --diag_wrap=off --float_support=fpu32 --hll_source=on
       6                      .asg    XAR2, FP
       7              
       8              $C$DW$CU        .dwtag  DW_TAG_compile_unit
       9                      .dwattr $C$DW$CU, DW_AT_name("../DeviceSupport/source/f28003x_defaultisr.c")
      10                      .dwattr $C$DW$CU, DW_AT_producer("TI TMS320C2000 G3 C/C++ Codegen PC v22.6.1.LTS Copyright (c) 1996-2
      11                      .dwattr $C$DW$CU, DW_AT_TI_version(0x01)
      12                      .dwattr $C$DW$CU, DW_AT_comp_dir("C:\Users\Daniel\CodeComposer\UPS_MUCI\CPU1_FLASH")
      13              ;       D:\Programs\TI\ccs1281\ccs\tools\compiler\ti-cgt-c2000_22.6.1.LTS\bin\opt2000.exe C:\\Users\\Daniel\\
      14              ;       D:\Programs\TI\ccs1281\ccs\tools\compiler\ti-cgt-c2000_22.6.1.LTS\bin\ac2000.exe -@C:\\Users\\Daniel\
      15 00000000               .sect   ".text:_XINT5_ISR"
      16                      .retain
      17                      .retainrefs
      18                      .global _XINT5_ISR
      19              
      20              $C$DW$1 .dwtag  DW_TAG_subprogram
      21                      .dwattr $C$DW$1, DW_AT_name("XINT5_ISR")
      22                      .dwattr $C$DW$1, DW_AT_low_pc(_XINT5_ISR)
      23                      .dwattr $C$DW$1, DW_AT_high_pc(0x00)
      24                      .dwattr $C$DW$1, DW_AT_TI_symbol_name("_XINT5_ISR")
      25                      .dwattr $C$DW$1, DW_AT_external
      26                      .dwattr $C$DW$1, DW_AT_TI_begin_file("../DeviceSupport/source/f28003x_defaultisr.c")
      27                      .dwattr $C$DW$1, DW_AT_TI_begin_line(0x7bf)
      28                      .dwattr $C$DW$1, DW_AT_TI_begin_column(0x10)
      29                      .dwattr $C$DW$1, DW_AT_TI_interrupt
      30                      .dwattr $C$DW$1, DW_AT_TI_max_frame_size(-6)
      31                      .dwpsn  file "../DeviceSupport/source/f28003x_defaultisr.c",line 1984,column 1,is_stmt,address _XINT5
      32              
      33                      .dwfde $C$DW$CIE, _XINT5_ISR
      34              
      35              ;***************************************************************
      36              ;* FNAME: _XINT5_ISR                    FR SIZE:   4           *
      37              ;*                                                             *
      38              ;* FUNCTION ENVIRONMENT                                        *
      39              ;*                                                             *
      40              ;* FUNCTION PROPERTIES                                         *
      41              ;*                            0 Parameter,  0 Auto,  4 SOE     *
      42              ;***************************************************************
      43              
      44 00000000       _XINT5_ISR:
      45                      .dwcfi  cfa_offset, -2
      46                      .dwcfi  save_reg_to_mem, 26, 0
      47 00000000 761B          ASP       ; [CPU_ALU] 
      48 00000001 FFF0          PUSH      RB                    ; [CPU_FPU] 
      49                      .dwcfi  save_reg_to_mem, 74, 4
      50                      .dwcfi  cfa_offset, -4
      51 00000002 E200          MOV32     *SP++,STF             ; [CPU_FPU] 
         00000003 00BD 
      52                      .dwcfi  save_reg_to_mem, 40, 6
      53                      .dwcfi  cfa_offset, -6
      54 00000004 E630          SETFLG    RNDF32=1, RNDF64=1    ; [CPU_FPU] 
TMS320C2000 Assembler PC v22.6.1 Wed May 21 09:51:54 2025

Copyright (c) 1996-2018 Texas Instruments Incorporated
C:\Users\Daniel\AppData\Local\Temp\{513EF8AD-E23E-4989-8EC9-611DE01417F7} PAGE    2

         00000005 0600 
      55 00000006 2942          CLRC      PAGE0,OVM             ; [CPU_ALU] 
      56 00000007 5616          CLRC      AMODE                 ; [CPU_ALU] 
      57 00000008 7625        ESTOP0
      58 00000009       $C$L1:    
      59                      .dwpsn  file "../DeviceSupport/source/f28003x_defaultisr.c",line 2000,column 5,is_stmt,isa 0
      60 00000009 6F00          B         $C$L1,UNC             ; [CPU_ALU] |2000| 
      61                      ; branch occurs ; [] |2000| 
      62                      .dwattr $C$DW$1, DW_AT_TI_end_file("../DeviceSupport/source/f28003x_defaultisr.c")
      63                      .dwattr $C$DW$1, DW_AT_TI_end_line(0x7d1)
      64                      .dwattr $C$DW$1, DW_AT_TI_end_column(0x01)
      65                      .dwendentry
      66                      .dwendtag $C$DW$1
      67              
      68 00000000               .sect   ".text:_XINT4_ISR"
      69                      .retain
      70                      .retainrefs
      71                      .global _XINT4_ISR
      72              
      73              $C$DW$2 .dwtag  DW_TAG_subprogram
      74                      .dwattr $C$DW$2, DW_AT_name("XINT4_ISR")
      75                      .dwattr $C$DW$2, DW_AT_low_pc(_XINT4_ISR)
      76                      .dwattr $C$DW$2, DW_AT_high_pc(0x00)
      77                      .dwattr $C$DW$2, DW_AT_TI_symbol_name("_XINT4_ISR")
      78                      .dwattr $C$DW$2, DW_AT_external
      79                      .dwattr $C$DW$2, DW_AT_TI_begin_file("../DeviceSupport/source/f28003x_defaultisr.c")
      80                      .dwattr $C$DW$2, DW_AT_TI_begin_line(0x7a8)
      81                      .dwattr $C$DW$2, DW_AT_TI_begin_column(0x10)
      82                      .dwattr $C$DW$2, DW_AT_TI_interrupt
      83                      .dwattr $C$DW$2, DW_AT_TI_max_frame_size(-6)
      84                      .dwpsn  file "../DeviceSupport/source/f28003x_defaultisr.c",line 1961,column 1,is_stmt,address _XINT4
      85              
      86                      .dwfde $C$DW$CIE, _XINT4_ISR
      87              
      88              ;***************************************************************
      89              ;* FNAME: _XINT4_ISR                    FR SIZE:   4           *
      90              ;*                                                             *
      91              ;* FUNCTION ENVIRONMENT                                        *
      92              ;*                                                             *
      93              ;* FUNCTION PROPERTIES                                         *
      94              ;*                            0 Parameter,  0 Auto,  4 SOE     *
      95              ;***************************************************************
      96              
      97 00000000       _XINT4_ISR:
      98                      .dwcfi  cfa_offset, -2
      99                      .dwcfi  save_reg_to_mem, 26, 0
     100 00000000 761B          ASP       ; [CPU_ALU] 
     101 00000001 FFF0          PUSH      RB                    ; [CPU_FPU] 
     102                      .dwcfi  save_reg_to_mem, 74, 4
     103                      .dwcfi  cfa_offset, -4
     104 00000002 E200          MOV32     *SP++,STF             ; [CPU_FPU] 
         00000003 00BD 
     105                      .dwcfi  save_reg_to_mem, 40, 6
     106                      .dwcfi  cfa_offset, -6
     107 00000004 E630          SETFLG    RNDF32=1, RNDF64=1    ; [CPU_FPU] 
TMS320C2000 Assembler PC v22.6.1 Wed May 21 09:51:54 2025

Copyright (c) 1996-2018 Texas Instruments Incorporated
C:\Users\Daniel\AppData\Local\Temp\{513EF8AD-E23E-4989-8EC9-611DE01417F7} PAGE    3

         00000005 0600 
     108 00000006 2942          CLRC      PAGE0,OVM             ; [CPU_ALU] 
     109 00000007 5616          CLRC      AMODE                 ; [CPU_ALU] 
     110 00000008 7625        ESTOP0
     111 00000009       $C$L2:    
     112                      .dwpsn  file "../DeviceSupport/source/f28003x_defaultisr.c",line 1977,column 5,is_stmt,isa 0
     113 00000009 6F00          B         $C$L2,UNC             ; [CPU_ALU] |1977| 
     114                      ; branch occurs ; [] |1977| 
     115                      .dwattr $C$DW$2, DW_AT_TI_end_file("../DeviceSupport/source/f28003x_defaultisr.c")
     116                      .dwattr $C$DW$2, DW_AT_TI_end_line(0x7ba)
     117                      .dwattr $C$DW$2, DW_AT_TI_end_column(0x01)
     118                      .dwendentry
     119                      .dwendtag $C$DW$2
     120              
     121 00000000               .sect   ".text:_XINT3_ISR"
     122                      .retain
     123                      .retainrefs
     124                      .global _XINT3_ISR
     125              
     126              $C$DW$3 .dwtag  DW_TAG_subprogram
     127                      .dwattr $C$DW$3, DW_AT_name("XINT3_ISR")
     128                      .dwattr $C$DW$3, DW_AT_low_pc(_XINT3_ISR)
     129                      .dwattr $C$DW$3, DW_AT_high_pc(0x00)
     130                      .dwattr $C$DW$3, DW_AT_TI_symbol_name("_XINT3_ISR")
     131                      .dwattr $C$DW$3, DW_AT_external
     132                      .dwattr $C$DW$3, DW_AT_TI_begin_file("../DeviceSupport/source/f28003x_defaultisr.c")
     133                      .dwattr $C$DW$3, DW_AT_TI_begin_line(0x791)
     134                      .dwattr $C$DW$3, DW_AT_TI_begin_column(0x10)
     135                      .dwattr $C$DW$3, DW_AT_TI_interrupt
     136                      .dwattr $C$DW$3, DW_AT_TI_max_frame_size(-6)
     137                      .dwpsn  file "../DeviceSupport/source/f28003x_defaultisr.c",line 1938,column 1,is_stmt,address _XINT3
     138              
     139                      .dwfde $C$DW$CIE, _XINT3_ISR
     140              
     141              ;***************************************************************
     142              ;* FNAME: _XINT3_ISR                    FR SIZE:   4           *
     143              ;*                                                             *
     144              ;* FUNCTION ENVIRONMENT                                        *
     145              ;*                                                             *
     146              ;* FUNCTION PROPERTIES                                         *
     147              ;*                            0 Parameter,  0 Auto,  4 SOE     *
     148              ;***************************************************************
     149              
     150 00000000       _XINT3_ISR:
     151                      .dwcfi  cfa_offset, -2
     152                      .dwcfi  save_reg_to_mem, 26, 0
     153 00000000 761B          ASP       ; [CPU_ALU] 
     154 00000001 FFF0          PUSH      RB                    ; [CPU_FPU] 
     155                      .dwcfi  save_reg_to_mem, 74, 4
     156                      .dwcfi  cfa_offset, -4
     157 00000002 E200          MOV32     *SP++,STF             ; [CPU_FPU] 
         00000003 00BD 
     158                      .dwcfi  save_reg_to_mem, 40, 6
     159                      .dwcfi  cfa_offset, -6
     160 00000004 E630          SETFLG    RNDF32=1, RNDF64=1    ; [CPU_FPU] 
TMS320C2000 Assembler PC v22.6.1 Wed May 21 09:51:54 2025

Copyright (c) 1996-2018 Texas Instruments Incorporated
C:\Users\Daniel\AppData\Local\Temp\{513EF8AD-E23E-4989-8EC9-611DE01417F7} PAGE    4

         00000005 0600 
     161 00000006 2942          CLRC      PAGE0,OVM             ; [CPU_ALU] 
     162 00000007 5616          CLRC      AMODE                 ; [CPU_ALU] 
     163 00000008 7625        ESTOP0
     164 00000009       $C$L3:    
     165                      .dwpsn  file "../DeviceSupport/source/f28003x_defaultisr.c",line 1954,column 5,is_stmt,isa 0
     166 00000009 6F00          B         $C$L3,UNC             ; [CPU_ALU] |1954| 
     167                      ; branch occurs ; [] |1954| 
     168                      .dwattr $C$DW$3, DW_AT_TI_end_file("../DeviceSupport/source/f28003x_defaultisr.c")
     169                      .dwattr $C$DW$3, DW_AT_TI_end_line(0x7a3)
     170                      .dwattr $C$DW$3, DW_AT_TI_end_column(0x01)
     171                      .dwendentry
     172                      .dwendtag $C$DW$3
     173              
     174 00000000               .sect   ".text:_XINT2_ISR"
     175                      .retain
     176                      .retainrefs
     177                      .global _XINT2_ISR
     178              
     179              $C$DW$4 .dwtag  DW_TAG_subprogram
     180                      .dwattr $C$DW$4, DW_AT_name("XINT2_ISR")
     181                      .dwattr $C$DW$4, DW_AT_low_pc(_XINT2_ISR)
     182                      .dwattr $C$DW$4, DW_AT_high_pc(0x00)
     183                      .dwattr $C$DW$4, DW_AT_TI_symbol_name("_XINT2_ISR")
     184                      .dwattr $C$DW$4, DW_AT_external
     185                      .dwattr $C$DW$4, DW_AT_TI_begin_file("../DeviceSupport/source/f28003x_defaultisr.c")
     186                      .dwattr $C$DW$4, DW_AT_TI_begin_line(0x1d1)
     187                      .dwattr $C$DW$4, DW_AT_TI_begin_column(0x10)
     188                      .dwattr $C$DW$4, DW_AT_TI_interrupt
     189                      .dwattr $C$DW$4, DW_AT_TI_max_frame_size(-6)
     190                      .dwpsn  file "../DeviceSupport/source/f28003x_defaultisr.c",line 466,column 1,is_stmt,address _XINT2_
     191              
     192                      .dwfde $C$DW$CIE, _XINT2_ISR
     193              
     194              ;***************************************************************
     195              ;* FNAME: _XINT2_ISR                    FR SIZE:   4           *
     196              ;*                                                             *
     197              ;* FUNCTION ENVIRONMENT                                        *
     198              ;*                                                             *
     199              ;* FUNCTION PROPERTIES                                         *
     200              ;*                            0 Parameter,  0 Auto,  4 SOE     *
     201              ;***************************************************************
     202              
     203 00000000       _XINT2_ISR:
     204                      .dwcfi  cfa_offset, -2
     205                      .dwcfi  save_reg_to_mem, 26, 0
     206 00000000 761B          ASP       ; [CPU_ALU] 
     207 00000001 FFF0          PUSH      RB                    ; [CPU_FPU] 
     208                      .dwcfi  save_reg_to_mem, 74, 4
     209                      .dwcfi  cfa_offset, -4
     210 00000002 E200          MOV32     *SP++,STF             ; [CPU_FPU] 
         00000003 00BD 
     211                      .dwcfi  save_reg_to_mem, 40, 6
     212                      .dwcfi  cfa_offset, -6
     213 00000004 E630          SETFLG    RNDF32=1, RNDF64=1    ; [CPU_FPU] 
TMS320C2000 Assembler PC v22.6.1 Wed May 21 09:51:54 2025

Copyright (c) 1996-2018 Texas Instruments Incorporated
C:\Users\Daniel\AppData\Local\Temp\{513EF8AD-E23E-4989-8EC9-611DE01417F7} PAGE    5

         00000005 0600 
     214 00000006 2942          CLRC      PAGE0,OVM             ; [CPU_ALU] 
     215 00000007 5616          CLRC      AMODE                 ; [CPU_ALU] 
     216 00000008 7625        ESTOP0
     217 00000009       $C$L4:    
     218                      .dwpsn  file "../DeviceSupport/source/f28003x_defaultisr.c",line 482,column 5,is_stmt,isa 0
     219 00000009 6F00          B         $C$L4,UNC             ; [CPU_ALU] |482| 
     220                      ; branch occurs ; [] |482| 
     221                      .dwattr $C$DW$4, DW_AT_TI_end_file("../DeviceSupport/source/f28003x_defaultisr.c")
     222                      .dwattr $C$DW$4, DW_AT_TI_end_line(0x1e3)
     223                      .dwattr $C$DW$4, DW_AT_TI_end_column(0x01)
     224                      .dwendentry
     225                      .dwendtag $C$DW$4
     226              
     227 00000000               .sect   ".text:_XINT1_ISR"
     228                      .retain
     229                      .retainrefs
     230                      .global _XINT1_ISR
     231              
     232              $C$DW$5 .dwtag  DW_TAG_subprogram
     233                      .dwattr $C$DW$5, DW_AT_name("XINT1_ISR")
     234                      .dwattr $C$DW$5, DW_AT_low_pc(_XINT1_ISR)
     235                      .dwattr $C$DW$5, DW_AT_high_pc(0x00)
     236                      .dwattr $C$DW$5, DW_AT_TI_symbol_name("_XINT1_ISR")
     237                      .dwattr $C$DW$5, DW_AT_external
     238                      .dwattr $C$DW$5, DW_AT_TI_begin_file("../DeviceSupport/source/f28003x_defaultisr.c")
     239                      .dwattr $C$DW$5, DW_AT_TI_begin_line(0x1ba)
     240                      .dwattr $C$DW$5, DW_AT_TI_begin_column(0x10)
     241                      .dwattr $C$DW$5, DW_AT_TI_interrupt
     242                      .dwattr $C$DW$5, DW_AT_TI_max_frame_size(-6)
     243                      .dwpsn  file "../DeviceSupport/source/f28003x_defaultisr.c",line 443,column 1,is_stmt,address _XINT1_
     244              
     245                      .dwfde $C$DW$CIE, _XINT1_ISR
     246              
     247              ;***************************************************************
     248              ;* FNAME: _XINT1_ISR                    FR SIZE:   4           *
     249              ;*                                                             *
     250              ;* FUNCTION ENVIRONMENT                                        *
     251              ;*                                                             *
     252              ;* FUNCTION PROPERTIES                                         *
     253              ;*                            0 Parameter,  0 Auto,  4 SOE     *
     254              ;***************************************************************
     255              
     256 00000000       _XINT1_ISR:
     257                      .dwcfi  cfa_offset, -2
     258                      .dwcfi  save_reg_to_mem, 26, 0
     259 00000000 761B          ASP       ; [CPU_ALU] 
     260 00000001 FFF0          PUSH      RB                    ; [CPU_FPU] 
     261                      .dwcfi  save_reg_to_mem, 74, 4
     262                      .dwcfi  cfa_offset, -4
     263 00000002 E200          MOV32     *SP++,STF             ; [CPU_FPU] 
         00000003 00BD 
     264                      .dwcfi  save_reg_to_mem, 40, 6
     265                      .dwcfi  cfa_offset, -6
     266 00000004 E630          SETFLG    RNDF32=1, RNDF64=1    ; [CPU_FPU] 
TMS320C2000 Assembler PC v22.6.1 Wed May 21 09:51:54 2025

Copyright (c) 1996-2018 Texas Instruments Incorporated
C:\Users\Daniel\AppData\Local\Temp\{513EF8AD-E23E-4989-8EC9-611DE01417F7} PAGE    6

         00000005 0600 
     267 00000006 2942          CLRC      PAGE0,OVM             ; [CPU_ALU] 
     268 00000007 5616          CLRC      AMODE                 ; [CPU_ALU] 
     269 00000008 7625        ESTOP0
     270 00000009       $C$L5:    
     271                      .dwpsn  file "../DeviceSupport/source/f28003x_defaultisr.c",line 459,column 5,is_stmt,isa 0
     272 00000009 6F00          B         $C$L5,UNC             ; [CPU_ALU] |459| 
     273                      ; branch occurs ; [] |459| 
     274                      .dwattr $C$DW$5, DW_AT_TI_end_file("../DeviceSupport/source/f28003x_defaultisr.c")
     275                      .dwattr $C$DW$5, DW_AT_TI_end_line(0x1cc)
     276                      .dwattr $C$DW$5, DW_AT_TI_end_column(0x01)
     277                      .dwendentry
     278                      .dwendtag $C$DW$5
     279              
     280 00000000               .sect   ".text:_WAKE_ISR"
     281                      .retain
     282                      .retainrefs
     283                      .global _WAKE_ISR
     284              
     285              $C$DW$6 .dwtag  DW_TAG_subprogram
     286                      .dwattr $C$DW$6, DW_AT_name("WAKE_ISR")
     287                      .dwattr $C$DW$6, DW_AT_low_pc(_WAKE_ISR)
     288                      .dwattr $C$DW$6, DW_AT_high_pc(0x00)
     289                      .dwattr $C$DW$6, DW_AT_TI_symbol_name("_WAKE_ISR")
     290                      .dwattr $C$DW$6, DW_AT_external
     291                      .dwattr $C$DW$6, DW_AT_TI_begin_file("../DeviceSupport/source/f28003x_defaultisr.c")
     292                      .dwattr $C$DW$6, DW_AT_TI_begin_line(0x1ff)
     293                      .dwattr $C$DW$6, DW_AT_TI_begin_column(0x10)
     294                      .dwattr $C$DW$6, DW_AT_TI_interrupt
     295                      .dwattr $C$DW$6, DW_AT_TI_max_frame_size(-6)
     296                      .dwpsn  file "../DeviceSupport/source/f28003x_defaultisr.c",line 512,column 1,is_stmt,address _WAKE_I
     297              
     298                      .dwfde $C$DW$CIE, _WAKE_ISR
     299              
     300              ;***************************************************************
     301              ;* FNAME: _WAKE_ISR                     FR SIZE:   4           *
     302              ;*                                                             *
     303              ;* FUNCTION ENVIRONMENT                                        *
     304              ;*                                                             *
     305              ;* FUNCTION PROPERTIES                                         *
     306              ;*                            0 Parameter,  0 Auto,  4 SOE     *
     307              ;***************************************************************
     308              
     309 00000000       _WAKE_ISR:
     310                      .dwcfi  cfa_offset, -2
     311                      .dwcfi  save_reg_to_mem, 26, 0
     312 00000000 761B          ASP       ; [CPU_ALU] 
     313 00000001 FFF0          PUSH      RB                    ; [CPU_FPU] 
     314                      .dwcfi  save_reg_to_mem, 74, 4
     315                      .dwcfi  cfa_offset, -4
     316 00000002 E200          MOV32     *SP++,STF             ; [CPU_FPU] 
         00000003 00BD 
     317                      .dwcfi  save_reg_to_mem, 40, 6
     318                      .dwcfi  cfa_offset, -6
     319 00000004 E630          SETFLG    RNDF32=1, RNDF64=1    ; [CPU_FPU] 
TMS320C2000 Assembler PC v22.6.1 Wed May 21 09:51:54 2025

Copyright (c) 1996-2018 Texas Instruments Incorporated
C:\Users\Daniel\AppData\Local\Temp\{513EF8AD-E23E-4989-8EC9-611DE01417F7} PAGE    7

         00000005 0600 
     320 00000006 2942          CLRC      PAGE0,OVM             ; [CPU_ALU] 
     321 00000007 5616          CLRC      AMODE                 ; [CPU_ALU] 
     322 00000008 7625        ESTOP0
     323 00000009       $C$L6:    
     324                      .dwpsn  file "../DeviceSupport/source/f28003x_defaultisr.c",line 528,column 5,is_stmt,isa 0
     325 00000009 6F00          B         $C$L6,UNC             ; [CPU_ALU] |528| 
     326                      ; branch occurs ; [] |528| 
     327                      .dwattr $C$DW$6, DW_AT_TI_end_file("../DeviceSupport/source/f28003x_defaultisr.c")
     328                      .dwattr $C$DW$6, DW_AT_TI_end_line(0x211)
     329                      .dwattr $C$DW$6, DW_AT_TI_end_column(0x01)
     330                      .dwendentry
     331                      .dwendtag $C$DW$6
     332              
     333 00000000               .sect   ".text:_USER9_ISR"
     334                      .retain
     335                      .retainrefs
     336                      .global _USER9_ISR
     337              
     338              $C$DW$7 .dwtag  DW_TAG_subprogram
     339                      .dwattr $C$DW$7, DW_AT_name("USER9_ISR")
     340                      .dwattr $C$DW$7, DW_AT_low_pc(_USER9_ISR)
     341                      .dwattr $C$DW$7, DW_AT_high_pc(0x00)
     342                      .dwattr $C$DW$7, DW_AT_TI_symbol_name("_USER9_ISR")
     343                      .dwattr $C$DW$7, DW_AT_external
     344                      .dwattr $C$DW$7, DW_AT_TI_begin_file("../DeviceSupport/source/f28003x_defaultisr.c")
     345                      .dwattr $C$DW$7, DW_AT_TI_begin_line(0x131)
     346                      .dwattr $C$DW$7, DW_AT_TI_begin_column(0x10)
     347                      .dwattr $C$DW$7, DW_AT_TI_interrupt
     348                      .dwattr $C$DW$7, DW_AT_TI_max_frame_size(-6)
     349                      .dwpsn  file "../DeviceSupport/source/f28003x_defaultisr.c",line 306,column 1,is_stmt,address _USER9_
     350              
     351                      .dwfde $C$DW$CIE, _USER9_ISR
     352              
     353              ;***************************************************************
     354              ;* FNAME: _USER9_ISR                    FR SIZE:   4           *
     355              ;*                                                             *
     356              ;* FUNCTION ENVIRONMENT                                        *
     357              ;*                                                             *
     358              ;* FUNCTION PROPERTIES                                         *
     359              ;*                            0 Parameter,  0 Auto,  4 SOE     *
     360              ;***************************************************************
     361              
     362 00000000       _USER9_ISR:
     363                      .dwcfi  cfa_offset, -2
     364                      .dwcfi  save_reg_to_mem, 26, 0
     365 00000000 761B          ASP       ; [CPU_ALU] 
     366 00000001 FFF0          PUSH      RB                    ; [CPU_FPU] 
     367                      .dwcfi  save_reg_to_mem, 74, 4
     368                      .dwcfi  cfa_offset, -4
     369 00000002 E200          MOV32     *SP++,STF             ; [CPU_FPU] 
         00000003 00BD 
     370                      .dwcfi  save_reg_to_mem, 40, 6
     371                      .dwcfi  cfa_offset, -6
     372 00000004 E630          SETFLG    RNDF32=1, RNDF64=1    ; [CPU_FPU] 
TMS320C2000 Assembler PC v22.6.1 Wed May 21 09:51:54 2025

Copyright (c) 1996-2018 Texas Instruments Incorporated
C:\Users\Daniel\AppData\Local\Temp\{513EF8AD-E23E-4989-8EC9-611DE01417F7} PAGE    8

         00000005 0600 
     373 00000006 2942          CLRC      PAGE0,OVM             ; [CPU_ALU] 
     374 00000007 5616          CLRC      AMODE                 ; [CPU_ALU] 
     375 00000008 7625        ESTOP0
     376 00000009       $C$L7:    
     377                      .dwpsn  file "../DeviceSupport/source/f28003x_defaultisr.c",line 316,column 5,is_stmt,isa 0
     378 00000009 6F00          B         $C$L7,UNC             ; [CPU_ALU] |316| 
     379                      ; branch occurs ; [] |316| 
     380                      .dwattr $C$DW$7, DW_AT_TI_end_file("../DeviceSupport/source/f28003x_defaultisr.c")
     381                      .dwattr $C$DW$7, DW_AT_TI_end_line(0x13d)
     382                      .dwattr $C$DW$7, DW_AT_TI_end_column(0x01)
     383                      .dwendentry
     384                      .dwendtag $C$DW$7
     385              
     386 00000000               .sect   ".text:_USER8_ISR"
     387                      .retain
     388                      .retainrefs
     389                      .global _USER8_ISR
     390              
     391              $C$DW$8 .dwtag  DW_TAG_subprogram
     392                      .dwattr $C$DW$8, DW_AT_name("USER8_ISR")
     393                      .dwattr $C$DW$8, DW_AT_low_pc(_USER8_ISR)
     394                      .dwattr $C$DW$8, DW_AT_high_pc(0x00)
     395                      .dwattr $C$DW$8, DW_AT_TI_symbol_name("_USER8_ISR")
     396                      .dwattr $C$DW$8, DW_AT_external
     397                      .dwattr $C$DW$8, DW_AT_TI_begin_file("../DeviceSupport/source/f28003x_defaultisr.c")
     398                      .dwattr $C$DW$8, DW_AT_TI_begin_line(0x120)
     399                      .dwattr $C$DW$8, DW_AT_TI_begin_column(0x10)
     400                      .dwattr $C$DW$8, DW_AT_TI_interrupt
     401                      .dwattr $C$DW$8, DW_AT_TI_max_frame_size(-6)
     402                      .dwpsn  file "../DeviceSupport/source/f28003x_defaultisr.c",line 289,column 1,is_stmt,address _USER8_
     403              
     404                      .dwfde $C$DW$CIE, _USER8_ISR
     405              
     406              ;***************************************************************
     407              ;* FNAME: _USER8_ISR                    FR SIZE:   4           *
     408              ;*                                                             *
     409              ;* FUNCTION ENVIRONMENT                                        *
     410              ;*                                                             *
     411              ;* FUNCTION PROPERTIES                                         *
     412              ;*                            0 Parameter,  0 Auto,  4 SOE     *
     413              ;***************************************************************
     414              
     415 00000000       _USER8_ISR:
     416                      .dwcfi  cfa_offset, -2
     417                      .dwcfi  save_reg_to_mem, 26, 0
     418 00000000 761B          ASP       ; [CPU_ALU] 
     419 00000001 FFF0          PUSH      RB                    ; [CPU_FPU] 
     420                      .dwcfi  save_reg_to_mem, 74, 4
     421                      .dwcfi  cfa_offset, -4
     422 00000002 E200          MOV32     *SP++,STF             ; [CPU_FPU] 
         00000003 00BD 
     423                      .dwcfi  save_reg_to_mem, 40, 6
     424                      .dwcfi  cfa_offset, -6
     425 00000004 E630          SETFLG    RNDF32=1, RNDF64=1    ; [CPU_FPU] 
TMS320C2000 Assembler PC v22.6.1 Wed May 21 09:51:54 2025

Copyright (c) 1996-2018 Texas Instruments Incorporated
C:\Users\Daniel\AppData\Local\Temp\{513EF8AD-E23E-4989-8EC9-611DE01417F7} PAGE    9

         00000005 0600 
     426 00000006 2942          CLRC      PAGE0,OVM             ; [CPU_ALU] 
     427 00000007 5616          CLRC      AMODE                 ; [CPU_ALU] 
     428 00000008 7625        ESTOP0
     429 00000009       $C$L8:    
     430                      .dwpsn  file "../DeviceSupport/source/f28003x_defaultisr.c",line 299,column 5,is_stmt,isa 0
     431 00000009 6F00          B         $C$L8,UNC             ; [CPU_ALU] |299| 
     432                      ; branch occurs ; [] |299| 
     433                      .dwattr $C$DW$8, DW_AT_TI_end_file("../DeviceSupport/source/f28003x_defaultisr.c")
     434                      .dwattr $C$DW$8, DW_AT_TI_end_line(0x12c)
     435                      .dwattr $C$DW$8, DW_AT_TI_end_column(0x01)
     436                      .dwendentry
     437                      .dwendtag $C$DW$8
     438              
     439 00000000               .sect   ".text:_USER7_ISR"
     440                      .retain
     441                      .retainrefs
     442                      .global _USER7_ISR
     443              
     444              $C$DW$9 .dwtag  DW_TAG_subprogram
     445                      .dwattr $C$DW$9, DW_AT_name("USER7_ISR")
     446                      .dwattr $C$DW$9, DW_AT_low_pc(_USER7_ISR)
     447                      .dwattr $C$DW$9, DW_AT_high_pc(0x00)
     448                      .dwattr $C$DW$9, DW_AT_TI_symbol_name("_USER7_ISR")
     449                      .dwattr $C$DW$9, DW_AT_external
     450                      .dwattr $C$DW$9, DW_AT_TI_begin_file("../DeviceSupport/source/f28003x_defaultisr.c")
     451                      .dwattr $C$DW$9, DW_AT_TI_begin_line(0x10f)
     452                      .dwattr $C$DW$9, DW_AT_TI_begin_column(0x10)
     453                      .dwattr $C$DW$9, DW_AT_TI_interrupt
     454                      .dwattr $C$DW$9, DW_AT_TI_max_frame_size(-6)
     455                      .dwpsn  file "../DeviceSupport/source/f28003x_defaultisr.c",line 272,column 1,is_stmt,address _USER7_
     456              
     457                      .dwfde $C$DW$CIE, _USER7_ISR
     458              
     459              ;***************************************************************
     460              ;* FNAME: _USER7_ISR                    FR SIZE:   4           *
     461              ;*                                                             *
     462              ;* FUNCTION ENVIRONMENT                                        *
     463              ;*                                                             *
     464              ;* FUNCTION PROPERTIES                                         *
     465              ;*                            0 Parameter,  0 Auto,  4 SOE     *
     466              ;***************************************************************
     467              
     468 00000000       _USER7_ISR:
     469                      .dwcfi  cfa_offset, -2
     470                      .dwcfi  save_reg_to_mem, 26, 0
     471 00000000 761B          ASP       ; [CPU_ALU] 
     472 00000001 FFF0          PUSH      RB                    ; [CPU_FPU] 
     473                      .dwcfi  save_reg_to_mem, 74, 4
     474                      .dwcfi  cfa_offset, -4
     475 00000002 E200          MOV32     *SP++,STF             ; [CPU_FPU] 
         00000003 00BD 
     476                      .dwcfi  save_reg_to_mem, 40, 6
     477                      .dwcfi  cfa_offset, -6
     478 00000004 E630          SETFLG    RNDF32=1, RNDF64=1    ; [CPU_FPU] 
TMS320C2000 Assembler PC v22.6.1 Wed May 21 09:51:54 2025

Copyright (c) 1996-2018 Texas Instruments Incorporated
C:\Users\Daniel\AppData\Local\Temp\{513EF8AD-E23E-4989-8EC9-611DE01417F7} PAGE   10

         00000005 0600 
     479 00000006 2942          CLRC      PAGE0,OVM             ; [CPU_ALU] 
     480 00000007 5616          CLRC      AMODE                 ; [CPU_ALU] 
     481 00000008 7625        ESTOP0
     482 00000009       $C$L9:    
     483                      .dwpsn  file "../DeviceSupport/source/f28003x_defaultisr.c",line 282,column 5,is_stmt,isa 0
     484 00000009 6F00          B         $C$L9,UNC             ; [CPU_ALU] |282| 
     485                      ; branch occurs ; [] |282| 
     486                      .dwattr $C$DW$9, DW_AT_TI_end_file("../DeviceSupport/source/f28003x_defaultisr.c")
     487                      .dwattr $C$DW$9, DW_AT_TI_end_line(0x11b)
     488                      .dwattr $C$DW$9, DW_AT_TI_end_column(0x01)
     489                      .dwendentry
     490                      .dwendtag $C$DW$9
     491              
     492 00000000               .sect   ".text:_USER6_ISR"
     493                      .retain
     494                      .retainrefs
     495                      .global _USER6_ISR
     496              
     497              $C$DW$10        .dwtag  DW_TAG_subprogram
     498                      .dwattr $C$DW$10, DW_AT_name("USER6_ISR")
     499                      .dwattr $C$DW$10, DW_AT_low_pc(_USER6_ISR)
     500                      .dwattr $C$DW$10, DW_AT_high_pc(0x00)
     501                      .dwattr $C$DW$10, DW_AT_TI_symbol_name("_USER6_ISR")
     502                      .dwattr $C$DW$10, DW_AT_external
     503                      .dwattr $C$DW$10, DW_AT_TI_begin_file("../DeviceSupport/source/f28003x_defaultisr.c")
     504                      .dwattr $C$DW$10, DW_AT_TI_begin_line(0xfe)
     505                      .dwattr $C$DW$10, DW_AT_TI_begin_column(0x10)
     506                      .dwattr $C$DW$10, DW_AT_TI_interrupt
     507                      .dwattr $C$DW$10, DW_AT_TI_max_frame_size(-6)
     508                      .dwpsn  file "../DeviceSupport/source/f28003x_defaultisr.c",line 255,column 1,is_stmt,address _USER6_
     509              
     510                      .dwfde $C$DW$CIE, _USER6_ISR
     511              
     512              ;***************************************************************
     513              ;* FNAME: _USER6_ISR                    FR SIZE:   4           *
     514              ;*                                                             *
     515              ;* FUNCTION ENVIRONMENT                                        *
     516              ;*                                                             *
     517              ;* FUNCTION PROPERTIES                                         *
     518              ;*                            0 Parameter,  0 Auto,  4 SOE     *
     519              ;***************************************************************
     520              
     521 00000000       _USER6_ISR:
     522                      .dwcfi  cfa_offset, -2
     523                      .dwcfi  save_reg_to_mem, 26, 0
     524 00000000 761B          ASP       ; [CPU_ALU] 
     525 00000001 FFF0          PUSH      RB                    ; [CPU_FPU] 
     526                      .dwcfi  save_reg_to_mem, 74, 4
     527                      .dwcfi  cfa_offset, -4
     528 00000002 E200          MOV32     *SP++,STF             ; [CPU_FPU] 
         00000003 00BD 
     529                      .dwcfi  save_reg_to_mem, 40, 6
     530                      .dwcfi  cfa_offset, -6
     531 00000004 E630          SETFLG    RNDF32=1, RNDF64=1    ; [CPU_FPU] 
TMS320C2000 Assembler PC v22.6.1 Wed May 21 09:51:54 2025

Copyright (c) 1996-2018 Texas Instruments Incorporated
C:\Users\Daniel\AppData\Local\Temp\{513EF8AD-E23E-4989-8EC9-611DE01417F7} PAGE   11

         00000005 0600 
     532 00000006 2942          CLRC      PAGE0,OVM             ; [CPU_ALU] 
     533 00000007 5616          CLRC      AMODE                 ; [CPU_ALU] 
     534 00000008 7625        ESTOP0
     535 00000009       $C$L10:    
     536                      .dwpsn  file "../DeviceSupport/source/f28003x_defaultisr.c",line 265,column 5,is_stmt,isa 0
     537 00000009 6F00          B         $C$L10,UNC            ; [CPU_ALU] |265| 
     538                      ; branch occurs ; [] |265| 
     539                      .dwattr $C$DW$10, DW_AT_TI_end_file("../DeviceSupport/source/f28003x_defaultisr.c")
     540                      .dwattr $C$DW$10, DW_AT_TI_end_line(0x10a)
     541                      .dwattr $C$DW$10, DW_AT_TI_end_column(0x01)
     542                      .dwendentry
     543                      .dwendtag $C$DW$10
     544              
     545 00000000               .sect   ".text:_USER5_ISR"
     546                      .retain
     547                      .retainrefs
     548                      .global _USER5_ISR
     549              
     550              $C$DW$11        .dwtag  DW_TAG_subprogram
     551                      .dwattr $C$DW$11, DW_AT_name("USER5_ISR")
     552                      .dwattr $C$DW$11, DW_AT_low_pc(_USER5_ISR)
     553                      .dwattr $C$DW$11, DW_AT_high_pc(0x00)
     554                      .dwattr $C$DW$11, DW_AT_TI_symbol_name("_USER5_ISR")
     555                      .dwattr $C$DW$11, DW_AT_external
     556                      .dwattr $C$DW$11, DW_AT_TI_begin_file("../DeviceSupport/source/f28003x_defaultisr.c")
     557                      .dwattr $C$DW$11, DW_AT_TI_begin_line(0xed)
     558                      .dwattr $C$DW$11, DW_AT_TI_begin_column(0x10)
     559                      .dwattr $C$DW$11, DW_AT_TI_interrupt
     560                      .dwattr $C$DW$11, DW_AT_TI_max_frame_size(-6)
     561                      .dwpsn  file "../DeviceSupport/source/f28003x_defaultisr.c",line 238,column 1,is_stmt,address _USER5_
     562              
     563                      .dwfde $C$DW$CIE, _USER5_ISR
     564              
     565              ;***************************************************************
     566              ;* FNAME: _USER5_ISR                    FR SIZE:   4           *
     567              ;*                                                             *
     568              ;* FUNCTION ENVIRONMENT                                        *
     569              ;*                                                             *
     570              ;* FUNCTION PROPERTIES                                         *
     571              ;*                            0 Parameter,  0 Auto,  4 SOE     *
     572              ;***************************************************************
     573              
     574 00000000       _USER5_ISR:
     575                      .dwcfi  cfa_offset, -2
     576                      .dwcfi  save_reg_to_mem, 26, 0
     577 00000000 761B          ASP       ; [CPU_ALU] 
     578 00000001 FFF0          PUSH      RB                    ; [CPU_FPU] 
     579                      .dwcfi  save_reg_to_mem, 74, 4
     580                      .dwcfi  cfa_offset, -4
     581 00000002 E200          MOV32     *SP++,STF             ; [CPU_FPU] 
         00000003 00BD 
     582                      .dwcfi  save_reg_to_mem, 40, 6
     583                      .dwcfi  cfa_offset, -6
     584 00000004 E630          SETFLG    RNDF32=1, RNDF64=1    ; [CPU_FPU] 
TMS320C2000 Assembler PC v22.6.1 Wed May 21 09:51:54 2025

Copyright (c) 1996-2018 Texas Instruments Incorporated
C:\Users\Daniel\AppData\Local\Temp\{513EF8AD-E23E-4989-8EC9-611DE01417F7} PAGE   12

         00000005 0600 
     585 00000006 2942          CLRC      PAGE0,OVM             ; [CPU_ALU] 
     586 00000007 5616          CLRC      AMODE                 ; [CPU_ALU] 
     587 00000008 7625        ESTOP0
     588 00000009       $C$L11:    
     589                      .dwpsn  file "../DeviceSupport/source/f28003x_defaultisr.c",line 248,column 5,is_stmt,isa 0
     590 00000009 6F00          B         $C$L11,UNC            ; [CPU_ALU] |248| 
     591                      ; branch occurs ; [] |248| 
     592                      .dwattr $C$DW$11, DW_AT_TI_end_file("../DeviceSupport/source/f28003x_defaultisr.c")
     593                      .dwattr $C$DW$11, DW_AT_TI_end_line(0xf9)
     594                      .dwattr $C$DW$11, DW_AT_TI_end_column(0x01)
     595                      .dwendentry
     596                      .dwendtag $C$DW$11
     597              
     598 00000000               .sect   ".text:_USER4_ISR"
     599                      .retain
     600                      .retainrefs
     601                      .global _USER4_ISR
     602              
     603              $C$DW$12        .dwtag  DW_TAG_subprogram
     604                      .dwattr $C$DW$12, DW_AT_name("USER4_ISR")
     605                      .dwattr $C$DW$12, DW_AT_low_pc(_USER4_ISR)
     606                      .dwattr $C$DW$12, DW_AT_high_pc(0x00)
     607                      .dwattr $C$DW$12, DW_AT_TI_symbol_name("_USER4_ISR")
     608                      .dwattr $C$DW$12, DW_AT_external
     609                      .dwattr $C$DW$12, DW_AT_TI_begin_file("../DeviceSupport/source/f28003x_defaultisr.c")
     610                      .dwattr $C$DW$12, DW_AT_TI_begin_line(0xdc)
     611                      .dwattr $C$DW$12, DW_AT_TI_begin_column(0x10)
     612                      .dwattr $C$DW$12, DW_AT_TI_interrupt
     613                      .dwattr $C$DW$12, DW_AT_TI_max_frame_size(-6)
     614                      .dwpsn  file "../DeviceSupport/source/f28003x_defaultisr.c",line 221,column 1,is_stmt,address _USER4_
     615              
     616                      .dwfde $C$DW$CIE, _USER4_ISR
     617              
     618              ;***************************************************************
     619              ;* FNAME: _USER4_ISR                    FR SIZE:   4           *
     620              ;*                                                             *
     621              ;* FUNCTION ENVIRONMENT                                        *
     622              ;*                                                             *
     623              ;* FUNCTION PROPERTIES                                         *
     624              ;*                            0 Parameter,  0 Auto,  4 SOE     *
     625              ;***************************************************************
     626              
     627 00000000       _USER4_ISR:
     628                      .dwcfi  cfa_offset, -2
     629                      .dwcfi  save_reg_to_mem, 26, 0
     630 00000000 761B          ASP       ; [CPU_ALU] 
     631 00000001 FFF0          PUSH      RB                    ; [CPU_FPU] 
     632                      .dwcfi  save_reg_to_mem, 74, 4
     633                      .dwcfi  cfa_offset, -4
     634 00000002 E200          MOV32     *SP++,STF             ; [CPU_FPU] 
         00000003 00BD 
     635                      .dwcfi  save_reg_to_mem, 40, 6
     636                      .dwcfi  cfa_offset, -6
     637 00000004 E630          SETFLG    RNDF32=1, RNDF64=1    ; [CPU_FPU] 
TMS320C2000 Assembler PC v22.6.1 Wed May 21 09:51:54 2025

Copyright (c) 1996-2018 Texas Instruments Incorporated
C:\Users\Daniel\AppData\Local\Temp\{513EF8AD-E23E-4989-8EC9-611DE01417F7} PAGE   13

         00000005 0600 
     638 00000006 2942          CLRC      PAGE0,OVM             ; [CPU_ALU] 
     639 00000007 5616          CLRC      AMODE                 ; [CPU_ALU] 
     640 00000008 7625        ESTOP0
     641 00000009       $C$L12:    
     642                      .dwpsn  file "../DeviceSupport/source/f28003x_defaultisr.c",line 231,column 5,is_stmt,isa 0
     643 00000009 6F00          B         $C$L12,UNC            ; [CPU_ALU] |231| 
     644                      ; branch occurs ; [] |231| 
     645                      .dwattr $C$DW$12, DW_AT_TI_end_file("../DeviceSupport/source/f28003x_defaultisr.c")
     646                      .dwattr $C$DW$12, DW_AT_TI_end_line(0xe8)
     647                      .dwattr $C$DW$12, DW_AT_TI_end_column(0x01)
     648                      .dwendentry
     649                      .dwendtag $C$DW$12
     650              
     651 00000000               .sect   ".text:_USER3_ISR"
     652                      .retain
     653                      .retainrefs
     654                      .global _USER3_ISR
     655              
     656              $C$DW$13        .dwtag  DW_TAG_subprogram
     657                      .dwattr $C$DW$13, DW_AT_name("USER3_ISR")
     658                      .dwattr $C$DW$13, DW_AT_low_pc(_USER3_ISR)
     659                      .dwattr $C$DW$13, DW_AT_high_pc(0x00)
     660                      .dwattr $C$DW$13, DW_AT_TI_symbol_name("_USER3_ISR")
     661                      .dwattr $C$DW$13, DW_AT_external
     662                      .dwattr $C$DW$13, DW_AT_TI_begin_file("../DeviceSupport/source/f28003x_defaultisr.c")
     663                      .dwattr $C$DW$13, DW_AT_TI_begin_line(0xcb)
     664                      .dwattr $C$DW$13, DW_AT_TI_begin_column(0x10)
     665                      .dwattr $C$DW$13, DW_AT_TI_interrupt
     666                      .dwattr $C$DW$13, DW_AT_TI_max_frame_size(-6)
     667                      .dwpsn  file "../DeviceSupport/source/f28003x_defaultisr.c",line 204,column 1,is_stmt,address _USER3_
     668              
     669                      .dwfde $C$DW$CIE, _USER3_ISR
     670              
     671              ;***************************************************************
     672              ;* FNAME: _USER3_ISR                    FR SIZE:   4           *
     673              ;*                                                             *
     674              ;* FUNCTION ENVIRONMENT                                        *
     675              ;*                                                             *
     676              ;* FUNCTION PROPERTIES                                         *
     677              ;*                            0 Parameter,  0 Auto,  4 SOE     *
     678              ;***************************************************************
     679              
     680 00000000       _USER3_ISR:
     681                      .dwcfi  cfa_offset, -2
     682                      .dwcfi  save_reg_to_mem, 26, 0
     683 00000000 761B          ASP       ; [CPU_ALU] 
     684 00000001 FFF0          PUSH      RB                    ; [CPU_FPU] 
     685                      .dwcfi  save_reg_to_mem, 74, 4
     686                      .dwcfi  cfa_offset, -4
     687 00000002 E200          MOV32     *SP++,STF             ; [CPU_FPU] 
         00000003 00BD 
     688                      .dwcfi  save_reg_to_mem, 40, 6
     689                      .dwcfi  cfa_offset, -6
     690 00000004 E630          SETFLG    RNDF32=1, RNDF64=1    ; [CPU_FPU] 
TMS320C2000 Assembler PC v22.6.1 Wed May 21 09:51:54 2025

Copyright (c) 1996-2018 Texas Instruments Incorporated
C:\Users\Daniel\AppData\Local\Temp\{513EF8AD-E23E-4989-8EC9-611DE01417F7} PAGE   14

         00000005 0600 
     691 00000006 2942          CLRC      PAGE0,OVM             ; [CPU_ALU] 
     692 00000007 5616          CLRC      AMODE                 ; [CPU_ALU] 
     693 00000008 7625        ESTOP0
     694 00000009       $C$L13:    
     695                      .dwpsn  file "../DeviceSupport/source/f28003x_defaultisr.c",line 214,column 5,is_stmt,isa 0
     696 00000009 6F00          B         $C$L13,UNC            ; [CPU_ALU] |214| 
     697                      ; branch occurs ; [] |214| 
     698                      .dwattr $C$DW$13, DW_AT_TI_end_file("../DeviceSupport/source/f28003x_defaultisr.c")
     699                      .dwattr $C$DW$13, DW_AT_TI_end_line(0xd7)
     700                      .dwattr $C$DW$13, DW_AT_TI_end_column(0x01)
     701                      .dwendentry
     702                      .dwendtag $C$DW$13
     703              
     704 00000000               .sect   ".text:_USER2_ISR"
     705                      .retain
     706                      .retainrefs
     707                      .global _USER2_ISR
     708              
     709              $C$DW$14        .dwtag  DW_TAG_subprogram
     710                      .dwattr $C$DW$14, DW_AT_name("USER2_ISR")
     711                      .dwattr $C$DW$14, DW_AT_low_pc(_USER2_ISR)
     712                      .dwattr $C$DW$14, DW_AT_high_pc(0x00)
     713                      .dwattr $C$DW$14, DW_AT_TI_symbol_name("_USER2_ISR")
     714                      .dwattr $C$DW$14, DW_AT_external
     715                      .dwattr $C$DW$14, DW_AT_TI_begin_file("../DeviceSupport/source/f28003x_defaultisr.c")
     716                      .dwattr $C$DW$14, DW_AT_TI_begin_line(0xba)
     717                      .dwattr $C$DW$14, DW_AT_TI_begin_column(0x10)
     718                      .dwattr $C$DW$14, DW_AT_TI_interrupt
     719                      .dwattr $C$DW$14, DW_AT_TI_max_frame_size(-6)
     720                      .dwpsn  file "../DeviceSupport/source/f28003x_defaultisr.c",line 187,column 1,is_stmt,address _USER2_
     721              
     722                      .dwfde $C$DW$CIE, _USER2_ISR
     723              
     724              ;***************************************************************
     725              ;* FNAME: _USER2_ISR                    FR SIZE:   4           *
     726              ;*                                                             *
     727              ;* FUNCTION ENVIRONMENT                                        *
     728              ;*                                                             *
     729              ;* FUNCTION PROPERTIES                                         *
     730              ;*                            0 Parameter,  0 Auto,  4 SOE     *
     731              ;***************************************************************
     732              
     733 00000000       _USER2_ISR:
     734                      .dwcfi  cfa_offset, -2
     735                      .dwcfi  save_reg_to_mem, 26, 0
     736 00000000 761B          ASP       ; [CPU_ALU] 
     737 00000001 FFF0          PUSH      RB                    ; [CPU_FPU] 
     738                      .dwcfi  save_reg_to_mem, 74, 4
     739                      .dwcfi  cfa_offset, -4
     740 00000002 E200          MOV32     *SP++,STF             ; [CPU_FPU] 
         00000003 00BD 
     741                      .dwcfi  save_reg_to_mem, 40, 6
     742                      .dwcfi  cfa_offset, -6
     743 00000004 E630          SETFLG    RNDF32=1, RNDF64=1    ; [CPU_FPU] 
TMS320C2000 Assembler PC v22.6.1 Wed May 21 09:51:54 2025

Copyright (c) 1996-2018 Texas Instruments Incorporated
C:\Users\Daniel\AppData\Local\Temp\{513EF8AD-E23E-4989-8EC9-611DE01417F7} PAGE   15

         00000005 0600 
     744 00000006 2942          CLRC      PAGE0,OVM             ; [CPU_ALU] 
     745 00000007 5616          CLRC      AMODE                 ; [CPU_ALU] 
     746 00000008 7625        ESTOP0
     747 00000009       $C$L14:    
     748                      .dwpsn  file "../DeviceSupport/source/f28003x_defaultisr.c",line 197,column 5,is_stmt,isa 0
     749 00000009 6F00          B         $C$L14,UNC            ; [CPU_ALU] |197| 
     750                      ; branch occurs ; [] |197| 
     751                      .dwattr $C$DW$14, DW_AT_TI_end_file("../DeviceSupport/source/f28003x_defaultisr.c")
     752                      .dwattr $C$DW$14, DW_AT_TI_end_line(0xc6)
     753                      .dwattr $C$DW$14, DW_AT_TI_end_column(0x01)
     754                      .dwendentry
     755                      .dwendtag $C$DW$14
     756              
     757 00000000               .sect   ".text:_USER1_ISR"
     758                      .retain
     759                      .retainrefs
     760                      .global _USER1_ISR
     761              
     762              $C$DW$15        .dwtag  DW_TAG_subprogram
     763                      .dwattr $C$DW$15, DW_AT_name("USER1_ISR")
     764                      .dwattr $C$DW$15, DW_AT_low_pc(_USER1_ISR)
     765                      .dwattr $C$DW$15, DW_AT_high_pc(0x00)
     766                      .dwattr $C$DW$15, DW_AT_TI_symbol_name("_USER1_ISR")
     767                      .dwattr $C$DW$15, DW_AT_external
     768                      .dwattr $C$DW$15, DW_AT_TI_begin_file("../DeviceSupport/source/f28003x_defaultisr.c")
     769                      .dwattr $C$DW$15, DW_AT_TI_begin_line(0xa9)
     770                      .dwattr $C$DW$15, DW_AT_TI_begin_column(0x10)
     771                      .dwattr $C$DW$15, DW_AT_TI_interrupt
     772                      .dwattr $C$DW$15, DW_AT_TI_max_frame_size(-6)
     773                      .dwpsn  file "../DeviceSupport/source/f28003x_defaultisr.c",line 170,column 1,is_stmt,address _USER1_
     774              
     775                      .dwfde $C$DW$CIE, _USER1_ISR
     776              
     777              ;***************************************************************
     778              ;* FNAME: _USER1_ISR                    FR SIZE:   4           *
     779              ;*                                                             *
     780              ;* FUNCTION ENVIRONMENT                                        *
     781              ;*                                                             *
     782              ;* FUNCTION PROPERTIES                                         *
     783              ;*                            0 Parameter,  0 Auto,  4 SOE     *
     784              ;***************************************************************
     785              
     786 00000000       _USER1_ISR:
     787                      .dwcfi  cfa_offset, -2
     788                      .dwcfi  save_reg_to_mem, 26, 0
     789 00000000 761B          ASP       ; [CPU_ALU] 
     790 00000001 FFF0          PUSH      RB                    ; [CPU_FPU] 
     791                      .dwcfi  save_reg_to_mem, 74, 4
     792                      .dwcfi  cfa_offset, -4
     793 00000002 E200          MOV32     *SP++,STF             ; [CPU_FPU] 
         00000003 00BD 
     794                      .dwcfi  save_reg_to_mem, 40, 6
     795                      .dwcfi  cfa_offset, -6
     796 00000004 E630          SETFLG    RNDF32=1, RNDF64=1    ; [CPU_FPU] 
TMS320C2000 Assembler PC v22.6.1 Wed May 21 09:51:54 2025

Copyright (c) 1996-2018 Texas Instruments Incorporated
C:\Users\Daniel\AppData\Local\Temp\{513EF8AD-E23E-4989-8EC9-611DE01417F7} PAGE   16

         00000005 0600 
     797 00000006 2942          CLRC      PAGE0,OVM             ; [CPU_ALU] 
     798 00000007 5616          CLRC      AMODE                 ; [CPU_ALU] 
     799 00000008 7625        ESTOP0
     800 00000009       $C$L15:    
     801                      .dwpsn  file "../DeviceSupport/source/f28003x_defaultisr.c",line 180,column 5,is_stmt,isa 0
     802 00000009 6F00          B         $C$L15,UNC            ; [CPU_ALU] |180| 
     803                      ; branch occurs ; [] |180| 
     804                      .dwattr $C$DW$15, DW_AT_TI_end_file("../DeviceSupport/source/f28003x_defaultisr.c")
     805                      .dwattr $C$DW$15, DW_AT_TI_end_line(0xb5)
     806                      .dwattr $C$DW$15, DW_AT_TI_end_column(0x01)
     807                      .dwendentry
     808                      .dwendtag $C$DW$15
     809              
     810 00000000               .sect   ".text:_USER12_ISR"
     811                      .retain
     812                      .retainrefs
     813                      .global _USER12_ISR
     814              
     815              $C$DW$16        .dwtag  DW_TAG_subprogram
     816                      .dwattr $C$DW$16, DW_AT_name("USER12_ISR")
     817                      .dwattr $C$DW$16, DW_AT_low_pc(_USER12_ISR)
     818                      .dwattr $C$DW$16, DW_AT_high_pc(0x00)
     819                      .dwattr $C$DW$16, DW_AT_TI_symbol_name("_USER12_ISR")
     820                      .dwattr $C$DW$16, DW_AT_external
     821                      .dwattr $C$DW$16, DW_AT_TI_begin_file("../DeviceSupport/source/f28003x_defaultisr.c")
     822                      .dwattr $C$DW$16, DW_AT_TI_begin_line(0x164)
     823                      .dwattr $C$DW$16, DW_AT_TI_begin_column(0x10)
     824                      .dwattr $C$DW$16, DW_AT_TI_interrupt
     825                      .dwattr $C$DW$16, DW_AT_TI_max_frame_size(-6)
     826                      .dwpsn  file "../DeviceSupport/source/f28003x_defaultisr.c",line 357,column 1,is_stmt,address _USER12
     827              
     828                      .dwfde $C$DW$CIE, _USER12_ISR
     829              
     830              ;***************************************************************
     831              ;* FNAME: _USER12_ISR                   FR SIZE:   4           *
     832              ;*                                                             *
     833              ;* FUNCTION ENVIRONMENT                                        *
     834              ;*                                                             *
     835              ;* FUNCTION PROPERTIES                                         *
     836              ;*                            0 Parameter,  0 Auto,  4 SOE     *
     837              ;***************************************************************
     838              
     839 00000000       _USER12_ISR:
     840                      .dwcfi  cfa_offset, -2
     841                      .dwcfi  save_reg_to_mem, 26, 0
     842 00000000 761B          ASP       ; [CPU_ALU] 
     843 00000001 FFF0          PUSH      RB                    ; [CPU_FPU] 
     844                      .dwcfi  save_reg_to_mem, 74, 4
     845                      .dwcfi  cfa_offset, -4
     846 00000002 E200          MOV32     *SP++,STF             ; [CPU_FPU] 
         00000003 00BD 
     847                      .dwcfi  save_reg_to_mem, 40, 6
     848                      .dwcfi  cfa_offset, -6
     849 00000004 E630          SETFLG    RNDF32=1, RNDF64=1    ; [CPU_FPU] 
TMS320C2000 Assembler PC v22.6.1 Wed May 21 09:51:54 2025

Copyright (c) 1996-2018 Texas Instruments Incorporated
C:\Users\Daniel\AppData\Local\Temp\{513EF8AD-E23E-4989-8EC9-611DE01417F7} PAGE   17

         00000005 0600 
     850 00000006 2942          CLRC      PAGE0,OVM             ; [CPU_ALU] 
     851 00000007 5616          CLRC      AMODE                 ; [CPU_ALU] 
     852 00000008 7625        ESTOP0
     853 00000009       $C$L16:    
     854                      .dwpsn  file "../DeviceSupport/source/f28003x_defaultisr.c",line 367,column 5,is_stmt,isa 0
     855 00000009 6F00          B         $C$L16,UNC            ; [CPU_ALU] |367| 
     856                      ; branch occurs ; [] |367| 
     857                      .dwattr $C$DW$16, DW_AT_TI_end_file("../DeviceSupport/source/f28003x_defaultisr.c")
     858                      .dwattr $C$DW$16, DW_AT_TI_end_line(0x170)
     859                      .dwattr $C$DW$16, DW_AT_TI_end_column(0x01)
     860                      .dwendentry
     861                      .dwendtag $C$DW$16
     862              
     863 00000000               .sect   ".text:_USER11_ISR"
     864                      .retain
     865                      .retainrefs
     866                      .global _USER11_ISR
     867              
     868              $C$DW$17        .dwtag  DW_TAG_subprogram
     869                      .dwattr $C$DW$17, DW_AT_name("USER11_ISR")
     870                      .dwattr $C$DW$17, DW_AT_low_pc(_USER11_ISR)
     871                      .dwattr $C$DW$17, DW_AT_high_pc(0x00)
     872                      .dwattr $C$DW$17, DW_AT_TI_symbol_name("_USER11_ISR")
     873                      .dwattr $C$DW$17, DW_AT_external
     874                      .dwattr $C$DW$17, DW_AT_TI_begin_file("../DeviceSupport/source/f28003x_defaultisr.c")
     875                      .dwattr $C$DW$17, DW_AT_TI_begin_line(0x153)
     876                      .dwattr $C$DW$17, DW_AT_TI_begin_column(0x10)
     877                      .dwattr $C$DW$17, DW_AT_TI_interrupt
     878                      .dwattr $C$DW$17, DW_AT_TI_max_frame_size(-6)
     879                      .dwpsn  file "../DeviceSupport/source/f28003x_defaultisr.c",line 340,column 1,is_stmt,address _USER11
     880              
     881                      .dwfde $C$DW$CIE, _USER11_ISR
     882              
     883              ;***************************************************************
     884              ;* FNAME: _USER11_ISR                   FR SIZE:   4           *
     885              ;*                                                             *
     886              ;* FUNCTION ENVIRONMENT                                        *
     887              ;*                                                             *
     888              ;* FUNCTION PROPERTIES                                         *
     889              ;*                            0 Parameter,  0 Auto,  4 SOE     *
     890              ;***************************************************************
     891              
     892 00000000       _USER11_ISR:
     893                      .dwcfi  cfa_offset, -2
     894                      .dwcfi  save_reg_to_mem, 26, 0
     895 00000000 761B          ASP       ; [CPU_ALU] 
     896 00000001 FFF0          PUSH      RB                    ; [CPU_FPU] 
     897                      .dwcfi  save_reg_to_mem, 74, 4
     898                      .dwcfi  cfa_offset, -4
     899 00000002 E200          MOV32     *SP++,STF             ; [CPU_FPU] 
         00000003 00BD 
     900                      .dwcfi  save_reg_to_mem, 40, 6
     901                      .dwcfi  cfa_offset, -6
     902 00000004 E630          SETFLG    RNDF32=1, RNDF64=1    ; [CPU_FPU] 
TMS320C2000 Assembler PC v22.6.1 Wed May 21 09:51:54 2025

Copyright (c) 1996-2018 Texas Instruments Incorporated
C:\Users\Daniel\AppData\Local\Temp\{513EF8AD-E23E-4989-8EC9-611DE01417F7} PAGE   18

         00000005 0600 
     903 00000006 2942          CLRC      PAGE0,OVM             ; [CPU_ALU] 
     904 00000007 5616          CLRC      AMODE                 ; [CPU_ALU] 
     905 00000008 7625        ESTOP0
     906 00000009       $C$L17:    
     907                      .dwpsn  file "../DeviceSupport/source/f28003x_defaultisr.c",line 350,column 5,is_stmt,isa 0
     908 00000009 6F00          B         $C$L17,UNC            ; [CPU_ALU] |350| 
     909                      ; branch occurs ; [] |350| 
     910                      .dwattr $C$DW$17, DW_AT_TI_end_file("../DeviceSupport/source/f28003x_defaultisr.c")
     911                      .dwattr $C$DW$17, DW_AT_TI_end_line(0x15f)
     912                      .dwattr $C$DW$17, DW_AT_TI_end_column(0x01)
     913                      .dwendentry
     914                      .dwendtag $C$DW$17
     915              
     916 00000000               .sect   ".text:_USER10_ISR"
     917                      .retain
     918                      .retainrefs
     919                      .global _USER10_ISR
     920              
     921              $C$DW$18        .dwtag  DW_TAG_subprogram
     922                      .dwattr $C$DW$18, DW_AT_name("USER10_ISR")
     923                      .dwattr $C$DW$18, DW_AT_low_pc(_USER10_ISR)
     924                      .dwattr $C$DW$18, DW_AT_high_pc(0x00)
     925                      .dwattr $C$DW$18, DW_AT_TI_symbol_name("_USER10_ISR")
     926                      .dwattr $C$DW$18, DW_AT_external
     927                      .dwattr $C$DW$18, DW_AT_TI_begin_file("../DeviceSupport/source/f28003x_defaultisr.c")
     928                      .dwattr $C$DW$18, DW_AT_TI_begin_line(0x142)
     929                      .dwattr $C$DW$18, DW_AT_TI_begin_column(0x10)
     930                      .dwattr $C$DW$18, DW_AT_TI_interrupt
     931                      .dwattr $C$DW$18, DW_AT_TI_max_frame_size(-6)
     932                      .dwpsn  file "../DeviceSupport/source/f28003x_defaultisr.c",line 323,column 1,is_stmt,address _USER10
     933              
     934                      .dwfde $C$DW$CIE, _USER10_ISR
     935              
     936              ;***************************************************************
     937              ;* FNAME: _USER10_ISR                   FR SIZE:   4           *
     938              ;*                                                             *
     939              ;* FUNCTION ENVIRONMENT                                        *
     940              ;*                                                             *
     941              ;* FUNCTION PROPERTIES                                         *
     942              ;*                            0 Parameter,  0 Auto,  4 SOE     *
     943              ;***************************************************************
     944              
     945 00000000       _USER10_ISR:
     946                      .dwcfi  cfa_offset, -2
     947                      .dwcfi  save_reg_to_mem, 26, 0
     948 00000000 761B          ASP       ; [CPU_ALU] 
     949 00000001 FFF0          PUSH      RB                    ; [CPU_FPU] 
     950                      .dwcfi  save_reg_to_mem, 74, 4
     951                      .dwcfi  cfa_offset, -4
     952 00000002 E200          MOV32     *SP++,STF             ; [CPU_FPU] 
         00000003 00BD 
     953                      .dwcfi  save_reg_to_mem, 40, 6
     954                      .dwcfi  cfa_offset, -6
     955 00000004 E630          SETFLG    RNDF32=1, RNDF64=1    ; [CPU_FPU] 
TMS320C2000 Assembler PC v22.6.1 Wed May 21 09:51:54 2025

Copyright (c) 1996-2018 Texas Instruments Incorporated
C:\Users\Daniel\AppData\Local\Temp\{513EF8AD-E23E-4989-8EC9-611DE01417F7} PAGE   19

         00000005 0600 
     956 00000006 2942          CLRC      PAGE0,OVM             ; [CPU_ALU] 
     957 00000007 5616          CLRC      AMODE                 ; [CPU_ALU] 
     958 00000008 7625        ESTOP0
     959 00000009       $C$L18:    
     960                      .dwpsn  file "../DeviceSupport/source/f28003x_defaultisr.c",line 333,column 5,is_stmt,isa 0
     961 00000009 6F00          B         $C$L18,UNC            ; [CPU_ALU] |333| 
     962                      ; branch occurs ; [] |333| 
     963                      .dwattr $C$DW$18, DW_AT_TI_end_file("../DeviceSupport/source/f28003x_defaultisr.c")
     964                      .dwattr $C$DW$18, DW_AT_TI_end_line(0x14e)
     965                      .dwattr $C$DW$18, DW_AT_TI_end_column(0x01)
     966                      .dwendentry
     967                      .dwendtag $C$DW$18
     968              
     969 00000000               .sect   ".text:_TIMER2_ISR"
     970                      .retain
     971                      .retainrefs
     972                      .global _TIMER2_ISR
     973              
     974              $C$DW$19        .dwtag  DW_TAG_subprogram
     975                      .dwattr $C$DW$19, DW_AT_name("TIMER2_ISR")
     976                      .dwattr $C$DW$19, DW_AT_low_pc(_TIMER2_ISR)
     977                      .dwattr $C$DW$19, DW_AT_high_pc(0x00)
     978                      .dwattr $C$DW$19, DW_AT_TI_symbol_name("_TIMER2_ISR")
     979                      .dwattr $C$DW$19, DW_AT_external
     980                      .dwattr $C$DW$19, DW_AT_TI_begin_file("../DeviceSupport/source/f28003x_defaultisr.c")
     981                      .dwattr $C$DW$19, DW_AT_TI_begin_line(0x43)
     982                      .dwattr $C$DW$19, DW_AT_TI_begin_column(0x10)
     983                      .dwattr $C$DW$19, DW_AT_TI_interrupt
     984                      .dwattr $C$DW$19, DW_AT_TI_max_frame_size(-6)
     985                      .dwpsn  file "../DeviceSupport/source/f28003x_defaultisr.c",line 68,column 1,is_stmt,address _TIMER2_
     986              
     987                      .dwfde $C$DW$CIE, _TIMER2_ISR
     988              
     989              ;***************************************************************
     990              ;* FNAME: _TIMER2_ISR                   FR SIZE:   4           *
     991              ;*                                                             *
     992              ;* FUNCTION ENVIRONMENT                                        *
     993              ;*                                                             *
     994              ;* FUNCTION PROPERTIES                                         *
     995              ;*                            0 Parameter,  0 Auto,  4 SOE     *
     996              ;***************************************************************
     997              
     998 00000000       _TIMER2_ISR:
     999                      .dwcfi  cfa_offset, -2
    1000                      .dwcfi  save_reg_to_mem, 26, 0
    1001 00000000 761B          ASP       ; [CPU_ALU] 
    1002 00000001 FFF0          PUSH      RB                    ; [CPU_FPU] 
    1003                      .dwcfi  save_reg_to_mem, 74, 4
    1004                      .dwcfi  cfa_offset, -4
    1005 00000002 E200          MOV32     *SP++,STF             ; [CPU_FPU] 
         00000003 00BD 
    1006                      .dwcfi  save_reg_to_mem, 40, 6
    1007                      .dwcfi  cfa_offset, -6
    1008 00000004 E630          SETFLG    RNDF32=1, RNDF64=1    ; [CPU_FPU] 
TMS320C2000 Assembler PC v22.6.1 Wed May 21 09:51:54 2025

Copyright (c) 1996-2018 Texas Instruments Incorporated
C:\Users\Daniel\AppData\Local\Temp\{513EF8AD-E23E-4989-8EC9-611DE01417F7} PAGE   20

         00000005 0600 
    1009 00000006 2942          CLRC      PAGE0,OVM             ; [CPU_ALU] 
    1010 00000007 5616          CLRC      AMODE                 ; [CPU_ALU] 
    1011 00000008 7625        ESTOP0
    1012 00000009       $C$L19:    
    1013                      .dwpsn  file "../DeviceSupport/source/f28003x_defaultisr.c",line 78,column 5,is_stmt,isa 0
    1014 00000009 6F00          B         $C$L19,UNC            ; [CPU_ALU] |78| 
    1015                      ; branch occurs ; [] |78| 
    1016                      .dwattr $C$DW$19, DW_AT_TI_end_file("../DeviceSupport/source/f28003x_defaultisr.c")
    1017                      .dwattr $C$DW$19, DW_AT_TI_end_line(0x4f)
    1018                      .dwattr $C$DW$19, DW_AT_TI_end_column(0x01)
    1019                      .dwendentry
    1020                      .dwendtag $C$DW$19
    1021              
    1022 00000000               .sect   ".text:_TIMER1_ISR"
    1023                      .retain
    1024                      .retainrefs
    1025                      .global _TIMER1_ISR
    1026              
    1027              $C$DW$20        .dwtag  DW_TAG_subprogram
    1028                      .dwattr $C$DW$20, DW_AT_name("TIMER1_ISR")
    1029                      .dwattr $C$DW$20, DW_AT_low_pc(_TIMER1_ISR)
    1030                      .dwattr $C$DW$20, DW_AT_high_pc(0x00)
    1031                      .dwattr $C$DW$20, DW_AT_TI_symbol_name("_TIMER1_ISR")
    1032                      .dwattr $C$DW$20, DW_AT_external
    1033                      .dwattr $C$DW$20, DW_AT_TI_begin_file("../DeviceSupport/source/f28003x_defaultisr.c")
    1034                      .dwattr $C$DW$20, DW_AT_TI_begin_line(0x32)
    1035                      .dwattr $C$DW$20, DW_AT_TI_begin_column(0x10)
    1036                      .dwattr $C$DW$20, DW_AT_TI_interrupt
    1037                      .dwattr $C$DW$20, DW_AT_TI_max_frame_size(-6)
    1038                      .dwpsn  file "../DeviceSupport/source/f28003x_defaultisr.c",line 51,column 1,is_stmt,address _TIMER1_
    1039              
    1040                      .dwfde $C$DW$CIE, _TIMER1_ISR
    1041              
    1042              ;***************************************************************
    1043              ;* FNAME: _TIMER1_ISR                   FR SIZE:   4           *
    1044              ;*                                                             *
    1045              ;* FUNCTION ENVIRONMENT                                        *
    1046              ;*                                                             *
    1047              ;* FUNCTION PROPERTIES                                         *
    1048              ;*                            0 Parameter,  0 Auto,  4 SOE     *
    1049              ;***************************************************************
    1050              
    1051 00000000       _TIMER1_ISR:
    1052                      .dwcfi  cfa_offset, -2
    1053                      .dwcfi  save_reg_to_mem, 26, 0
    1054 00000000 761B          ASP       ; [CPU_ALU] 
    1055 00000001 FFF0          PUSH      RB                    ; [CPU_FPU] 
    1056                      .dwcfi  save_reg_to_mem, 74, 4
    1057                      .dwcfi  cfa_offset, -4
    1058 00000002 E200          MOV32     *SP++,STF             ; [CPU_FPU] 
         00000003 00BD 
    1059                      .dwcfi  save_reg_to_mem, 40, 6
    1060                      .dwcfi  cfa_offset, -6
    1061 00000004 E630          SETFLG    RNDF32=1, RNDF64=1    ; [CPU_FPU] 
TMS320C2000 Assembler PC v22.6.1 Wed May 21 09:51:54 2025

Copyright (c) 1996-2018 Texas Instruments Incorporated
C:\Users\Daniel\AppData\Local\Temp\{513EF8AD-E23E-4989-8EC9-611DE01417F7} PAGE   21

         00000005 0600 
    1062 00000006 2942          CLRC      PAGE0,OVM             ; [CPU_ALU] 
    1063 00000007 5616          CLRC      AMODE                 ; [CPU_ALU] 
    1064 00000008 7625        ESTOP0
    1065 00000009       $C$L20:    
    1066                      .dwpsn  file "../DeviceSupport/source/f28003x_defaultisr.c",line 61,column 5,is_stmt,isa 0
    1067 00000009 6F00          B         $C$L20,UNC            ; [CPU_ALU] |61| 
    1068                      ; branch occurs ; [] |61| 
    1069                      .dwattr $C$DW$20, DW_AT_TI_end_file("../DeviceSupport/source/f28003x_defaultisr.c")
    1070                      .dwattr $C$DW$20, DW_AT_TI_end_line(0x3e)
    1071                      .dwattr $C$DW$20, DW_AT_TI_end_column(0x01)
    1072                      .dwendentry
    1073                      .dwendtag $C$DW$20
    1074              
    1075 00000000               .sect   ".text:_TIMER0_ISR"
    1076                      .retain
    1077                      .retainrefs
    1078                      .global _TIMER0_ISR
    1079              
    1080              $C$DW$21        .dwtag  DW_TAG_subprogram
    1081                      .dwattr $C$DW$21, DW_AT_name("TIMER0_ISR")
    1082                      .dwattr $C$DW$21, DW_AT_low_pc(_TIMER0_ISR)
    1083                      .dwattr $C$DW$21, DW_AT_high_pc(0x00)
    1084                      .dwattr $C$DW$21, DW_AT_TI_symbol_name("_TIMER0_ISR")
    1085                      .dwattr $C$DW$21, DW_AT_external
    1086                      .dwattr $C$DW$21, DW_AT_TI_begin_file("../DeviceSupport/source/f28003x_defaultisr.c")
    1087                      .dwattr $C$DW$21, DW_AT_TI_begin_line(0x1e8)
    1088                      .dwattr $C$DW$21, DW_AT_TI_begin_column(0x10)
    1089                      .dwattr $C$DW$21, DW_AT_TI_interrupt
    1090                      .dwattr $C$DW$21, DW_AT_TI_max_frame_size(-6)
    1091                      .dwpsn  file "../DeviceSupport/source/f28003x_defaultisr.c",line 489,column 1,is_stmt,address _TIMER0
    1092              
    1093                      .dwfde $C$DW$CIE, _TIMER0_ISR
    1094              
    1095              ;***************************************************************
    1096              ;* FNAME: _TIMER0_ISR                   FR SIZE:   4           *
    1097              ;*                                                             *
    1098              ;* FUNCTION ENVIRONMENT                                        *
    1099              ;*                                                             *
    1100              ;* FUNCTION PROPERTIES                                         *
    1101              ;*                            0 Parameter,  0 Auto,  4 SOE     *
    1102              ;***************************************************************
    1103              
    1104 00000000       _TIMER0_ISR:
    1105                      .dwcfi  cfa_offset, -2
    1106                      .dwcfi  save_reg_to_mem, 26, 0
    1107 00000000 761B          ASP       ; [CPU_ALU] 
    1108 00000001 FFF0          PUSH      RB                    ; [CPU_FPU] 
    1109                      .dwcfi  save_reg_to_mem, 74, 4
    1110                      .dwcfi  cfa_offset, -4
    1111 00000002 E200          MOV32     *SP++,STF             ; [CPU_FPU] 
         00000003 00BD 
    1112                      .dwcfi  save_reg_to_mem, 40, 6
    1113                      .dwcfi  cfa_offset, -6
    1114 00000004 E630          SETFLG    RNDF32=1, RNDF64=1    ; [CPU_FPU] 
TMS320C2000 Assembler PC v22.6.1 Wed May 21 09:51:54 2025

Copyright (c) 1996-2018 Texas Instruments Incorporated
C:\Users\Daniel\AppData\Local\Temp\{513EF8AD-E23E-4989-8EC9-611DE01417F7} PAGE   22

         00000005 0600 
    1115 00000006 2942          CLRC      PAGE0,OVM             ; [CPU_ALU] 
    1116 00000007 5616          CLRC      AMODE                 ; [CPU_ALU] 
    1117 00000008 7625        ESTOP0
    1118 00000009       $C$L21:    
    1119                      .dwpsn  file "../DeviceSupport/source/f28003x_defaultisr.c",line 505,column 5,is_stmt,isa 0
    1120 00000009 6F00          B         $C$L21,UNC            ; [CPU_ALU] |505| 
    1121                      ; branch occurs ; [] |505| 
    1122                      .dwattr $C$DW$21, DW_AT_TI_end_file("../DeviceSupport/source/f28003x_defaultisr.c")
    1123                      .dwattr $C$DW$21, DW_AT_TI_end_line(0x1fa)
    1124                      .dwattr $C$DW$21, DW_AT_TI_end_column(0x01)
    1125                      .dwendentry
    1126                      .dwendtag $C$DW$21
    1127              
    1128 00000000               .sect   ".text:_SYS_ERR_ISR"
    1129                      .retain
    1130                      .retainrefs
    1131                      .global _SYS_ERR_ISR
    1132              
    1133              $C$DW$22        .dwtag  DW_TAG_subprogram
    1134                      .dwattr $C$DW$22, DW_AT_name("SYS_ERR_ISR")
    1135                      .dwattr $C$DW$22, DW_AT_low_pc(_SYS_ERR_ISR)
    1136                      .dwattr $C$DW$22, DW_AT_high_pc(0x00)
    1137                      .dwattr $C$DW$22, DW_AT_TI_symbol_name("_SYS_ERR_ISR")
    1138                      .dwattr $C$DW$22, DW_AT_external
    1139                      .dwattr $C$DW$22, DW_AT_TI_begin_file("../DeviceSupport/source/f28003x_defaultisr.c")
    1140                      .dwattr $C$DW$22, DW_AT_TI_begin_line(0x832)
    1141                      .dwattr $C$DW$22, DW_AT_TI_begin_column(0x10)
    1142                      .dwattr $C$DW$22, DW_AT_TI_interrupt
    1143                      .dwattr $C$DW$22, DW_AT_TI_max_frame_size(-6)
    1144                      .dwpsn  file "../DeviceSupport/source/f28003x_defaultisr.c",line 2099,column 1,is_stmt,address _SYS_E
    1145              
    1146                      .dwfde $C$DW$CIE, _SYS_ERR_ISR
    1147              
    1148              ;***************************************************************
    1149              ;* FNAME: _SYS_ERR_ISR                  FR SIZE:   4           *
    1150              ;*                                                             *
    1151              ;* FUNCTION ENVIRONMENT                                        *
    1152              ;*                                                             *
    1153              ;* FUNCTION PROPERTIES                                         *
    1154              ;*                            0 Parameter,  0 Auto,  4 SOE     *
    1155              ;***************************************************************
    1156              
    1157 00000000       _SYS_ERR_ISR:
    1158                      .dwcfi  cfa_offset, -2
    1159                      .dwcfi  save_reg_to_mem, 26, 0
    1160 00000000 761B          ASP       ; [CPU_ALU] 
    1161 00000001 FFF0          PUSH      RB                    ; [CPU_FPU] 
    1162                      .dwcfi  save_reg_to_mem, 74, 4
    1163                      .dwcfi  cfa_offset, -4
    1164 00000002 E200          MOV32     *SP++,STF             ; [CPU_FPU] 
         00000003 00BD 
    1165                      .dwcfi  save_reg_to_mem, 40, 6
    1166                      .dwcfi  cfa_offset, -6
    1167 00000004 E630          SETFLG    RNDF32=1, RNDF64=1    ; [CPU_FPU] 
TMS320C2000 Assembler PC v22.6.1 Wed May 21 09:51:54 2025

Copyright (c) 1996-2018 Texas Instruments Incorporated
C:\Users\Daniel\AppData\Local\Temp\{513EF8AD-E23E-4989-8EC9-611DE01417F7} PAGE   23

         00000005 0600 
    1168 00000006 2942          CLRC      PAGE0,OVM             ; [CPU_ALU] 
    1169 00000007 5616          CLRC      AMODE                 ; [CPU_ALU] 
    1170 00000008 7625        ESTOP0
    1171 00000009       $C$L22:    
    1172                      .dwpsn  file "../DeviceSupport/source/f28003x_defaultisr.c",line 2115,column 5,is_stmt,isa 0
    1173 00000009 6F00          B         $C$L22,UNC            ; [CPU_ALU] |2115| 
    1174                      ; branch occurs ; [] |2115| 
    1175                      .dwattr $C$DW$22, DW_AT_TI_end_file("../DeviceSupport/source/f28003x_defaultisr.c")
    1176                      .dwattr $C$DW$22, DW_AT_TI_end_line(0x844)
    1177                      .dwattr $C$DW$22, DW_AT_TI_end_column(0x01)
    1178                      .dwendentry
    1179                      .dwendtag $C$DW$22
    1180              
    1181 00000000               .sect   ".text:_SPIB_TX_ISR"
    1182                      .retain
    1183                      .retainrefs
    1184                      .global _SPIB_TX_ISR
    1185              
    1186              $C$DW$23        .dwtag  DW_TAG_subprogram
    1187                      .dwattr $C$DW$23, DW_AT_name("SPIB_TX_ISR")
    1188                      .dwattr $C$DW$23, DW_AT_low_pc(_SPIB_TX_ISR)
    1189                      .dwattr $C$DW$23, DW_AT_high_pc(0x00)
    1190                      .dwattr $C$DW$23, DW_AT_TI_symbol_name("_SPIB_TX_ISR")
    1191                      .dwattr $C$DW$23, DW_AT_external
    1192                      .dwattr $C$DW$23, DW_AT_TI_begin_file("../DeviceSupport/source/f28003x_defaultisr.c")
    1193                      .dwattr $C$DW$23, DW_AT_TI_begin_line(0x49a)
    1194                      .dwattr $C$DW$23, DW_AT_TI_begin_column(0x10)
    1195                      .dwattr $C$DW$23, DW_AT_TI_interrupt
    1196                      .dwattr $C$DW$23, DW_AT_TI_max_frame_size(-6)
    1197                      .dwpsn  file "../DeviceSupport/source/f28003x_defaultisr.c",line 1179,column 1,is_stmt,address _SPIB_
    1198              
    1199                      .dwfde $C$DW$CIE, _SPIB_TX_ISR
    1200              
    1201              ;***************************************************************
    1202              ;* FNAME: _SPIB_TX_ISR                  FR SIZE:   4           *
    1203              ;*                                                             *
    1204              ;* FUNCTION ENVIRONMENT                                        *
    1205              ;*                                                             *
    1206              ;* FUNCTION PROPERTIES                                         *
    1207              ;*                            0 Parameter,  0 Auto,  4 SOE     *
    1208              ;***************************************************************
    1209              
    1210 00000000       _SPIB_TX_ISR:
    1211                      .dwcfi  cfa_offset, -2
    1212                      .dwcfi  save_reg_to_mem, 26, 0
    1213 00000000 761B          ASP       ; [CPU_ALU] 
    1214 00000001 FFF0          PUSH      RB                    ; [CPU_FPU] 
    1215                      .dwcfi  save_reg_to_mem, 74, 4
    1216                      .dwcfi  cfa_offset, -4
    1217 00000002 E200          MOV32     *SP++,STF             ; [CPU_FPU] 
         00000003 00BD 
    1218                      .dwcfi  save_reg_to_mem, 40, 6
    1219                      .dwcfi  cfa_offset, -6
    1220 00000004 E630          SETFLG    RNDF32=1, RNDF64=1    ; [CPU_FPU] 
TMS320C2000 Assembler PC v22.6.1 Wed May 21 09:51:54 2025

Copyright (c) 1996-2018 Texas Instruments Incorporated
C:\Users\Daniel\AppData\Local\Temp\{513EF8AD-E23E-4989-8EC9-611DE01417F7} PAGE   24

         00000005 0600 
    1221 00000006 2942          CLRC      PAGE0,OVM             ; [CPU_ALU] 
    1222 00000007 5616          CLRC      AMODE                 ; [CPU_ALU] 
    1223 00000008 7625        ESTOP0
    1224 00000009       $C$L23:    
    1225                      .dwpsn  file "../DeviceSupport/source/f28003x_defaultisr.c",line 1195,column 5,is_stmt,isa 0
    1226 00000009 6F00          B         $C$L23,UNC            ; [CPU_ALU] |1195| 
    1227                      ; branch occurs ; [] |1195| 
    1228                      .dwattr $C$DW$23, DW_AT_TI_end_file("../DeviceSupport/source/f28003x_defaultisr.c")
    1229                      .dwattr $C$DW$23, DW_AT_TI_end_line(0x4ac)
    1230                      .dwattr $C$DW$23, DW_AT_TI_end_column(0x01)
    1231                      .dwendentry
    1232                      .dwendtag $C$DW$23
    1233              
    1234 00000000               .sect   ".text:_SPIB_RX_ISR"
    1235                      .retain
    1236                      .retainrefs
    1237                      .global _SPIB_RX_ISR
    1238              
    1239              $C$DW$24        .dwtag  DW_TAG_subprogram
    1240                      .dwattr $C$DW$24, DW_AT_name("SPIB_RX_ISR")
    1241                      .dwattr $C$DW$24, DW_AT_low_pc(_SPIB_RX_ISR)
    1242                      .dwattr $C$DW$24, DW_AT_high_pc(0x00)
    1243                      .dwattr $C$DW$24, DW_AT_TI_symbol_name("_SPIB_RX_ISR")
    1244                      .dwattr $C$DW$24, DW_AT_external
    1245                      .dwattr $C$DW$24, DW_AT_TI_begin_file("../DeviceSupport/source/f28003x_defaultisr.c")
    1246                      .dwattr $C$DW$24, DW_AT_TI_begin_line(0x483)
    1247                      .dwattr $C$DW$24, DW_AT_TI_begin_column(0x10)
    1248                      .dwattr $C$DW$24, DW_AT_TI_interrupt
    1249                      .dwattr $C$DW$24, DW_AT_TI_max_frame_size(-6)
    1250                      .dwpsn  file "../DeviceSupport/source/f28003x_defaultisr.c",line 1156,column 1,is_stmt,address _SPIB_
    1251              
    1252                      .dwfde $C$DW$CIE, _SPIB_RX_ISR
    1253              
    1254              ;***************************************************************
    1255              ;* FNAME: _SPIB_RX_ISR                  FR SIZE:   4           *
    1256              ;*                                                             *
    1257              ;* FUNCTION ENVIRONMENT                                        *
    1258              ;*                                                             *
    1259              ;* FUNCTION PROPERTIES                                         *
    1260              ;*                            0 Parameter,  0 Auto,  4 SOE     *
    1261              ;***************************************************************
    1262              
    1263 00000000       _SPIB_RX_ISR:
    1264                      .dwcfi  cfa_offset, -2
    1265                      .dwcfi  save_reg_to_mem, 26, 0
    1266 00000000 761B          ASP       ; [CPU_ALU] 
    1267 00000001 FFF0          PUSH      RB                    ; [CPU_FPU] 
    1268                      .dwcfi  save_reg_to_mem, 74, 4
    1269                      .dwcfi  cfa_offset, -4
    1270 00000002 E200          MOV32     *SP++,STF             ; [CPU_FPU] 
         00000003 00BD 
    1271                      .dwcfi  save_reg_to_mem, 40, 6
    1272                      .dwcfi  cfa_offset, -6
    1273 00000004 E630          SETFLG    RNDF32=1, RNDF64=1    ; [CPU_FPU] 
TMS320C2000 Assembler PC v22.6.1 Wed May 21 09:51:54 2025

Copyright (c) 1996-2018 Texas Instruments Incorporated
C:\Users\Daniel\AppData\Local\Temp\{513EF8AD-E23E-4989-8EC9-611DE01417F7} PAGE   25

         00000005 0600 
    1274 00000006 2942          CLRC      PAGE0,OVM             ; [CPU_ALU] 
    1275 00000007 5616          CLRC      AMODE                 ; [CPU_ALU] 
    1276 00000008 7625        ESTOP0
    1277 00000009       $C$L24:    
    1278                      .dwpsn  file "../DeviceSupport/source/f28003x_defaultisr.c",line 1172,column 5,is_stmt,isa 0
    1279 00000009 6F00          B         $C$L24,UNC            ; [CPU_ALU] |1172| 
    1280                      ; branch occurs ; [] |1172| 
    1281                      .dwattr $C$DW$24, DW_AT_TI_end_file("../DeviceSupport/source/f28003x_defaultisr.c")
    1282                      .dwattr $C$DW$24, DW_AT_TI_end_line(0x495)
    1283                      .dwattr $C$DW$24, DW_AT_TI_end_column(0x01)
    1284                      .dwendentry
    1285                      .dwendtag $C$DW$24
    1286              
    1287 00000000               .sect   ".text:_SPIA_TX_ISR"
    1288                      .retain
    1289                      .retainrefs
    1290                      .global _SPIA_TX_ISR
    1291              
    1292              $C$DW$25        .dwtag  DW_TAG_subprogram
    1293                      .dwattr $C$DW$25, DW_AT_name("SPIA_TX_ISR")
    1294                      .dwattr $C$DW$25, DW_AT_low_pc(_SPIA_TX_ISR)
    1295                      .dwattr $C$DW$25, DW_AT_high_pc(0x00)
    1296                      .dwattr $C$DW$25, DW_AT_TI_symbol_name("_SPIA_TX_ISR")
    1297                      .dwattr $C$DW$25, DW_AT_external
    1298                      .dwattr $C$DW$25, DW_AT_TI_begin_file("../DeviceSupport/source/f28003x_defaultisr.c")
    1299                      .dwattr $C$DW$25, DW_AT_TI_begin_line(0x46c)
    1300                      .dwattr $C$DW$25, DW_AT_TI_begin_column(0x10)
    1301                      .dwattr $C$DW$25, DW_AT_TI_interrupt
    1302                      .dwattr $C$DW$25, DW_AT_TI_max_frame_size(-6)
    1303                      .dwpsn  file "../DeviceSupport/source/f28003x_defaultisr.c",line 1133,column 1,is_stmt,address _SPIA_
    1304              
    1305                      .dwfde $C$DW$CIE, _SPIA_TX_ISR
    1306              
    1307              ;***************************************************************
    1308              ;* FNAME: _SPIA_TX_ISR                  FR SIZE:   4           *
    1309              ;*                                                             *
    1310              ;* FUNCTION ENVIRONMENT                                        *
    1311              ;*                                                             *
    1312              ;* FUNCTION PROPERTIES                                         *
    1313              ;*                            0 Parameter,  0 Auto,  4 SOE     *
    1314              ;***************************************************************
    1315              
    1316 00000000       _SPIA_TX_ISR:
    1317                      .dwcfi  cfa_offset, -2
    1318                      .dwcfi  save_reg_to_mem, 26, 0
    1319 00000000 761B          ASP       ; [CPU_ALU] 
    1320 00000001 FFF0          PUSH      RB                    ; [CPU_FPU] 
    1321                      .dwcfi  save_reg_to_mem, 74, 4
    1322                      .dwcfi  cfa_offset, -4
    1323 00000002 E200          MOV32     *SP++,STF             ; [CPU_FPU] 
         00000003 00BD 
    1324                      .dwcfi  save_reg_to_mem, 40, 6
    1325                      .dwcfi  cfa_offset, -6
    1326 00000004 E630          SETFLG    RNDF32=1, RNDF64=1    ; [CPU_FPU] 
TMS320C2000 Assembler PC v22.6.1 Wed May 21 09:51:54 2025

Copyright (c) 1996-2018 Texas Instruments Incorporated
C:\Users\Daniel\AppData\Local\Temp\{513EF8AD-E23E-4989-8EC9-611DE01417F7} PAGE   26

         00000005 0600 
    1327 00000006 2942          CLRC      PAGE0,OVM             ; [CPU_ALU] 
    1328 00000007 5616          CLRC      AMODE                 ; [CPU_ALU] 
    1329 00000008 7625        ESTOP0
    1330 00000009       $C$L25:    
    1331                      .dwpsn  file "../DeviceSupport/source/f28003x_defaultisr.c",line 1149,column 5,is_stmt,isa 0
    1332 00000009 6F00          B         $C$L25,UNC            ; [CPU_ALU] |1149| 
    1333                      ; branch occurs ; [] |1149| 
    1334                      .dwattr $C$DW$25, DW_AT_TI_end_file("../DeviceSupport/source/f28003x_defaultisr.c")
    1335                      .dwattr $C$DW$25, DW_AT_TI_end_line(0x47e)
    1336                      .dwattr $C$DW$25, DW_AT_TI_end_column(0x01)
    1337                      .dwendentry
    1338                      .dwendtag $C$DW$25
    1339              
    1340 00000000               .sect   ".text:_SPIA_RX_ISR"
    1341                      .retain
    1342                      .retainrefs
    1343                      .global _SPIA_RX_ISR
    1344              
    1345              $C$DW$26        .dwtag  DW_TAG_subprogram
    1346                      .dwattr $C$DW$26, DW_AT_name("SPIA_RX_ISR")
    1347                      .dwattr $C$DW$26, DW_AT_low_pc(_SPIA_RX_ISR)
    1348                      .dwattr $C$DW$26, DW_AT_high_pc(0x00)
    1349                      .dwattr $C$DW$26, DW_AT_TI_symbol_name("_SPIA_RX_ISR")
    1350                      .dwattr $C$DW$26, DW_AT_external
    1351                      .dwattr $C$DW$26, DW_AT_TI_begin_file("../DeviceSupport/source/f28003x_defaultisr.c")
    1352                      .dwattr $C$DW$26, DW_AT_TI_begin_line(0x455)
    1353                      .dwattr $C$DW$26, DW_AT_TI_begin_column(0x10)
    1354                      .dwattr $C$DW$26, DW_AT_TI_interrupt
    1355                      .dwattr $C$DW$26, DW_AT_TI_max_frame_size(-6)
    1356                      .dwpsn  file "../DeviceSupport/source/f28003x_defaultisr.c",line 1110,column 1,is_stmt,address _SPIA_
    1357              
    1358                      .dwfde $C$DW$CIE, _SPIA_RX_ISR
    1359              
    1360              ;***************************************************************
    1361              ;* FNAME: _SPIA_RX_ISR                  FR SIZE:   4           *
    1362              ;*                                                             *
    1363              ;* FUNCTION ENVIRONMENT                                        *
    1364              ;*                                                             *
    1365              ;* FUNCTION PROPERTIES                                         *
    1366              ;*                            0 Parameter,  0 Auto,  4 SOE     *
    1367              ;***************************************************************
    1368              
    1369 00000000       _SPIA_RX_ISR:
    1370                      .dwcfi  cfa_offset, -2
    1371                      .dwcfi  save_reg_to_mem, 26, 0
    1372 00000000 761B          ASP       ; [CPU_ALU] 
    1373 00000001 FFF0          PUSH      RB                    ; [CPU_FPU] 
    1374                      .dwcfi  save_reg_to_mem, 74, 4
    1375                      .dwcfi  cfa_offset, -4
    1376 00000002 E200          MOV32     *SP++,STF             ; [CPU_FPU] 
         00000003 00BD 
    1377                      .dwcfi  save_reg_to_mem, 40, 6
    1378                      .dwcfi  cfa_offset, -6
    1379 00000004 E630          SETFLG    RNDF32=1, RNDF64=1    ; [CPU_FPU] 
TMS320C2000 Assembler PC v22.6.1 Wed May 21 09:51:54 2025

Copyright (c) 1996-2018 Texas Instruments Incorporated
C:\Users\Daniel\AppData\Local\Temp\{513EF8AD-E23E-4989-8EC9-611DE01417F7} PAGE   27

         00000005 0600 
    1380 00000006 2942          CLRC      PAGE0,OVM             ; [CPU_ALU] 
    1381 00000007 5616          CLRC      AMODE                 ; [CPU_ALU] 
    1382 00000008 7625        ESTOP0
    1383 00000009       $C$L26:    
    1384                      .dwpsn  file "../DeviceSupport/source/f28003x_defaultisr.c",line 1126,column 5,is_stmt,isa 0
    1385 00000009 6F00          B         $C$L26,UNC            ; [CPU_ALU] |1126| 
    1386                      ; branch occurs ; [] |1126| 
    1387                      .dwattr $C$DW$26, DW_AT_TI_end_file("../DeviceSupport/source/f28003x_defaultisr.c")
    1388                      .dwattr $C$DW$26, DW_AT_TI_end_line(0x467)
    1389                      .dwattr $C$DW$26, DW_AT_TI_end_column(0x01)
    1390                      .dwendentry
    1391                      .dwendtag $C$DW$26
    1392              
    1393 00000000               .sect   ".text:_SDFM2_ISR"
    1394                      .retain
    1395                      .retainrefs
    1396                      .global _SDFM2_ISR
    1397              
    1398              $C$DW$27        .dwtag  DW_TAG_subprogram
    1399                      .dwattr $C$DW$27, DW_AT_name("SDFM2_ISR")
    1400                      .dwattr $C$DW$27, DW_AT_low_pc(_SDFM2_ISR)
    1401                      .dwattr $C$DW$27, DW_AT_high_pc(0x00)
    1402                      .dwattr $C$DW$27, DW_AT_TI_symbol_name("_SDFM2_ISR")
    1403                      .dwattr $C$DW$27, DW_AT_external
    1404                      .dwattr $C$DW$27, DW_AT_TI_begin_file("../DeviceSupport/source/f28003x_defaultisr.c")
    1405                      .dwattr $C$DW$27, DW_AT_TI_begin_line(0x877)
    1406                      .dwattr $C$DW$27, DW_AT_TI_begin_column(0x10)
    1407                      .dwattr $C$DW$27, DW_AT_TI_interrupt
    1408                      .dwattr $C$DW$27, DW_AT_TI_max_frame_size(-6)
    1409                      .dwpsn  file "../DeviceSupport/source/f28003x_defaultisr.c",line 2168,column 1,is_stmt,address _SDFM2
    1410              
    1411                      .dwfde $C$DW$CIE, _SDFM2_ISR
    1412              
    1413              ;***************************************************************
    1414              ;* FNAME: _SDFM2_ISR                    FR SIZE:   4           *
    1415              ;*                                                             *
    1416              ;* FUNCTION ENVIRONMENT                                        *
    1417              ;*                                                             *
    1418              ;* FUNCTION PROPERTIES                                         *
    1419              ;*                            0 Parameter,  0 Auto,  4 SOE     *
    1420              ;***************************************************************
    1421              
    1422 00000000       _SDFM2_ISR:
    1423                      .dwcfi  cfa_offset, -2
    1424                      .dwcfi  save_reg_to_mem, 26, 0
    1425 00000000 761B          ASP       ; [CPU_ALU] 
    1426 00000001 FFF0          PUSH      RB                    ; [CPU_FPU] 
    1427                      .dwcfi  save_reg_to_mem, 74, 4
    1428                      .dwcfi  cfa_offset, -4
    1429 00000002 E200          MOV32     *SP++,STF             ; [CPU_FPU] 
         00000003 00BD 
    1430                      .dwcfi  save_reg_to_mem, 40, 6
    1431                      .dwcfi  cfa_offset, -6
    1432 00000004 E630          SETFLG    RNDF32=1, RNDF64=1    ; [CPU_FPU] 
TMS320C2000 Assembler PC v22.6.1 Wed May 21 09:51:54 2025

Copyright (c) 1996-2018 Texas Instruments Incorporated
C:\Users\Daniel\AppData\Local\Temp\{513EF8AD-E23E-4989-8EC9-611DE01417F7} PAGE   28

         00000005 0600 
    1433 00000006 2942          CLRC      PAGE0,OVM             ; [CPU_ALU] 
    1434 00000007 5616          CLRC      AMODE                 ; [CPU_ALU] 
    1435 00000008 7625        ESTOP0
    1436 00000009       $C$L27:    
    1437                      .dwpsn  file "../DeviceSupport/source/f28003x_defaultisr.c",line 2184,column 5,is_stmt,isa 0
    1438 00000009 6F00          B         $C$L27,UNC            ; [CPU_ALU] |2184| 
    1439                      ; branch occurs ; [] |2184| 
    1440                      .dwattr $C$DW$27, DW_AT_TI_end_file("../DeviceSupport/source/f28003x_defaultisr.c")
    1441                      .dwattr $C$DW$27, DW_AT_TI_end_line(0x889)
    1442                      .dwattr $C$DW$27, DW_AT_TI_end_column(0x01)
    1443                      .dwendentry
    1444                      .dwendtag $C$DW$27
    1445              
    1446 00000000               .sect   ".text:_SDFM2DR4_ISR"
    1447                      .retain
    1448                      .retainrefs
    1449                      .global _SDFM2DR4_ISR
    1450              
    1451              $C$DW$28        .dwtag  DW_TAG_subprogram
    1452                      .dwattr $C$DW$28, DW_AT_name("SDFM2DR4_ISR")
    1453                      .dwattr $C$DW$28, DW_AT_low_pc(_SDFM2DR4_ISR)
    1454                      .dwattr $C$DW$28, DW_AT_high_pc(0x00)
    1455                      .dwattr $C$DW$28, DW_AT_TI_symbol_name("_SDFM2DR4_ISR")
    1456                      .dwattr $C$DW$28, DW_AT_external
    1457                      .dwattr $C$DW$28, DW_AT_TI_begin_file("../DeviceSupport/source/f28003x_defaultisr.c")
    1458                      .dwattr $C$DW$28, DW_AT_TI_begin_line(0x92f)
    1459                      .dwattr $C$DW$28, DW_AT_TI_begin_column(0x10)
    1460                      .dwattr $C$DW$28, DW_AT_TI_interrupt
    1461                      .dwattr $C$DW$28, DW_AT_TI_max_frame_size(-6)
    1462                      .dwpsn  file "../DeviceSupport/source/f28003x_defaultisr.c",line 2352,column 1,is_stmt,address _SDFM2
    1463              
    1464                      .dwfde $C$DW$CIE, _SDFM2DR4_ISR
    1465              
    1466              ;***************************************************************
    1467              ;* FNAME: _SDFM2DR4_ISR                 FR SIZE:   4           *
    1468              ;*                                                             *
    1469              ;* FUNCTION ENVIRONMENT                                        *
    1470              ;*                                                             *
    1471              ;* FUNCTION PROPERTIES                                         *
    1472              ;*                            0 Parameter,  0 Auto,  4 SOE     *
    1473              ;***************************************************************
    1474              
    1475 00000000       _SDFM2DR4_ISR:
    1476                      .dwcfi  cfa_offset, -2
    1477                      .dwcfi  save_reg_to_mem, 26, 0
    1478 00000000 761B          ASP       ; [CPU_ALU] 
    1479 00000001 FFF0          PUSH      RB                    ; [CPU_FPU] 
    1480                      .dwcfi  save_reg_to_mem, 74, 4
    1481                      .dwcfi  cfa_offset, -4
    1482 00000002 E200          MOV32     *SP++,STF             ; [CPU_FPU] 
         00000003 00BD 
    1483                      .dwcfi  save_reg_to_mem, 40, 6
    1484                      .dwcfi  cfa_offset, -6
    1485 00000004 E630          SETFLG    RNDF32=1, RNDF64=1    ; [CPU_FPU] 
TMS320C2000 Assembler PC v22.6.1 Wed May 21 09:51:54 2025

Copyright (c) 1996-2018 Texas Instruments Incorporated
C:\Users\Daniel\AppData\Local\Temp\{513EF8AD-E23E-4989-8EC9-611DE01417F7} PAGE   29

         00000005 0600 
    1486 00000006 2942          CLRC      PAGE0,OVM             ; [CPU_ALU] 
    1487 00000007 5616          CLRC      AMODE                 ; [CPU_ALU] 
    1488 00000008 7625        ESTOP0
    1489 00000009       $C$L28:    
    1490                      .dwpsn  file "../DeviceSupport/source/f28003x_defaultisr.c",line 2368,column 5,is_stmt,isa 0
    1491 00000009 6F00          B         $C$L28,UNC            ; [CPU_ALU] |2368| 
    1492                      ; branch occurs ; [] |2368| 
    1493                      .dwattr $C$DW$28, DW_AT_TI_end_file("../DeviceSupport/source/f28003x_defaultisr.c")
    1494                      .dwattr $C$DW$28, DW_AT_TI_end_line(0x941)
    1495                      .dwattr $C$DW$28, DW_AT_TI_end_column(0x01)
    1496                      .dwendentry
    1497                      .dwendtag $C$DW$28
    1498              
    1499 00000000               .sect   ".text:_SDFM2DR3_ISR"
    1500                      .retain
    1501                      .retainrefs
    1502                      .global _SDFM2DR3_ISR
    1503              
    1504              $C$DW$29        .dwtag  DW_TAG_subprogram
    1505                      .dwattr $C$DW$29, DW_AT_name("SDFM2DR3_ISR")
    1506                      .dwattr $C$DW$29, DW_AT_low_pc(_SDFM2DR3_ISR)
    1507                      .dwattr $C$DW$29, DW_AT_high_pc(0x00)
    1508                      .dwattr $C$DW$29, DW_AT_TI_symbol_name("_SDFM2DR3_ISR")
    1509                      .dwattr $C$DW$29, DW_AT_external
    1510                      .dwattr $C$DW$29, DW_AT_TI_begin_file("../DeviceSupport/source/f28003x_defaultisr.c")
    1511                      .dwattr $C$DW$29, DW_AT_TI_begin_line(0x918)
    1512                      .dwattr $C$DW$29, DW_AT_TI_begin_column(0x10)
    1513                      .dwattr $C$DW$29, DW_AT_TI_interrupt
    1514                      .dwattr $C$DW$29, DW_AT_TI_max_frame_size(-6)
    1515                      .dwpsn  file "../DeviceSupport/source/f28003x_defaultisr.c",line 2329,column 1,is_stmt,address _SDFM2
    1516              
    1517                      .dwfde $C$DW$CIE, _SDFM2DR3_ISR
    1518              
    1519              ;***************************************************************
    1520              ;* FNAME: _SDFM2DR3_ISR                 FR SIZE:   4           *
    1521              ;*                                                             *
    1522              ;* FUNCTION ENVIRONMENT                                        *
    1523              ;*                                                             *
    1524              ;* FUNCTION PROPERTIES                                         *
    1525              ;*                            0 Parameter,  0 Auto,  4 SOE     *
    1526              ;***************************************************************
    1527              
    1528 00000000       _SDFM2DR3_ISR:
    1529                      .dwcfi  cfa_offset, -2
    1530                      .dwcfi  save_reg_to_mem, 26, 0
    1531 00000000 761B          ASP       ; [CPU_ALU] 
    1532 00000001 FFF0          PUSH      RB                    ; [CPU_FPU] 
    1533                      .dwcfi  save_reg_to_mem, 74, 4
    1534                      .dwcfi  cfa_offset, -4
    1535 00000002 E200          MOV32     *SP++,STF             ; [CPU_FPU] 
         00000003 00BD 
    1536                      .dwcfi  save_reg_to_mem, 40, 6
    1537                      .dwcfi  cfa_offset, -6
    1538 00000004 E630          SETFLG    RNDF32=1, RNDF64=1    ; [CPU_FPU] 
TMS320C2000 Assembler PC v22.6.1 Wed May 21 09:51:54 2025

Copyright (c) 1996-2018 Texas Instruments Incorporated
C:\Users\Daniel\AppData\Local\Temp\{513EF8AD-E23E-4989-8EC9-611DE01417F7} PAGE   30

         00000005 0600 
    1539 00000006 2942          CLRC      PAGE0,OVM             ; [CPU_ALU] 
    1540 00000007 5616          CLRC      AMODE                 ; [CPU_ALU] 
    1541 00000008 7625        ESTOP0
    1542 00000009       $C$L29:    
    1543                      .dwpsn  file "../DeviceSupport/source/f28003x_defaultisr.c",line 2345,column 5,is_stmt,isa 0
    1544 00000009 6F00          B         $C$L29,UNC            ; [CPU_ALU] |2345| 
    1545                      ; branch occurs ; [] |2345| 
    1546                      .dwattr $C$DW$29, DW_AT_TI_end_file("../DeviceSupport/source/f28003x_defaultisr.c")
    1547                      .dwattr $C$DW$29, DW_AT_TI_end_line(0x92a)
    1548                      .dwattr $C$DW$29, DW_AT_TI_end_column(0x01)
    1549                      .dwendentry
    1550                      .dwendtag $C$DW$29
    1551              
    1552 00000000               .sect   ".text:_SDFM2DR2_ISR"
    1553                      .retain
    1554                      .retainrefs
    1555                      .global _SDFM2DR2_ISR
    1556              
    1557              $C$DW$30        .dwtag  DW_TAG_subprogram
    1558                      .dwattr $C$DW$30, DW_AT_name("SDFM2DR2_ISR")
    1559                      .dwattr $C$DW$30, DW_AT_low_pc(_SDFM2DR2_ISR)
    1560                      .dwattr $C$DW$30, DW_AT_high_pc(0x00)
    1561                      .dwattr $C$DW$30, DW_AT_TI_symbol_name("_SDFM2DR2_ISR")
    1562                      .dwattr $C$DW$30, DW_AT_external
    1563                      .dwattr $C$DW$30, DW_AT_TI_begin_file("../DeviceSupport/source/f28003x_defaultisr.c")
    1564                      .dwattr $C$DW$30, DW_AT_TI_begin_line(0x901)
    1565                      .dwattr $C$DW$30, DW_AT_TI_begin_column(0x10)
    1566                      .dwattr $C$DW$30, DW_AT_TI_interrupt
    1567                      .dwattr $C$DW$30, DW_AT_TI_max_frame_size(-6)
    1568                      .dwpsn  file "../DeviceSupport/source/f28003x_defaultisr.c",line 2306,column 1,is_stmt,address _SDFM2
    1569              
    1570                      .dwfde $C$DW$CIE, _SDFM2DR2_ISR
    1571              
    1572              ;***************************************************************
    1573              ;* FNAME: _SDFM2DR2_ISR                 FR SIZE:   4           *
    1574              ;*                                                             *
    1575              ;* FUNCTION ENVIRONMENT                                        *
    1576              ;*                                                             *
    1577              ;* FUNCTION PROPERTIES                                         *
    1578              ;*                            0 Parameter,  0 Auto,  4 SOE     *
    1579              ;***************************************************************
    1580              
    1581 00000000       _SDFM2DR2_ISR:
    1582                      .dwcfi  cfa_offset, -2
    1583                      .dwcfi  save_reg_to_mem, 26, 0
    1584 00000000 761B          ASP       ; [CPU_ALU] 
    1585 00000001 FFF0          PUSH      RB                    ; [CPU_FPU] 
    1586                      .dwcfi  save_reg_to_mem, 74, 4
    1587                      .dwcfi  cfa_offset, -4
    1588 00000002 E200          MOV32     *SP++,STF             ; [CPU_FPU] 
         00000003 00BD 
    1589                      .dwcfi  save_reg_to_mem, 40, 6
    1590                      .dwcfi  cfa_offset, -6
    1591 00000004 E630          SETFLG    RNDF32=1, RNDF64=1    ; [CPU_FPU] 
TMS320C2000 Assembler PC v22.6.1 Wed May 21 09:51:54 2025

Copyright (c) 1996-2018 Texas Instruments Incorporated
C:\Users\Daniel\AppData\Local\Temp\{513EF8AD-E23E-4989-8EC9-611DE01417F7} PAGE   31

         00000005 0600 
    1592 00000006 2942          CLRC      PAGE0,OVM             ; [CPU_ALU] 
    1593 00000007 5616          CLRC      AMODE                 ; [CPU_ALU] 
    1594 00000008 7625        ESTOP0
    1595 00000009       $C$L30:    
    1596                      .dwpsn  file "../DeviceSupport/source/f28003x_defaultisr.c",line 2322,column 5,is_stmt,isa 0
    1597 00000009 6F00          B         $C$L30,UNC            ; [CPU_ALU] |2322| 
    1598                      ; branch occurs ; [] |2322| 
    1599                      .dwattr $C$DW$30, DW_AT_TI_end_file("../DeviceSupport/source/f28003x_defaultisr.c")
    1600                      .dwattr $C$DW$30, DW_AT_TI_end_line(0x913)
    1601                      .dwattr $C$DW$30, DW_AT_TI_end_column(0x01)
    1602                      .dwendentry
    1603                      .dwendtag $C$DW$30
    1604              
    1605 00000000               .sect   ".text:_SDFM2DR1_ISR"
    1606                      .retain
    1607                      .retainrefs
    1608                      .global _SDFM2DR1_ISR
    1609              
    1610              $C$DW$31        .dwtag  DW_TAG_subprogram
    1611                      .dwattr $C$DW$31, DW_AT_name("SDFM2DR1_ISR")
    1612                      .dwattr $C$DW$31, DW_AT_low_pc(_SDFM2DR1_ISR)
    1613                      .dwattr $C$DW$31, DW_AT_high_pc(0x00)
    1614                      .dwattr $C$DW$31, DW_AT_TI_symbol_name("_SDFM2DR1_ISR")
    1615                      .dwattr $C$DW$31, DW_AT_external
    1616                      .dwattr $C$DW$31, DW_AT_TI_begin_file("../DeviceSupport/source/f28003x_defaultisr.c")
    1617                      .dwattr $C$DW$31, DW_AT_TI_begin_line(0x8ea)
    1618                      .dwattr $C$DW$31, DW_AT_TI_begin_column(0x10)
    1619                      .dwattr $C$DW$31, DW_AT_TI_interrupt
    1620                      .dwattr $C$DW$31, DW_AT_TI_max_frame_size(-6)
    1621                      .dwpsn  file "../DeviceSupport/source/f28003x_defaultisr.c",line 2283,column 1,is_stmt,address _SDFM2
    1622              
    1623                      .dwfde $C$DW$CIE, _SDFM2DR1_ISR
    1624              
    1625              ;***************************************************************
    1626              ;* FNAME: _SDFM2DR1_ISR                 FR SIZE:   4           *
    1627              ;*                                                             *
    1628              ;* FUNCTION ENVIRONMENT                                        *
    1629              ;*                                                             *
    1630              ;* FUNCTION PROPERTIES                                         *
    1631              ;*                            0 Parameter,  0 Auto,  4 SOE     *
    1632              ;***************************************************************
    1633              
    1634 00000000       _SDFM2DR1_ISR:
    1635                      .dwcfi  cfa_offset, -2
    1636                      .dwcfi  save_reg_to_mem, 26, 0
    1637 00000000 761B          ASP       ; [CPU_ALU] 
    1638 00000001 FFF0          PUSH      RB                    ; [CPU_FPU] 
    1639                      .dwcfi  save_reg_to_mem, 74, 4
    1640                      .dwcfi  cfa_offset, -4
    1641 00000002 E200          MOV32     *SP++,STF             ; [CPU_FPU] 
         00000003 00BD 
    1642                      .dwcfi  save_reg_to_mem, 40, 6
    1643                      .dwcfi  cfa_offset, -6
    1644 00000004 E630          SETFLG    RNDF32=1, RNDF64=1    ; [CPU_FPU] 
TMS320C2000 Assembler PC v22.6.1 Wed May 21 09:51:54 2025

Copyright (c) 1996-2018 Texas Instruments Incorporated
C:\Users\Daniel\AppData\Local\Temp\{513EF8AD-E23E-4989-8EC9-611DE01417F7} PAGE   32

         00000005 0600 
    1645 00000006 2942          CLRC      PAGE0,OVM             ; [CPU_ALU] 
    1646 00000007 5616          CLRC      AMODE                 ; [CPU_ALU] 
    1647 00000008 7625        ESTOP0
    1648 00000009       $C$L31:    
    1649                      .dwpsn  file "../DeviceSupport/source/f28003x_defaultisr.c",line 2299,column 5,is_stmt,isa 0
    1650 00000009 6F00          B         $C$L31,UNC            ; [CPU_ALU] |2299| 
    1651                      ; branch occurs ; [] |2299| 
    1652                      .dwattr $C$DW$31, DW_AT_TI_end_file("../DeviceSupport/source/f28003x_defaultisr.c")
    1653                      .dwattr $C$DW$31, DW_AT_TI_end_line(0x8fc)
    1654                      .dwattr $C$DW$31, DW_AT_TI_end_column(0x01)
    1655                      .dwendentry
    1656                      .dwendtag $C$DW$31
    1657              
    1658 00000000               .sect   ".text:_SDFM1_ISR"
    1659                      .retain
    1660                      .retainrefs
    1661                      .global _SDFM1_ISR
    1662              
    1663              $C$DW$32        .dwtag  DW_TAG_subprogram
    1664                      .dwattr $C$DW$32, DW_AT_name("SDFM1_ISR")
    1665                      .dwattr $C$DW$32, DW_AT_low_pc(_SDFM1_ISR)
    1666                      .dwattr $C$DW$32, DW_AT_high_pc(0x00)
    1667                      .dwattr $C$DW$32, DW_AT_TI_symbol_name("_SDFM1_ISR")
    1668                      .dwattr $C$DW$32, DW_AT_external
    1669                      .dwattr $C$DW$32, DW_AT_TI_begin_file("../DeviceSupport/source/f28003x_defaultisr.c")
    1670                      .dwattr $C$DW$32, DW_AT_TI_begin_line(0x860)
    1671                      .dwattr $C$DW$32, DW_AT_TI_begin_column(0x10)
    1672                      .dwattr $C$DW$32, DW_AT_TI_interrupt
    1673                      .dwattr $C$DW$32, DW_AT_TI_max_frame_size(-6)
    1674                      .dwpsn  file "../DeviceSupport/source/f28003x_defaultisr.c",line 2145,column 1,is_stmt,address _SDFM1
    1675              
    1676                      .dwfde $C$DW$CIE, _SDFM1_ISR
    1677              
    1678              ;***************************************************************
    1679              ;* FNAME: _SDFM1_ISR                    FR SIZE:   4           *
    1680              ;*                                                             *
    1681              ;* FUNCTION ENVIRONMENT                                        *
    1682              ;*                                                             *
    1683              ;* FUNCTION PROPERTIES                                         *
    1684              ;*                            0 Parameter,  0 Auto,  4 SOE     *
    1685              ;***************************************************************
    1686              
    1687 00000000       _SDFM1_ISR:
    1688                      .dwcfi  cfa_offset, -2
    1689                      .dwcfi  save_reg_to_mem, 26, 0
    1690 00000000 761B          ASP       ; [CPU_ALU] 
    1691 00000001 FFF0          PUSH      RB                    ; [CPU_FPU] 
    1692                      .dwcfi  save_reg_to_mem, 74, 4
    1693                      .dwcfi  cfa_offset, -4
    1694 00000002 E200          MOV32     *SP++,STF             ; [CPU_FPU] 
         00000003 00BD 
    1695                      .dwcfi  save_reg_to_mem, 40, 6
    1696                      .dwcfi  cfa_offset, -6
    1697 00000004 E630          SETFLG    RNDF32=1, RNDF64=1    ; [CPU_FPU] 
TMS320C2000 Assembler PC v22.6.1 Wed May 21 09:51:54 2025

Copyright (c) 1996-2018 Texas Instruments Incorporated
C:\Users\Daniel\AppData\Local\Temp\{513EF8AD-E23E-4989-8EC9-611DE01417F7} PAGE   33

         00000005 0600 
    1698 00000006 2942          CLRC      PAGE0,OVM             ; [CPU_ALU] 
    1699 00000007 5616          CLRC      AMODE                 ; [CPU_ALU] 
    1700 00000008 7625        ESTOP0
    1701 00000009       $C$L32:    
    1702                      .dwpsn  file "../DeviceSupport/source/f28003x_defaultisr.c",line 2161,column 5,is_stmt,isa 0
    1703 00000009 6F00          B         $C$L32,UNC            ; [CPU_ALU] |2161| 
    1704                      ; branch occurs ; [] |2161| 
    1705                      .dwattr $C$DW$32, DW_AT_TI_end_file("../DeviceSupport/source/f28003x_defaultisr.c")
    1706                      .dwattr $C$DW$32, DW_AT_TI_end_line(0x872)
    1707                      .dwattr $C$DW$32, DW_AT_TI_end_column(0x01)
    1708                      .dwendentry
    1709                      .dwendtag $C$DW$32
    1710              
    1711 00000000               .sect   ".text:_SDFM1DR4_ISR"
    1712                      .retain
    1713                      .retainrefs
    1714                      .global _SDFM1DR4_ISR
    1715              
    1716              $C$DW$33        .dwtag  DW_TAG_subprogram
    1717                      .dwattr $C$DW$33, DW_AT_name("SDFM1DR4_ISR")
    1718                      .dwattr $C$DW$33, DW_AT_low_pc(_SDFM1DR4_ISR)
    1719                      .dwattr $C$DW$33, DW_AT_high_pc(0x00)
    1720                      .dwattr $C$DW$33, DW_AT_TI_symbol_name("_SDFM1DR4_ISR")
    1721                      .dwattr $C$DW$33, DW_AT_external
    1722                      .dwattr $C$DW$33, DW_AT_TI_begin_file("../DeviceSupport/source/f28003x_defaultisr.c")
    1723                      .dwattr $C$DW$33, DW_AT_TI_begin_line(0x8d3)
    1724                      .dwattr $C$DW$33, DW_AT_TI_begin_column(0x10)
    1725                      .dwattr $C$DW$33, DW_AT_TI_interrupt
    1726                      .dwattr $C$DW$33, DW_AT_TI_max_frame_size(-6)
    1727                      .dwpsn  file "../DeviceSupport/source/f28003x_defaultisr.c",line 2260,column 1,is_stmt,address _SDFM1
    1728              
    1729                      .dwfde $C$DW$CIE, _SDFM1DR4_ISR
    1730              
    1731              ;***************************************************************
    1732              ;* FNAME: _SDFM1DR4_ISR                 FR SIZE:   4           *
    1733              ;*                                                             *
    1734              ;* FUNCTION ENVIRONMENT                                        *
    1735              ;*                                                             *
    1736              ;* FUNCTION PROPERTIES                                         *
    1737              ;*                            0 Parameter,  0 Auto,  4 SOE     *
    1738              ;***************************************************************
    1739              
    1740 00000000       _SDFM1DR4_ISR:
    1741                      .dwcfi  cfa_offset, -2
    1742                      .dwcfi  save_reg_to_mem, 26, 0
    1743 00000000 761B          ASP       ; [CPU_ALU] 
    1744 00000001 FFF0          PUSH      RB                    ; [CPU_FPU] 
    1745                      .dwcfi  save_reg_to_mem, 74, 4
    1746                      .dwcfi  cfa_offset, -4
    1747 00000002 E200          MOV32     *SP++,STF             ; [CPU_FPU] 
         00000003 00BD 
    1748                      .dwcfi  save_reg_to_mem, 40, 6
    1749                      .dwcfi  cfa_offset, -6
    1750 00000004 E630          SETFLG    RNDF32=1, RNDF64=1    ; [CPU_FPU] 
TMS320C2000 Assembler PC v22.6.1 Wed May 21 09:51:54 2025

Copyright (c) 1996-2018 Texas Instruments Incorporated
C:\Users\Daniel\AppData\Local\Temp\{513EF8AD-E23E-4989-8EC9-611DE01417F7} PAGE   34

         00000005 0600 
    1751 00000006 2942          CLRC      PAGE0,OVM             ; [CPU_ALU] 
    1752 00000007 5616          CLRC      AMODE                 ; [CPU_ALU] 
    1753 00000008 7625        ESTOP0
    1754 00000009       $C$L33:    
    1755                      .dwpsn  file "../DeviceSupport/source/f28003x_defaultisr.c",line 2276,column 5,is_stmt,isa 0
    1756 00000009 6F00          B         $C$L33,UNC            ; [CPU_ALU] |2276| 
    1757                      ; branch occurs ; [] |2276| 
    1758                      .dwattr $C$DW$33, DW_AT_TI_end_file("../DeviceSupport/source/f28003x_defaultisr.c")
    1759                      .dwattr $C$DW$33, DW_AT_TI_end_line(0x8e5)
    1760                      .dwattr $C$DW$33, DW_AT_TI_end_column(0x01)
    1761                      .dwendentry
    1762                      .dwendtag $C$DW$33
    1763              
    1764 00000000               .sect   ".text:_SDFM1DR3_ISR"
    1765                      .retain
    1766                      .retainrefs
    1767                      .global _SDFM1DR3_ISR
    1768              
    1769              $C$DW$34        .dwtag  DW_TAG_subprogram
    1770                      .dwattr $C$DW$34, DW_AT_name("SDFM1DR3_ISR")
    1771                      .dwattr $C$DW$34, DW_AT_low_pc(_SDFM1DR3_ISR)
    1772                      .dwattr $C$DW$34, DW_AT_high_pc(0x00)
    1773                      .dwattr $C$DW$34, DW_AT_TI_symbol_name("_SDFM1DR3_ISR")
    1774                      .dwattr $C$DW$34, DW_AT_external
    1775                      .dwattr $C$DW$34, DW_AT_TI_begin_file("../DeviceSupport/source/f28003x_defaultisr.c")
    1776                      .dwattr $C$DW$34, DW_AT_TI_begin_line(0x8bc)
    1777                      .dwattr $C$DW$34, DW_AT_TI_begin_column(0x10)
    1778                      .dwattr $C$DW$34, DW_AT_TI_interrupt
    1779                      .dwattr $C$DW$34, DW_AT_TI_max_frame_size(-6)
    1780                      .dwpsn  file "../DeviceSupport/source/f28003x_defaultisr.c",line 2237,column 1,is_stmt,address _SDFM1
    1781              
    1782                      .dwfde $C$DW$CIE, _SDFM1DR3_ISR
    1783              
    1784              ;***************************************************************
    1785              ;* FNAME: _SDFM1DR3_ISR                 FR SIZE:   4           *
    1786              ;*                                                             *
    1787              ;* FUNCTION ENVIRONMENT                                        *
    1788              ;*                                                             *
    1789              ;* FUNCTION PROPERTIES                                         *
    1790              ;*                            0 Parameter,  0 Auto,  4 SOE     *
    1791              ;***************************************************************
    1792              
    1793 00000000       _SDFM1DR3_ISR:
    1794                      .dwcfi  cfa_offset, -2
    1795                      .dwcfi  save_reg_to_mem, 26, 0
    1796 00000000 761B          ASP       ; [CPU_ALU] 
    1797 00000001 FFF0          PUSH      RB                    ; [CPU_FPU] 
    1798                      .dwcfi  save_reg_to_mem, 74, 4
    1799                      .dwcfi  cfa_offset, -4
    1800 00000002 E200          MOV32     *SP++,STF             ; [CPU_FPU] 
         00000003 00BD 
    1801                      .dwcfi  save_reg_to_mem, 40, 6
    1802                      .dwcfi  cfa_offset, -6
    1803 00000004 E630          SETFLG    RNDF32=1, RNDF64=1    ; [CPU_FPU] 
TMS320C2000 Assembler PC v22.6.1 Wed May 21 09:51:54 2025

Copyright (c) 1996-2018 Texas Instruments Incorporated
C:\Users\Daniel\AppData\Local\Temp\{513EF8AD-E23E-4989-8EC9-611DE01417F7} PAGE   35

         00000005 0600 
    1804 00000006 2942          CLRC      PAGE0,OVM             ; [CPU_ALU] 
    1805 00000007 5616          CLRC      AMODE                 ; [CPU_ALU] 
    1806 00000008 7625        ESTOP0
    1807 00000009       $C$L34:    
    1808                      .dwpsn  file "../DeviceSupport/source/f28003x_defaultisr.c",line 2253,column 5,is_stmt,isa 0
    1809 00000009 6F00          B         $C$L34,UNC            ; [CPU_ALU] |2253| 
    1810                      ; branch occurs ; [] |2253| 
    1811                      .dwattr $C$DW$34, DW_AT_TI_end_file("../DeviceSupport/source/f28003x_defaultisr.c")
    1812                      .dwattr $C$DW$34, DW_AT_TI_end_line(0x8ce)
    1813                      .dwattr $C$DW$34, DW_AT_TI_end_column(0x01)
    1814                      .dwendentry
    1815                      .dwendtag $C$DW$34
    1816              
    1817 00000000               .sect   ".text:_SDFM1DR2_ISR"
    1818                      .retain
    1819                      .retainrefs
    1820                      .global _SDFM1DR2_ISR
    1821              
    1822              $C$DW$35        .dwtag  DW_TAG_subprogram
    1823                      .dwattr $C$DW$35, DW_AT_name("SDFM1DR2_ISR")
    1824                      .dwattr $C$DW$35, DW_AT_low_pc(_SDFM1DR2_ISR)
    1825                      .dwattr $C$DW$35, DW_AT_high_pc(0x00)
    1826                      .dwattr $C$DW$35, DW_AT_TI_symbol_name("_SDFM1DR2_ISR")
    1827                      .dwattr $C$DW$35, DW_AT_external
    1828                      .dwattr $C$DW$35, DW_AT_TI_begin_file("../DeviceSupport/source/f28003x_defaultisr.c")
    1829                      .dwattr $C$DW$35, DW_AT_TI_begin_line(0x8a5)
    1830                      .dwattr $C$DW$35, DW_AT_TI_begin_column(0x10)
    1831                      .dwattr $C$DW$35, DW_AT_TI_interrupt
    1832                      .dwattr $C$DW$35, DW_AT_TI_max_frame_size(-6)
    1833                      .dwpsn  file "../DeviceSupport/source/f28003x_defaultisr.c",line 2214,column 1,is_stmt,address _SDFM1
    1834              
    1835                      .dwfde $C$DW$CIE, _SDFM1DR2_ISR
    1836              
    1837              ;***************************************************************
    1838              ;* FNAME: _SDFM1DR2_ISR                 FR SIZE:   4           *
    1839              ;*                                                             *
    1840              ;* FUNCTION ENVIRONMENT                                        *
    1841              ;*                                                             *
    1842              ;* FUNCTION PROPERTIES                                         *
    1843              ;*                            0 Parameter,  0 Auto,  4 SOE     *
    1844              ;***************************************************************
    1845              
    1846 00000000       _SDFM1DR2_ISR:
    1847                      .dwcfi  cfa_offset, -2
    1848                      .dwcfi  save_reg_to_mem, 26, 0
    1849 00000000 761B          ASP       ; [CPU_ALU] 
    1850 00000001 FFF0          PUSH      RB                    ; [CPU_FPU] 
    1851                      .dwcfi  save_reg_to_mem, 74, 4
    1852                      .dwcfi  cfa_offset, -4
    1853 00000002 E200          MOV32     *SP++,STF             ; [CPU_FPU] 
         00000003 00BD 
    1854                      .dwcfi  save_reg_to_mem, 40, 6
    1855                      .dwcfi  cfa_offset, -6
    1856 00000004 E630          SETFLG    RNDF32=1, RNDF64=1    ; [CPU_FPU] 
TMS320C2000 Assembler PC v22.6.1 Wed May 21 09:51:54 2025

Copyright (c) 1996-2018 Texas Instruments Incorporated
C:\Users\Daniel\AppData\Local\Temp\{513EF8AD-E23E-4989-8EC9-611DE01417F7} PAGE   36

         00000005 0600 
    1857 00000006 2942          CLRC      PAGE0,OVM             ; [CPU_ALU] 
    1858 00000007 5616          CLRC      AMODE                 ; [CPU_ALU] 
    1859 00000008 7625        ESTOP0
    1860 00000009       $C$L35:    
    1861                      .dwpsn  file "../DeviceSupport/source/f28003x_defaultisr.c",line 2230,column 5,is_stmt,isa 0
    1862 00000009 6F00          B         $C$L35,UNC            ; [CPU_ALU] |2230| 
    1863                      ; branch occurs ; [] |2230| 
    1864                      .dwattr $C$DW$35, DW_AT_TI_end_file("../DeviceSupport/source/f28003x_defaultisr.c")
    1865                      .dwattr $C$DW$35, DW_AT_TI_end_line(0x8b7)
    1866                      .dwattr $C$DW$35, DW_AT_TI_end_column(0x01)
    1867                      .dwendentry
    1868                      .dwendtag $C$DW$35
    1869              
    1870 00000000               .sect   ".text:_SDFM1DR1_ISR"
    1871                      .retain
    1872                      .retainrefs
    1873                      .global _SDFM1DR1_ISR
    1874              
    1875              $C$DW$36        .dwtag  DW_TAG_subprogram
    1876                      .dwattr $C$DW$36, DW_AT_name("SDFM1DR1_ISR")
    1877                      .dwattr $C$DW$36, DW_AT_low_pc(_SDFM1DR1_ISR)
    1878                      .dwattr $C$DW$36, DW_AT_high_pc(0x00)
    1879                      .dwattr $C$DW$36, DW_AT_TI_symbol_name("_SDFM1DR1_ISR")
    1880                      .dwattr $C$DW$36, DW_AT_external
    1881                      .dwattr $C$DW$36, DW_AT_TI_begin_file("../DeviceSupport/source/f28003x_defaultisr.c")
    1882                      .dwattr $C$DW$36, DW_AT_TI_begin_line(0x88e)
    1883                      .dwattr $C$DW$36, DW_AT_TI_begin_column(0x10)
    1884                      .dwattr $C$DW$36, DW_AT_TI_interrupt
    1885                      .dwattr $C$DW$36, DW_AT_TI_max_frame_size(-6)
    1886                      .dwpsn  file "../DeviceSupport/source/f28003x_defaultisr.c",line 2191,column 1,is_stmt,address _SDFM1
    1887              
    1888                      .dwfde $C$DW$CIE, _SDFM1DR1_ISR
    1889              
    1890              ;***************************************************************
    1891              ;* FNAME: _SDFM1DR1_ISR                 FR SIZE:   4           *
    1892              ;*                                                             *
    1893              ;* FUNCTION ENVIRONMENT                                        *
    1894              ;*                                                             *
    1895              ;* FUNCTION PROPERTIES                                         *
    1896              ;*                            0 Parameter,  0 Auto,  4 SOE     *
    1897              ;***************************************************************
    1898              
    1899 00000000       _SDFM1DR1_ISR:
    1900                      .dwcfi  cfa_offset, -2
    1901                      .dwcfi  save_reg_to_mem, 26, 0
    1902 00000000 761B          ASP       ; [CPU_ALU] 
    1903 00000001 FFF0          PUSH      RB                    ; [CPU_FPU] 
    1904                      .dwcfi  save_reg_to_mem, 74, 4
    1905                      .dwcfi  cfa_offset, -4
    1906 00000002 E200          MOV32     *SP++,STF             ; [CPU_FPU] 
         00000003 00BD 
    1907                      .dwcfi  save_reg_to_mem, 40, 6
    1908                      .dwcfi  cfa_offset, -6
    1909 00000004 E630          SETFLG    RNDF32=1, RNDF64=1    ; [CPU_FPU] 
TMS320C2000 Assembler PC v22.6.1 Wed May 21 09:51:54 2025

Copyright (c) 1996-2018 Texas Instruments Incorporated
C:\Users\Daniel\AppData\Local\Temp\{513EF8AD-E23E-4989-8EC9-611DE01417F7} PAGE   37

         00000005 0600 
    1910 00000006 2942          CLRC      PAGE0,OVM             ; [CPU_ALU] 
    1911 00000007 5616          CLRC      AMODE                 ; [CPU_ALU] 
    1912 00000008 7625        ESTOP0
    1913 00000009       $C$L36:    
    1914                      .dwpsn  file "../DeviceSupport/source/f28003x_defaultisr.c",line 2207,column 5,is_stmt,isa 0
    1915 00000009 6F00          B         $C$L36,UNC            ; [CPU_ALU] |2207| 
    1916                      ; branch occurs ; [] |2207| 
    1917                      .dwattr $C$DW$36, DW_AT_TI_end_file("../DeviceSupport/source/f28003x_defaultisr.c")
    1918                      .dwattr $C$DW$36, DW_AT_TI_end_line(0x8a0)
    1919                      .dwattr $C$DW$36, DW_AT_TI_end_column(0x01)
    1920                      .dwendentry
    1921                      .dwendtag $C$DW$36
    1922              
    1923 00000000               .sect   ".text:_SCIB_TX_ISR"
    1924                      .retain
    1925                      .retainrefs
    1926                      .global _SCIB_TX_ISR
    1927              
    1928              $C$DW$37        .dwtag  DW_TAG_subprogram
    1929                      .dwattr $C$DW$37, DW_AT_name("SCIB_TX_ISR")
    1930                      .dwattr $C$DW$37, DW_AT_low_pc(_SCIB_TX_ISR)
    1931                      .dwattr $C$DW$37, DW_AT_high_pc(0x00)
    1932                      .dwattr $C$DW$37, DW_AT_TI_symbol_name("_SCIB_TX_ISR")
    1933                      .dwattr $C$DW$37, DW_AT_external
    1934                      .dwattr $C$DW$37, DW_AT_TI_begin_file("../DeviceSupport/source/f28003x_defaultisr.c")
    1935                      .dwattr $C$DW$37, DW_AT_TI_begin_line(0x5dc)
    1936                      .dwattr $C$DW$37, DW_AT_TI_begin_column(0x10)
    1937                      .dwattr $C$DW$37, DW_AT_TI_interrupt
    1938                      .dwattr $C$DW$37, DW_AT_TI_max_frame_size(-6)
    1939                      .dwpsn  file "../DeviceSupport/source/f28003x_defaultisr.c",line 1501,column 1,is_stmt,address _SCIB_
    1940              
    1941                      .dwfde $C$DW$CIE, _SCIB_TX_ISR
    1942              
    1943              ;***************************************************************
    1944              ;* FNAME: _SCIB_TX_ISR                  FR SIZE:   4           *
    1945              ;*                                                             *
    1946              ;* FUNCTION ENVIRONMENT                                        *
    1947              ;*                                                             *
    1948              ;* FUNCTION PROPERTIES                                         *
    1949              ;*                            0 Parameter,  0 Auto,  4 SOE     *
    1950              ;***************************************************************
    1951              
    1952 00000000       _SCIB_TX_ISR:
    1953                      .dwcfi  cfa_offset, -2
    1954                      .dwcfi  save_reg_to_mem, 26, 0
    1955 00000000 761B          ASP       ; [CPU_ALU] 
    1956 00000001 FFF0          PUSH      RB                    ; [CPU_FPU] 
    1957                      .dwcfi  save_reg_to_mem, 74, 4
    1958                      .dwcfi  cfa_offset, -4
    1959 00000002 E200          MOV32     *SP++,STF             ; [CPU_FPU] 
         00000003 00BD 
    1960                      .dwcfi  save_reg_to_mem, 40, 6
    1961                      .dwcfi  cfa_offset, -6
    1962 00000004 E630          SETFLG    RNDF32=1, RNDF64=1    ; [CPU_FPU] 
TMS320C2000 Assembler PC v22.6.1 Wed May 21 09:51:54 2025

Copyright (c) 1996-2018 Texas Instruments Incorporated
C:\Users\Daniel\AppData\Local\Temp\{513EF8AD-E23E-4989-8EC9-611DE01417F7} PAGE   38

         00000005 0600 
    1963 00000006 2942          CLRC      PAGE0,OVM             ; [CPU_ALU] 
    1964 00000007 5616          CLRC      AMODE                 ; [CPU_ALU] 
    1965 00000008 7625        ESTOP0
    1966 00000009       $C$L37:    
    1967                      .dwpsn  file "../DeviceSupport/source/f28003x_defaultisr.c",line 1517,column 5,is_stmt,isa 0
    1968 00000009 6F00          B         $C$L37,UNC            ; [CPU_ALU] |1517| 
    1969                      ; branch occurs ; [] |1517| 
    1970                      .dwattr $C$DW$37, DW_AT_TI_end_file("../DeviceSupport/source/f28003x_defaultisr.c")
    1971                      .dwattr $C$DW$37, DW_AT_TI_end_line(0x5ee)
    1972                      .dwattr $C$DW$37, DW_AT_TI_end_column(0x01)
    1973                      .dwendentry
    1974                      .dwendtag $C$DW$37
    1975              
    1976 00000000               .sect   ".text:_SCIB_RX_ISR"
    1977                      .retain
    1978                      .retainrefs
    1979                      .global _SCIB_RX_ISR
    1980              
    1981              $C$DW$38        .dwtag  DW_TAG_subprogram
    1982                      .dwattr $C$DW$38, DW_AT_name("SCIB_RX_ISR")
    1983                      .dwattr $C$DW$38, DW_AT_low_pc(_SCIB_RX_ISR)
    1984                      .dwattr $C$DW$38, DW_AT_high_pc(0x00)
    1985                      .dwattr $C$DW$38, DW_AT_TI_symbol_name("_SCIB_RX_ISR")
    1986                      .dwattr $C$DW$38, DW_AT_external
    1987                      .dwattr $C$DW$38, DW_AT_TI_begin_file("../DeviceSupport/source/f28003x_defaultisr.c")
    1988                      .dwattr $C$DW$38, DW_AT_TI_begin_line(0x5c5)
    1989                      .dwattr $C$DW$38, DW_AT_TI_begin_column(0x10)
    1990                      .dwattr $C$DW$38, DW_AT_TI_interrupt
    1991                      .dwattr $C$DW$38, DW_AT_TI_max_frame_size(-6)
    1992                      .dwpsn  file "../DeviceSupport/source/f28003x_defaultisr.c",line 1478,column 1,is_stmt,address _SCIB_
    1993              
    1994                      .dwfde $C$DW$CIE, _SCIB_RX_ISR
    1995              
    1996              ;***************************************************************
    1997              ;* FNAME: _SCIB_RX_ISR                  FR SIZE:   4           *
    1998              ;*                                                             *
    1999              ;* FUNCTION ENVIRONMENT                                        *
    2000              ;*                                                             *
    2001              ;* FUNCTION PROPERTIES                                         *
    2002              ;*                            0 Parameter,  0 Auto,  4 SOE     *
    2003              ;***************************************************************
    2004              
    2005 00000000       _SCIB_RX_ISR:
    2006                      .dwcfi  cfa_offset, -2
    2007                      .dwcfi  save_reg_to_mem, 26, 0
    2008 00000000 761B          ASP       ; [CPU_ALU] 
    2009 00000001 FFF0          PUSH      RB                    ; [CPU_FPU] 
    2010                      .dwcfi  save_reg_to_mem, 74, 4
    2011                      .dwcfi  cfa_offset, -4
    2012 00000002 E200          MOV32     *SP++,STF             ; [CPU_FPU] 
         00000003 00BD 
    2013                      .dwcfi  save_reg_to_mem, 40, 6
    2014                      .dwcfi  cfa_offset, -6
    2015 00000004 E630          SETFLG    RNDF32=1, RNDF64=1    ; [CPU_FPU] 
TMS320C2000 Assembler PC v22.6.1 Wed May 21 09:51:54 2025

Copyright (c) 1996-2018 Texas Instruments Incorporated
C:\Users\Daniel\AppData\Local\Temp\{513EF8AD-E23E-4989-8EC9-611DE01417F7} PAGE   39

         00000005 0600 
    2016 00000006 2942          CLRC      PAGE0,OVM             ; [CPU_ALU] 
    2017 00000007 5616          CLRC      AMODE                 ; [CPU_ALU] 
    2018 00000008 7625        ESTOP0
    2019 00000009       $C$L38:    
    2020                      .dwpsn  file "../DeviceSupport/source/f28003x_defaultisr.c",line 1494,column 5,is_stmt,isa 0
    2021 00000009 6F00          B         $C$L38,UNC            ; [CPU_ALU] |1494| 
    2022                      ; branch occurs ; [] |1494| 
    2023                      .dwattr $C$DW$38, DW_AT_TI_end_file("../DeviceSupport/source/f28003x_defaultisr.c")
    2024                      .dwattr $C$DW$38, DW_AT_TI_end_line(0x5d7)
    2025                      .dwattr $C$DW$38, DW_AT_TI_end_column(0x01)
    2026                      .dwendentry
    2027                      .dwendtag $C$DW$38
    2028              
    2029 00000000               .sect   ".text:_SCIA_TX_ISR"
    2030                      .retain
    2031                      .retainrefs
    2032                      .global _SCIA_TX_ISR
    2033              
    2034              $C$DW$39        .dwtag  DW_TAG_subprogram
    2035                      .dwattr $C$DW$39, DW_AT_name("SCIA_TX_ISR")
    2036                      .dwattr $C$DW$39, DW_AT_low_pc(_SCIA_TX_ISR)
    2037                      .dwattr $C$DW$39, DW_AT_high_pc(0x00)
    2038                      .dwattr $C$DW$39, DW_AT_TI_symbol_name("_SCIA_TX_ISR")
    2039                      .dwattr $C$DW$39, DW_AT_external
    2040                      .dwattr $C$DW$39, DW_AT_TI_begin_file("../DeviceSupport/source/f28003x_defaultisr.c")
    2041                      .dwattr $C$DW$39, DW_AT_TI_begin_line(0x5ae)
    2042                      .dwattr $C$DW$39, DW_AT_TI_begin_column(0x10)
    2043                      .dwattr $C$DW$39, DW_AT_TI_interrupt
    2044                      .dwattr $C$DW$39, DW_AT_TI_max_frame_size(-6)
    2045                      .dwpsn  file "../DeviceSupport/source/f28003x_defaultisr.c",line 1455,column 1,is_stmt,address _SCIA_
    2046              
    2047                      .dwfde $C$DW$CIE, _SCIA_TX_ISR
    2048              
    2049              ;***************************************************************
    2050              ;* FNAME: _SCIA_TX_ISR                  FR SIZE:   4           *
    2051              ;*                                                             *
    2052              ;* FUNCTION ENVIRONMENT                                        *
    2053              ;*                                                             *
    2054              ;* FUNCTION PROPERTIES                                         *
    2055              ;*                            0 Parameter,  0 Auto,  4 SOE     *
    2056              ;***************************************************************
    2057              
    2058 00000000       _SCIA_TX_ISR:
    2059                      .dwcfi  cfa_offset, -2
    2060                      .dwcfi  save_reg_to_mem, 26, 0
    2061 00000000 761B          ASP       ; [CPU_ALU] 
    2062 00000001 FFF0          PUSH      RB                    ; [CPU_FPU] 
    2063                      .dwcfi  save_reg_to_mem, 74, 4
    2064                      .dwcfi  cfa_offset, -4
    2065 00000002 E200          MOV32     *SP++,STF             ; [CPU_FPU] 
         00000003 00BD 
    2066                      .dwcfi  save_reg_to_mem, 40, 6
    2067                      .dwcfi  cfa_offset, -6
    2068 00000004 E630          SETFLG    RNDF32=1, RNDF64=1    ; [CPU_FPU] 
TMS320C2000 Assembler PC v22.6.1 Wed May 21 09:51:54 2025

Copyright (c) 1996-2018 Texas Instruments Incorporated
C:\Users\Daniel\AppData\Local\Temp\{513EF8AD-E23E-4989-8EC9-611DE01417F7} PAGE   40

         00000005 0600 
    2069 00000006 2942          CLRC      PAGE0,OVM             ; [CPU_ALU] 
    2070 00000007 5616          CLRC      AMODE                 ; [CPU_ALU] 
    2071 00000008 7625        ESTOP0
    2072 00000009       $C$L39:    
    2073                      .dwpsn  file "../DeviceSupport/source/f28003x_defaultisr.c",line 1471,column 5,is_stmt,isa 0
    2074 00000009 6F00          B         $C$L39,UNC            ; [CPU_ALU] |1471| 
    2075                      ; branch occurs ; [] |1471| 
    2076                      .dwattr $C$DW$39, DW_AT_TI_end_file("../DeviceSupport/source/f28003x_defaultisr.c")
    2077                      .dwattr $C$DW$39, DW_AT_TI_end_line(0x5c0)
    2078                      .dwattr $C$DW$39, DW_AT_TI_end_column(0x01)
    2079                      .dwendentry
    2080                      .dwendtag $C$DW$39
    2081              
    2082 00000000               .sect   ".text:_SCIA_RX_ISR"
    2083                      .retain
    2084                      .retainrefs
    2085                      .global _SCIA_RX_ISR
    2086              
    2087              $C$DW$40        .dwtag  DW_TAG_subprogram
    2088                      .dwattr $C$DW$40, DW_AT_name("SCIA_RX_ISR")
    2089                      .dwattr $C$DW$40, DW_AT_low_pc(_SCIA_RX_ISR)
    2090                      .dwattr $C$DW$40, DW_AT_high_pc(0x00)
    2091                      .dwattr $C$DW$40, DW_AT_TI_symbol_name("_SCIA_RX_ISR")
    2092                      .dwattr $C$DW$40, DW_AT_external
    2093                      .dwattr $C$DW$40, DW_AT_TI_begin_file("../DeviceSupport/source/f28003x_defaultisr.c")
    2094                      .dwattr $C$DW$40, DW_AT_TI_begin_line(0x597)
    2095                      .dwattr $C$DW$40, DW_AT_TI_begin_column(0x10)
    2096                      .dwattr $C$DW$40, DW_AT_TI_interrupt
    2097                      .dwattr $C$DW$40, DW_AT_TI_max_frame_size(-6)
    2098                      .dwpsn  file "../DeviceSupport/source/f28003x_defaultisr.c",line 1432,column 1,is_stmt,address _SCIA_
    2099              
    2100                      .dwfde $C$DW$CIE, _SCIA_RX_ISR
    2101              
    2102              ;***************************************************************
    2103              ;* FNAME: _SCIA_RX_ISR                  FR SIZE:   4           *
    2104              ;*                                                             *
    2105              ;* FUNCTION ENVIRONMENT                                        *
    2106              ;*                                                             *
    2107              ;* FUNCTION PROPERTIES                                         *
    2108              ;*                            0 Parameter,  0 Auto,  4 SOE     *
    2109              ;***************************************************************
    2110              
    2111 00000000       _SCIA_RX_ISR:
    2112                      .dwcfi  cfa_offset, -2
    2113                      .dwcfi  save_reg_to_mem, 26, 0
    2114 00000000 761B          ASP       ; [CPU_ALU] 
    2115 00000001 FFF0          PUSH      RB                    ; [CPU_FPU] 
    2116                      .dwcfi  save_reg_to_mem, 74, 4
    2117                      .dwcfi  cfa_offset, -4
    2118 00000002 E200          MOV32     *SP++,STF             ; [CPU_FPU] 
         00000003 00BD 
    2119                      .dwcfi  save_reg_to_mem, 40, 6
    2120                      .dwcfi  cfa_offset, -6
    2121 00000004 E630          SETFLG    RNDF32=1, RNDF64=1    ; [CPU_FPU] 
TMS320C2000 Assembler PC v22.6.1 Wed May 21 09:51:54 2025

Copyright (c) 1996-2018 Texas Instruments Incorporated
C:\Users\Daniel\AppData\Local\Temp\{513EF8AD-E23E-4989-8EC9-611DE01417F7} PAGE   41

         00000005 0600 
    2122 00000006 2942          CLRC      PAGE0,OVM             ; [CPU_ALU] 
    2123 00000007 5616          CLRC      AMODE                 ; [CPU_ALU] 
    2124 00000008 7625        ESTOP0
    2125 00000009       $C$L40:    
    2126                      .dwpsn  file "../DeviceSupport/source/f28003x_defaultisr.c",line 1448,column 5,is_stmt,isa 0
    2127 00000009 6F00          B         $C$L40,UNC            ; [CPU_ALU] |1448| 
    2128                      ; branch occurs ; [] |1448| 
    2129                      .dwattr $C$DW$40, DW_AT_TI_end_file("../DeviceSupport/source/f28003x_defaultisr.c")
    2130                      .dwattr $C$DW$40, DW_AT_TI_end_line(0x5a9)
    2131                      .dwattr $C$DW$40, DW_AT_TI_end_column(0x01)
    2132                      .dwendentry
    2133                      .dwendtag $C$DW$40
    2134              
    2135 00000000               .sect   ".text:_RTOS_ISR"
    2136                      .retain
    2137                      .retainrefs
    2138                      .global _RTOS_ISR
    2139              
    2140              $C$DW$41        .dwtag  DW_TAG_subprogram
    2141                      .dwattr $C$DW$41, DW_AT_name("RTOS_ISR")
    2142                      .dwattr $C$DW$41, DW_AT_low_pc(_RTOS_ISR)
    2143                      .dwattr $C$DW$41, DW_AT_high_pc(0x00)
    2144                      .dwattr $C$DW$41, DW_AT_TI_symbol_name("_RTOS_ISR")
    2145                      .dwattr $C$DW$41, DW_AT_external
    2146                      .dwattr $C$DW$41, DW_AT_TI_begin_file("../DeviceSupport/source/f28003x_defaultisr.c")
    2147                      .dwattr $C$DW$41, DW_AT_TI_begin_line(0x65)
    2148                      .dwattr $C$DW$41, DW_AT_TI_begin_column(0x10)
    2149                      .dwattr $C$DW$41, DW_AT_TI_interrupt
    2150                      .dwattr $C$DW$41, DW_AT_TI_max_frame_size(-6)
    2151                      .dwpsn  file "../DeviceSupport/source/f28003x_defaultisr.c",line 102,column 1,is_stmt,address _RTOS_I
    2152              
    2153                      .dwfde $C$DW$CIE, _RTOS_ISR
    2154              
    2155              ;***************************************************************
    2156              ;* FNAME: _RTOS_ISR                     FR SIZE:   4           *
    2157              ;*                                                             *
    2158              ;* FUNCTION ENVIRONMENT                                        *
    2159              ;*                                                             *
    2160              ;* FUNCTION PROPERTIES                                         *
    2161              ;*                            0 Parameter,  0 Auto,  4 SOE     *
    2162              ;***************************************************************
    2163              
    2164 00000000       _RTOS_ISR:
    2165                      .dwcfi  cfa_offset, -2
    2166                      .dwcfi  save_reg_to_mem, 26, 0
    2167 00000000 761B          ASP       ; [CPU_ALU] 
    2168 00000001 FFF0          PUSH      RB                    ; [CPU_FPU] 
    2169                      .dwcfi  save_reg_to_mem, 74, 4
    2170                      .dwcfi  cfa_offset, -4
    2171 00000002 E200          MOV32     *SP++,STF             ; [CPU_FPU] 
         00000003 00BD 
    2172                      .dwcfi  save_reg_to_mem, 40, 6
    2173                      .dwcfi  cfa_offset, -6
    2174 00000004 E630          SETFLG    RNDF32=1, RNDF64=1    ; [CPU_FPU] 
TMS320C2000 Assembler PC v22.6.1 Wed May 21 09:51:54 2025

Copyright (c) 1996-2018 Texas Instruments Incorporated
C:\Users\Daniel\AppData\Local\Temp\{513EF8AD-E23E-4989-8EC9-611DE01417F7} PAGE   42

         00000005 0600 
    2175 00000006 2942          CLRC      PAGE0,OVM             ; [CPU_ALU] 
    2176 00000007 5616          CLRC      AMODE                 ; [CPU_ALU] 
    2177 00000008 7625        ESTOP0
    2178 00000009       $C$L41:    
    2179                      .dwpsn  file "../DeviceSupport/source/f28003x_defaultisr.c",line 112,column 5,is_stmt,isa 0
    2180 00000009 6F00          B         $C$L41,UNC            ; [CPU_ALU] |112| 
    2181                      ; branch occurs ; [] |112| 
    2182                      .dwattr $C$DW$41, DW_AT_TI_end_file("../DeviceSupport/source/f28003x_defaultisr.c")
    2183                      .dwattr $C$DW$41, DW_AT_TI_end_line(0x71)
    2184                      .dwattr $C$DW$41, DW_AT_TI_end_column(0x01)
    2185                      .dwendentry
    2186                      .dwendtag $C$DW$41
    2187              
    2188 00000000               .sect   ".text:_RAM_CORR_ERR_ISR"
    2189                      .retain
    2190                      .retainrefs
    2191                      .global _RAM_CORR_ERR_ISR
    2192              
    2193              $C$DW$42        .dwtag  DW_TAG_subprogram
    2194                      .dwattr $C$DW$42, DW_AT_name("RAM_CORR_ERR_ISR")
    2195                      .dwattr $C$DW$42, DW_AT_low_pc(_RAM_CORR_ERR_ISR)
    2196                      .dwattr $C$DW$42, DW_AT_high_pc(0x00)
    2197                      .dwattr $C$DW$42, DW_AT_TI_symbol_name("_RAM_CORR_ERR_ISR")
    2198                      .dwattr $C$DW$42, DW_AT_external
    2199                      .dwattr $C$DW$42, DW_AT_TI_begin_file("../DeviceSupport/source/f28003x_defaultisr.c")
    2200                      .dwattr $C$DW$42, DW_AT_TI_begin_line(0xb29)
    2201                      .dwattr $C$DW$42, DW_AT_TI_begin_column(0x10)
    2202                      .dwattr $C$DW$42, DW_AT_TI_interrupt
    2203                      .dwattr $C$DW$42, DW_AT_TI_max_frame_size(-6)
    2204                      .dwpsn  file "../DeviceSupport/source/f28003x_defaultisr.c",line 2858,column 1,is_stmt,address _RAM_C
    2205              
    2206                      .dwfde $C$DW$CIE, _RAM_CORR_ERR_ISR
    2207              
    2208              ;***************************************************************
    2209              ;* FNAME: _RAM_CORR_ERR_ISR             FR SIZE:   4           *
    2210              ;*                                                             *
    2211              ;* FUNCTION ENVIRONMENT                                        *
    2212              ;*                                                             *
    2213              ;* FUNCTION PROPERTIES                                         *
    2214              ;*                            0 Parameter,  0 Auto,  4 SOE     *
    2215              ;***************************************************************
    2216              
    2217 00000000       _RAM_CORR_ERR_ISR:
    2218                      .dwcfi  cfa_offset, -2
    2219                      .dwcfi  save_reg_to_mem, 26, 0
    2220 00000000 761B          ASP       ; [CPU_ALU] 
    2221 00000001 FFF0          PUSH      RB                    ; [CPU_FPU] 
    2222                      .dwcfi  save_reg_to_mem, 74, 4
    2223                      .dwcfi  cfa_offset, -4
    2224 00000002 E200          MOV32     *SP++,STF             ; [CPU_FPU] 
         00000003 00BD 
    2225                      .dwcfi  save_reg_to_mem, 40, 6
    2226                      .dwcfi  cfa_offset, -6
    2227 00000004 E630          SETFLG    RNDF32=1, RNDF64=1    ; [CPU_FPU] 
TMS320C2000 Assembler PC v22.6.1 Wed May 21 09:51:54 2025

Copyright (c) 1996-2018 Texas Instruments Incorporated
C:\Users\Daniel\AppData\Local\Temp\{513EF8AD-E23E-4989-8EC9-611DE01417F7} PAGE   43

         00000005 0600 
    2228 00000006 2942          CLRC      PAGE0,OVM             ; [CPU_ALU] 
    2229 00000007 5616          CLRC      AMODE                 ; [CPU_ALU] 
    2230 00000008 7625        ESTOP0
    2231 00000009       $C$L42:    
    2232                      .dwpsn  file "../DeviceSupport/source/f28003x_defaultisr.c",line 2874,column 5,is_stmt,isa 0
    2233 00000009 6F00          B         $C$L42,UNC            ; [CPU_ALU] |2874| 
    2234                      ; branch occurs ; [] |2874| 
    2235                      .dwattr $C$DW$42, DW_AT_TI_end_file("../DeviceSupport/source/f28003x_defaultisr.c")
    2236                      .dwattr $C$DW$42, DW_AT_TI_end_line(0xb3b)
    2237                      .dwattr $C$DW$42, DW_AT_TI_end_column(0x01)
    2238                      .dwendentry
    2239                      .dwendtag $C$DW$42
    2240              
    2241 00000000               .sect   ".text:_RAM_ACC_VIOL_ISR"
    2242                      .retain
    2243                      .retainrefs
    2244                      .global _RAM_ACC_VIOL_ISR
    2245              
    2246              $C$DW$43        .dwtag  DW_TAG_subprogram
    2247                      .dwattr $C$DW$43, DW_AT_name("RAM_ACC_VIOL_ISR")
    2248                      .dwattr $C$DW$43, DW_AT_low_pc(_RAM_ACC_VIOL_ISR)
    2249                      .dwattr $C$DW$43, DW_AT_high_pc(0x00)
    2250                      .dwattr $C$DW$43, DW_AT_TI_symbol_name("_RAM_ACC_VIOL_ISR")
    2251                      .dwattr $C$DW$43, DW_AT_external
    2252                      .dwattr $C$DW$43, DW_AT_TI_begin_file("../DeviceSupport/source/f28003x_defaultisr.c")
    2253                      .dwattr $C$DW$43, DW_AT_TI_begin_line(0xb57)
    2254                      .dwattr $C$DW$43, DW_AT_TI_begin_column(0x10)
    2255                      .dwattr $C$DW$43, DW_AT_TI_interrupt
    2256                      .dwattr $C$DW$43, DW_AT_TI_max_frame_size(-6)
    2257                      .dwpsn  file "../DeviceSupport/source/f28003x_defaultisr.c",line 2904,column 1,is_stmt,address _RAM_A
    2258              
    2259                      .dwfde $C$DW$CIE, _RAM_ACC_VIOL_ISR
    2260              
    2261              ;***************************************************************
    2262              ;* FNAME: _RAM_ACC_VIOL_ISR             FR SIZE:   4           *
    2263              ;*                                                             *
    2264              ;* FUNCTION ENVIRONMENT                                        *
    2265              ;*                                                             *
    2266              ;* FUNCTION PROPERTIES                                         *
    2267              ;*                            0 Parameter,  0 Auto,  4 SOE     *
    2268              ;***************************************************************
    2269              
    2270 00000000       _RAM_ACC_VIOL_ISR:
    2271                      .dwcfi  cfa_offset, -2
    2272                      .dwcfi  save_reg_to_mem, 26, 0
    2273 00000000 761B          ASP       ; [CPU_ALU] 
    2274 00000001 FFF0          PUSH      RB                    ; [CPU_FPU] 
    2275                      .dwcfi  save_reg_to_mem, 74, 4
    2276                      .dwcfi  cfa_offset, -4
    2277 00000002 E200          MOV32     *SP++,STF             ; [CPU_FPU] 
         00000003 00BD 
    2278                      .dwcfi  save_reg_to_mem, 40, 6
    2279                      .dwcfi  cfa_offset, -6
    2280 00000004 E630          SETFLG    RNDF32=1, RNDF64=1    ; [CPU_FPU] 
TMS320C2000 Assembler PC v22.6.1 Wed May 21 09:51:54 2025

Copyright (c) 1996-2018 Texas Instruments Incorporated
C:\Users\Daniel\AppData\Local\Temp\{513EF8AD-E23E-4989-8EC9-611DE01417F7} PAGE   44

         00000005 0600 
    2281 00000006 2942          CLRC      PAGE0,OVM             ; [CPU_ALU] 
    2282 00000007 5616          CLRC      AMODE                 ; [CPU_ALU] 
    2283 00000008 7625        ESTOP0
    2284 00000009       $C$L43:    
    2285                      .dwpsn  file "../DeviceSupport/source/f28003x_defaultisr.c",line 2920,column 5,is_stmt,isa 0
    2286 00000009 6F00          B         $C$L43,UNC            ; [CPU_ALU] |2920| 
    2287                      ; branch occurs ; [] |2920| 
    2288                      .dwattr $C$DW$43, DW_AT_TI_end_file("../DeviceSupport/source/f28003x_defaultisr.c")
    2289                      .dwattr $C$DW$43, DW_AT_TI_end_line(0xb69)
    2290                      .dwattr $C$DW$43, DW_AT_TI_end_column(0x01)
    2291                      .dwendentry
    2292                      .dwendtag $C$DW$43
    2293              
    2294 00000000               .sect   ".text:_PMBUSA_ISR"
    2295                      .retain
    2296                      .retainrefs
    2297                      .global _PMBUSA_ISR
    2298              
    2299              $C$DW$44        .dwtag  DW_TAG_subprogram
    2300                      .dwattr $C$DW$44, DW_AT_name("PMBUSA_ISR")
    2301                      .dwattr $C$DW$44, DW_AT_low_pc(_PMBUSA_ISR)
    2302                      .dwattr $C$DW$44, DW_AT_high_pc(0x00)
    2303                      .dwattr $C$DW$44, DW_AT_TI_symbol_name("_PMBUSA_ISR")
    2304                      .dwattr $C$DW$44, DW_AT_external
    2305                      .dwattr $C$DW$44, DW_AT_TI_begin_file("../DeviceSupport/source/f28003x_defaultisr.c")
    2306                      .dwattr $C$DW$44, DW_AT_TI_begin_line(0xa15)
    2307                      .dwattr $C$DW$44, DW_AT_TI_begin_column(0x10)
    2308                      .dwattr $C$DW$44, DW_AT_TI_interrupt
    2309                      .dwattr $C$DW$44, DW_AT_TI_max_frame_size(-6)
    2310                      .dwpsn  file "../DeviceSupport/source/f28003x_defaultisr.c",line 2582,column 1,is_stmt,address _PMBUS
    2311              
    2312                      .dwfde $C$DW$CIE, _PMBUSA_ISR
    2313              
    2314              ;***************************************************************
    2315              ;* FNAME: _PMBUSA_ISR                   FR SIZE:   4           *
    2316              ;*                                                             *
    2317              ;* FUNCTION ENVIRONMENT                                        *
    2318              ;*                                                             *
    2319              ;* FUNCTION PROPERTIES                                         *
    2320              ;*                            0 Parameter,  0 Auto,  4 SOE     *
    2321              ;***************************************************************
    2322              
    2323 00000000       _PMBUSA_ISR:
    2324                      .dwcfi  cfa_offset, -2
    2325                      .dwcfi  save_reg_to_mem, 26, 0
    2326 00000000 761B          ASP       ; [CPU_ALU] 
    2327 00000001 FFF0          PUSH      RB                    ; [CPU_FPU] 
    2328                      .dwcfi  save_reg_to_mem, 74, 4
    2329                      .dwcfi  cfa_offset, -4
    2330 00000002 E200          MOV32     *SP++,STF             ; [CPU_FPU] 
         00000003 00BD 
    2331                      .dwcfi  save_reg_to_mem, 40, 6
    2332                      .dwcfi  cfa_offset, -6
    2333 00000004 E630          SETFLG    RNDF32=1, RNDF64=1    ; [CPU_FPU] 
TMS320C2000 Assembler PC v22.6.1 Wed May 21 09:51:54 2025

Copyright (c) 1996-2018 Texas Instruments Incorporated
C:\Users\Daniel\AppData\Local\Temp\{513EF8AD-E23E-4989-8EC9-611DE01417F7} PAGE   45

         00000005 0600 
    2334 00000006 2942          CLRC      PAGE0,OVM             ; [CPU_ALU] 
    2335 00000007 5616          CLRC      AMODE                 ; [CPU_ALU] 
    2336 00000008 7625        ESTOP0
    2337 00000009       $C$L44:    
    2338                      .dwpsn  file "../DeviceSupport/source/f28003x_defaultisr.c",line 2598,column 5,is_stmt,isa 0
    2339 00000009 6F00          B         $C$L44,UNC            ; [CPU_ALU] |2598| 
    2340                      ; branch occurs ; [] |2598| 
    2341                      .dwattr $C$DW$44, DW_AT_TI_end_file("../DeviceSupport/source/f28003x_defaultisr.c")
    2342                      .dwattr $C$DW$44, DW_AT_TI_end_line(0xa27)
    2343                      .dwattr $C$DW$44, DW_AT_TI_end_column(0x01)
    2344                      .dwendentry
    2345                      .dwendtag $C$DW$44
    2346              
    2347 00000000               .sect   ".text:_PIE_RESERVED_ISR"
    2348                      .retain
    2349                      .retainrefs
    2350                      .global _PIE_RESERVED_ISR
    2351              
    2352              $C$DW$45        .dwtag  DW_TAG_subprogram
    2353                      .dwattr $C$DW$45, DW_AT_name("PIE_RESERVED_ISR")
    2354                      .dwattr $C$DW$45, DW_AT_low_pc(_PIE_RESERVED_ISR)
    2355                      .dwattr $C$DW$45, DW_AT_high_pc(0x00)
    2356                      .dwattr $C$DW$45, DW_AT_TI_symbol_name("_PIE_RESERVED_ISR")
    2357                      .dwattr $C$DW$45, DW_AT_external
    2358                      .dwattr $C$DW$45, DW_AT_TI_begin_file("../DeviceSupport/source/f28003x_defaultisr.c")
    2359                      .dwattr $C$DW$45, DW_AT_TI_begin_line(0xbce)
    2360                      .dwattr $C$DW$45, DW_AT_TI_begin_column(0x10)
    2361                      .dwattr $C$DW$45, DW_AT_TI_interrupt
    2362                      .dwattr $C$DW$45, DW_AT_TI_max_frame_size(-6)
    2363                      .dwpsn  file "../DeviceSupport/source/f28003x_defaultisr.c",line 3023,column 1,is_stmt,address _PIE_R
    2364              
    2365                      .dwfde $C$DW$CIE, _PIE_RESERVED_ISR
    2366              
    2367              ;***************************************************************
    2368              ;* FNAME: _PIE_RESERVED_ISR             FR SIZE:   4           *
    2369              ;*                                                             *
    2370              ;* FUNCTION ENVIRONMENT                                        *
    2371              ;*                                                             *
    2372              ;* FUNCTION PROPERTIES                                         *
    2373              ;*                            0 Parameter,  0 Auto,  4 SOE     *
    2374              ;***************************************************************
    2375              
    2376 00000000       _PIE_RESERVED_ISR:
    2377                      .dwcfi  cfa_offset, -2
    2378                      .dwcfi  save_reg_to_mem, 26, 0
    2379 00000000 761B          ASP       ; [CPU_ALU] 
    2380 00000001 FFF0          PUSH      RB                    ; [CPU_FPU] 
    2381                      .dwcfi  save_reg_to_mem, 74, 4
    2382                      .dwcfi  cfa_offset, -4
    2383 00000002 E200          MOV32     *SP++,STF             ; [CPU_FPU] 
         00000003 00BD 
    2384                      .dwcfi  save_reg_to_mem, 40, 6
    2385                      .dwcfi  cfa_offset, -6
    2386 00000004 E630          SETFLG    RNDF32=1, RNDF64=1    ; [CPU_FPU] 
TMS320C2000 Assembler PC v22.6.1 Wed May 21 09:51:54 2025

Copyright (c) 1996-2018 Texas Instruments Incorporated
C:\Users\Daniel\AppData\Local\Temp\{513EF8AD-E23E-4989-8EC9-611DE01417F7} PAGE   46

         00000005 0600 
    2387 00000006 2942          CLRC      PAGE0,OVM             ; [CPU_ALU] 
    2388 00000007 5616          CLRC      AMODE                 ; [CPU_ALU] 
    2389 00000008 7625        ESTOP0
    2390 00000009       $C$L45:    
    2391                      .dwpsn  file "../DeviceSupport/source/f28003x_defaultisr.c",line 3025,column 5,is_stmt,isa 0
    2392 00000009 6F00          B         $C$L45,UNC            ; [CPU_ALU] |3025| 
    2393                      ; branch occurs ; [] |3025| 
    2394                      .dwattr $C$DW$45, DW_AT_TI_end_file("../DeviceSupport/source/f28003x_defaultisr.c")
    2395                      .dwattr $C$DW$45, DW_AT_TI_end_line(0xbd2)
    2396                      .dwattr $C$DW$45, DW_AT_TI_end_column(0x01)
    2397                      .dwendentry
    2398                      .dwendtag $C$DW$45
    2399              
    2400 00000000               .sect   ".text:_NOTUSED_ISR"
    2401                      .retain
    2402                      .retainrefs
    2403                      .global _NOTUSED_ISR
    2404              
    2405              $C$DW$46        .dwtag  DW_TAG_subprogram
    2406                      .dwattr $C$DW$46, DW_AT_name("NOTUSED_ISR")
    2407                      .dwattr $C$DW$46, DW_AT_low_pc(_NOTUSED_ISR)
    2408                      .dwattr $C$DW$46, DW_AT_high_pc(0x00)
    2409                      .dwattr $C$DW$46, DW_AT_TI_symbol_name("_NOTUSED_ISR")
    2410                      .dwattr $C$DW$46, DW_AT_external
    2411                      .dwattr $C$DW$46, DW_AT_TI_begin_file("../DeviceSupport/source/f28003x_defaultisr.c")
    2412                      .dwattr $C$DW$46, DW_AT_TI_begin_line(0xbdf)
    2413                      .dwattr $C$DW$46, DW_AT_TI_begin_column(0x10)
    2414                      .dwattr $C$DW$46, DW_AT_TI_interrupt
    2415                      .dwattr $C$DW$46, DW_AT_TI_max_frame_size(-6)
    2416                      .dwpsn  file "../DeviceSupport/source/f28003x_defaultisr.c",line 3040,column 1,is_stmt,address _NOTUS
    2417              
    2418                      .dwfde $C$DW$CIE, _NOTUSED_ISR
    2419              
    2420              ;***************************************************************
    2421              ;* FNAME: _NOTUSED_ISR                  FR SIZE:   4           *
    2422              ;*                                                             *
    2423              ;* FUNCTION ENVIRONMENT                                        *
    2424              ;*                                                             *
    2425              ;* FUNCTION PROPERTIES                                         *
    2426              ;*                            0 Parameter,  0 Auto,  4 SOE     *
    2427              ;***************************************************************
    2428              
    2429 00000000       _NOTUSED_ISR:
    2430                      .dwcfi  cfa_offset, -2
    2431                      .dwcfi  save_reg_to_mem, 26, 0
    2432 00000000 761B          ASP       ; [CPU_ALU] 
    2433 00000001 FFF0          PUSH      RB                    ; [CPU_FPU] 
    2434                      .dwcfi  save_reg_to_mem, 74, 4
    2435                      .dwcfi  cfa_offset, -4
    2436 00000002 E200          MOV32     *SP++,STF             ; [CPU_FPU] 
         00000003 00BD 
    2437                      .dwcfi  save_reg_to_mem, 40, 6
    2438                      .dwcfi  cfa_offset, -6
    2439 00000004 E630          SETFLG    RNDF32=1, RNDF64=1    ; [CPU_FPU] 
TMS320C2000 Assembler PC v22.6.1 Wed May 21 09:51:54 2025

Copyright (c) 1996-2018 Texas Instruments Incorporated
C:\Users\Daniel\AppData\Local\Temp\{513EF8AD-E23E-4989-8EC9-611DE01417F7} PAGE   47

         00000005 0600 
    2440 00000006 2942          CLRC      PAGE0,OVM             ; [CPU_ALU] 
    2441 00000007 5616          CLRC      AMODE                 ; [CPU_ALU] 
    2442 00000008 7625        ESTOP0
    2443 00000009       $C$L46:    
    2444                      .dwpsn  file "../DeviceSupport/source/f28003x_defaultisr.c",line 3042,column 5,is_stmt,isa 0
    2445 00000009 6F00          B         $C$L46,UNC            ; [CPU_ALU] |3042| 
    2446                      ; branch occurs ; [] |3042| 
    2447                      .dwattr $C$DW$46, DW_AT_TI_end_file("../DeviceSupport/source/f28003x_defaultisr.c")
    2448                      .dwattr $C$DW$46, DW_AT_TI_end_line(0xbe3)
    2449                      .dwattr $C$DW$46, DW_AT_TI_end_column(0x01)
    2450                      .dwendentry
    2451                      .dwendtag $C$DW$46
    2452              
    2453 00000000               .sect   ".text:_NMI_ISR"
    2454                      .retain
    2455                      .retainrefs
    2456                      .global _NMI_ISR
    2457              
    2458              $C$DW$47        .dwtag  DW_TAG_subprogram
    2459                      .dwattr $C$DW$47, DW_AT_name("NMI_ISR")
    2460                      .dwattr $C$DW$47, DW_AT_low_pc(_NMI_ISR)
    2461                      .dwattr $C$DW$47, DW_AT_high_pc(0x00)
    2462                      .dwattr $C$DW$47, DW_AT_TI_symbol_name("_NMI_ISR")
    2463                      .dwattr $C$DW$47, DW_AT_external
    2464                      .dwattr $C$DW$47, DW_AT_TI_begin_file("../DeviceSupport/source/f28003x_defaultisr.c")
    2465                      .dwattr $C$DW$47, DW_AT_TI_begin_line(0x87)
    2466                      .dwattr $C$DW$47, DW_AT_TI_begin_column(0x10)
    2467                      .dwattr $C$DW$47, DW_AT_TI_interrupt
    2468                      .dwattr $C$DW$47, DW_AT_TI_max_frame_size(-6)
    2469                      .dwpsn  file "../DeviceSupport/source/f28003x_defaultisr.c",line 136,column 1,is_stmt,address _NMI_IS
    2470              
    2471                      .dwfde $C$DW$CIE, _NMI_ISR
    2472              
    2473              ;***************************************************************
    2474              ;* FNAME: _NMI_ISR                      FR SIZE:   4           *
    2475              ;*                                                             *
    2476              ;* FUNCTION ENVIRONMENT                                        *
    2477              ;*                                                             *
    2478              ;* FUNCTION PROPERTIES                                         *
    2479              ;*                            0 Parameter,  0 Auto,  4 SOE     *
    2480              ;***************************************************************
    2481              
    2482 00000000       _NMI_ISR:
    2483                      .dwcfi  cfa_offset, -2
    2484                      .dwcfi  save_reg_to_mem, 26, 0
    2485 00000000 761B          ASP       ; [CPU_ALU] 
    2486 00000001 FFF0          PUSH      RB                    ; [CPU_FPU] 
    2487                      .dwcfi  save_reg_to_mem, 74, 4
    2488                      .dwcfi  cfa_offset, -4
    2489 00000002 E200          MOV32     *SP++,STF             ; [CPU_FPU] 
         00000003 00BD 
    2490                      .dwcfi  save_reg_to_mem, 40, 6
    2491                      .dwcfi  cfa_offset, -6
    2492 00000004 E630          SETFLG    RNDF32=1, RNDF64=1    ; [CPU_FPU] 
TMS320C2000 Assembler PC v22.6.1 Wed May 21 09:51:54 2025

Copyright (c) 1996-2018 Texas Instruments Incorporated
C:\Users\Daniel\AppData\Local\Temp\{513EF8AD-E23E-4989-8EC9-611DE01417F7} PAGE   48

         00000005 0600 
    2493 00000006 2942          CLRC      PAGE0,OVM             ; [CPU_ALU] 
    2494 00000007 5616          CLRC      AMODE                 ; [CPU_ALU] 
    2495 00000008 7625        ESTOP0
    2496 00000009       $C$L47:    
    2497                      .dwpsn  file "../DeviceSupport/source/f28003x_defaultisr.c",line 146,column 5,is_stmt,isa 0
    2498 00000009 6F00          B         $C$L47,UNC            ; [CPU_ALU] |146| 
    2499                      ; branch occurs ; [] |146| 
    2500                      .dwattr $C$DW$47, DW_AT_TI_end_file("../DeviceSupport/source/f28003x_defaultisr.c")
    2501                      .dwattr $C$DW$47, DW_AT_TI_end_line(0x93)
    2502                      .dwattr $C$DW$47, DW_AT_TI_end_column(0x01)
    2503                      .dwendentry
    2504                      .dwendtag $C$DW$47
    2505              
    2506 00000000               .sect   ".text:_MPOST_ISR"
    2507                      .retain
    2508                      .retainrefs
    2509                      .global _MPOST_ISR
    2510              
    2511              $C$DW$48        .dwtag  DW_TAG_subprogram
    2512                      .dwattr $C$DW$48, DW_AT_name("MPOST_ISR")
    2513                      .dwattr $C$DW$48, DW_AT_low_pc(_MPOST_ISR)
    2514                      .dwattr $C$DW$48, DW_AT_high_pc(0x00)
    2515                      .dwattr $C$DW$48, DW_AT_TI_symbol_name("_MPOST_ISR")
    2516                      .dwattr $C$DW$48, DW_AT_external
    2517                      .dwattr $C$DW$48, DW_AT_TI_begin_file("../DeviceSupport/source/f28003x_defaultisr.c")
    2518                      .dwattr $C$DW$48, DW_AT_TI_begin_line(0x7d6)
    2519                      .dwattr $C$DW$48, DW_AT_TI_begin_column(0x10)
    2520                      .dwattr $C$DW$48, DW_AT_TI_interrupt
    2521                      .dwattr $C$DW$48, DW_AT_TI_max_frame_size(-6)
    2522                      .dwpsn  file "../DeviceSupport/source/f28003x_defaultisr.c",line 2007,column 1,is_stmt,address _MPOST
    2523              
    2524                      .dwfde $C$DW$CIE, _MPOST_ISR
    2525              
    2526              ;***************************************************************
    2527              ;* FNAME: _MPOST_ISR                    FR SIZE:   4           *
    2528              ;*                                                             *
    2529              ;* FUNCTION ENVIRONMENT                                        *
    2530              ;*                                                             *
    2531              ;* FUNCTION PROPERTIES                                         *
    2532              ;*                            0 Parameter,  0 Auto,  4 SOE     *
    2533              ;***************************************************************
    2534              
    2535 00000000       _MPOST_ISR:
    2536                      .dwcfi  cfa_offset, -2
    2537                      .dwcfi  save_reg_to_mem, 26, 0
    2538 00000000 761B          ASP       ; [CPU_ALU] 
    2539 00000001 FFF0          PUSH      RB                    ; [CPU_FPU] 
    2540                      .dwcfi  save_reg_to_mem, 74, 4
    2541                      .dwcfi  cfa_offset, -4
    2542 00000002 E200          MOV32     *SP++,STF             ; [CPU_FPU] 
         00000003 00BD 
    2543                      .dwcfi  save_reg_to_mem, 40, 6
    2544                      .dwcfi  cfa_offset, -6
    2545 00000004 E630          SETFLG    RNDF32=1, RNDF64=1    ; [CPU_FPU] 
TMS320C2000 Assembler PC v22.6.1 Wed May 21 09:51:54 2025

Copyright (c) 1996-2018 Texas Instruments Incorporated
C:\Users\Daniel\AppData\Local\Temp\{513EF8AD-E23E-4989-8EC9-611DE01417F7} PAGE   49

         00000005 0600 
    2546 00000006 2942          CLRC      PAGE0,OVM             ; [CPU_ALU] 
    2547 00000007 5616          CLRC      AMODE                 ; [CPU_ALU] 
    2548 00000008 7625        ESTOP0
    2549 00000009       $C$L48:    
    2550                      .dwpsn  file "../DeviceSupport/source/f28003x_defaultisr.c",line 2023,column 5,is_stmt,isa 0
    2551 00000009 6F00          B         $C$L48,UNC            ; [CPU_ALU] |2023| 
    2552                      ; branch occurs ; [] |2023| 
    2553                      .dwattr $C$DW$48, DW_AT_TI_end_file("../DeviceSupport/source/f28003x_defaultisr.c")
    2554                      .dwattr $C$DW$48, DW_AT_TI_end_line(0x7e8)
    2555                      .dwattr $C$DW$48, DW_AT_TI_end_column(0x01)
    2556                      .dwendentry
    2557                      .dwendtag $C$DW$48
    2558              
    2559 00000000               .sect   ".text:_MCAN_WAKE_ISR"
    2560                      .retain
    2561                      .retainrefs
    2562                      .global _MCAN_WAKE_ISR
    2563              
    2564              $C$DW$49        .dwtag  DW_TAG_subprogram
    2565                      .dwattr $C$DW$49, DW_AT_name("MCAN_WAKE_ISR")
    2566                      .dwattr $C$DW$49, DW_AT_low_pc(_MCAN_WAKE_ISR)
    2567                      .dwattr $C$DW$49, DW_AT_high_pc(0x00)
    2568                      .dwattr $C$DW$49, DW_AT_TI_symbol_name("_MCAN_WAKE_ISR")
    2569                      .dwattr $C$DW$49, DW_AT_external
    2570                      .dwattr $C$DW$49, DW_AT_TI_begin_file("../DeviceSupport/source/f28003x_defaultisr.c")
    2571                      .dwattr $C$DW$49, DW_AT_TI_begin_line(0xa88)
    2572                      .dwattr $C$DW$49, DW_AT_TI_begin_column(0x10)
    2573                      .dwattr $C$DW$49, DW_AT_TI_interrupt
    2574                      .dwattr $C$DW$49, DW_AT_TI_max_frame_size(-6)
    2575                      .dwpsn  file "../DeviceSupport/source/f28003x_defaultisr.c",line 2697,column 1,is_stmt,address _MCAN_
    2576              
    2577                      .dwfde $C$DW$CIE, _MCAN_WAKE_ISR
    2578              
    2579              ;***************************************************************
    2580              ;* FNAME: _MCAN_WAKE_ISR                FR SIZE:   4           *
    2581              ;*                                                             *
    2582              ;* FUNCTION ENVIRONMENT                                        *
    2583              ;*                                                             *
    2584              ;* FUNCTION PROPERTIES                                         *
    2585              ;*                            0 Parameter,  0 Auto,  4 SOE     *
    2586              ;***************************************************************
    2587              
    2588 00000000       _MCAN_WAKE_ISR:
    2589                      .dwcfi  cfa_offset, -2
    2590                      .dwcfi  save_reg_to_mem, 26, 0
    2591 00000000 761B          ASP       ; [CPU_ALU] 
    2592 00000001 FFF0          PUSH      RB                    ; [CPU_FPU] 
    2593                      .dwcfi  save_reg_to_mem, 74, 4
    2594                      .dwcfi  cfa_offset, -4
    2595 00000002 E200          MOV32     *SP++,STF             ; [CPU_FPU] 
         00000003 00BD 
    2596                      .dwcfi  save_reg_to_mem, 40, 6
    2597                      .dwcfi  cfa_offset, -6
    2598 00000004 E630          SETFLG    RNDF32=1, RNDF64=1    ; [CPU_FPU] 
TMS320C2000 Assembler PC v22.6.1 Wed May 21 09:51:54 2025

Copyright (c) 1996-2018 Texas Instruments Incorporated
C:\Users\Daniel\AppData\Local\Temp\{513EF8AD-E23E-4989-8EC9-611DE01417F7} PAGE   50

         00000005 0600 
    2599 00000006 2942          CLRC      PAGE0,OVM             ; [CPU_ALU] 
    2600 00000007 5616          CLRC      AMODE                 ; [CPU_ALU] 
    2601 00000008 7625        ESTOP0
    2602 00000009       $C$L49:    
    2603                      .dwpsn  file "../DeviceSupport/source/f28003x_defaultisr.c",line 2713,column 5,is_stmt,isa 0
    2604 00000009 6F00          B         $C$L49,UNC            ; [CPU_ALU] |2713| 
    2605                      ; branch occurs ; [] |2713| 
    2606                      .dwattr $C$DW$49, DW_AT_TI_end_file("../DeviceSupport/source/f28003x_defaultisr.c")
    2607                      .dwattr $C$DW$49, DW_AT_TI_end_line(0xa9a)
    2608                      .dwattr $C$DW$49, DW_AT_TI_end_column(0x01)
    2609                      .dwendentry
    2610                      .dwendtag $C$DW$49
    2611              
    2612 00000000               .sect   ".text:_MCAN_ECC_ISR"
    2613                      .retain
    2614                      .retainrefs
    2615                      .global _MCAN_ECC_ISR
    2616              
    2617              $C$DW$50        .dwtag  DW_TAG_subprogram
    2618                      .dwattr $C$DW$50, DW_AT_name("MCAN_ECC_ISR")
    2619                      .dwattr $C$DW$50, DW_AT_low_pc(_MCAN_ECC_ISR)
    2620                      .dwattr $C$DW$50, DW_AT_high_pc(0x00)
    2621                      .dwattr $C$DW$50, DW_AT_TI_symbol_name("_MCAN_ECC_ISR")
    2622                      .dwattr $C$DW$50, DW_AT_external
    2623                      .dwattr $C$DW$50, DW_AT_TI_begin_file("../DeviceSupport/source/f28003x_defaultisr.c")
    2624                      .dwattr $C$DW$50, DW_AT_TI_begin_line(0xa71)
    2625                      .dwattr $C$DW$50, DW_AT_TI_begin_column(0x10)
    2626                      .dwattr $C$DW$50, DW_AT_TI_interrupt
    2627                      .dwattr $C$DW$50, DW_AT_TI_max_frame_size(-6)
    2628                      .dwpsn  file "../DeviceSupport/source/f28003x_defaultisr.c",line 2674,column 1,is_stmt,address _MCAN_
    2629              
    2630                      .dwfde $C$DW$CIE, _MCAN_ECC_ISR
    2631              
    2632              ;***************************************************************
    2633              ;* FNAME: _MCAN_ECC_ISR                 FR SIZE:   4           *
    2634              ;*                                                             *
    2635              ;* FUNCTION ENVIRONMENT                                        *
    2636              ;*                                                             *
    2637              ;* FUNCTION PROPERTIES                                         *
    2638              ;*                            0 Parameter,  0 Auto,  4 SOE     *
    2639              ;***************************************************************
    2640              
    2641 00000000       _MCAN_ECC_ISR:
    2642                      .dwcfi  cfa_offset, -2
    2643                      .dwcfi  save_reg_to_mem, 26, 0
    2644 00000000 761B          ASP       ; [CPU_ALU] 
    2645 00000001 FFF0          PUSH      RB                    ; [CPU_FPU] 
    2646                      .dwcfi  save_reg_to_mem, 74, 4
    2647                      .dwcfi  cfa_offset, -4
    2648 00000002 E200          MOV32     *SP++,STF             ; [CPU_FPU] 
         00000003 00BD 
    2649                      .dwcfi  save_reg_to_mem, 40, 6
    2650                      .dwcfi  cfa_offset, -6
    2651 00000004 E630          SETFLG    RNDF32=1, RNDF64=1    ; [CPU_FPU] 
TMS320C2000 Assembler PC v22.6.1 Wed May 21 09:51:54 2025

Copyright (c) 1996-2018 Texas Instruments Incorporated
C:\Users\Daniel\AppData\Local\Temp\{513EF8AD-E23E-4989-8EC9-611DE01417F7} PAGE   51

         00000005 0600 
    2652 00000006 2942          CLRC      PAGE0,OVM             ; [CPU_ALU] 
    2653 00000007 5616          CLRC      AMODE                 ; [CPU_ALU] 
    2654 00000008 7625        ESTOP0
    2655 00000009       $C$L50:    
    2656                      .dwpsn  file "../DeviceSupport/source/f28003x_defaultisr.c",line 2690,column 5,is_stmt,isa 0
    2657 00000009 6F00          B         $C$L50,UNC            ; [CPU_ALU] |2690| 
    2658                      ; branch occurs ; [] |2690| 
    2659                      .dwattr $C$DW$50, DW_AT_TI_end_file("../DeviceSupport/source/f28003x_defaultisr.c")
    2660                      .dwattr $C$DW$50, DW_AT_TI_end_line(0xa83)
    2661                      .dwattr $C$DW$50, DW_AT_TI_end_column(0x01)
    2662                      .dwendentry
    2663                      .dwendtag $C$DW$50
    2664              
    2665 00000000               .sect   ".text:_MCAN_1_ISR"
    2666                      .retain
    2667                      .retainrefs
    2668                      .global _MCAN_1_ISR
    2669              
    2670              $C$DW$51        .dwtag  DW_TAG_subprogram
    2671                      .dwattr $C$DW$51, DW_AT_name("MCAN_1_ISR")
    2672                      .dwattr $C$DW$51, DW_AT_low_pc(_MCAN_1_ISR)
    2673                      .dwattr $C$DW$51, DW_AT_high_pc(0x00)
    2674                      .dwattr $C$DW$51, DW_AT_TI_symbol_name("_MCAN_1_ISR")
    2675                      .dwattr $C$DW$51, DW_AT_external
    2676                      .dwattr $C$DW$51, DW_AT_TI_begin_file("../DeviceSupport/source/f28003x_defaultisr.c")
    2677                      .dwattr $C$DW$51, DW_AT_TI_begin_line(0xa5a)
    2678                      .dwattr $C$DW$51, DW_AT_TI_begin_column(0x10)
    2679                      .dwattr $C$DW$51, DW_AT_TI_interrupt
    2680                      .dwattr $C$DW$51, DW_AT_TI_max_frame_size(-6)
    2681                      .dwpsn  file "../DeviceSupport/source/f28003x_defaultisr.c",line 2651,column 1,is_stmt,address _MCAN_
    2682              
    2683                      .dwfde $C$DW$CIE, _MCAN_1_ISR
    2684              
    2685              ;***************************************************************
    2686              ;* FNAME: _MCAN_1_ISR                   FR SIZE:   4           *
    2687              ;*                                                             *
    2688              ;* FUNCTION ENVIRONMENT                                        *
    2689              ;*                                                             *
    2690              ;* FUNCTION PROPERTIES                                         *
    2691              ;*                            0 Parameter,  0 Auto,  4 SOE     *
    2692              ;***************************************************************
    2693              
    2694 00000000       _MCAN_1_ISR:
    2695                      .dwcfi  cfa_offset, -2
    2696                      .dwcfi  save_reg_to_mem, 26, 0
    2697 00000000 761B          ASP       ; [CPU_ALU] 
    2698 00000001 FFF0          PUSH      RB                    ; [CPU_FPU] 
    2699                      .dwcfi  save_reg_to_mem, 74, 4
    2700                      .dwcfi  cfa_offset, -4
    2701 00000002 E200          MOV32     *SP++,STF             ; [CPU_FPU] 
         00000003 00BD 
    2702                      .dwcfi  save_reg_to_mem, 40, 6
    2703                      .dwcfi  cfa_offset, -6
    2704 00000004 E630          SETFLG    RNDF32=1, RNDF64=1    ; [CPU_FPU] 
TMS320C2000 Assembler PC v22.6.1 Wed May 21 09:51:54 2025

Copyright (c) 1996-2018 Texas Instruments Incorporated
C:\Users\Daniel\AppData\Local\Temp\{513EF8AD-E23E-4989-8EC9-611DE01417F7} PAGE   52

         00000005 0600 
    2705 00000006 2942          CLRC      PAGE0,OVM             ; [CPU_ALU] 
    2706 00000007 5616          CLRC      AMODE                 ; [CPU_ALU] 
    2707 00000008 7625        ESTOP0
    2708 00000009       $C$L51:    
    2709                      .dwpsn  file "../DeviceSupport/source/f28003x_defaultisr.c",line 2667,column 5,is_stmt,isa 0
    2710 00000009 6F00          B         $C$L51,UNC            ; [CPU_ALU] |2667| 
    2711                      ; branch occurs ; [] |2667| 
    2712                      .dwattr $C$DW$51, DW_AT_TI_end_file("../DeviceSupport/source/f28003x_defaultisr.c")
    2713                      .dwattr $C$DW$51, DW_AT_TI_end_line(0xa6c)
    2714                      .dwattr $C$DW$51, DW_AT_TI_end_column(0x01)
    2715                      .dwendentry
    2716                      .dwendtag $C$DW$51
    2717              
    2718 00000000               .sect   ".text:_MCAN_0_ISR"
    2719                      .retain
    2720                      .retainrefs
    2721                      .global _MCAN_0_ISR
    2722              
    2723              $C$DW$52        .dwtag  DW_TAG_subprogram
    2724                      .dwattr $C$DW$52, DW_AT_name("MCAN_0_ISR")
    2725                      .dwattr $C$DW$52, DW_AT_low_pc(_MCAN_0_ISR)
    2726                      .dwattr $C$DW$52, DW_AT_high_pc(0x00)
    2727                      .dwattr $C$DW$52, DW_AT_TI_symbol_name("_MCAN_0_ISR")
    2728                      .dwattr $C$DW$52, DW_AT_external
    2729                      .dwattr $C$DW$52, DW_AT_TI_begin_file("../DeviceSupport/source/f28003x_defaultisr.c")
    2730                      .dwattr $C$DW$52, DW_AT_TI_begin_line(0xa43)
    2731                      .dwattr $C$DW$52, DW_AT_TI_begin_column(0x10)
    2732                      .dwattr $C$DW$52, DW_AT_TI_interrupt
    2733                      .dwattr $C$DW$52, DW_AT_TI_max_frame_size(-6)
    2734                      .dwpsn  file "../DeviceSupport/source/f28003x_defaultisr.c",line 2628,column 1,is_stmt,address _MCAN_
    2735              
    2736                      .dwfde $C$DW$CIE, _MCAN_0_ISR
    2737              
    2738              ;***************************************************************
    2739              ;* FNAME: _MCAN_0_ISR                   FR SIZE:   4           *
    2740              ;*                                                             *
    2741              ;* FUNCTION ENVIRONMENT                                        *
    2742              ;*                                                             *
    2743              ;* FUNCTION PROPERTIES                                         *
    2744              ;*                            0 Parameter,  0 Auto,  4 SOE     *
    2745              ;***************************************************************
    2746              
    2747 00000000       _MCAN_0_ISR:
    2748                      .dwcfi  cfa_offset, -2
    2749                      .dwcfi  save_reg_to_mem, 26, 0
    2750 00000000 761B          ASP       ; [CPU_ALU] 
    2751 00000001 FFF0          PUSH      RB                    ; [CPU_FPU] 
    2752                      .dwcfi  save_reg_to_mem, 74, 4
    2753                      .dwcfi  cfa_offset, -4
    2754 00000002 E200          MOV32     *SP++,STF             ; [CPU_FPU] 
         00000003 00BD 
    2755                      .dwcfi  save_reg_to_mem, 40, 6
    2756                      .dwcfi  cfa_offset, -6
    2757 00000004 E630          SETFLG    RNDF32=1, RNDF64=1    ; [CPU_FPU] 
TMS320C2000 Assembler PC v22.6.1 Wed May 21 09:51:54 2025

Copyright (c) 1996-2018 Texas Instruments Incorporated
C:\Users\Daniel\AppData\Local\Temp\{513EF8AD-E23E-4989-8EC9-611DE01417F7} PAGE   53

         00000005 0600 
    2758 00000006 2942          CLRC      PAGE0,OVM             ; [CPU_ALU] 
    2759 00000007 5616          CLRC      AMODE                 ; [CPU_ALU] 
    2760 00000008 7625        ESTOP0
    2761 00000009       $C$L52:    
    2762                      .dwpsn  file "../DeviceSupport/source/f28003x_defaultisr.c",line 2644,column 5,is_stmt,isa 0
    2763 00000009 6F00          B         $C$L52,UNC            ; [CPU_ALU] |2644| 
    2764                      ; branch occurs ; [] |2644| 
    2765                      .dwattr $C$DW$52, DW_AT_TI_end_file("../DeviceSupport/source/f28003x_defaultisr.c")
    2766                      .dwattr $C$DW$52, DW_AT_TI_end_line(0xa55)
    2767                      .dwattr $C$DW$52, DW_AT_TI_end_column(0x01)
    2768                      .dwendentry
    2769                      .dwendtag $C$DW$52
    2770              
    2771 00000000               .sect   ".text:_LINB_1_ISR"
    2772                      .retain
    2773                      .retainrefs
    2774                      .global _LINB_1_ISR
    2775              
    2776              $C$DW$53        .dwtag  DW_TAG_subprogram
    2777                      .dwattr $C$DW$53, DW_AT_name("LINB_1_ISR")
    2778                      .dwattr $C$DW$53, DW_AT_low_pc(_LINB_1_ISR)
    2779                      .dwattr $C$DW$53, DW_AT_high_pc(0x00)
    2780                      .dwattr $C$DW$53, DW_AT_TI_symbol_name("_LINB_1_ISR")
    2781                      .dwattr $C$DW$53, DW_AT_external
    2782                      .dwattr $C$DW$53, DW_AT_TI_begin_file("../DeviceSupport/source/f28003x_defaultisr.c")
    2783                      .dwattr $C$DW$53, DW_AT_TI_begin_line(0x9fe)
    2784                      .dwattr $C$DW$53, DW_AT_TI_begin_column(0x10)
    2785                      .dwattr $C$DW$53, DW_AT_TI_interrupt
    2786                      .dwattr $C$DW$53, DW_AT_TI_max_frame_size(-6)
    2787                      .dwpsn  file "../DeviceSupport/source/f28003x_defaultisr.c",line 2559,column 1,is_stmt,address _LINB_
    2788              
    2789                      .dwfde $C$DW$CIE, _LINB_1_ISR
    2790              
    2791              ;***************************************************************
    2792              ;* FNAME: _LINB_1_ISR                   FR SIZE:   4           *
    2793              ;*                                                             *
    2794              ;* FUNCTION ENVIRONMENT                                        *
    2795              ;*                                                             *
    2796              ;* FUNCTION PROPERTIES                                         *
    2797              ;*                            0 Parameter,  0 Auto,  4 SOE     *
    2798              ;***************************************************************
    2799              
    2800 00000000       _LINB_1_ISR:
    2801                      .dwcfi  cfa_offset, -2
    2802                      .dwcfi  save_reg_to_mem, 26, 0
    2803 00000000 761B          ASP       ; [CPU_ALU] 
    2804 00000001 FFF0          PUSH      RB                    ; [CPU_FPU] 
    2805                      .dwcfi  save_reg_to_mem, 74, 4
    2806                      .dwcfi  cfa_offset, -4
    2807 00000002 E200          MOV32     *SP++,STF             ; [CPU_FPU] 
         00000003 00BD 
    2808                      .dwcfi  save_reg_to_mem, 40, 6
    2809                      .dwcfi  cfa_offset, -6
    2810 00000004 E630          SETFLG    RNDF32=1, RNDF64=1    ; [CPU_FPU] 
TMS320C2000 Assembler PC v22.6.1 Wed May 21 09:51:54 2025

Copyright (c) 1996-2018 Texas Instruments Incorporated
C:\Users\Daniel\AppData\Local\Temp\{513EF8AD-E23E-4989-8EC9-611DE01417F7} PAGE   54

         00000005 0600 
    2811 00000006 2942          CLRC      PAGE0,OVM             ; [CPU_ALU] 
    2812 00000007 5616          CLRC      AMODE                 ; [CPU_ALU] 
    2813 00000008 7625        ESTOP0
    2814 00000009       $C$L53:    
    2815                      .dwpsn  file "../DeviceSupport/source/f28003x_defaultisr.c",line 2575,column 5,is_stmt,isa 0
    2816 00000009 6F00          B         $C$L53,UNC            ; [CPU_ALU] |2575| 
    2817                      ; branch occurs ; [] |2575| 
    2818                      .dwattr $C$DW$53, DW_AT_TI_end_file("../DeviceSupport/source/f28003x_defaultisr.c")
    2819                      .dwattr $C$DW$53, DW_AT_TI_end_line(0xa10)
    2820                      .dwattr $C$DW$53, DW_AT_TI_end_column(0x01)
    2821                      .dwendentry
    2822                      .dwendtag $C$DW$53
    2823              
    2824 00000000               .sect   ".text:_LINB_0_ISR"
    2825                      .retain
    2826                      .retainrefs
    2827                      .global _LINB_0_ISR
    2828              
    2829              $C$DW$54        .dwtag  DW_TAG_subprogram
    2830                      .dwattr $C$DW$54, DW_AT_name("LINB_0_ISR")
    2831                      .dwattr $C$DW$54, DW_AT_low_pc(_LINB_0_ISR)
    2832                      .dwattr $C$DW$54, DW_AT_high_pc(0x00)
    2833                      .dwattr $C$DW$54, DW_AT_TI_symbol_name("_LINB_0_ISR")
    2834                      .dwattr $C$DW$54, DW_AT_external
    2835                      .dwattr $C$DW$54, DW_AT_TI_begin_file("../DeviceSupport/source/f28003x_defaultisr.c")
    2836                      .dwattr $C$DW$54, DW_AT_TI_begin_line(0x9e7)
    2837                      .dwattr $C$DW$54, DW_AT_TI_begin_column(0x10)
    2838                      .dwattr $C$DW$54, DW_AT_TI_interrupt
    2839                      .dwattr $C$DW$54, DW_AT_TI_max_frame_size(-6)
    2840                      .dwpsn  file "../DeviceSupport/source/f28003x_defaultisr.c",line 2536,column 1,is_stmt,address _LINB_
    2841              
    2842                      .dwfde $C$DW$CIE, _LINB_0_ISR
    2843              
    2844              ;***************************************************************
    2845              ;* FNAME: _LINB_0_ISR                   FR SIZE:   4           *
    2846              ;*                                                             *
    2847              ;* FUNCTION ENVIRONMENT                                        *
    2848              ;*                                                             *
    2849              ;* FUNCTION PROPERTIES                                         *
    2850              ;*                            0 Parameter,  0 Auto,  4 SOE     *
    2851              ;***************************************************************
    2852              
    2853 00000000       _LINB_0_ISR:
    2854                      .dwcfi  cfa_offset, -2
    2855                      .dwcfi  save_reg_to_mem, 26, 0
    2856 00000000 761B          ASP       ; [CPU_ALU] 
    2857 00000001 FFF0          PUSH      RB                    ; [CPU_FPU] 
    2858                      .dwcfi  save_reg_to_mem, 74, 4
    2859                      .dwcfi  cfa_offset, -4
    2860 00000002 E200          MOV32     *SP++,STF             ; [CPU_FPU] 
         00000003 00BD 
    2861                      .dwcfi  save_reg_to_mem, 40, 6
    2862                      .dwcfi  cfa_offset, -6
    2863 00000004 E630          SETFLG    RNDF32=1, RNDF64=1    ; [CPU_FPU] 
TMS320C2000 Assembler PC v22.6.1 Wed May 21 09:51:54 2025

Copyright (c) 1996-2018 Texas Instruments Incorporated
C:\Users\Daniel\AppData\Local\Temp\{513EF8AD-E23E-4989-8EC9-611DE01417F7} PAGE   55

         00000005 0600 
    2864 00000006 2942          CLRC      PAGE0,OVM             ; [CPU_ALU] 
    2865 00000007 5616          CLRC      AMODE                 ; [CPU_ALU] 
    2866 00000008 7625        ESTOP0
    2867 00000009       $C$L54:    
    2868                      .dwpsn  file "../DeviceSupport/source/f28003x_defaultisr.c",line 2552,column 5,is_stmt,isa 0
    2869 00000009 6F00          B         $C$L54,UNC            ; [CPU_ALU] |2552| 
    2870                      ; branch occurs ; [] |2552| 
    2871                      .dwattr $C$DW$54, DW_AT_TI_end_file("../DeviceSupport/source/f28003x_defaultisr.c")
    2872                      .dwattr $C$DW$54, DW_AT_TI_end_line(0x9f9)
    2873                      .dwattr $C$DW$54, DW_AT_TI_end_column(0x01)
    2874                      .dwendentry
    2875                      .dwendtag $C$DW$54
    2876              
    2877 00000000               .sect   ".text:_LINA_1_ISR"
    2878                      .retain
    2879                      .retainrefs
    2880                      .global _LINA_1_ISR
    2881              
    2882              $C$DW$55        .dwtag  DW_TAG_subprogram
    2883                      .dwattr $C$DW$55, DW_AT_name("LINA_1_ISR")
    2884                      .dwattr $C$DW$55, DW_AT_low_pc(_LINA_1_ISR)
    2885                      .dwattr $C$DW$55, DW_AT_high_pc(0x00)
    2886                      .dwattr $C$DW$55, DW_AT_TI_symbol_name("_LINA_1_ISR")
    2887                      .dwattr $C$DW$55, DW_AT_external
    2888                      .dwattr $C$DW$55, DW_AT_TI_begin_file("../DeviceSupport/source/f28003x_defaultisr.c")
    2889                      .dwattr $C$DW$55, DW_AT_TI_begin_line(0x9d0)
    2890                      .dwattr $C$DW$55, DW_AT_TI_begin_column(0x10)
    2891                      .dwattr $C$DW$55, DW_AT_TI_interrupt
    2892                      .dwattr $C$DW$55, DW_AT_TI_max_frame_size(-6)
    2893                      .dwpsn  file "../DeviceSupport/source/f28003x_defaultisr.c",line 2513,column 1,is_stmt,address _LINA_
    2894              
    2895                      .dwfde $C$DW$CIE, _LINA_1_ISR
    2896              
    2897              ;***************************************************************
    2898              ;* FNAME: _LINA_1_ISR                   FR SIZE:   4           *
    2899              ;*                                                             *
    2900              ;* FUNCTION ENVIRONMENT                                        *
    2901              ;*                                                             *
    2902              ;* FUNCTION PROPERTIES                                         *
    2903              ;*                            0 Parameter,  0 Auto,  4 SOE     *
    2904              ;***************************************************************
    2905              
    2906 00000000       _LINA_1_ISR:
    2907                      .dwcfi  cfa_offset, -2
    2908                      .dwcfi  save_reg_to_mem, 26, 0
    2909 00000000 761B          ASP       ; [CPU_ALU] 
    2910 00000001 FFF0          PUSH      RB                    ; [CPU_FPU] 
    2911                      .dwcfi  save_reg_to_mem, 74, 4
    2912                      .dwcfi  cfa_offset, -4
    2913 00000002 E200          MOV32     *SP++,STF             ; [CPU_FPU] 
         00000003 00BD 
    2914                      .dwcfi  save_reg_to_mem, 40, 6
    2915                      .dwcfi  cfa_offset, -6
    2916 00000004 E630          SETFLG    RNDF32=1, RNDF64=1    ; [CPU_FPU] 
TMS320C2000 Assembler PC v22.6.1 Wed May 21 09:51:54 2025

Copyright (c) 1996-2018 Texas Instruments Incorporated
C:\Users\Daniel\AppData\Local\Temp\{513EF8AD-E23E-4989-8EC9-611DE01417F7} PAGE   56

         00000005 0600 
    2917 00000006 2942          CLRC      PAGE0,OVM             ; [CPU_ALU] 
    2918 00000007 5616          CLRC      AMODE                 ; [CPU_ALU] 
    2919 00000008 7625        ESTOP0
    2920 00000009       $C$L55:    
    2921                      .dwpsn  file "../DeviceSupport/source/f28003x_defaultisr.c",line 2529,column 5,is_stmt,isa 0
    2922 00000009 6F00          B         $C$L55,UNC            ; [CPU_ALU] |2529| 
    2923                      ; branch occurs ; [] |2529| 
    2924                      .dwattr $C$DW$55, DW_AT_TI_end_file("../DeviceSupport/source/f28003x_defaultisr.c")
    2925                      .dwattr $C$DW$55, DW_AT_TI_end_line(0x9e2)
    2926                      .dwattr $C$DW$55, DW_AT_TI_end_column(0x01)
    2927                      .dwendentry
    2928                      .dwendtag $C$DW$55
    2929              
    2930 00000000               .sect   ".text:_LINA_0_ISR"
    2931                      .retain
    2932                      .retainrefs
    2933                      .global _LINA_0_ISR
    2934              
    2935              $C$DW$56        .dwtag  DW_TAG_subprogram
    2936                      .dwattr $C$DW$56, DW_AT_name("LINA_0_ISR")
    2937                      .dwattr $C$DW$56, DW_AT_low_pc(_LINA_0_ISR)
    2938                      .dwattr $C$DW$56, DW_AT_high_pc(0x00)
    2939                      .dwattr $C$DW$56, DW_AT_TI_symbol_name("_LINA_0_ISR")
    2940                      .dwattr $C$DW$56, DW_AT_external
    2941                      .dwattr $C$DW$56, DW_AT_TI_begin_file("../DeviceSupport/source/f28003x_defaultisr.c")
    2942                      .dwattr $C$DW$56, DW_AT_TI_begin_line(0x9b9)
    2943                      .dwattr $C$DW$56, DW_AT_TI_begin_column(0x10)
    2944                      .dwattr $C$DW$56, DW_AT_TI_interrupt
    2945                      .dwattr $C$DW$56, DW_AT_TI_max_frame_size(-6)
    2946                      .dwpsn  file "../DeviceSupport/source/f28003x_defaultisr.c",line 2490,column 1,is_stmt,address _LINA_
    2947              
    2948                      .dwfde $C$DW$CIE, _LINA_0_ISR
    2949              
    2950              ;***************************************************************
    2951              ;* FNAME: _LINA_0_ISR                   FR SIZE:   4           *
    2952              ;*                                                             *
    2953              ;* FUNCTION ENVIRONMENT                                        *
    2954              ;*                                                             *
    2955              ;* FUNCTION PROPERTIES                                         *
    2956              ;*                            0 Parameter,  0 Auto,  4 SOE     *
    2957              ;***************************************************************
    2958              
    2959 00000000       _LINA_0_ISR:
    2960                      .dwcfi  cfa_offset, -2
    2961                      .dwcfi  save_reg_to_mem, 26, 0
    2962 00000000 761B          ASP       ; [CPU_ALU] 
    2963 00000001 FFF0          PUSH      RB                    ; [CPU_FPU] 
    2964                      .dwcfi  save_reg_to_mem, 74, 4
    2965                      .dwcfi  cfa_offset, -4
    2966 00000002 E200          MOV32     *SP++,STF             ; [CPU_FPU] 
         00000003 00BD 
    2967                      .dwcfi  save_reg_to_mem, 40, 6
    2968                      .dwcfi  cfa_offset, -6
    2969 00000004 E630          SETFLG    RNDF32=1, RNDF64=1    ; [CPU_FPU] 
TMS320C2000 Assembler PC v22.6.1 Wed May 21 09:51:54 2025

Copyright (c) 1996-2018 Texas Instruments Incorporated
C:\Users\Daniel\AppData\Local\Temp\{513EF8AD-E23E-4989-8EC9-611DE01417F7} PAGE   57

         00000005 0600 
    2970 00000006 2942          CLRC      PAGE0,OVM             ; [CPU_ALU] 
    2971 00000007 5616          CLRC      AMODE                 ; [CPU_ALU] 
    2972 00000008 7625        ESTOP0
    2973 00000009       $C$L56:    
    2974                      .dwpsn  file "../DeviceSupport/source/f28003x_defaultisr.c",line 2506,column 5,is_stmt,isa 0
    2975 00000009 6F00          B         $C$L56,UNC            ; [CPU_ALU] |2506| 
    2976                      ; branch occurs ; [] |2506| 
    2977                      .dwattr $C$DW$56, DW_AT_TI_end_file("../DeviceSupport/source/f28003x_defaultisr.c")
    2978                      .dwattr $C$DW$56, DW_AT_TI_end_line(0x9cb)
    2979                      .dwattr $C$DW$56, DW_AT_TI_end_column(0x01)
    2980                      .dwendentry
    2981                      .dwendtag $C$DW$56
    2982              
    2983 00000000               .sect   ".text:_ILLEGAL_ISR"
    2984                      .retain
    2985                      .retainrefs
    2986                      .global _ILLEGAL_ISR
    2987              
    2988              $C$DW$57        .dwtag  DW_TAG_subprogram
    2989                      .dwattr $C$DW$57, DW_AT_name("ILLEGAL_ISR")
    2990                      .dwattr $C$DW$57, DW_AT_low_pc(_ILLEGAL_ISR)
    2991                      .dwattr $C$DW$57, DW_AT_high_pc(0x00)
    2992                      .dwattr $C$DW$57, DW_AT_TI_symbol_name("_ILLEGAL_ISR")
    2993                      .dwattr $C$DW$57, DW_AT_external
    2994                      .dwattr $C$DW$57, DW_AT_TI_begin_file("../DeviceSupport/source/f28003x_defaultisr.c")
    2995                      .dwattr $C$DW$57, DW_AT_TI_begin_line(0x98)
    2996                      .dwattr $C$DW$57, DW_AT_TI_begin_column(0x10)
    2997                      .dwattr $C$DW$57, DW_AT_TI_interrupt
    2998                      .dwattr $C$DW$57, DW_AT_TI_max_frame_size(-6)
    2999                      .dwpsn  file "../DeviceSupport/source/f28003x_defaultisr.c",line 153,column 1,is_stmt,address _ILLEGA
    3000              
    3001                      .dwfde $C$DW$CIE, _ILLEGAL_ISR
    3002              
    3003              ;***************************************************************
    3004              ;* FNAME: _ILLEGAL_ISR                  FR SIZE:   4           *
    3005              ;*                                                             *
    3006              ;* FUNCTION ENVIRONMENT                                        *
    3007              ;*                                                             *
    3008              ;* FUNCTION PROPERTIES                                         *
    3009              ;*                            0 Parameter,  0 Auto,  4 SOE     *
    3010              ;***************************************************************
    3011              
    3012 00000000       _ILLEGAL_ISR:
    3013                      .dwcfi  cfa_offset, -2
    3014                      .dwcfi  save_reg_to_mem, 26, 0
    3015 00000000 761B          ASP       ; [CPU_ALU] 
    3016 00000001 FFF0          PUSH      RB                    ; [CPU_FPU] 
    3017                      .dwcfi  save_reg_to_mem, 74, 4
    3018                      .dwcfi  cfa_offset, -4
    3019 00000002 E200          MOV32     *SP++,STF             ; [CPU_FPU] 
         00000003 00BD 
    3020                      .dwcfi  save_reg_to_mem, 40, 6
    3021                      .dwcfi  cfa_offset, -6
    3022 00000004 E630          SETFLG    RNDF32=1, RNDF64=1    ; [CPU_FPU] 
TMS320C2000 Assembler PC v22.6.1 Wed May 21 09:51:54 2025

Copyright (c) 1996-2018 Texas Instruments Incorporated
C:\Users\Daniel\AppData\Local\Temp\{513EF8AD-E23E-4989-8EC9-611DE01417F7} PAGE   58

         00000005 0600 
    3023 00000006 2942          CLRC      PAGE0,OVM             ; [CPU_ALU] 
    3024 00000007 5616          CLRC      AMODE                 ; [CPU_ALU] 
    3025 00000008 7625        ESTOP0
    3026 00000009       $C$L57:    
    3027                      .dwpsn  file "../DeviceSupport/source/f28003x_defaultisr.c",line 163,column 5,is_stmt,isa 0
    3028 00000009 6F00          B         $C$L57,UNC            ; [CPU_ALU] |163| 
    3029                      ; branch occurs ; [] |163| 
    3030                      .dwattr $C$DW$57, DW_AT_TI_end_file("../DeviceSupport/source/f28003x_defaultisr.c")
    3031                      .dwattr $C$DW$57, DW_AT_TI_end_line(0xa4)
    3032                      .dwattr $C$DW$57, DW_AT_TI_end_column(0x01)
    3033                      .dwendentry
    3034                      .dwendtag $C$DW$57
    3035              
    3036 00000000               .sect   ".text:_I2CB_ISR"
    3037                      .retain
    3038                      .retainrefs
    3039                      .global _I2CB_ISR
    3040              
    3041              $C$DW$58        .dwtag  DW_TAG_subprogram
    3042                      .dwattr $C$DW$58, DW_AT_name("I2CB_ISR")
    3043                      .dwattr $C$DW$58, DW_AT_low_pc(_I2CB_ISR)
    3044                      .dwattr $C$DW$58, DW_AT_high_pc(0x00)
    3045                      .dwattr $C$DW$58, DW_AT_TI_symbol_name("_I2CB_ISR")
    3046                      .dwattr $C$DW$58, DW_AT_external
    3047                      .dwattr $C$DW$58, DW_AT_TI_begin_file("../DeviceSupport/source/f28003x_defaultisr.c")
    3048                      .dwattr $C$DW$58, DW_AT_TI_begin_line(0x569)
    3049                      .dwattr $C$DW$58, DW_AT_TI_begin_column(0x10)
    3050                      .dwattr $C$DW$58, DW_AT_TI_interrupt
    3051                      .dwattr $C$DW$58, DW_AT_TI_max_frame_size(-6)
    3052                      .dwpsn  file "../DeviceSupport/source/f28003x_defaultisr.c",line 1386,column 1,is_stmt,address _I2CB_
    3053              
    3054                      .dwfde $C$DW$CIE, _I2CB_ISR
    3055              
    3056              ;***************************************************************
    3057              ;* FNAME: _I2CB_ISR                     FR SIZE:   4           *
    3058              ;*                                                             *
    3059              ;* FUNCTION ENVIRONMENT                                        *
    3060              ;*                                                             *
    3061              ;* FUNCTION PROPERTIES                                         *
    3062              ;*                            0 Parameter,  0 Auto,  4 SOE     *
    3063              ;***************************************************************
    3064              
    3065 00000000       _I2CB_ISR:
    3066                      .dwcfi  cfa_offset, -2
    3067                      .dwcfi  save_reg_to_mem, 26, 0
    3068 00000000 761B          ASP       ; [CPU_ALU] 
    3069 00000001 FFF0          PUSH      RB                    ; [CPU_FPU] 
    3070                      .dwcfi  save_reg_to_mem, 74, 4
    3071                      .dwcfi  cfa_offset, -4
    3072 00000002 E200          MOV32     *SP++,STF             ; [CPU_FPU] 
         00000003 00BD 
    3073                      .dwcfi  save_reg_to_mem, 40, 6
    3074                      .dwcfi  cfa_offset, -6
    3075 00000004 E630          SETFLG    RNDF32=1, RNDF64=1    ; [CPU_FPU] 
TMS320C2000 Assembler PC v22.6.1 Wed May 21 09:51:54 2025

Copyright (c) 1996-2018 Texas Instruments Incorporated
C:\Users\Daniel\AppData\Local\Temp\{513EF8AD-E23E-4989-8EC9-611DE01417F7} PAGE   59

         00000005 0600 
    3076 00000006 2942          CLRC      PAGE0,OVM             ; [CPU_ALU] 
    3077 00000007 5616          CLRC      AMODE                 ; [CPU_ALU] 
    3078 00000008 7625        ESTOP0
    3079 00000009       $C$L58:    
    3080                      .dwpsn  file "../DeviceSupport/source/f28003x_defaultisr.c",line 1402,column 5,is_stmt,isa 0
    3081 00000009 6F00          B         $C$L58,UNC            ; [CPU_ALU] |1402| 
    3082                      ; branch occurs ; [] |1402| 
    3083                      .dwattr $C$DW$58, DW_AT_TI_end_file("../DeviceSupport/source/f28003x_defaultisr.c")
    3084                      .dwattr $C$DW$58, DW_AT_TI_end_line(0x57b)
    3085                      .dwattr $C$DW$58, DW_AT_TI_end_column(0x01)
    3086                      .dwendentry
    3087                      .dwendtag $C$DW$58
    3088              
    3089 00000000               .sect   ".text:_I2CB_FIFO_ISR"
    3090                      .retain
    3091                      .retainrefs
    3092                      .global _I2CB_FIFO_ISR
    3093              
    3094              $C$DW$59        .dwtag  DW_TAG_subprogram
    3095                      .dwattr $C$DW$59, DW_AT_name("I2CB_FIFO_ISR")
    3096                      .dwattr $C$DW$59, DW_AT_low_pc(_I2CB_FIFO_ISR)
    3097                      .dwattr $C$DW$59, DW_AT_high_pc(0x00)
    3098                      .dwattr $C$DW$59, DW_AT_TI_symbol_name("_I2CB_FIFO_ISR")
    3099                      .dwattr $C$DW$59, DW_AT_external
    3100                      .dwattr $C$DW$59, DW_AT_TI_begin_file("../DeviceSupport/source/f28003x_defaultisr.c")
    3101                      .dwattr $C$DW$59, DW_AT_TI_begin_line(0x580)
    3102                      .dwattr $C$DW$59, DW_AT_TI_begin_column(0x10)
    3103                      .dwattr $C$DW$59, DW_AT_TI_interrupt
    3104                      .dwattr $C$DW$59, DW_AT_TI_max_frame_size(-6)
    3105                      .dwpsn  file "../DeviceSupport/source/f28003x_defaultisr.c",line 1409,column 1,is_stmt,address _I2CB_
    3106              
    3107                      .dwfde $C$DW$CIE, _I2CB_FIFO_ISR
    3108              
    3109              ;***************************************************************
    3110              ;* FNAME: _I2CB_FIFO_ISR                FR SIZE:   4           *
    3111              ;*                                                             *
    3112              ;* FUNCTION ENVIRONMENT                                        *
    3113              ;*                                                             *
    3114              ;* FUNCTION PROPERTIES                                         *
    3115              ;*                            0 Parameter,  0 Auto,  4 SOE     *
    3116              ;***************************************************************
    3117              
    3118 00000000       _I2CB_FIFO_ISR:
    3119                      .dwcfi  cfa_offset, -2
    3120                      .dwcfi  save_reg_to_mem, 26, 0
    3121 00000000 761B          ASP       ; [CPU_ALU] 
    3122 00000001 FFF0          PUSH      RB                    ; [CPU_FPU] 
    3123                      .dwcfi  save_reg_to_mem, 74, 4
    3124                      .dwcfi  cfa_offset, -4
    3125 00000002 E200          MOV32     *SP++,STF             ; [CPU_FPU] 
         00000003 00BD 
    3126                      .dwcfi  save_reg_to_mem, 40, 6
    3127                      .dwcfi  cfa_offset, -6
    3128 00000004 E630          SETFLG    RNDF32=1, RNDF64=1    ; [CPU_FPU] 
TMS320C2000 Assembler PC v22.6.1 Wed May 21 09:51:54 2025

Copyright (c) 1996-2018 Texas Instruments Incorporated
C:\Users\Daniel\AppData\Local\Temp\{513EF8AD-E23E-4989-8EC9-611DE01417F7} PAGE   60

         00000005 0600 
    3129 00000006 2942          CLRC      PAGE0,OVM             ; [CPU_ALU] 
    3130 00000007 5616          CLRC      AMODE                 ; [CPU_ALU] 
    3131 00000008 7625        ESTOP0
    3132 00000009       $C$L59:    
    3133                      .dwpsn  file "../DeviceSupport/source/f28003x_defaultisr.c",line 1425,column 5,is_stmt,isa 0
    3134 00000009 6F00          B         $C$L59,UNC            ; [CPU_ALU] |1425| 
    3135                      ; branch occurs ; [] |1425| 
    3136                      .dwattr $C$DW$59, DW_AT_TI_end_file("../DeviceSupport/source/f28003x_defaultisr.c")
    3137                      .dwattr $C$DW$59, DW_AT_TI_end_line(0x592)
    3138                      .dwattr $C$DW$59, DW_AT_TI_end_column(0x01)
    3139                      .dwendentry
    3140                      .dwendtag $C$DW$59
    3141              
    3142 00000000               .sect   ".text:_I2CA_ISR"
    3143                      .retain
    3144                      .retainrefs
    3145                      .global _I2CA_ISR
    3146              
    3147              $C$DW$60        .dwtag  DW_TAG_subprogram
    3148                      .dwattr $C$DW$60, DW_AT_name("I2CA_ISR")
    3149                      .dwattr $C$DW$60, DW_AT_low_pc(_I2CA_ISR)
    3150                      .dwattr $C$DW$60, DW_AT_high_pc(0x00)
    3151                      .dwattr $C$DW$60, DW_AT_TI_symbol_name("_I2CA_ISR")
    3152                      .dwattr $C$DW$60, DW_AT_external
    3153                      .dwattr $C$DW$60, DW_AT_TI_begin_file("../DeviceSupport/source/f28003x_defaultisr.c")
    3154                      .dwattr $C$DW$60, DW_AT_TI_begin_line(0x53b)
    3155                      .dwattr $C$DW$60, DW_AT_TI_begin_column(0x10)
    3156                      .dwattr $C$DW$60, DW_AT_TI_interrupt
    3157                      .dwattr $C$DW$60, DW_AT_TI_max_frame_size(-6)
    3158                      .dwpsn  file "../DeviceSupport/source/f28003x_defaultisr.c",line 1340,column 1,is_stmt,address _I2CA_
    3159              
    3160                      .dwfde $C$DW$CIE, _I2CA_ISR
    3161              
    3162              ;***************************************************************
    3163              ;* FNAME: _I2CA_ISR                     FR SIZE:   4           *
    3164              ;*                                                             *
    3165              ;* FUNCTION ENVIRONMENT                                        *
    3166              ;*                                                             *
    3167              ;* FUNCTION PROPERTIES                                         *
    3168              ;*                            0 Parameter,  0 Auto,  4 SOE     *
    3169              ;***************************************************************
    3170              
    3171 00000000       _I2CA_ISR:
    3172                      .dwcfi  cfa_offset, -2
    3173                      .dwcfi  save_reg_to_mem, 26, 0
    3174 00000000 761B          ASP       ; [CPU_ALU] 
    3175 00000001 FFF0          PUSH      RB                    ; [CPU_FPU] 
    3176                      .dwcfi  save_reg_to_mem, 74, 4
    3177                      .dwcfi  cfa_offset, -4
    3178 00000002 E200          MOV32     *SP++,STF             ; [CPU_FPU] 
         00000003 00BD 
    3179                      .dwcfi  save_reg_to_mem, 40, 6
    3180                      .dwcfi  cfa_offset, -6
    3181 00000004 E630          SETFLG    RNDF32=1, RNDF64=1    ; [CPU_FPU] 
TMS320C2000 Assembler PC v22.6.1 Wed May 21 09:51:54 2025

Copyright (c) 1996-2018 Texas Instruments Incorporated
C:\Users\Daniel\AppData\Local\Temp\{513EF8AD-E23E-4989-8EC9-611DE01417F7} PAGE   61

         00000005 0600 
    3182 00000006 2942          CLRC      PAGE0,OVM             ; [CPU_ALU] 
    3183 00000007 5616          CLRC      AMODE                 ; [CPU_ALU] 
    3184 00000008 7625        ESTOP0
    3185 00000009       $C$L60:    
    3186                      .dwpsn  file "../DeviceSupport/source/f28003x_defaultisr.c",line 1356,column 5,is_stmt,isa 0
    3187 00000009 6F00          B         $C$L60,UNC            ; [CPU_ALU] |1356| 
    3188                      ; branch occurs ; [] |1356| 
    3189                      .dwattr $C$DW$60, DW_AT_TI_end_file("../DeviceSupport/source/f28003x_defaultisr.c")
    3190                      .dwattr $C$DW$60, DW_AT_TI_end_line(0x54d)
    3191                      .dwattr $C$DW$60, DW_AT_TI_end_column(0x01)
    3192                      .dwendentry
    3193                      .dwendtag $C$DW$60
    3194              
    3195 00000000               .sect   ".text:_I2CA_FIFO_ISR"
    3196                      .retain
    3197                      .retainrefs
    3198                      .global _I2CA_FIFO_ISR
    3199              
    3200              $C$DW$61        .dwtag  DW_TAG_subprogram
    3201                      .dwattr $C$DW$61, DW_AT_name("I2CA_FIFO_ISR")
    3202                      .dwattr $C$DW$61, DW_AT_low_pc(_I2CA_FIFO_ISR)
    3203                      .dwattr $C$DW$61, DW_AT_high_pc(0x00)
    3204                      .dwattr $C$DW$61, DW_AT_TI_symbol_name("_I2CA_FIFO_ISR")
    3205                      .dwattr $C$DW$61, DW_AT_external
    3206                      .dwattr $C$DW$61, DW_AT_TI_begin_file("../DeviceSupport/source/f28003x_defaultisr.c")
    3207                      .dwattr $C$DW$61, DW_AT_TI_begin_line(0x552)
    3208                      .dwattr $C$DW$61, DW_AT_TI_begin_column(0x10)
    3209                      .dwattr $C$DW$61, DW_AT_TI_interrupt
    3210                      .dwattr $C$DW$61, DW_AT_TI_max_frame_size(-6)
    3211                      .dwpsn  file "../DeviceSupport/source/f28003x_defaultisr.c",line 1363,column 1,is_stmt,address _I2CA_
    3212              
    3213                      .dwfde $C$DW$CIE, _I2CA_FIFO_ISR
    3214              
    3215              ;***************************************************************
    3216              ;* FNAME: _I2CA_FIFO_ISR                FR SIZE:   4           *
    3217              ;*                                                             *
    3218              ;* FUNCTION ENVIRONMENT                                        *
    3219              ;*                                                             *
    3220              ;* FUNCTION PROPERTIES                                         *
    3221              ;*                            0 Parameter,  0 Auto,  4 SOE     *
    3222              ;***************************************************************
    3223              
    3224 00000000       _I2CA_FIFO_ISR:
    3225                      .dwcfi  cfa_offset, -2
    3226                      .dwcfi  save_reg_to_mem, 26, 0
    3227 00000000 761B          ASP       ; [CPU_ALU] 
    3228 00000001 FFF0          PUSH      RB                    ; [CPU_FPU] 
    3229                      .dwcfi  save_reg_to_mem, 74, 4
    3230                      .dwcfi  cfa_offset, -4
    3231 00000002 E200          MOV32     *SP++,STF             ; [CPU_FPU] 
         00000003 00BD 
    3232                      .dwcfi  save_reg_to_mem, 40, 6
    3233                      .dwcfi  cfa_offset, -6
    3234 00000004 E630          SETFLG    RNDF32=1, RNDF64=1    ; [CPU_FPU] 
TMS320C2000 Assembler PC v22.6.1 Wed May 21 09:51:54 2025

Copyright (c) 1996-2018 Texas Instruments Incorporated
C:\Users\Daniel\AppData\Local\Temp\{513EF8AD-E23E-4989-8EC9-611DE01417F7} PAGE   62

         00000005 0600 
    3235 00000006 2942          CLRC      PAGE0,OVM             ; [CPU_ALU] 
    3236 00000007 5616          CLRC      AMODE                 ; [CPU_ALU] 
    3237 00000008 7625        ESTOP0
    3238 00000009       $C$L61:    
    3239                      .dwpsn  file "../DeviceSupport/source/f28003x_defaultisr.c",line 1379,column 5,is_stmt,isa 0
    3240 00000009 6F00          B         $C$L61,UNC            ; [CPU_ALU] |1379| 
    3241                      ; branch occurs ; [] |1379| 
    3242                      .dwattr $C$DW$61, DW_AT_TI_end_file("../DeviceSupport/source/f28003x_defaultisr.c")
    3243                      .dwattr $C$DW$61, DW_AT_TI_end_line(0x564)
    3244                      .dwattr $C$DW$61, DW_AT_TI_end_column(0x01)
    3245                      .dwendentry
    3246                      .dwendtag $C$DW$61
    3247              
    3248 00000000               .sect   ".text:_HICA_ISR"
    3249                      .retain
    3250                      .retainrefs
    3251                      .global _HICA_ISR
    3252              
    3253              $C$DW$62        .dwtag  DW_TAG_subprogram
    3254                      .dwattr $C$DW$62, DW_AT_name("HICA_ISR")
    3255                      .dwattr $C$DW$62, DW_AT_low_pc(_HICA_ISR)
    3256                      .dwattr $C$DW$62, DW_AT_high_pc(0x00)
    3257                      .dwattr $C$DW$62, DW_AT_TI_symbol_name("_HICA_ISR")
    3258                      .dwattr $C$DW$62, DW_AT_external
    3259                      .dwattr $C$DW$62, DW_AT_TI_begin_file("../DeviceSupport/source/f28003x_defaultisr.c")
    3260                      .dwattr $C$DW$62, DW_AT_TI_begin_line(0xab6)
    3261                      .dwattr $C$DW$62, DW_AT_TI_begin_column(0x10)
    3262                      .dwattr $C$DW$62, DW_AT_TI_interrupt
    3263                      .dwattr $C$DW$62, DW_AT_TI_max_frame_size(-6)
    3264                      .dwpsn  file "../DeviceSupport/source/f28003x_defaultisr.c",line 2743,column 1,is_stmt,address _HICA_
    3265              
    3266                      .dwfde $C$DW$CIE, _HICA_ISR
    3267              
    3268              ;***************************************************************
    3269              ;* FNAME: _HICA_ISR                     FR SIZE:   4           *
    3270              ;*                                                             *
    3271              ;* FUNCTION ENVIRONMENT                                        *
    3272              ;*                                                             *
    3273              ;* FUNCTION PROPERTIES                                         *
    3274              ;*                            0 Parameter,  0 Auto,  4 SOE     *
    3275              ;***************************************************************
    3276              
    3277 00000000       _HICA_ISR:
    3278                      .dwcfi  cfa_offset, -2
    3279                      .dwcfi  save_reg_to_mem, 26, 0
    3280 00000000 761B          ASP       ; [CPU_ALU] 
    3281 00000001 FFF0          PUSH      RB                    ; [CPU_FPU] 
    3282                      .dwcfi  save_reg_to_mem, 74, 4
    3283                      .dwcfi  cfa_offset, -4
    3284 00000002 E200          MOV32     *SP++,STF             ; [CPU_FPU] 
         00000003 00BD 
    3285                      .dwcfi  save_reg_to_mem, 40, 6
    3286                      .dwcfi  cfa_offset, -6
    3287 00000004 E630          SETFLG    RNDF32=1, RNDF64=1    ; [CPU_FPU] 
TMS320C2000 Assembler PC v22.6.1 Wed May 21 09:51:54 2025

Copyright (c) 1996-2018 Texas Instruments Incorporated
C:\Users\Daniel\AppData\Local\Temp\{513EF8AD-E23E-4989-8EC9-611DE01417F7} PAGE   63

         00000005 0600 
    3288 00000006 2942          CLRC      PAGE0,OVM             ; [CPU_ALU] 
    3289 00000007 5616          CLRC      AMODE                 ; [CPU_ALU] 
    3290 00000008 7625        ESTOP0
    3291 00000009       $C$L62:    
    3292                      .dwpsn  file "../DeviceSupport/source/f28003x_defaultisr.c",line 2759,column 5,is_stmt,isa 0
    3293 00000009 6F00          B         $C$L62,UNC            ; [CPU_ALU] |2759| 
    3294                      ; branch occurs ; [] |2759| 
    3295                      .dwattr $C$DW$62, DW_AT_TI_end_file("../DeviceSupport/source/f28003x_defaultisr.c")
    3296                      .dwattr $C$DW$62, DW_AT_TI_end_line(0xac8)
    3297                      .dwattr $C$DW$62, DW_AT_TI_end_column(0x01)
    3298                      .dwendentry
    3299                      .dwendtag $C$DW$62
    3300              
    3301 00000000               .sect   ".text:_FSITXA2_ISR"
    3302                      .retain
    3303                      .retainrefs
    3304                      .global _FSITXA2_ISR
    3305              
    3306              $C$DW$63        .dwtag  DW_TAG_subprogram
    3307                      .dwattr $C$DW$63, DW_AT_name("FSITXA2_ISR")
    3308                      .dwattr $C$DW$63, DW_AT_low_pc(_FSITXA2_ISR)
    3309                      .dwattr $C$DW$63, DW_AT_high_pc(0x00)
    3310                      .dwattr $C$DW$63, DW_AT_TI_symbol_name("_FSITXA2_ISR")
    3311                      .dwattr $C$DW$63, DW_AT_external
    3312                      .dwattr $C$DW$63, DW_AT_TI_begin_file("../DeviceSupport/source/f28003x_defaultisr.c")
    3313                      .dwattr $C$DW$63, DW_AT_TI_begin_line(0x95d)
    3314                      .dwattr $C$DW$63, DW_AT_TI_begin_column(0x10)
    3315                      .dwattr $C$DW$63, DW_AT_TI_interrupt
    3316                      .dwattr $C$DW$63, DW_AT_TI_max_frame_size(-6)
    3317                      .dwpsn  file "../DeviceSupport/source/f28003x_defaultisr.c",line 2398,column 1,is_stmt,address _FSITX
    3318              
    3319                      .dwfde $C$DW$CIE, _FSITXA2_ISR
    3320              
    3321              ;***************************************************************
    3322              ;* FNAME: _FSITXA2_ISR                  FR SIZE:   4           *
    3323              ;*                                                             *
    3324              ;* FUNCTION ENVIRONMENT                                        *
    3325              ;*                                                             *
    3326              ;* FUNCTION PROPERTIES                                         *
    3327              ;*                            0 Parameter,  0 Auto,  4 SOE     *
    3328              ;***************************************************************
    3329              
    3330 00000000       _FSITXA2_ISR:
    3331                      .dwcfi  cfa_offset, -2
    3332                      .dwcfi  save_reg_to_mem, 26, 0
    3333 00000000 761B          ASP       ; [CPU_ALU] 
    3334 00000001 FFF0          PUSH      RB                    ; [CPU_FPU] 
    3335                      .dwcfi  save_reg_to_mem, 74, 4
    3336                      .dwcfi  cfa_offset, -4
    3337 00000002 E200          MOV32     *SP++,STF             ; [CPU_FPU] 
         00000003 00BD 
    3338                      .dwcfi  save_reg_to_mem, 40, 6
    3339                      .dwcfi  cfa_offset, -6
    3340 00000004 E630          SETFLG    RNDF32=1, RNDF64=1    ; [CPU_FPU] 
TMS320C2000 Assembler PC v22.6.1 Wed May 21 09:51:54 2025

Copyright (c) 1996-2018 Texas Instruments Incorporated
C:\Users\Daniel\AppData\Local\Temp\{513EF8AD-E23E-4989-8EC9-611DE01417F7} PAGE   64

         00000005 0600 
    3341 00000006 2942          CLRC      PAGE0,OVM             ; [CPU_ALU] 
    3342 00000007 5616          CLRC      AMODE                 ; [CPU_ALU] 
    3343 00000008 7625        ESTOP0
    3344 00000009       $C$L63:    
    3345                      .dwpsn  file "../DeviceSupport/source/f28003x_defaultisr.c",line 2414,column 5,is_stmt,isa 0
    3346 00000009 6F00          B         $C$L63,UNC            ; [CPU_ALU] |2414| 
    3347                      ; branch occurs ; [] |2414| 
    3348                      .dwattr $C$DW$63, DW_AT_TI_end_file("../DeviceSupport/source/f28003x_defaultisr.c")
    3349                      .dwattr $C$DW$63, DW_AT_TI_end_line(0x96f)
    3350                      .dwattr $C$DW$63, DW_AT_TI_end_column(0x01)
    3351                      .dwendentry
    3352                      .dwendtag $C$DW$63
    3353              
    3354 00000000               .sect   ".text:_FSITXA1_ISR"
    3355                      .retain
    3356                      .retainrefs
    3357                      .global _FSITXA1_ISR
    3358              
    3359              $C$DW$64        .dwtag  DW_TAG_subprogram
    3360                      .dwattr $C$DW$64, DW_AT_name("FSITXA1_ISR")
    3361                      .dwattr $C$DW$64, DW_AT_low_pc(_FSITXA1_ISR)
    3362                      .dwattr $C$DW$64, DW_AT_high_pc(0x00)
    3363                      .dwattr $C$DW$64, DW_AT_TI_symbol_name("_FSITXA1_ISR")
    3364                      .dwattr $C$DW$64, DW_AT_external
    3365                      .dwattr $C$DW$64, DW_AT_TI_begin_file("../DeviceSupport/source/f28003x_defaultisr.c")
    3366                      .dwattr $C$DW$64, DW_AT_TI_begin_line(0x946)
    3367                      .dwattr $C$DW$64, DW_AT_TI_begin_column(0x10)
    3368                      .dwattr $C$DW$64, DW_AT_TI_interrupt
    3369                      .dwattr $C$DW$64, DW_AT_TI_max_frame_size(-6)
    3370                      .dwpsn  file "../DeviceSupport/source/f28003x_defaultisr.c",line 2375,column 1,is_stmt,address _FSITX
    3371              
    3372                      .dwfde $C$DW$CIE, _FSITXA1_ISR
    3373              
    3374              ;***************************************************************
    3375              ;* FNAME: _FSITXA1_ISR                  FR SIZE:   4           *
    3376              ;*                                                             *
    3377              ;* FUNCTION ENVIRONMENT                                        *
    3378              ;*                                                             *
    3379              ;* FUNCTION PROPERTIES                                         *
    3380              ;*                            0 Parameter,  0 Auto,  4 SOE     *
    3381              ;***************************************************************
    3382              
    3383 00000000       _FSITXA1_ISR:
    3384                      .dwcfi  cfa_offset, -2
    3385                      .dwcfi  save_reg_to_mem, 26, 0
    3386 00000000 761B          ASP       ; [CPU_ALU] 
    3387 00000001 FFF0          PUSH      RB                    ; [CPU_FPU] 
    3388                      .dwcfi  save_reg_to_mem, 74, 4
    3389                      .dwcfi  cfa_offset, -4
    3390 00000002 E200          MOV32     *SP++,STF             ; [CPU_FPU] 
         00000003 00BD 
    3391                      .dwcfi  save_reg_to_mem, 40, 6
    3392                      .dwcfi  cfa_offset, -6
    3393 00000004 E630          SETFLG    RNDF32=1, RNDF64=1    ; [CPU_FPU] 
TMS320C2000 Assembler PC v22.6.1 Wed May 21 09:51:54 2025

Copyright (c) 1996-2018 Texas Instruments Incorporated
C:\Users\Daniel\AppData\Local\Temp\{513EF8AD-E23E-4989-8EC9-611DE01417F7} PAGE   65

         00000005 0600 
    3394 00000006 2942          CLRC      PAGE0,OVM             ; [CPU_ALU] 
    3395 00000007 5616          CLRC      AMODE                 ; [CPU_ALU] 
    3396 00000008 7625        ESTOP0
    3397 00000009       $C$L64:    
    3398                      .dwpsn  file "../DeviceSupport/source/f28003x_defaultisr.c",line 2391,column 5,is_stmt,isa 0
    3399 00000009 6F00          B         $C$L64,UNC            ; [CPU_ALU] |2391| 
    3400                      ; branch occurs ; [] |2391| 
    3401                      .dwattr $C$DW$64, DW_AT_TI_end_file("../DeviceSupport/source/f28003x_defaultisr.c")
    3402                      .dwattr $C$DW$64, DW_AT_TI_end_line(0x958)
    3403                      .dwattr $C$DW$64, DW_AT_TI_end_column(0x01)
    3404                      .dwendentry
    3405                      .dwendtag $C$DW$64
    3406              
    3407 00000000               .sect   ".text:_FSIRXA2_ISR"
    3408                      .retain
    3409                      .retainrefs
    3410                      .global _FSIRXA2_ISR
    3411              
    3412              $C$DW$65        .dwtag  DW_TAG_subprogram
    3413                      .dwattr $C$DW$65, DW_AT_name("FSIRXA2_ISR")
    3414                      .dwattr $C$DW$65, DW_AT_low_pc(_FSIRXA2_ISR)
    3415                      .dwattr $C$DW$65, DW_AT_high_pc(0x00)
    3416                      .dwattr $C$DW$65, DW_AT_TI_symbol_name("_FSIRXA2_ISR")
    3417                      .dwattr $C$DW$65, DW_AT_external
    3418                      .dwattr $C$DW$65, DW_AT_TI_begin_file("../DeviceSupport/source/f28003x_defaultisr.c")
    3419                      .dwattr $C$DW$65, DW_AT_TI_begin_line(0x98b)
    3420                      .dwattr $C$DW$65, DW_AT_TI_begin_column(0x10)
    3421                      .dwattr $C$DW$65, DW_AT_TI_interrupt
    3422                      .dwattr $C$DW$65, DW_AT_TI_max_frame_size(-6)
    3423                      .dwpsn  file "../DeviceSupport/source/f28003x_defaultisr.c",line 2444,column 1,is_stmt,address _FSIRX
    3424              
    3425                      .dwfde $C$DW$CIE, _FSIRXA2_ISR
    3426              
    3427              ;***************************************************************
    3428              ;* FNAME: _FSIRXA2_ISR                  FR SIZE:   4           *
    3429              ;*                                                             *
    3430              ;* FUNCTION ENVIRONMENT                                        *
    3431              ;*                                                             *
    3432              ;* FUNCTION PROPERTIES                                         *
    3433              ;*                            0 Parameter,  0 Auto,  4 SOE     *
    3434              ;***************************************************************
    3435              
    3436 00000000       _FSIRXA2_ISR:
    3437                      .dwcfi  cfa_offset, -2
    3438                      .dwcfi  save_reg_to_mem, 26, 0
    3439 00000000 761B          ASP       ; [CPU_ALU] 
    3440 00000001 FFF0          PUSH      RB                    ; [CPU_FPU] 
