TMS320C2000 Assembler PC v22.6.1 Wed May 21 09:51:55 2025

Copyright (c) 1996-2018 Texas Instruments Incorporated
C:\Users\Daniel\AppData\Local\Temp\{11E65CAE-3485-48B7-8496-5C6CE456308C} PAGE    1

       1              ;***************************************************************
       2              ;* TMS320C2000 G3 C/C++ Codegen                               PC v22.6.1.LTS *
       3              ;* Date/Time created: Wed May 21 09:51:55 2025                 *
       4              ;***************************************************************
       5                      .compiler_opts --abi=coffabi --cla_support=cla2 --diag_wrap=off --float_support=fpu32 --hll_source=on
       6                      .asg    XAR2, FP
       7              
       8              $C$DW$CU        .dwtag  DW_TAG_compile_unit
       9                      .dwattr $C$DW$CU, DW_AT_name("../device/driverlib/aes.c")
      10                      .dwattr $C$DW$CU, DW_AT_producer("TI TMS320C2000 G3 C/C++ Codegen PC v22.6.1.LTS Copyright (c) 1996-2
      11                      .dwattr $C$DW$CU, DW_AT_TI_version(0x01)
      12                      .dwattr $C$DW$CU, DW_AT_comp_dir("C:\Users\Daniel\CodeComposer\UPS_MUCI\CPU1_FLASH")
      13              
      14              $C$DW$1 .dwtag  DW_TAG_subprogram
      15                      .dwattr $C$DW$1, DW_AT_name("__error__")
      16                      .dwattr $C$DW$1, DW_AT_TI_symbol_name("___error__")
      17                      .dwattr $C$DW$1, DW_AT_declaration
      18                      .dwattr $C$DW$1, DW_AT_external
      19              $C$DW$2 .dwtag  DW_TAG_formal_parameter
      20                      .dwattr $C$DW$2, DW_AT_type(*$C$DW$T$44)
      21              
      22              $C$DW$3 .dwtag  DW_TAG_formal_parameter
      23                      .dwattr $C$DW$3, DW_AT_type(*$C$DW$T$46)
      24              
      25                      .dwendtag $C$DW$1
      26              
      27              ;       D:\Programs\TI\ccs1281\ccs\tools\compiler\ti-cgt-c2000_22.6.1.LTS\bin\opt2000.exe C:\\Users\\Daniel\\
      28              ;       D:\Programs\TI\ccs1281\ccs\tools\compiler\ti-cgt-c2000_22.6.1.LTS\bin\ac2000.exe -@C:\\Users\\Daniel\
      29 00000000               .sect   ".text:_AES_writeDataNonBlocking"
      30                      .clink
      31                      .global _AES_writeDataNonBlocking
      32              
      33              $C$DW$4 .dwtag  DW_TAG_subprogram
      34                      .dwattr $C$DW$4, DW_AT_name("AES_writeDataNonBlocking")
      35                      .dwattr $C$DW$4, DW_AT_low_pc(_AES_writeDataNonBlocking)
      36                      .dwattr $C$DW$4, DW_AT_high_pc(0x00)
      37                      .dwattr $C$DW$4, DW_AT_TI_symbol_name("_AES_writeDataNonBlocking")
      38                      .dwattr $C$DW$4, DW_AT_external
      39                      .dwattr $C$DW$4, DW_AT_type(*$C$DW$T$76)
      40                      .dwattr $C$DW$4, DW_AT_TI_begin_file("../device/driverlib/aes.c")
      41                      .dwattr $C$DW$4, DW_AT_TI_begin_line(0x144)
      42                      .dwattr $C$DW$4, DW_AT_TI_begin_column(0x01)
      43                      .dwattr $C$DW$4, DW_AT_TI_max_frame_size(-6)
      44                      .dwpsn  file "../device/driverlib/aes.c",line 325,column 1,is_stmt,address _AES_writeDataNonBlocking,
      45              
      46                      .dwfde $C$DW$CIE, _AES_writeDataNonBlocking
      47              $C$DW$5 .dwtag  DW_TAG_formal_parameter
      48                      .dwattr $C$DW$5, DW_AT_name("base")
      49                      .dwattr $C$DW$5, DW_AT_TI_symbol_name("_base")
      50                      .dwattr $C$DW$5, DW_AT_type(*$C$DW$T$46)
      51                      .dwattr $C$DW$5, DW_AT_location[DW_OP_reg0]
      52              
      53              $C$DW$6 .dwtag  DW_TAG_formal_parameter
      54                      .dwattr $C$DW$6, DW_AT_name("srcArray")
      55                      .dwattr $C$DW$6, DW_AT_TI_symbol_name("_srcArray")
TMS320C2000 Assembler PC v22.6.1 Wed May 21 09:51:55 2025

Copyright (c) 1996-2018 Texas Instruments Incorporated
C:\Users\Daniel\AppData\Local\Temp\{11E65CAE-3485-48B7-8496-5C6CE456308C} PAGE    2

      56                      .dwattr $C$DW$6, DW_AT_type(*$C$DW$T$55)
      57                      .dwattr $C$DW$6, DW_AT_location[DW_OP_reg12]
      58              
      59              
      60              ;***************************************************************
      61              ;* FNAME: _AES_writeDataNonBlocking     FR SIZE:   4           *
      62              ;*                                                             *
      63              ;* FUNCTION ENVIRONMENT                                        *
      64              ;*                                                             *
      65              ;* FUNCTION PROPERTIES                                         *
      66              ;*                            0 Parameter,  0 Auto,  4 SOE     *
      67              ;***************************************************************
      68              
      69              _AES_writeDataNonBlocking:
      70              ;* AR1   assigned to _base
      71              $C$DW$7 .dwtag  DW_TAG_variable
      72                      .dwattr $C$DW$7, DW_AT_name("base")
      73                      .dwattr $C$DW$7, DW_AT_TI_symbol_name("_base")
      74                      .dwattr $C$DW$7, DW_AT_type(*$C$DW$T$54)
      75                      .dwattr $C$DW$7, DW_AT_location[DW_OP_reg6]
      76              
      77              ;* AR2   assigned to _srcArray
      78              $C$DW$8 .dwtag  DW_TAG_variable
      79                      .dwattr $C$DW$8, DW_AT_name("srcArray")
      80                      .dwattr $C$DW$8, DW_AT_TI_symbol_name("_srcArray")
      81                      .dwattr $C$DW$8, DW_AT_type(*$C$DW$T$83)
      82                      .dwattr $C$DW$8, DW_AT_location[DW_OP_reg8]
      83              
      84              ;* AL    assigned to _temp
      85              $C$DW$9 .dwtag  DW_TAG_variable
      86                      .dwattr $C$DW$9, DW_AT_name("temp")
      87                      .dwattr $C$DW$9, DW_AT_TI_symbol_name("_temp")
      88                      .dwattr $C$DW$9, DW_AT_type(*$C$DW$T$76)
      89                      .dwattr $C$DW$9, DW_AT_location[DW_OP_reg0]
      90              
      91                      .dwcfi  cfa_offset, -2
      92                      .dwcfi  save_reg_to_mem, 26, 0
      93 00000000 B2BD          MOVL      *SP++,XAR1            ; [CPU_ALU] 
      94                      .dwcfi  save_reg_to_mem, 7, 2
      95                      .dwcfi  cfa_offset, -4
      96 00000001 8BA9          MOVL      XAR1,ACC              ; [CPU_ALU] |325| 
      97 00000002 AABD          MOVL      *SP++,XAR2            ; [CPU_ALU] 
      98                      .dwcfi  save_reg_to_mem, 9, 4
      99                      .dwcfi  cfa_offset, -6
     100 00000003 86A4          MOVL      XAR2,XAR4             ; [CPU_ALU] |325| 
     101                      .dwpsn  file "../device/driverlib/aes.c",line 331,column 5,is_stmt,isa 0
     102 00000004 8F04          MOVL      XAR4,#270336          ; [CPU_ARAU] |331| 
         00000005 2000 
     103 00000006 A8A9          MOVL      ACC,XAR4              ; [CPU_ALU] |331| 
     104 00000007 0FA1          CMPL      ACC,XAR1              ; [CPU_ALU] |331| 
     105 00000008 6107          B         $C$L1,EQ              ; [CPU_ALU] |331| 
     106                      ; branchcc occurs ; [] |331| 
     107 00000009 FF20          MOV       ACC,#331              ; [CPU_ALU] |331| 
         0000000a 014B 
     108 0000000b 8F00+         MOVL      XAR4,#$C$FSL1         ; [CPU_ARAU] |331| 
TMS320C2000 Assembler PC v22.6.1 Wed May 21 09:51:55 2025

Copyright (c) 1996-2018 Texas Instruments Incorporated
C:\Users\Daniel\AppData\Local\Temp\{11E65CAE-3485-48B7-8496-5C6CE456308C} PAGE    3

         0000000c 0000 
     109              $C$DW$10        .dwtag  DW_TAG_TI_branch
     110                      .dwattr $C$DW$10, DW_AT_low_pc(0x00)
     111                      .dwattr $C$DW$10, DW_AT_name("___error__")
     112                      .dwattr $C$DW$10, DW_AT_TI_call
     113              
     114 0000000d 7640!         LCR       #___error__           ; [CPU_ALU] |331| 
         0000000e 0000 
     115                      ; call occurs [#___error__] ; [] |331| 
     116 0000000f       $C$L1:    
     117                      .dwpsn  file "../device/driverlib/aes.c",line 336,column 5,is_stmt,isa 0
     118 0000000f 8AA1          MOVL      XAR4,XAR1             ; [CPU_ALU] |336| 
     119 00000010 DC28          ADDB      XAR4,#40              ; [CPU_ALU] |336| 
     120 00000011 06C4          MOVL      ACC,*+XAR4[0]         ; [CPU_ALU] |336| 
     121 00000012 41A9          TBIT      AL,#1                 ; [CPU_ALU] |336| 
     122                      .dwpsn  file "../device/driverlib/aes.c",line 339,column 9,is_stmt,isa 0
     123 00000013 56BC          MOVB      AL,#0,NTC             ; [CPU_ALU] |339| 
         00000014 00A9 
     124 00000015 6C11          B         $C$L2,NTC             ; [CPU_ALU] 
     125                      ; branchcc occurs ; [] 
     126                      .dwpsn  file "../device/driverlib/aes.c",line 346,column 9,is_stmt,isa 0
     127 00000016 8AA1          MOVL      XAR4,XAR1             ; [CPU_ALU] |346| 
     128 00000017 06C2          MOVL      ACC,*+XAR2[0]         ; [CPU_ALU] |346| 
     129                      .dwpsn  file "../device/driverlib/aes.c",line 347,column 9,is_stmt,isa 0
     130 00000018 83A1          MOVL      XAR5,XAR1             ; [CPU_ALU] |347| 
     131                      .dwpsn  file "../device/driverlib/aes.c",line 346,column 9,is_stmt,isa 0
     132 00000019 DC36          ADDB      XAR4,#54              ; [CPU_ALU] |346| 
     133 0000001a 1EC4          MOVL      *+XAR4[0],ACC         ; [CPU_ALU] |346| 
     134                      .dwpsn  file "../device/driverlib/aes.c",line 348,column 9,is_stmt,isa 0
     135 0000001b 8AA1          MOVL      XAR4,XAR1             ; [CPU_ALU] |348| 
     136                      .dwpsn  file "../device/driverlib/aes.c",line 347,column 9,is_stmt,isa 0
     137 0000001c DD34          ADDB      XAR5,#52              ; [CPU_ALU] |347| 
     138 0000001d 06D2          MOVL      ACC,*+XAR2[2]         ; [CPU_FPU] |347| 
     139 0000001e 1EC5          MOVL      *+XAR5[0],ACC         ; [CPU_ALU] |347| 
     140                      .dwpsn  file "../device/driverlib/aes.c",line 348,column 9,is_stmt,isa 0
     141 0000001f DC32          ADDB      XAR4,#50              ; [CPU_ALU] |348| 
     142 00000020 06E2          MOVL      ACC,*+XAR2[4]         ; [CPU_FPU] |348| 
     143 00000021 1EC4          MOVL      *+XAR4[0],ACC         ; [CPU_ALU] |348| 
     144                      .dwpsn  file "../device/driverlib/aes.c",line 349,column 9,is_stmt,isa 0
     145 00000022 C4F2          MOVL      XAR6,*+XAR2[6]        ; [CPU_ALU] |349| 
     146                      .dwpsn  file "../device/driverlib/aes.c",line 354,column 9,is_stmt,isa 0
     147 00000023 9A01          MOVB      AL,#1                 ; [CPU_ALU] |354| 
     148                      .dwpsn  file "../device/driverlib/aes.c",line 349,column 9,is_stmt,isa 0
     149 00000024 D930          ADDB      XAR1,#48              ; [CPU_ALU] |349| 
     150 00000025 C2C1          MOVL      *+XAR1[0],XAR6        ; [CPU_ALU] |349| 
     151 00000026       $C$L2:    
     152 00000026 86BE          MOVL      XAR2,*--SP            ; [CPU_ALU] 
     153                      .dwcfi  cfa_offset, -4
     154                      .dwcfi  restore_reg, 9
     155 00000027 8BBE          MOVL      XAR1,*--SP            ; [CPU_ALU] 
     156                      .dwcfi  cfa_offset, -2
     157                      .dwcfi  restore_reg, 7
     158              $C$DW$11        .dwtag  DW_TAG_TI_branch
     159                      .dwattr $C$DW$11, DW_AT_low_pc(0x00)
     160                      .dwattr $C$DW$11, DW_AT_TI_return
TMS320C2000 Assembler PC v22.6.1 Wed May 21 09:51:55 2025

Copyright (c) 1996-2018 Texas Instruments Incorporated
C:\Users\Daniel\AppData\Local\Temp\{11E65CAE-3485-48B7-8496-5C6CE456308C} PAGE    4

     161              
     162 00000028 0006          LRETR     ; [CPU_ALU] 
     163                      ; return occurs ; [] 
     164                      .dwattr $C$DW$4, DW_AT_TI_end_file("../device/driverlib/aes.c")
     165                      .dwattr $C$DW$4, DW_AT_TI_end_line(0x165)
     166                      .dwattr $C$DW$4, DW_AT_TI_end_column(0x01)
     167                      .dwendentry
     168                      .dwendtag $C$DW$4
     169              
     170 00000000               .sect   ".text:_AES_writeDataBlocking"
     171                      .clink
     172                      .global _AES_writeDataBlocking
     173              
     174              $C$DW$12        .dwtag  DW_TAG_subprogram
     175                      .dwattr $C$DW$12, DW_AT_name("AES_writeDataBlocking")
     176                      .dwattr $C$DW$12, DW_AT_low_pc(_AES_writeDataBlocking)
     177                      .dwattr $C$DW$12, DW_AT_high_pc(0x00)
     178                      .dwattr $C$DW$12, DW_AT_TI_symbol_name("_AES_writeDataBlocking")
     179                      .dwattr $C$DW$12, DW_AT_external
     180                      .dwattr $C$DW$12, DW_AT_TI_begin_file("../device/driverlib/aes.c")
     181                      .dwattr $C$DW$12, DW_AT_TI_begin_line(0x16d)
     182                      .dwattr $C$DW$12, DW_AT_TI_begin_column(0x01)
     183                      .dwattr $C$DW$12, DW_AT_TI_max_frame_size(-6)
     184                      .dwpsn  file "../device/driverlib/aes.c",line 366,column 1,is_stmt,address _AES_writeDataBlocking,isa
     185              
     186                      .dwfde $C$DW$CIE, _AES_writeDataBlocking
     187              $C$DW$13        .dwtag  DW_TAG_formal_parameter
     188                      .dwattr $C$DW$13, DW_AT_name("base")
     189                      .dwattr $C$DW$13, DW_AT_TI_symbol_name("_base")
     190                      .dwattr $C$DW$13, DW_AT_type(*$C$DW$T$46)
     191                      .dwattr $C$DW$13, DW_AT_location[DW_OP_reg0]
     192              
     193              $C$DW$14        .dwtag  DW_TAG_formal_parameter
     194                      .dwattr $C$DW$14, DW_AT_name("srcArray")
     195                      .dwattr $C$DW$14, DW_AT_TI_symbol_name("_srcArray")
     196                      .dwattr $C$DW$14, DW_AT_type(*$C$DW$T$55)
     197                      .dwattr $C$DW$14, DW_AT_location[DW_OP_reg12]
     198              
     199              
     200              ;***************************************************************
     201              ;* FNAME: _AES_writeDataBlocking        FR SIZE:   4           *
     202              ;*                                                             *
     203              ;* FUNCTION ENVIRONMENT                                        *
     204              ;*                                                             *
     205              ;* FUNCTION PROPERTIES                                         *
     206              ;*                            0 Parameter,  0 Auto,  4 SOE     *
     207              ;***************************************************************
     208              
     209              _AES_writeDataBlocking:
     210              ;* AR4   assigned to $O$K10
     211              ;* AR1   assigned to _base
     212              $C$DW$15        .dwtag  DW_TAG_variable
     213                      .dwattr $C$DW$15, DW_AT_name("base")
     214                      .dwattr $C$DW$15, DW_AT_TI_symbol_name("_base")
     215                      .dwattr $C$DW$15, DW_AT_type(*$C$DW$T$54)
TMS320C2000 Assembler PC v22.6.1 Wed May 21 09:51:55 2025

Copyright (c) 1996-2018 Texas Instruments Incorporated
C:\Users\Daniel\AppData\Local\Temp\{11E65CAE-3485-48B7-8496-5C6CE456308C} PAGE    5

     216                      .dwattr $C$DW$15, DW_AT_location[DW_OP_reg6]
     217              
     218              ;* AR2   assigned to _srcArray
     219              $C$DW$16        .dwtag  DW_TAG_variable
     220                      .dwattr $C$DW$16, DW_AT_name("srcArray")
     221                      .dwattr $C$DW$16, DW_AT_TI_symbol_name("_srcArray")
     222                      .dwattr $C$DW$16, DW_AT_type(*$C$DW$T$83)
     223                      .dwattr $C$DW$16, DW_AT_location[DW_OP_reg8]
     224              
     225                      .dwcfi  cfa_offset, -2
     226                      .dwcfi  save_reg_to_mem, 26, 0
     227 00000000 B2BD          MOVL      *SP++,XAR1            ; [CPU_ALU] 
     228                      .dwcfi  save_reg_to_mem, 7, 2
     229                      .dwcfi  cfa_offset, -4
     230 00000001 8BA9          MOVL      XAR1,ACC              ; [CPU_ALU] |366| 
     231 00000002 AABD          MOVL      *SP++,XAR2            ; [CPU_ALU] 
     232                      .dwcfi  save_reg_to_mem, 9, 4
     233                      .dwcfi  cfa_offset, -6
     234 00000003 86A4          MOVL      XAR2,XAR4             ; [CPU_ALU] |366| 
     235                      .dwpsn  file "../device/driverlib/aes.c",line 370,column 5,is_stmt,isa 0
     236 00000004 8F04          MOVL      XAR4,#270336          ; [CPU_ARAU] |370| 
         00000005 2000 
     237 00000006 A8A9          MOVL      ACC,XAR4              ; [CPU_ALU] |370| 
     238 00000007 0FA1          CMPL      ACC,XAR1              ; [CPU_ALU] |370| 
     239 00000008 6107          B         $C$L3,EQ              ; [CPU_ALU] |370| 
     240                      ; branchcc occurs ; [] |370| 
     241 00000009 FF20          MOV       ACC,#370              ; [CPU_ALU] |370| 
         0000000a 0172 
     242 0000000b 8F00+         MOVL      XAR4,#$C$FSL1         ; [CPU_ARAU] |370| 
         0000000c 0000 
     243              $C$DW$17        .dwtag  DW_TAG_TI_branch
     244                      .dwattr $C$DW$17, DW_AT_low_pc(0x00)
     245                      .dwattr $C$DW$17, DW_AT_name("___error__")
     246                      .dwattr $C$DW$17, DW_AT_TI_call
     247              
     248 0000000d 7640!         LCR       #___error__           ; [CPU_ALU] |370| 
         0000000e 0000 
     249                      ; call occurs [#___error__] ; [] |370| 
     250 0000000f       $C$L3:    
     251 0000000f 8AA1          MOVL      XAR4,XAR1             ; [CPU_ALU] 
     252 00000010 DC28          ADDB      XAR4,#40              ; [CPU_ALU] 
     253 00000011       $C$L4:    
     254                      .dwpsn  file "../device/driverlib/aes.c",line 375,column 11,is_stmt,isa 0
     255 00000011 06C4          MOVL      ACC,*+XAR4[0]         ; [CPU_ALU] |375| 
     256 00000012 41A9          TBIT      AL,#1                 ; [CPU_ALU] |375| 
     257 00000013 6CFE          B         $C$L4,NTC             ; [CPU_ALU] |375| 
     258                      ; branchcc occurs ; [] |375| 
     259                      .dwpsn  file "../device/driverlib/aes.c",line 383,column 5,is_stmt,isa 0
     260 00000014 8AA1          MOVL      XAR4,XAR1             ; [CPU_ALU] |383| 
     261                      .dwpsn  file "../device/driverlib/aes.c",line 384,column 5,is_stmt,isa 0
     262 00000015 83A1          MOVL      XAR5,XAR1             ; [CPU_ALU] |384| 
     263                      .dwpsn  file "../device/driverlib/aes.c",line 383,column 5,is_stmt,isa 0
     264 00000016 06C2          MOVL      ACC,*+XAR2[0]         ; [CPU_ALU] |383| 
     265 00000017 DC36          ADDB      XAR4,#54              ; [CPU_ALU] |383| 
     266                      .dwpsn  file "../device/driverlib/aes.c",line 384,column 5,is_stmt,isa 0
TMS320C2000 Assembler PC v22.6.1 Wed May 21 09:51:55 2025

Copyright (c) 1996-2018 Texas Instruments Incorporated
C:\Users\Daniel\AppData\Local\Temp\{11E65CAE-3485-48B7-8496-5C6CE456308C} PAGE    6

     267 00000018 DD34          ADDB      XAR5,#52              ; [CPU_ALU] |384| 
     268                      .dwpsn  file "../device/driverlib/aes.c",line 383,column 5,is_stmt,isa 0
     269 00000019 1EC4          MOVL      *+XAR4[0],ACC         ; [CPU_FPU] |383| 
     270                      .dwpsn  file "../device/driverlib/aes.c",line 385,column 5,is_stmt,isa 0
     271 0000001a 8AA1          MOVL      XAR4,XAR1             ; [CPU_FPU] |385| 
     272                      .dwpsn  file "../device/driverlib/aes.c",line 384,column 5,is_stmt,isa 0
     273 0000001b 06D2          MOVL      ACC,*+XAR2[2]         ; [CPU_FPU] |384| 
     274                      .dwpsn  file "../device/driverlib/aes.c",line 386,column 5,is_stmt,isa 0
     275 0000001c D930          ADDB      XAR1,#48              ; [CPU_ALU] |386| 
     276                      .dwpsn  file "../device/driverlib/aes.c",line 384,column 5,is_stmt,isa 0
     277 0000001d 1EC5          MOVL      *+XAR5[0],ACC         ; [CPU_FPU] |384| 
     278                      .dwpsn  file "../device/driverlib/aes.c",line 385,column 5,is_stmt,isa 0
     279 0000001e DC32          ADDB      XAR4,#50              ; [CPU_ALU] |385| 
     280 0000001f 06E2          MOVL      ACC,*+XAR2[4]         ; [CPU_FPU] |385| 
     281 00000020 1EC4          MOVL      *+XAR4[0],ACC         ; [CPU_FPU] |385| 
     282                      .dwpsn  file "../device/driverlib/aes.c",line 386,column 5,is_stmt,isa 0
     283 00000021 06F2          MOVL      ACC,*+XAR2[6]         ; [CPU_FPU] |386| 
     284 00000022 1EC1          MOVL      *+XAR1[0],ACC         ; [CPU_ALU] |386| 
     285 00000023 86BE          MOVL      XAR2,*--SP            ; [CPU_ALU] 
     286                      .dwcfi  cfa_offset, -4
     287                      .dwcfi  restore_reg, 9
     288 00000024 8BBE          MOVL      XAR1,*--SP            ; [CPU_ALU] 
     289                      .dwcfi  cfa_offset, -2
     290                      .dwcfi  restore_reg, 7
     291              $C$DW$18        .dwtag  DW_TAG_TI_branch
     292                      .dwattr $C$DW$18, DW_AT_low_pc(0x00)
     293                      .dwattr $C$DW$18, DW_AT_TI_return
     294              
     295 00000025 0006          LRETR     ; [CPU_ALU] 
     296                      ; return occurs ; [] 
     297                      .dwattr $C$DW$12, DW_AT_TI_end_file("../device/driverlib/aes.c")
     298                      .dwattr $C$DW$12, DW_AT_TI_end_line(0x183)
     299                      .dwattr $C$DW$12, DW_AT_TI_end_column(0x01)
     300                      .dwendentry
     301                      .dwendtag $C$DW$12
     302              
     303 00000000               .sect   ".text:_AES_setKey3"
     304                      .clink
     305                      .global _AES_setKey3
     306              
     307              $C$DW$19        .dwtag  DW_TAG_subprogram
     308                      .dwattr $C$DW$19, DW_AT_name("AES_setKey3")
     309                      .dwattr $C$DW$19, DW_AT_low_pc(_AES_setKey3)
     310                      .dwattr $C$DW$19, DW_AT_high_pc(0x00)
     311                      .dwattr $C$DW$19, DW_AT_TI_symbol_name("_AES_setKey3")
     312                      .dwattr $C$DW$19, DW_AT_external
     313                      .dwattr $C$DW$19, DW_AT_TI_begin_file("../device/driverlib/aes.c")
     314                      .dwattr $C$DW$19, DW_AT_TI_begin_line(0x9b)
     315                      .dwattr $C$DW$19, DW_AT_TI_begin_column(0x01)
     316                      .dwattr $C$DW$19, DW_AT_TI_max_frame_size(-6)
     317                      .dwpsn  file "../device/driverlib/aes.c",line 156,column 1,is_stmt,address _AES_setKey3,isa 0
     318              
     319                      .dwfde $C$DW$CIE, _AES_setKey3
     320              $C$DW$20        .dwtag  DW_TAG_formal_parameter
     321                      .dwattr $C$DW$20, DW_AT_name("base")
TMS320C2000 Assembler PC v22.6.1 Wed May 21 09:51:55 2025

Copyright (c) 1996-2018 Texas Instruments Incorporated
C:\Users\Daniel\AppData\Local\Temp\{11E65CAE-3485-48B7-8496-5C6CE456308C} PAGE    7

     322                      .dwattr $C$DW$20, DW_AT_TI_symbol_name("_base")
     323                      .dwattr $C$DW$20, DW_AT_type(*$C$DW$T$46)
     324                      .dwattr $C$DW$20, DW_AT_location[DW_OP_reg0]
     325              
     326              $C$DW$21        .dwtag  DW_TAG_formal_parameter
     327                      .dwattr $C$DW$21, DW_AT_name("key")
     328                      .dwattr $C$DW$21, DW_AT_TI_symbol_name("_key")
     329                      .dwattr $C$DW$21, DW_AT_type(*$C$DW$T$55)
     330                      .dwattr $C$DW$21, DW_AT_location[DW_OP_reg12]
     331              
     332              
     333              ;***************************************************************
     334              ;* FNAME: _AES_setKey3                  FR SIZE:   4           *
     335              ;*                                                             *
     336              ;* FUNCTION ENVIRONMENT                                        *
     337              ;*                                                             *
     338              ;* FUNCTION PROPERTIES                                         *
     339              ;*                            0 Parameter,  0 Auto,  4 SOE     *
     340              ;***************************************************************
     341              
     342              _AES_setKey3:
     343              ;* AR2   assigned to _base
     344              $C$DW$22        .dwtag  DW_TAG_variable
     345                      .dwattr $C$DW$22, DW_AT_name("base")
     346                      .dwattr $C$DW$22, DW_AT_TI_symbol_name("_base")
     347                      .dwattr $C$DW$22, DW_AT_type(*$C$DW$T$54)
     348                      .dwattr $C$DW$22, DW_AT_location[DW_OP_reg8]
     349              
     350              ;* AR1   assigned to _key
     351              $C$DW$23        .dwtag  DW_TAG_variable
     352                      .dwattr $C$DW$23, DW_AT_name("key")
     353                      .dwattr $C$DW$23, DW_AT_TI_symbol_name("_key")
     354                      .dwattr $C$DW$23, DW_AT_type(*$C$DW$T$83)
     355                      .dwattr $C$DW$23, DW_AT_location[DW_OP_reg6]
     356              
     357                      .dwcfi  cfa_offset, -2
     358                      .dwcfi  save_reg_to_mem, 26, 0
     359 00000000 B2BD          MOVL      *SP++,XAR1            ; [CPU_ALU] 
     360                      .dwcfi  save_reg_to_mem, 7, 2
     361                      .dwcfi  cfa_offset, -4
     362 00000001 AABD          MOVL      *SP++,XAR2            ; [CPU_ALU] 
     363                      .dwcfi  save_reg_to_mem, 9, 4
     364                      .dwcfi  cfa_offset, -6
     365 00000002 86A9          MOVL      XAR2,ACC              ; [CPU_ALU] |156| 
     366 00000003 8BA4          MOVL      XAR1,XAR4             ; [CPU_ALU] |156| 
     367                      .dwpsn  file "../device/driverlib/aes.c",line 160,column 5,is_stmt,isa 0
     368 00000004 8F04          MOVL      XAR4,#270336          ; [CPU_ARAU] |160| 
         00000005 2000 
     369 00000006 A8A9          MOVL      ACC,XAR4              ; [CPU_ALU] |160| 
     370 00000007 0FA2          CMPL      ACC,XAR2              ; [CPU_ALU] |160| 
     371 00000008 6106          B         $C$L5,EQ              ; [CPU_ALU] |160| 
     372                      ; branchcc occurs ; [] |160| 
     373 00000009 8F00+         MOVL      XAR4,#$C$FSL1         ; [CPU_ARAU] |160| 
         0000000a 0000 
     374 0000000b 02A0          MOVB      ACC,#160              ; [CPU_ALU] |160| 
TMS320C2000 Assembler PC v22.6.1 Wed May 21 09:51:55 2025

Copyright (c) 1996-2018 Texas Instruments Incorporated
C:\Users\Daniel\AppData\Local\Temp\{11E65CAE-3485-48B7-8496-5C6CE456308C} PAGE    8

     375              $C$DW$24        .dwtag  DW_TAG_TI_branch
     376                      .dwattr $C$DW$24, DW_AT_low_pc(0x00)
     377                      .dwattr $C$DW$24, DW_AT_name("___error__")
     378                      .dwattr $C$DW$24, DW_AT_TI_call
     379              
     380 0000000c 7640!         LCR       #___error__           ; [CPU_ALU] |160| 
         0000000d 0000 
     381                      ; call occurs [#___error__] ; [] |160| 
     382 0000000e       $C$L5:    
     383                      .dwpsn  file "../device/driverlib/aes.c",line 165,column 5,is_stmt,isa 0
     384 0000000e 83A2          MOVL      XAR5,XAR2             ; [CPU_ALU] |165| 
     385                      .dwpsn  file "../device/driverlib/aes.c",line 166,column 5,is_stmt,isa 0
     386 0000000f 8AA2          MOVL      XAR4,XAR2             ; [CPU_ALU] |166| 
     387                      .dwpsn  file "../device/driverlib/aes.c",line 165,column 5,is_stmt,isa 0
     388 00000010 06C1          MOVL      ACC,*+XAR1[0]         ; [CPU_ALU] |165| 
     389 00000011 DD04          ADDB      XAR5,#4               ; [CPU_ALU] |165| 
     390                      .dwpsn  file "../device/driverlib/aes.c",line 166,column 5,is_stmt,isa 0
     391 00000012 DC06          ADDB      XAR4,#6               ; [CPU_ALU] |166| 
     392                      .dwpsn  file "../device/driverlib/aes.c",line 165,column 5,is_stmt,isa 0
     393 00000013 1EC5          MOVL      *+XAR5[0],ACC         ; [CPU_FPU] |165| 
     394                      .dwpsn  file "../device/driverlib/aes.c",line 166,column 5,is_stmt,isa 0
     395 00000014 06D1          MOVL      ACC,*+XAR1[2]         ; [CPU_FPU] |166| 
     396 00000015 1EC4          MOVL      *+XAR4[0],ACC         ; [CPU_ALU] |166| 
     397                      .dwpsn  file "../device/driverlib/aes.c",line 167,column 5,is_stmt,isa 0
     398 00000016 06E1          MOVL      ACC,*+XAR1[4]         ; [CPU_ALU] |167| 
     399 00000017 1EC2          MOVL      *+XAR2[0],ACC         ; [CPU_ALU] |167| 
     400                      .dwpsn  file "../device/driverlib/aes.c",line 168,column 5,is_stmt,isa 0
     401 00000018 DA02          ADDB      XAR2,#2               ; [CPU_ALU] |168| 
     402 00000019 06F1          MOVL      ACC,*+XAR1[6]         ; [CPU_FPU] |168| 
     403 0000001a 1EC2          MOVL      *+XAR2[0],ACC         ; [CPU_ALU] |168| 
     404 0000001b 86BE          MOVL      XAR2,*--SP            ; [CPU_ALU] 
     405                      .dwcfi  cfa_offset, -4
     406                      .dwcfi  restore_reg, 9
     407 0000001c 8BBE          MOVL      XAR1,*--SP            ; [CPU_ALU] 
     408                      .dwcfi  cfa_offset, -2
     409                      .dwcfi  restore_reg, 7
     410              $C$DW$25        .dwtag  DW_TAG_TI_branch
     411                      .dwattr $C$DW$25, DW_AT_low_pc(0x00)
     412                      .dwattr $C$DW$25, DW_AT_TI_return
     413              
     414 0000001d 0006          LRETR     ; [CPU_ALU] 
     415                      ; return occurs ; [] 
     416                      .dwattr $C$DW$19, DW_AT_TI_end_file("../device/driverlib/aes.c")
     417                      .dwattr $C$DW$19, DW_AT_TI_end_line(0xa9)
     418                      .dwattr $C$DW$19, DW_AT_TI_end_column(0x01)
     419                      .dwendentry
     420                      .dwendtag $C$DW$19
     421              
     422 00000000               .sect   ".text:_AES_setKey2"
     423                      .clink
     424                      .global _AES_setKey2
     425              
     426              $C$DW$26        .dwtag  DW_TAG_subprogram
     427                      .dwattr $C$DW$26, DW_AT_name("AES_setKey2")
     428                      .dwattr $C$DW$26, DW_AT_low_pc(_AES_setKey2)
TMS320C2000 Assembler PC v22.6.1 Wed May 21 09:51:55 2025

Copyright (c) 1996-2018 Texas Instruments Incorporated
C:\Users\Daniel\AppData\Local\Temp\{11E65CAE-3485-48B7-8496-5C6CE456308C} PAGE    9

     429                      .dwattr $C$DW$26, DW_AT_high_pc(0x00)
     430                      .dwattr $C$DW$26, DW_AT_TI_symbol_name("_AES_setKey2")
     431                      .dwattr $C$DW$26, DW_AT_external
     432                      .dwattr $C$DW$26, DW_AT_TI_begin_file("../device/driverlib/aes.c")
     433                      .dwattr $C$DW$26, DW_AT_TI_begin_line(0x73)
     434                      .dwattr $C$DW$26, DW_AT_TI_begin_column(0x01)
     435                      .dwattr $C$DW$26, DW_AT_TI_max_frame_size(-8)
     436                      .dwpsn  file "../device/driverlib/aes.c",line 116,column 1,is_stmt,address _AES_setKey2,isa 0
     437              
     438                      .dwfde $C$DW$CIE, _AES_setKey2
     439              $C$DW$27        .dwtag  DW_TAG_formal_parameter
     440                      .dwattr $C$DW$27, DW_AT_name("base")
     441                      .dwattr $C$DW$27, DW_AT_TI_symbol_name("_base")
     442                      .dwattr $C$DW$27, DW_AT_type(*$C$DW$T$46)
     443                      .dwattr $C$DW$27, DW_AT_location[DW_OP_reg0]
     444              
     445              $C$DW$28        .dwtag  DW_TAG_formal_parameter
     446                      .dwattr $C$DW$28, DW_AT_name("key")
     447                      .dwattr $C$DW$28, DW_AT_TI_symbol_name("_key")
     448                      .dwattr $C$DW$28, DW_AT_type(*$C$DW$T$55)
     449                      .dwattr $C$DW$28, DW_AT_location[DW_OP_reg12]
     450              
     451              $C$DW$29        .dwtag  DW_TAG_formal_parameter
     452                      .dwattr $C$DW$29, DW_AT_name("keySize")
     453                      .dwattr $C$DW$29, DW_AT_TI_symbol_name("_keySize")
     454                      .dwattr $C$DW$29, DW_AT_type(*$C$DW$T$22)
     455                      .dwattr $C$DW$29, DW_AT_location[DW_OP_reg14]
     456              
     457              
     458              ;***************************************************************
     459              ;* FNAME: _AES_setKey2                  FR SIZE:   6           *
     460              ;*                                                             *
     461              ;* FUNCTION ENVIRONMENT                                        *
     462              ;*                                                             *
     463              ;* FUNCTION PROPERTIES                                         *
     464              ;*                            0 Parameter,  0 Auto,  6 SOE     *
     465              ;***************************************************************
     466              
     467              _AES_setKey2:
     468              ;* AR2   assigned to _base
     469              $C$DW$30        .dwtag  DW_TAG_variable
     470                      .dwattr $C$DW$30, DW_AT_name("base")
     471                      .dwattr $C$DW$30, DW_AT_TI_symbol_name("_base")
     472                      .dwattr $C$DW$30, DW_AT_type(*$C$DW$T$54)
     473                      .dwattr $C$DW$30, DW_AT_location[DW_OP_reg8]
     474              
     475              ;* AR1   assigned to _key
     476              $C$DW$31        .dwtag  DW_TAG_variable
     477                      .dwattr $C$DW$31, DW_AT_name("key")
     478                      .dwattr $C$DW$31, DW_AT_TI_symbol_name("_key")
     479                      .dwattr $C$DW$31, DW_AT_type(*$C$DW$T$83)
     480                      .dwattr $C$DW$31, DW_AT_location[DW_OP_reg6]
     481              
     482              ;* AR3   assigned to _keySize
     483              $C$DW$32        .dwtag  DW_TAG_variable
TMS320C2000 Assembler PC v22.6.1 Wed May 21 09:51:55 2025

Copyright (c) 1996-2018 Texas Instruments Incorporated
C:\Users\Daniel\AppData\Local\Temp\{11E65CAE-3485-48B7-8496-5C6CE456308C} PAGE   10

     484                      .dwattr $C$DW$32, DW_AT_name("keySize")
     485                      .dwattr $C$DW$32, DW_AT_TI_symbol_name("_keySize")
     486                      .dwattr $C$DW$32, DW_AT_type(*$C$DW$T$32)
     487                      .dwattr $C$DW$32, DW_AT_location[DW_OP_reg10]
     488              
     489                      .dwcfi  cfa_offset, -2
     490                      .dwcfi  save_reg_to_mem, 26, 0
     491 00000000 B2BD          MOVL      *SP++,XAR1            ; [CPU_ALU] 
     492                      .dwcfi  save_reg_to_mem, 7, 2
     493                      .dwcfi  cfa_offset, -4
     494 00000001 8BA4          MOVL      XAR1,XAR4             ; [CPU_ALU] |116| 
     495 00000002 AABD          MOVL      *SP++,XAR2            ; [CPU_ALU] 
     496                      .dwcfi  save_reg_to_mem, 9, 4
     497                      .dwcfi  cfa_offset, -6
     498                      .dwpsn  file "../device/driverlib/aes.c",line 120,column 5,is_stmt,isa 0
     499 00000003 8F04          MOVL      XAR4,#270336          ; [CPU_ARAU] |120| 
         00000004 2000 
     500                      .dwpsn  file "../device/driverlib/aes.c",line 116,column 1,is_stmt,isa 0
     501 00000005 86A9          MOVL      XAR2,ACC              ; [CPU_ALU] |116| 
     502 00000006 A2BD          MOVL      *SP++,XAR3            ; [CPU_ALU] 
     503                      .dwcfi  save_reg_to_mem, 11, 6
     504                      .dwcfi  cfa_offset, -8
     505                      .dwpsn  file "../device/driverlib/aes.c",line 120,column 5,is_stmt,isa 0
     506 00000007 A8A9          MOVL      ACC,XAR4              ; [CPU_ALU] |120| 
     507                      .dwpsn  file "../device/driverlib/aes.c",line 116,column 1,is_stmt,isa 0
     508 00000008 5BA5          MOVZ      AR3,AR5               ; [CPU_ALU] |116| 
     509                      .dwpsn  file "../device/driverlib/aes.c",line 120,column 5,is_stmt,isa 0
     510 00000009 0FA2          CMPL      ACC,XAR2              ; [CPU_ALU] |120| 
     511 0000000a 6106          B         $C$L6,EQ              ; [CPU_ALU] |120| 
     512                      ; branchcc occurs ; [] |120| 
     513 0000000b 8F00+         MOVL      XAR4,#$C$FSL1         ; [CPU_ARAU] |120| 
         0000000c 0000 
     514 0000000d 0278          MOVB      ACC,#120              ; [CPU_ALU] |120| 
     515              $C$DW$33        .dwtag  DW_TAG_TI_branch
     516                      .dwattr $C$DW$33, DW_AT_low_pc(0x00)
     517                      .dwattr $C$DW$33, DW_AT_name("___error__")
     518                      .dwattr $C$DW$33, DW_AT_TI_call
     519              
     520 0000000e 7640!         LCR       #___error__           ; [CPU_ALU] |120| 
         0000000f 0000 
     521                      ; call occurs [#___error__] ; [] |120| 
     522 00000010       $C$L6:    
     523                      .dwpsn  file "../device/driverlib/aes.c",line 125,column 5,is_stmt,isa 0
     524 00000010 83A2          MOVL      XAR5,XAR2             ; [CPU_ALU] |125| 
     525                      .dwpsn  file "../device/driverlib/aes.c",line 126,column 5,is_stmt,isa 0
     526 00000011 8AA2          MOVL      XAR4,XAR2             ; [CPU_ALU] |126| 
     527                      .dwpsn  file "../device/driverlib/aes.c",line 125,column 5,is_stmt,isa 0
     528 00000012 06C1          MOVL      ACC,*+XAR1[0]         ; [CPU_ALU] |125| 
     529 00000013 DD0C          ADDB      XAR5,#12              ; [CPU_ALU] |125| 
     530                      .dwpsn  file "../device/driverlib/aes.c",line 126,column 5,is_stmt,isa 0
     531 00000014 DC0E          ADDB      XAR4,#14              ; [CPU_ALU] |126| 
     532                      .dwpsn  file "../device/driverlib/aes.c",line 125,column 5,is_stmt,isa 0
     533 00000015 1EC5          MOVL      *+XAR5[0],ACC         ; [CPU_FPU] |125| 
     534                      .dwpsn  file "../device/driverlib/aes.c",line 127,column 5,is_stmt,isa 0
     535 00000016 83A2          MOVL      XAR5,XAR2             ; [CPU_FPU] |127| 
TMS320C2000 Assembler PC v22.6.1 Wed May 21 09:51:55 2025

Copyright (c) 1996-2018 Texas Instruments Incorporated
C:\Users\Daniel\AppData\Local\Temp\{11E65CAE-3485-48B7-8496-5C6CE456308C} PAGE   11

     536                      .dwpsn  file "../device/driverlib/aes.c",line 126,column 5,is_stmt,isa 0
     537 00000017 06D1          MOVL      ACC,*+XAR1[2]         ; [CPU_FPU] |126| 
     538 00000018 1EC4          MOVL      *+XAR4[0],ACC         ; [CPU_ALU] |126| 
     539                      .dwpsn  file "../device/driverlib/aes.c",line 128,column 5,is_stmt,isa 0
     540 00000019 8AA2          MOVL      XAR4,XAR2             ; [CPU_ALU] |128| 
     541                      .dwpsn  file "../device/driverlib/aes.c",line 127,column 5,is_stmt,isa 0
     542 0000001a DD08          ADDB      XAR5,#8               ; [CPU_ALU] |127| 
     543 0000001b 06E1          MOVL      ACC,*+XAR1[4]         ; [CPU_FPU] |127| 
     544 0000001c 1EC5          MOVL      *+XAR5[0],ACC         ; [CPU_ALU] |127| 
     545                      .dwpsn  file "../device/driverlib/aes.c",line 128,column 5,is_stmt,isa 0
     546 0000001d DC0A          ADDB      XAR4,#10              ; [CPU_ALU] |128| 
     547 0000001e 06F1          MOVL      ACC,*+XAR1[6]         ; [CPU_FPU] |128| 
     548 0000001f 1EC4          MOVL      *+XAR4[0],ACC         ; [CPU_ALU] |128| 
     549 00000020 92A3          MOV       AL,AR3                ; [CPU_ALU] |128| 
     550                      .dwpsn  file "../device/driverlib/aes.c",line 133,column 5,is_stmt,isa 0
     551 00000021 5208          CMPB      AL,#8                 ; [CPU_ALU] |133| 
     552 00000022 6115          B         $C$L7,EQ              ; [CPU_ALU] |133| 
     553                      ; branchcc occurs ; [] |133| 
     554                      .dwpsn  file "../device/driverlib/aes.c",line 135,column 9,is_stmt,isa 0
     555 00000023 D008          MOVB      XAR0,#8               ; [CPU_ALU] |135| 
     556 00000024 83A2          MOVL      XAR5,XAR2             ; [CPU_ALU] |135| 
     557                      .dwpsn  file "../device/driverlib/aes.c",line 136,column 9,is_stmt,isa 0
     558 00000025 8AA2          MOVL      XAR4,XAR2             ; [CPU_ALU] |136| 
     559                      .dwpsn  file "../device/driverlib/aes.c",line 135,column 9,is_stmt,isa 0
     560 00000026 0691          MOVL      ACC,*+XAR1[AR0]       ; [CPU_ALU] |135| 
     561                      .dwpsn  file "../device/driverlib/aes.c",line 136,column 9,is_stmt,isa 0
     562 00000027 D00A          MOVB      XAR0,#10              ; [CPU_ALU] |136| 
     563                      .dwpsn  file "../device/driverlib/aes.c",line 135,column 9,is_stmt,isa 0
     564 00000028 DD04          ADDB      XAR5,#4               ; [CPU_ALU] |135| 
     565                      .dwpsn  file "../device/driverlib/aes.c",line 136,column 9,is_stmt,isa 0
     566 00000029 DC06          ADDB      XAR4,#6               ; [CPU_ALU] |136| 
     567                      .dwpsn  file "../device/driverlib/aes.c",line 135,column 9,is_stmt,isa 0
     568 0000002a 1EC5          MOVL      *+XAR5[0],ACC         ; [CPU_ALU] |135| 
     569                      .dwpsn  file "../device/driverlib/aes.c",line 136,column 9,is_stmt,isa 0
     570 0000002b 0691          MOVL      ACC,*+XAR1[AR0]       ; [CPU_FPU] |136| 
     571 0000002c 1EC4          MOVL      *+XAR4[0],ACC         ; [CPU_ALU] |136| 
     572 0000002d 92A3          MOV       AL,AR3                ; [CPU_ALU] |136| 
     573                      .dwpsn  file "../device/driverlib/aes.c",line 142,column 5,is_stmt,isa 0
     574 0000002e 5218          CMPB      AL,#24                ; [CPU_ALU] |142| 
     575 0000002f 6008          B         $C$L7,NEQ             ; [CPU_ALU] |142| 
     576                      ; branchcc occurs ; [] |142| 
     577                      .dwpsn  file "../device/driverlib/aes.c",line 144,column 9,is_stmt,isa 0
     578 00000030 D00C          MOVB      XAR0,#12              ; [CPU_ALU] |144| 
     579 00000031 0691          MOVL      ACC,*+XAR1[AR0]       ; [CPU_ALU] |144| 
     580                      .dwpsn  file "../device/driverlib/aes.c",line 145,column 9,is_stmt,isa 0
     581 00000032 D00E          MOVB      XAR0,#14              ; [CPU_ALU] |145| 
     582                      .dwpsn  file "../device/driverlib/aes.c",line 144,column 9,is_stmt,isa 0
     583 00000033 1EC2          MOVL      *+XAR2[0],ACC         ; [CPU_ALU] |144| 
     584                      .dwpsn  file "../device/driverlib/aes.c",line 145,column 9,is_stmt,isa 0
     585 00000034 DA02          ADDB      XAR2,#2               ; [CPU_ALU] |145| 
     586 00000035 0691          MOVL      ACC,*+XAR1[AR0]       ; [CPU_FPU] |145| 
     587 00000036 1EC2          MOVL      *+XAR2[0],ACC         ; [CPU_ALU] |145| 
     588 00000037       $C$L7:    
     589 00000037 82BE          MOVL      XAR3,*--SP            ; [CPU_ALU] 
     590                      .dwcfi  cfa_offset, -6
TMS320C2000 Assembler PC v22.6.1 Wed May 21 09:51:55 2025

Copyright (c) 1996-2018 Texas Instruments Incorporated
C:\Users\Daniel\AppData\Local\Temp\{11E65CAE-3485-48B7-8496-5C6CE456308C} PAGE   12

     591                      .dwcfi  restore_reg, 11
     592 00000038 86BE          MOVL      XAR2,*--SP            ; [CPU_ALU] 
     593                      .dwcfi  cfa_offset, -4
     594                      .dwcfi  restore_reg, 9
     595 00000039 8BBE          MOVL      XAR1,*--SP            ; [CPU_ALU] 
     596                      .dwcfi  cfa_offset, -2
     597                      .dwcfi  restore_reg, 7
     598              $C$DW$34        .dwtag  DW_TAG_TI_branch
     599                      .dwattr $C$DW$34, DW_AT_low_pc(0x00)
     600                      .dwattr $C$DW$34, DW_AT_TI_return
     601              
     602 0000003a 0006          LRETR     ; [CPU_ALU] 
     603                      ; return occurs ; [] 
     604                      .dwattr $C$DW$26, DW_AT_TI_end_file("../device/driverlib/aes.c")
     605                      .dwattr $C$DW$26, DW_AT_TI_end_line(0x93)
     606                      .dwattr $C$DW$26, DW_AT_TI_end_column(0x01)
     607                      .dwendentry
     608                      .dwendtag $C$DW$26
     609              
     610 00000000               .sect   ".text:_AES_setKey1"
     611                      .clink
     612                      .global _AES_setKey1
     613              
     614              $C$DW$35        .dwtag  DW_TAG_subprogram
     615                      .dwattr $C$DW$35, DW_AT_name("AES_setKey1")
     616                      .dwattr $C$DW$35, DW_AT_low_pc(_AES_setKey1)
     617                      .dwattr $C$DW$35, DW_AT_high_pc(0x00)
     618                      .dwattr $C$DW$35, DW_AT_TI_symbol_name("_AES_setKey1")
     619                      .dwattr $C$DW$35, DW_AT_external
     620                      .dwattr $C$DW$35, DW_AT_TI_begin_file("../device/driverlib/aes.c")
     621                      .dwattr $C$DW$35, DW_AT_TI_begin_line(0x4b)
     622                      .dwattr $C$DW$35, DW_AT_TI_begin_column(0x01)
     623                      .dwattr $C$DW$35, DW_AT_TI_max_frame_size(-8)
     624                      .dwpsn  file "../device/driverlib/aes.c",line 76,column 1,is_stmt,address _AES_setKey1,isa 0
     625              
     626                      .dwfde $C$DW$CIE, _AES_setKey1
     627              $C$DW$36        .dwtag  DW_TAG_formal_parameter
     628                      .dwattr $C$DW$36, DW_AT_name("base")
     629                      .dwattr $C$DW$36, DW_AT_TI_symbol_name("_base")
     630                      .dwattr $C$DW$36, DW_AT_type(*$C$DW$T$46)
     631                      .dwattr $C$DW$36, DW_AT_location[DW_OP_reg0]
     632              
     633              $C$DW$37        .dwtag  DW_TAG_formal_parameter
     634                      .dwattr $C$DW$37, DW_AT_name("key")
     635                      .dwattr $C$DW$37, DW_AT_TI_symbol_name("_key")
     636                      .dwattr $C$DW$37, DW_AT_type(*$C$DW$T$55)
     637                      .dwattr $C$DW$37, DW_AT_location[DW_OP_reg12]
     638              
     639              $C$DW$38        .dwtag  DW_TAG_formal_parameter
     640                      .dwattr $C$DW$38, DW_AT_name("keySize")
     641                      .dwattr $C$DW$38, DW_AT_TI_symbol_name("_keySize")
     642                      .dwattr $C$DW$38, DW_AT_type(*$C$DW$T$22)
     643                      .dwattr $C$DW$38, DW_AT_location[DW_OP_reg14]
     644              
     645              
TMS320C2000 Assembler PC v22.6.1 Wed May 21 09:51:55 2025

Copyright (c) 1996-2018 Texas Instruments Incorporated
C:\Users\Daniel\AppData\Local\Temp\{11E65CAE-3485-48B7-8496-5C6CE456308C} PAGE   13

     646              ;***************************************************************
     647              ;* FNAME: _AES_setKey1                  FR SIZE:   6           *
     648              ;*                                                             *
     649              ;* FUNCTION ENVIRONMENT                                        *
     650              ;*                                                             *
     651              ;* FUNCTION PROPERTIES                                         *
     652              ;*                            0 Parameter,  0 Auto,  6 SOE     *
     653              ;***************************************************************
     654              
     655              _AES_setKey1:
     656              ;* AR2   assigned to _base
     657              $C$DW$39        .dwtag  DW_TAG_variable
     658                      .dwattr $C$DW$39, DW_AT_name("base")
     659                      .dwattr $C$DW$39, DW_AT_TI_symbol_name("_base")
     660                      .dwattr $C$DW$39, DW_AT_type(*$C$DW$T$54)
     661                      .dwattr $C$DW$39, DW_AT_location[DW_OP_reg8]
     662              
     663              ;* AR1   assigned to _key
     664              $C$DW$40        .dwtag  DW_TAG_variable
     665                      .dwattr $C$DW$40, DW_AT_name("key")
     666                      .dwattr $C$DW$40, DW_AT_TI_symbol_name("_key")
     667                      .dwattr $C$DW$40, DW_AT_type(*$C$DW$T$83)
     668                      .dwattr $C$DW$40, DW_AT_location[DW_OP_reg6]
     669              
     670              ;* AR3   assigned to _keySize
     671              $C$DW$41        .dwtag  DW_TAG_variable
     672                      .dwattr $C$DW$41, DW_AT_name("keySize")
     673                      .dwattr $C$DW$41, DW_AT_TI_symbol_name("_keySize")
     674                      .dwattr $C$DW$41, DW_AT_type(*$C$DW$T$33)
     675                      .dwattr $C$DW$41, DW_AT_location[DW_OP_reg10]
     676              
     677                      .dwcfi  cfa_offset, -2
     678                      .dwcfi  save_reg_to_mem, 26, 0
     679 00000000 B2BD          MOVL      *SP++,XAR1            ; [CPU_ALU] 
     680                      .dwcfi  save_reg_to_mem, 7, 2
     681                      .dwcfi  cfa_offset, -4
     682 00000001 8BA4          MOVL      XAR1,XAR4             ; [CPU_ALU] |76| 
     683 00000002 AABD          MOVL      *SP++,XAR2            ; [CPU_ALU] 
     684                      .dwcfi  save_reg_to_mem, 9, 4
     685                      .dwcfi  cfa_offset, -6
     686                      .dwpsn  file "../device/driverlib/aes.c",line 80,column 5,is_stmt,isa 0
     687 00000003 8F04          MOVL      XAR4,#270336          ; [CPU_ARAU] |80| 
         00000004 2000 
     688                      .dwpsn  file "../device/driverlib/aes.c",line 76,column 1,is_stmt,isa 0
     689 00000005 86A9          MOVL      XAR2,ACC              ; [CPU_ALU] |76| 
     690 00000006 A2BD          MOVL      *SP++,XAR3            ; [CPU_ALU] 
     691                      .dwcfi  save_reg_to_mem, 11, 6
     692                      .dwcfi  cfa_offset, -8
     693                      .dwpsn  file "../device/driverlib/aes.c",line 80,column 5,is_stmt,isa 0
     694 00000007 A8A9          MOVL      ACC,XAR4              ; [CPU_ALU] |80| 
     695                      .dwpsn  file "../device/driverlib/aes.c",line 76,column 1,is_stmt,isa 0
     696 00000008 5BA5          MOVZ      AR3,AR5               ; [CPU_ALU] |76| 
     697                      .dwpsn  file "../device/driverlib/aes.c",line 80,column 5,is_stmt,isa 0
     698 00000009 0FA2          CMPL      ACC,XAR2              ; [CPU_ALU] |80| 
     699 0000000a 6106          B         $C$L8,EQ              ; [CPU_ALU] |80| 
TMS320C2000 Assembler PC v22.6.1 Wed May 21 09:51:55 2025

Copyright (c) 1996-2018 Texas Instruments Incorporated
C:\Users\Daniel\AppData\Local\Temp\{11E65CAE-3485-48B7-8496-5C6CE456308C} PAGE   14

     700                      ; branchcc occurs ; [] |80| 
     701 0000000b 8F00+         MOVL      XAR4,#$C$FSL1         ; [CPU_ARAU] |80| 
         0000000c 0000 
     702 0000000d 0250          MOVB      ACC,#80               ; [CPU_ALU] |80| 
     703              $C$DW$42        .dwtag  DW_TAG_TI_branch
     704                      .dwattr $C$DW$42, DW_AT_low_pc(0x00)
     705                      .dwattr $C$DW$42, DW_AT_name("___error__")
     706                      .dwattr $C$DW$42, DW_AT_TI_call
     707              
     708 0000000e 7640!         LCR       #___error__           ; [CPU_ALU] |80| 
         0000000f 0000 
     709                      ; call occurs [#___error__] ; [] |80| 
     710 00000010       $C$L8:    
     711                      .dwpsn  file "../device/driverlib/aes.c",line 85,column 5,is_stmt,isa 0
     712 00000010 83A2          MOVL      XAR5,XAR2             ; [CPU_ALU] |85| 
     713                      .dwpsn  file "../device/driverlib/aes.c",line 86,column 5,is_stmt,isa 0
     714 00000011 8AA2          MOVL      XAR4,XAR2             ; [CPU_ALU] |86| 
     715                      .dwpsn  file "../device/driverlib/aes.c",line 85,column 5,is_stmt,isa 0
     716 00000012 06C1          MOVL      ACC,*+XAR1[0]         ; [CPU_ALU] |85| 
     717 00000013 DD1C          ADDB      XAR5,#28              ; [CPU_ALU] |85| 
     718                      .dwpsn  file "../device/driverlib/aes.c",line 86,column 5,is_stmt,isa 0
     719 00000014 DC1E          ADDB      XAR4,#30              ; [CPU_ALU] |86| 
     720                      .dwpsn  file "../device/driverlib/aes.c",line 85,column 5,is_stmt,isa 0
     721 00000015 1EC5          MOVL      *+XAR5[0],ACC         ; [CPU_FPU] |85| 
     722                      .dwpsn  file "../device/driverlib/aes.c",line 87,column 5,is_stmt,isa 0
     723 00000016 83A2          MOVL      XAR5,XAR2             ; [CPU_FPU] |87| 
     724                      .dwpsn  file "../device/driverlib/aes.c",line 86,column 5,is_stmt,isa 0
     725 00000017 06D1          MOVL      ACC,*+XAR1[2]         ; [CPU_FPU] |86| 
     726 00000018 1EC4          MOVL      *+XAR4[0],ACC         ; [CPU_ALU] |86| 
     727                      .dwpsn  file "../device/driverlib/aes.c",line 88,column 5,is_stmt,isa 0
     728 00000019 8AA2          MOVL      XAR4,XAR2             ; [CPU_ALU] |88| 
     729                      .dwpsn  file "../device/driverlib/aes.c",line 87,column 5,is_stmt,isa 0
     730 0000001a DD18          ADDB      XAR5,#24              ; [CPU_ALU] |87| 
     731 0000001b 06E1          MOVL      ACC,*+XAR1[4]         ; [CPU_FPU] |87| 
     732 0000001c 1EC5          MOVL      *+XAR5[0],ACC         ; [CPU_ALU] |87| 
     733                      .dwpsn  file "../device/driverlib/aes.c",line 88,column 5,is_stmt,isa 0
     734 0000001d DC1A          ADDB      XAR4,#26              ; [CPU_ALU] |88| 
     735 0000001e 06F1          MOVL      ACC,*+XAR1[6]         ; [CPU_FPU] |88| 
     736 0000001f 1EC4          MOVL      *+XAR4[0],ACC         ; [CPU_ALU] |88| 
     737 00000020 92A3          MOV       AL,AR3                ; [CPU_ALU] |88| 
     738                      .dwpsn  file "../device/driverlib/aes.c",line 93,column 5,is_stmt,isa 0
     739 00000021 5208          CMPB      AL,#8                 ; [CPU_ALU] |93| 
     740 00000022 6117          B         $C$L9,EQ              ; [CPU_ALU] |93| 
     741                      ; branchcc occurs ; [] |93| 
     742                      .dwpsn  file "../device/driverlib/aes.c",line 95,column 9,is_stmt,isa 0
     743 00000023 D008          MOVB      XAR0,#8               ; [CPU_ALU] |95| 
     744 00000024 83A2          MOVL      XAR5,XAR2             ; [CPU_ALU] |95| 
     745                      .dwpsn  file "../device/driverlib/aes.c",line 96,column 9,is_stmt,isa 0
     746 00000025 8AA2          MOVL      XAR4,XAR2             ; [CPU_ALU] |96| 
     747                      .dwpsn  file "../device/driverlib/aes.c",line 95,column 9,is_stmt,isa 0
     748 00000026 0691          MOVL      ACC,*+XAR1[AR0]       ; [CPU_ALU] |95| 
     749                      .dwpsn  file "../device/driverlib/aes.c",line 96,column 9,is_stmt,isa 0
     750 00000027 D00A          MOVB      XAR0,#10              ; [CPU_ALU] |96| 
     751                      .dwpsn  file "../device/driverlib/aes.c",line 95,column 9,is_stmt,isa 0
     752 00000028 DD14          ADDB      XAR5,#20              ; [CPU_ALU] |95| 
TMS320C2000 Assembler PC v22.6.1 Wed May 21 09:51:55 2025

Copyright (c) 1996-2018 Texas Instruments Incorporated
C:\Users\Daniel\AppData\Local\Temp\{11E65CAE-3485-48B7-8496-5C6CE456308C} PAGE   15

     753                      .dwpsn  file "../device/driverlib/aes.c",line 96,column 9,is_stmt,isa 0
     754 00000029 DC16          ADDB      XAR4,#22              ; [CPU_ALU] |96| 
     755                      .dwpsn  file "../device/driverlib/aes.c",line 95,column 9,is_stmt,isa 0
     756 0000002a 1EC5          MOVL      *+XAR5[0],ACC         ; [CPU_ALU] |95| 
     757                      .dwpsn  file "../device/driverlib/aes.c",line 96,column 9,is_stmt,isa 0
     758 0000002b 0691          MOVL      ACC,*+XAR1[AR0]       ; [CPU_FPU] |96| 
     759 0000002c 1EC4          MOVL      *+XAR4[0],ACC         ; [CPU_ALU] |96| 
     760 0000002d 92A3          MOV       AL,AR3                ; [CPU_ALU] |96| 
     761                      .dwpsn  file "../device/driverlib/aes.c",line 102,column 5,is_stmt,isa 0
     762 0000002e 5218          CMPB      AL,#24                ; [CPU_ALU] |102| 
     763 0000002f 600A          B         $C$L9,NEQ             ; [CPU_ALU] |102| 
     764                      ; branchcc occurs ; [] |102| 
     765                      .dwpsn  file "../device/driverlib/aes.c",line 104,column 9,is_stmt,isa 0
     766 00000030 D00C          MOVB      XAR0,#12              ; [CPU_ALU] |104| 
     767 00000031 8AA2          MOVL      XAR4,XAR2             ; [CPU_ALU] |104| 
     768 00000032 0691          MOVL      ACC,*+XAR1[AR0]       ; [CPU_ALU] |104| 
     769                      .dwpsn  file "../device/driverlib/aes.c",line 105,column 9,is_stmt,isa 0
     770 00000033 DA12          ADDB      XAR2,#18              ; [CPU_ALU] |105| 
     771 00000034 D00E          MOVB      XAR0,#14              ; [CPU_ALU] |105| 
     772                      .dwpsn  file "../device/driverlib/aes.c",line 104,column 9,is_stmt,isa 0
     773 00000035 DC10          ADDB      XAR4,#16              ; [CPU_ALU] |104| 
     774 00000036 1EC4          MOVL      *+XAR4[0],ACC         ; [CPU_FPU] |104| 
     775                      .dwpsn  file "../device/driverlib/aes.c",line 105,column 9,is_stmt,isa 0
     776 00000037 0691          MOVL      ACC,*+XAR1[AR0]       ; [CPU_FPU] |105| 
     777 00000038 1EC2          MOVL      *+XAR2[0],ACC         ; [CPU_ALU] |105| 
     778 00000039       $C$L9:    
     779 00000039 82BE          MOVL      XAR3,*--SP            ; [CPU_ALU] 
     780                      .dwcfi  cfa_offset, -6
     781                      .dwcfi  restore_reg, 11
     782 0000003a 86BE          MOVL      XAR2,*--SP            ; [CPU_ALU] 
     783                      .dwcfi  cfa_offset, -4
     784                      .dwcfi  restore_reg, 9
     785 0000003b 8BBE          MOVL      XAR1,*--SP            ; [CPU_ALU] 
     786                      .dwcfi  cfa_offset, -2
     787                      .dwcfi  restore_reg, 7
     788              $C$DW$43        .dwtag  DW_TAG_TI_branch
     789                      .dwattr $C$DW$43, DW_AT_low_pc(0x00)
     790                      .dwattr $C$DW$43, DW_AT_TI_return
     791              
     792 0000003c 0006          LRETR     ; [CPU_ALU] 
     793                      ; return occurs ; [] 
     794                      .dwattr $C$DW$35, DW_AT_TI_end_file("../device/driverlib/aes.c")
     795                      .dwattr $C$DW$35, DW_AT_TI_end_line(0x6b)
     796                      .dwattr $C$DW$35, DW_AT_TI_end_column(0x01)
     797                      .dwendentry
     798                      .dwendtag $C$DW$35
     799              
     800 00000000               .sect   ".text:_AES_setInitializationVector"
     801                      .clink
     802                      .global _AES_setInitializationVector
     803              
     804              $C$DW$44        .dwtag  DW_TAG_subprogram
     805                      .dwattr $C$DW$44, DW_AT_name("AES_setInitializationVector")
     806                      .dwattr $C$DW$44, DW_AT_low_pc(_AES_setInitializationVector)
     807                      .dwattr $C$DW$44, DW_AT_high_pc(0x00)
TMS320C2000 Assembler PC v22.6.1 Wed May 21 09:51:55 2025

Copyright (c) 1996-2018 Texas Instruments Incorporated
C:\Users\Daniel\AppData\Local\Temp\{11E65CAE-3485-48B7-8496-5C6CE456308C} PAGE   16

     808                      .dwattr $C$DW$44, DW_AT_TI_symbol_name("_AES_setInitializationVector")
     809                      .dwattr $C$DW$44, DW_AT_external
     810                      .dwattr $C$DW$44, DW_AT_TI_begin_file("../device/driverlib/aes.c")
     811                      .dwattr $C$DW$44, DW_AT_TI_begin_line(0xb1)
     812                      .dwattr $C$DW$44, DW_AT_TI_begin_column(0x01)
     813                      .dwattr $C$DW$44, DW_AT_TI_max_frame_size(-6)
     814                      .dwpsn  file "../device/driverlib/aes.c",line 178,column 1,is_stmt,address _AES_setInitializationVect
     815              
     816                      .dwfde $C$DW$CIE, _AES_setInitializationVector
     817              $C$DW$45        .dwtag  DW_TAG_formal_parameter
     818                      .dwattr $C$DW$45, DW_AT_name("base")
     819                      .dwattr $C$DW$45, DW_AT_TI_symbol_name("_base")
     820                      .dwattr $C$DW$45, DW_AT_type(*$C$DW$T$46)
     821                      .dwattr $C$DW$45, DW_AT_location[DW_OP_reg0]
     822              
     823              $C$DW$46        .dwtag  DW_TAG_formal_parameter
     824                      .dwattr $C$DW$46, DW_AT_name("iniVector")
     825                      .dwattr $C$DW$46, DW_AT_TI_symbol_name("_iniVector")
     826                      .dwattr $C$DW$46, DW_AT_type(*$C$DW$T$55)
     827                      .dwattr $C$DW$46, DW_AT_location[DW_OP_reg12]
     828              
     829              
     830              ;***************************************************************
     831              ;* FNAME: _AES_setInitializationVector  FR SIZE:   4           *
     832              ;*                                                             *
     833              ;* FUNCTION ENVIRONMENT                                        *
     834              ;*                                                             *
     835              ;* FUNCTION PROPERTIES                                         *
     836              ;*                            0 Parameter,  0 Auto,  4 SOE     *
     837              ;***************************************************************
     838              
     839              _AES_setInitializationVector:
     840              ;* AR2   assigned to _base
     841              $C$DW$47        .dwtag  DW_TAG_variable
     842                      .dwattr $C$DW$47, DW_AT_name("base")
     843                      .dwattr $C$DW$47, DW_AT_TI_symbol_name("_base")
     844                      .dwattr $C$DW$47, DW_AT_type(*$C$DW$T$54)
     845                      .dwattr $C$DW$47, DW_AT_location[DW_OP_reg8]
     846              
     847              ;* AR1   assigned to _iniVector
     848              $C$DW$48        .dwtag  DW_TAG_variable
     849                      .dwattr $C$DW$48, DW_AT_name("iniVector")
     850                      .dwattr $C$DW$48, DW_AT_TI_symbol_name("_iniVector")
     851                      .dwattr $C$DW$48, DW_AT_type(*$C$DW$T$83)
     852                      .dwattr $C$DW$48, DW_AT_location[DW_OP_reg6]
     853              
     854                      .dwcfi  cfa_offset, -2
     855                      .dwcfi  save_reg_to_mem, 26, 0
     856 00000000 B2BD          MOVL      *SP++,XAR1            ; [CPU_ALU] 
     857                      .dwcfi  save_reg_to_mem, 7, 2
     858                      .dwcfi  cfa_offset, -4
     859 00000001 AABD          MOVL      *SP++,XAR2            ; [CPU_ALU] 
     860                      .dwcfi  save_reg_to_mem, 9, 4
     861                      .dwcfi  cfa_offset, -6
     862 00000002 86A9          MOVL      XAR2,ACC              ; [CPU_ALU] |178| 
TMS320C2000 Assembler PC v22.6.1 Wed May 21 09:51:55 2025

Copyright (c) 1996-2018 Texas Instruments Incorporated
C:\Users\Daniel\AppData\Local\Temp\{11E65CAE-3485-48B7-8496-5C6CE456308C} PAGE   17

     863 00000003 8BA4          MOVL      XAR1,XAR4             ; [CPU_ALU] |178| 
     864                      .dwpsn  file "../device/driverlib/aes.c",line 182,column 5,is_stmt,isa 0
     865 00000004 8F04          MOVL      XAR4,#270336          ; [CPU_ARAU] |182| 
         00000005 2000 
     866 00000006 A8A9          MOVL      ACC,XAR4              ; [CPU_ALU] |182| 
     867 00000007 0FA2          CMPL      ACC,XAR2              ; [CPU_ALU] |182| 
     868 00000008 6106          B         $C$L10,EQ             ; [CPU_ALU] |182| 
     869                      ; branchcc occurs ; [] |182| 
     870 00000009 8F00+         MOVL      XAR4,#$C$FSL1         ; [CPU_ARAU] |182| 
         0000000a 0000 
     871 0000000b 02B6          MOVB      ACC,#182              ; [CPU_ALU] |182| 
     872              $C$DW$49        .dwtag  DW_TAG_TI_branch
     873                      .dwattr $C$DW$49, DW_AT_low_pc(0x00)
     874                      .dwattr $C$DW$49, DW_AT_name("___error__")
     875                      .dwattr $C$DW$49, DW_AT_TI_call
     876              
     877 0000000c 7640!         LCR       #___error__           ; [CPU_ALU] |182| 
         0000000d 0000 
     878                      ; call occurs [#___error__] ; [] |182| 
     879 0000000e       $C$L10:    
     880                      .dwpsn  file "../device/driverlib/aes.c",line 187,column 5,is_stmt,isa 0
     881 0000000e 8AA2          MOVL      XAR4,XAR2             ; [CPU_ALU] |187| 
     882                      .dwpsn  file "../device/driverlib/aes.c",line 188,column 5,is_stmt,isa 0
     883 0000000f 83A2          MOVL      XAR5,XAR2             ; [CPU_ALU] |188| 
     884                      .dwpsn  file "../device/driverlib/aes.c",line 187,column 5,is_stmt,isa 0
     885 00000010 06C1          MOVL      ACC,*+XAR1[0]         ; [CPU_ALU] |187| 
     886 00000011 DC20          ADDB      XAR4,#32              ; [CPU_ALU] |187| 
     887                      .dwpsn  file "../device/driverlib/aes.c",line 188,column 5,is_stmt,isa 0
     888 00000012 DD22          ADDB      XAR5,#34              ; [CPU_ALU] |188| 
     889                      .dwpsn  file "../device/driverlib/aes.c",line 187,column 5,is_stmt,isa 0
     890 00000013 1EC4          MOVL      *+XAR4[0],ACC         ; [CPU_FPU] |187| 
     891                      .dwpsn  file "../device/driverlib/aes.c",line 189,column 5,is_stmt,isa 0
     892 00000014 8AA2          MOVL      XAR4,XAR2             ; [CPU_FPU] |189| 
     893                      .dwpsn  file "../device/driverlib/aes.c",line 188,column 5,is_stmt,isa 0
     894 00000015 06D1          MOVL      ACC,*+XAR1[2]         ; [CPU_FPU] |188| 
     895                      .dwpsn  file "../device/driverlib/aes.c",line 190,column 5,is_stmt,isa 0
     896 00000016 DA26          ADDB      XAR2,#38              ; [CPU_ALU] |190| 
     897                      .dwpsn  file "../device/driverlib/aes.c",line 188,column 5,is_stmt,isa 0
     898 00000017 1EC5          MOVL      *+XAR5[0],ACC         ; [CPU_FPU] |188| 
     899                      .dwpsn  file "../device/driverlib/aes.c",line 189,column 5,is_stmt,isa 0
     900 00000018 DC24          ADDB      XAR4,#36              ; [CPU_ALU] |189| 
     901 00000019 06E1          MOVL      ACC,*+XAR1[4]         ; [CPU_FPU] |189| 
     902 0000001a 1EC4          MOVL      *+XAR4[0],ACC         ; [CPU_FPU] |189| 
     903                      .dwpsn  file "../device/driverlib/aes.c",line 190,column 5,is_stmt,isa 0
     904 0000001b 06F1          MOVL      ACC,*+XAR1[6]         ; [CPU_FPU] |190| 
     905 0000001c 1EC2          MOVL      *+XAR2[0],ACC         ; [CPU_ALU] |190| 
     906 0000001d 86BE          MOVL      XAR2,*--SP            ; [CPU_ALU] 
     907                      .dwcfi  cfa_offset, -4
     908                      .dwcfi  restore_reg, 9
     909 0000001e 8BBE          MOVL      XAR1,*--SP            ; [CPU_ALU] 
     910                      .dwcfi  cfa_offset, -2
     911                      .dwcfi  restore_reg, 7
     912              $C$DW$50        .dwtag  DW_TAG_TI_branch
     913                      .dwattr $C$DW$50, DW_AT_low_pc(0x00)
     914                      .dwattr $C$DW$50, DW_AT_TI_return
TMS320C2000 Assembler PC v22.6.1 Wed May 21 09:51:55 2025

Copyright (c) 1996-2018 Texas Instruments Incorporated
C:\Users\Daniel\AppData\Local\Temp\{11E65CAE-3485-48B7-8496-5C6CE456308C} PAGE   18

     915              
     916 0000001f 0006          LRETR     ; [CPU_ALU] 
     917                      ; return occurs ; [] 
     918                      .dwattr $C$DW$44, DW_AT_TI_end_file("../device/driverlib/aes.c")
     919                      .dwattr $C$DW$44, DW_AT_TI_end_line(0xbf)
     920                      .dwattr $C$DW$44, DW_AT_TI_end_column(0x01)
     921                      .dwendentry
     922                      .dwendtag $C$DW$44
     923              
     924 00000000               .sect   ".text:_AES_readTag"
     925                      .clink
     926                      .global _AES_readTag
     927              
     928              $C$DW$51        .dwtag  DW_TAG_subprogram
     929                      .dwattr $C$DW$51, DW_AT_name("AES_readTag")
     930                      .dwattr $C$DW$51, DW_AT_low_pc(_AES_readTag)
     931                      .dwattr $C$DW$51, DW_AT_high_pc(0x00)
     932                      .dwattr $C$DW$51, DW_AT_TI_symbol_name("_AES_readTag")
     933                      .dwattr $C$DW$51, DW_AT_external
     934                      .dwattr $C$DW$51, DW_AT_TI_begin_file("../device/driverlib/aes.c")
     935                      .dwattr $C$DW$51, DW_AT_TI_begin_line(0xde)
     936                      .dwattr $C$DW$51, DW_AT_TI_begin_column(0x01)
     937                      .dwattr $C$DW$51, DW_AT_TI_max_frame_size(-6)
     938                      .dwpsn  file "../device/driverlib/aes.c",line 223,column 1,is_stmt,address _AES_readTag,isa 0
     939              
     940                      .dwfde $C$DW$CIE, _AES_readTag
     941              $C$DW$52        .dwtag  DW_TAG_formal_parameter
     942                      .dwattr $C$DW$52, DW_AT_name("base")
     943                      .dwattr $C$DW$52, DW_AT_TI_symbol_name("_base")
     944                      .dwattr $C$DW$52, DW_AT_type(*$C$DW$T$46)
     945                      .dwattr $C$DW$52, DW_AT_location[DW_OP_reg0]
     946              
     947              $C$DW$53        .dwtag  DW_TAG_formal_parameter
     948                      .dwattr $C$DW$53, DW_AT_name("tagData")
     949                      .dwattr $C$DW$53, DW_AT_TI_symbol_name("_tagData")
     950                      .dwattr $C$DW$53, DW_AT_type(*$C$DW$T$59)
     951                      .dwattr $C$DW$53, DW_AT_location[DW_OP_reg12]
     952              
     953              
     954              ;***************************************************************
     955              ;* FNAME: _AES_readTag                  FR SIZE:   4           *
     956              ;*                                                             *
     957              ;* FUNCTION ENVIRONMENT                                        *
     958              ;*                                                             *
     959              ;* FUNCTION PROPERTIES                                         *
     960              ;*                            0 Parameter,  0 Auto,  4 SOE     *
     961              ;***************************************************************
     962              
     963              _AES_readTag:
     964              ;* AR4   assigned to $O$K10
     965              ;* AR1   assigned to _base
     966              $C$DW$54        .dwtag  DW_TAG_variable
     967                      .dwattr $C$DW$54, DW_AT_name("base")
     968                      .dwattr $C$DW$54, DW_AT_TI_symbol_name("_base")
     969                      .dwattr $C$DW$54, DW_AT_type(*$C$DW$T$54)
TMS320C2000 Assembler PC v22.6.1 Wed May 21 09:51:55 2025

Copyright (c) 1996-2018 Texas Instruments Incorporated
C:\Users\Daniel\AppData\Local\Temp\{11E65CAE-3485-48B7-8496-5C6CE456308C} PAGE   19

     970                      .dwattr $C$DW$54, DW_AT_location[DW_OP_reg6]
     971              
     972              ;* AR2   assigned to _tagData
     973              $C$DW$55        .dwtag  DW_TAG_variable
     974                      .dwattr $C$DW$55, DW_AT_name("tagData")
     975                      .dwattr $C$DW$55, DW_AT_TI_symbol_name("_tagData")
     976                      .dwattr $C$DW$55, DW_AT_type(*$C$DW$T$81)
     977                      .dwattr $C$DW$55, DW_AT_location[DW_OP_reg8]
     978              
     979                      .dwcfi  cfa_offset, -2
     980                      .dwcfi  save_reg_to_mem, 26, 0
     981 00000000 B2BD          MOVL      *SP++,XAR1            ; [CPU_ALU] 
     982                      .dwcfi  save_reg_to_mem, 7, 2
     983                      .dwcfi  cfa_offset, -4
     984 00000001 8BA9          MOVL      XAR1,ACC              ; [CPU_ALU] |223| 
     985 00000002 AABD          MOVL      *SP++,XAR2            ; [CPU_ALU] 
     986                      .dwcfi  save_reg_to_mem, 9, 4
     987                      .dwcfi  cfa_offset, -6
     988 00000003 86A4          MOVL      XAR2,XAR4             ; [CPU_ALU] |223| 
     989                      .dwpsn  file "../device/driverlib/aes.c",line 227,column 5,is_stmt,isa 0
     990 00000004 8F04          MOVL      XAR4,#270336          ; [CPU_ARAU] |227| 
         00000005 2000 
     991 00000006 A8A9          MOVL      ACC,XAR4              ; [CPU_ALU] |227| 
     992 00000007 0FA1          CMPL      ACC,XAR1              ; [CPU_ALU] |227| 
     993 00000008 6106          B         $C$L11,EQ             ; [CPU_ALU] |227| 
     994                      ; branchcc occurs ; [] |227| 
     995 00000009 8F00+         MOVL      XAR4,#$C$FSL1         ; [CPU_ARAU] |227| 
         0000000a 0000 
     996 0000000b 02E3          MOVB      ACC,#227              ; [CPU_ALU] |227| 
     997              $C$DW$56        .dwtag  DW_TAG_TI_branch
     998                      .dwattr $C$DW$56, DW_AT_low_pc(0x00)
     999                      .dwattr $C$DW$56, DW_AT_name("___error__")
    1000                      .dwattr $C$DW$56, DW_AT_TI_call
    1001              
    1002 0000000c 7640!         LCR       #___error__           ; [CPU_ALU] |227| 
         0000000d 0000 
    1003                      ; call occurs [#___error__] ; [] |227| 
    1004 0000000e       $C$L11:    
    1005 0000000e 8AA1          MOVL      XAR4,XAR1             ; [CPU_ALU] 
    1006 0000000f DC28          ADDB      XAR4,#40              ; [CPU_ALU] 
    1007 00000010       $C$L12:    
    1008                      .dwpsn  file "../device/driverlib/aes.c",line 232,column 11,is_stmt,isa 0
    1009 00000010 06C4          MOVL      ACC,*+XAR4[0]         ; [CPU_ALU] |232| 
    1010 00000011 4EA8          TBIT      AH,#14                ; [CPU_ALU] |232| 
    1011 00000012 6CFE          B         $C$L12,NTC            ; [CPU_ALU] |232| 
    1012                      ; branchcc occurs ; [] |232| 
    1013                      .dwpsn  file "../device/driverlib/aes.c",line 240,column 5,is_stmt,isa 0
    1014 00000013 8AA1          MOVL      XAR4,XAR1             ; [CPU_ALU] |240| 
    1015                      .dwpsn  file "../device/driverlib/aes.c",line 241,column 5,is_stmt,isa 0
    1016 00000014 83A1          MOVL      XAR5,XAR1             ; [CPU_ALU] |241| 
    1017                      .dwpsn  file "../device/driverlib/aes.c",line 240,column 5,is_stmt,isa 0
    1018 00000015 DC38          ADDB      XAR4,#56              ; [CPU_ALU] |240| 
    1019                      .dwpsn  file "../device/driverlib/aes.c",line 241,column 5,is_stmt,isa 0
    1020 00000016 DD3A          ADDB      XAR5,#58              ; [CPU_ALU] |241| 
    1021                      .dwpsn  file "../device/driverlib/aes.c",line 240,column 5,is_stmt,isa 0
TMS320C2000 Assembler PC v22.6.1 Wed May 21 09:51:55 2025

Copyright (c) 1996-2018 Texas Instruments Incorporated
C:\Users\Daniel\AppData\Local\Temp\{11E65CAE-3485-48B7-8496-5C6CE456308C} PAGE   20

    1022 00000017 06C4          MOVL      ACC,*+XAR4[0]         ; [CPU_FPU] |240| 
    1023                      .dwpsn  file "../device/driverlib/aes.c",line 242,column 5,is_stmt,isa 0
    1024 00000018 8AA1          MOVL      XAR4,XAR1             ; [CPU_FPU] |242| 
    1025                      .dwpsn  file "../device/driverlib/aes.c",line 240,column 5,is_stmt,isa 0
    1026 00000019 1EC2          MOVL      *+XAR2[0],ACC         ; [CPU_FPU] |240| 
    1027                      .dwpsn  file "../device/driverlib/aes.c",line 243,column 5,is_stmt,isa 0
    1028 0000001a D93E          ADDB      XAR1,#62              ; [CPU_ALU] |243| 
    1029                      .dwpsn  file "../device/driverlib/aes.c",line 241,column 5,is_stmt,isa 0
    1030 0000001b 06C5          MOVL      ACC,*+XAR5[0]         ; [CPU_FPU] |241| 
    1031                      .dwpsn  file "../device/driverlib/aes.c",line 242,column 5,is_stmt,isa 0
    1032 0000001c DC3C          ADDB      XAR4,#60              ; [CPU_ALU] |242| 
    1033                      .dwpsn  file "../device/driverlib/aes.c",line 241,column 5,is_stmt,isa 0
    1034 0000001d 1ED2          MOVL      *+XAR2[2],ACC         ; [CPU_FPU] |241| 
    1035                      .dwpsn  file "../device/driverlib/aes.c",line 242,column 5,is_stmt,isa 0
    1036 0000001e 06C4          MOVL      ACC,*+XAR4[0]         ; [CPU_FPU] |242| 
    1037 0000001f 1EE2          MOVL      *+XAR2[4],ACC         ; [CPU_FPU] |242| 
    1038                      .dwpsn  file "../device/driverlib/aes.c",line 243,column 5,is_stmt,isa 0
    1039 00000020 06C1          MOVL      ACC,*+XAR1[0]         ; [CPU_ALU] |243| 
    1040 00000021 1EF2          MOVL      *+XAR2[6],ACC         ; [CPU_ALU] |243| 
    1041 00000022 86BE          MOVL      XAR2,*--SP            ; [CPU_ALU] 
    1042                      .dwcfi  cfa_offset, -4
    1043                      .dwcfi  restore_reg, 9
    1044 00000023 8BBE          MOVL      XAR1,*--SP            ; [CPU_ALU] 
    1045                      .dwcfi  cfa_offset, -2
    1046                      .dwcfi  restore_reg, 7
    1047              $C$DW$57        .dwtag  DW_TAG_TI_branch
    1048                      .dwattr $C$DW$57, DW_AT_low_pc(0x00)
    1049                      .dwattr $C$DW$57, DW_AT_TI_return
    1050              
    1051 00000024 0006          LRETR     ; [CPU_ALU] 
    1052                      ; return occurs ; [] 
    1053                      .dwattr $C$DW$51, DW_AT_TI_end_file("../device/driverlib/aes.c")
    1054                      .dwattr $C$DW$51, DW_AT_TI_end_line(0xf4)
    1055                      .dwattr $C$DW$51, DW_AT_TI_end_column(0x01)
    1056                      .dwendentry
    1057                      .dwendtag $C$DW$51
    1058              
    1059 00000000               .sect   ".text:_AES_readInitializationVector"
    1060                      .clink
    1061                      .global _AES_readInitializationVector
    1062              
    1063              $C$DW$58        .dwtag  DW_TAG_subprogram
    1064                      .dwattr $C$DW$58, DW_AT_name("AES_readInitializationVector")
    1065                      .dwattr $C$DW$58, DW_AT_low_pc(_AES_readInitializationVector)
    1066                      .dwattr $C$DW$58, DW_AT_high_pc(0x00)
    1067                      .dwattr $C$DW$58, DW_AT_TI_symbol_name("_AES_readInitializationVector")
    1068                      .dwattr $C$DW$58, DW_AT_external
    1069                      .dwattr $C$DW$58, DW_AT_TI_begin_file("../device/driverlib/aes.c")
    1070                      .dwattr $C$DW$58, DW_AT_TI_begin_line(0xc7)
    1071                      .dwattr $C$DW$58, DW_AT_TI_begin_column(0x01)
    1072                      .dwattr $C$DW$58, DW_AT_TI_max_frame_size(-6)
    1073                      .dwpsn  file "../device/driverlib/aes.c",line 200,column 1,is_stmt,address _AES_readInitializationVec
    1074              
    1075                      .dwfde $C$DW$CIE, _AES_readInitializationVector
    1076              $C$DW$59        .dwtag  DW_TAG_formal_parameter
TMS320C2000 Assembler PC v22.6.1 Wed May 21 09:51:55 2025

Copyright (c) 1996-2018 Texas Instruments Incorporated
C:\Users\Daniel\AppData\Local\Temp\{11E65CAE-3485-48B7-8496-5C6CE456308C} PAGE   21

    1077                      .dwattr $C$DW$59, DW_AT_name("base")
    1078                      .dwattr $C$DW$59, DW_AT_TI_symbol_name("_base")
    1079                      .dwattr $C$DW$59, DW_AT_type(*$C$DW$T$46)
    1080                      .dwattr $C$DW$59, DW_AT_location[DW_OP_reg0]
    1081              
    1082              $C$DW$60        .dwtag  DW_TAG_formal_parameter
    1083                      .dwattr $C$DW$60, DW_AT_name("iniVector")
    1084                      .dwattr $C$DW$60, DW_AT_TI_symbol_name("_iniVector")
    1085                      .dwattr $C$DW$60, DW_AT_type(*$C$DW$T$59)
    1086                      .dwattr $C$DW$60, DW_AT_location[DW_OP_reg12]
    1087              
    1088              
    1089              ;***************************************************************
    1090              ;* FNAME: _AES_readInitializationVector FR SIZE:   4           *
    1091              ;*                                                             *
    1092              ;* FUNCTION ENVIRONMENT                                        *
    1093              ;*                                                             *
    1094              ;* FUNCTION PROPERTIES                                         *
    1095              ;*                            0 Parameter,  0 Auto,  4 SOE     *
    1096              ;***************************************************************
    1097              
    1098              _AES_readInitializationVector:
    1099              ;* AR2   assigned to _base
    1100              $C$DW$61        .dwtag  DW_TAG_variable
    1101                      .dwattr $C$DW$61, DW_AT_name("base")
    1102                      .dwattr $C$DW$61, DW_AT_TI_symbol_name("_base")
    1103                      .dwattr $C$DW$61, DW_AT_type(*$C$DW$T$54)
    1104                      .dwattr $C$DW$61, DW_AT_location[DW_OP_reg8]
    1105              
    1106              ;* AR1   assigned to _iniVector
    1107              $C$DW$62        .dwtag  DW_TAG_variable
    1108                      .dwattr $C$DW$62, DW_AT_name("iniVector")
    1109                      .dwattr $C$DW$62, DW_AT_TI_symbol_name("_iniVector")
    1110                      .dwattr $C$DW$62, DW_AT_type(*$C$DW$T$81)
    1111                      .dwattr $C$DW$62, DW_AT_location[DW_OP_reg6]
    1112              
    1113                      .dwcfi  cfa_offset, -2
    1114                      .dwcfi  save_reg_to_mem, 26, 0
    1115 00000000 B2BD          MOVL      *SP++,XAR1            ; [CPU_ALU] 
    1116                      .dwcfi  save_reg_to_mem, 7, 2
    1117                      .dwcfi  cfa_offset, -4
    1118 00000001 AABD          MOVL      *SP++,XAR2            ; [CPU_ALU] 
    1119                      .dwcfi  save_reg_to_mem, 9, 4
    1120                      .dwcfi  cfa_offset, -6
    1121 00000002 86A9          MOVL      XAR2,ACC              ; [CPU_ALU] |200| 
    1122 00000003 8BA4          MOVL      XAR1,XAR4             ; [CPU_ALU] |200| 
    1123                      .dwpsn  file "../device/driverlib/aes.c",line 204,column 5,is_stmt,isa 0
    1124 00000004 8F04          MOVL      XAR4,#270336          ; [CPU_ARAU] |204| 
         00000005 2000 
    1125 00000006 A8A9          MOVL      ACC,XAR4              ; [CPU_ALU] |204| 
    1126 00000007 0FA2          CMPL      ACC,XAR2              ; [CPU_ALU] |204| 
    1127 00000008 6106          B         $C$L13,EQ             ; [CPU_ALU] |204| 
    1128                      ; branchcc occurs ; [] |204| 
    1129 00000009 8F00+         MOVL      XAR4,#$C$FSL1         ; [CPU_ARAU] |204| 
         0000000a 0000 
TMS320C2000 Assembler PC v22.6.1 Wed May 21 09:51:55 2025

Copyright (c) 1996-2018 Texas Instruments Incorporated
C:\Users\Daniel\AppData\Local\Temp\{11E65CAE-3485-48B7-8496-5C6CE456308C} PAGE   22

    1130 0000000b 02CC          MOVB      ACC,#204              ; [CPU_ALU] |204| 
    1131              $C$DW$63        .dwtag  DW_TAG_TI_branch
    1132                      .dwattr $C$DW$63, DW_AT_low_pc(0x00)
    1133                      .dwattr $C$DW$63, DW_AT_name("___error__")
    1134                      .dwattr $C$DW$63, DW_AT_TI_call
    1135              
    1136 0000000c 7640!         LCR       #___error__           ; [CPU_ALU] |204| 
         0000000d 0000 
    1137                      ; call occurs [#___error__] ; [] |204| 
    1138 0000000e       $C$L13:    
    1139                      .dwpsn  file "../device/driverlib/aes.c",line 209,column 5,is_stmt,isa 0
    1140 0000000e 8AA2          MOVL      XAR4,XAR2             ; [CPU_ALU] |209| 
    1141                      .dwpsn  file "../device/driverlib/aes.c",line 210,column 5,is_stmt,isa 0
    1142 0000000f 83A2          MOVL      XAR5,XAR2             ; [CPU_ALU] |210| 
    1143                      .dwpsn  file "../device/driverlib/aes.c",line 209,column 5,is_stmt,isa 0
    1144 00000010 DC20          ADDB      XAR4,#32              ; [CPU_ALU] |209| 
    1145                      .dwpsn  file "../device/driverlib/aes.c",line 210,column 5,is_stmt,isa 0
    1146 00000011 DD22          ADDB      XAR5,#34              ; [CPU_ALU] |210| 
    1147                      .dwpsn  file "../device/driverlib/aes.c",line 209,column 5,is_stmt,isa 0
    1148 00000012 06C4          MOVL      ACC,*+XAR4[0]         ; [CPU_FPU] |209| 
    1149                      .dwpsn  file "../device/driverlib/aes.c",line 211,column 5,is_stmt,isa 0
    1150 00000013 8AA2          MOVL      XAR4,XAR2             ; [CPU_FPU] |211| 
    1151                      .dwpsn  file "../device/driverlib/aes.c",line 209,column 5,is_stmt,isa 0
    1152 00000014 1EC1          MOVL      *+XAR1[0],ACC         ; [CPU_FPU] |209| 
    1153                      .dwpsn  file "../device/driverlib/aes.c",line 212,column 5,is_stmt,isa 0
    1154 00000015 DA26          ADDB      XAR2,#38              ; [CPU_ALU] |212| 
    1155                      .dwpsn  file "../device/driverlib/aes.c",line 210,column 5,is_stmt,isa 0
    1156 00000016 06C5          MOVL      ACC,*+XAR5[0]         ; [CPU_FPU] |210| 
    1157                      .dwpsn  file "../device/driverlib/aes.c",line 211,column 5,is_stmt,isa 0
    1158 00000017 DC24          ADDB      XAR4,#36              ; [CPU_ALU] |211| 
    1159                      .dwpsn  file "../device/driverlib/aes.c",line 210,column 5,is_stmt,isa 0
    1160 00000018 1ED1          MOVL      *+XAR1[2],ACC         ; [CPU_FPU] |210| 
    1161                      .dwpsn  file "../device/driverlib/aes.c",line 211,column 5,is_stmt,isa 0
    1162 00000019 06C4          MOVL      ACC,*+XAR4[0]         ; [CPU_FPU] |211| 
    1163 0000001a 1EE1          MOVL      *+XAR1[4],ACC         ; [CPU_FPU] |211| 
    1164                      .dwpsn  file "../device/driverlib/aes.c",line 212,column 5,is_stmt,isa 0
    1165 0000001b 06C2          MOVL      ACC,*+XAR2[0]         ; [CPU_ALU] |212| 
    1166 0000001c 1EF1          MOVL      *+XAR1[6],ACC         ; [CPU_ALU] |212| 
    1167 0000001d 86BE          MOVL      XAR2,*--SP            ; [CPU_ALU] 
    1168                      .dwcfi  cfa_offset, -4
    1169                      .dwcfi  restore_reg, 9
    1170 0000001e 8BBE          MOVL      XAR1,*--SP            ; [CPU_ALU] 
    1171                      .dwcfi  cfa_offset, -2
    1172                      .dwcfi  restore_reg, 7
    1173              $C$DW$64        .dwtag  DW_TAG_TI_branch
    1174                      .dwattr $C$DW$64, DW_AT_low_pc(0x00)
    1175                      .dwattr $C$DW$64, DW_AT_TI_return
    1176              
    1177 0000001f 0006          LRETR     ; [CPU_ALU] 
    1178                      ; return occurs ; [] 
    1179                      .dwattr $C$DW$58, DW_AT_TI_end_file("../device/driverlib/aes.c")
    1180                      .dwattr $C$DW$58, DW_AT_TI_end_line(0xd6)
    1181                      .dwattr $C$DW$58, DW_AT_TI_end_column(0x01)
    1182                      .dwendentry
    1183                      .dwendtag $C$DW$58
TMS320C2000 Assembler PC v22.6.1 Wed May 21 09:51:55 2025

Copyright (c) 1996-2018 Texas Instruments Incorporated
C:\Users\Daniel\AppData\Local\Temp\{11E65CAE-3485-48B7-8496-5C6CE456308C} PAGE   23

    1184              
    1185 00000000               .sect   ".text:_AES_readDataNonBlocking"
    1186                      .clink
    1187                      .global _AES_readDataNonBlocking
    1188              
    1189              $C$DW$65        .dwtag  DW_TAG_subprogram
    1190                      .dwattr $C$DW$65, DW_AT_name("AES_readDataNonBlocking")
    1191                      .dwattr $C$DW$65, DW_AT_low_pc(_AES_readDataNonBlocking)
    1192                      .dwattr $C$DW$65, DW_AT_high_pc(0x00)
    1193                      .dwattr $C$DW$65, DW_AT_TI_symbol_name("_AES_readDataNonBlocking")
    1194                      .dwattr $C$DW$65, DW_AT_external
    1195                      .dwattr $C$DW$65, DW_AT_type(*$C$DW$T$76)
    1196                      .dwattr $C$DW$65, DW_AT_TI_begin_file("../device/driverlib/aes.c")
    1197                      .dwattr $C$DW$65, DW_AT_TI_begin_line(0xfc)
    1198                      .dwattr $C$DW$65, DW_AT_TI_begin_column(0x01)
    1199                      .dwattr $C$DW$65, DW_AT_TI_max_frame_size(-6)
    1200                      .dwpsn  file "../device/driverlib/aes.c",line 253,column 1,is_stmt,address _AES_readDataNonBlocking,i
    1201              
    1202                      .dwfde $C$DW$CIE, _AES_readDataNonBlocking
    1203              $C$DW$66        .dwtag  DW_TAG_formal_parameter
    1204                      .dwattr $C$DW$66, DW_AT_name("base")
    1205                      .dwattr $C$DW$66, DW_AT_TI_symbol_name("_base")
    1206                      .dwattr $C$DW$66, DW_AT_type(*$C$DW$T$46)
    1207                      .dwattr $C$DW$66, DW_AT_location[DW_OP_reg0]
    1208              
    1209              $C$DW$67        .dwtag  DW_TAG_formal_parameter
    1210                      .dwattr $C$DW$67, DW_AT_name("destArray")
    1211                      .dwattr $C$DW$67, DW_AT_TI_symbol_name("_destArray")
    1212                      .dwattr $C$DW$67, DW_AT_type(*$C$DW$T$59)
    1213                      .dwattr $C$DW$67, DW_AT_location[DW_OP_reg12]
    1214              
    1215              
    1216              ;***************************************************************
    1217              ;* FNAME: _AES_readDataNonBlocking      FR SIZE:   4           *
    1218              ;*                                                             *
    1219              ;* FUNCTION ENVIRONMENT                                        *
    1220              ;*                                                             *
    1221              ;* FUNCTION PROPERTIES                                         *
    1222              ;*                            0 Parameter,  0 Auto,  4 SOE     *
    1223              ;***************************************************************
    1224              
    1225              _AES_readDataNonBlocking:
    1226              ;* AR1   assigned to _base
    1227              $C$DW$68        .dwtag  DW_TAG_variable
    1228                      .dwattr $C$DW$68, DW_AT_name("base")
    1229                      .dwattr $C$DW$68, DW_AT_TI_symbol_name("_base")
    1230                      .dwattr $C$DW$68, DW_AT_type(*$C$DW$T$54)
    1231                      .dwattr $C$DW$68, DW_AT_location[DW_OP_reg6]
    1232              
    1233              ;* AR2   assigned to _destArray
    1234              $C$DW$69        .dwtag  DW_TAG_variable
    1235                      .dwattr $C$DW$69, DW_AT_name("destArray")
    1236                      .dwattr $C$DW$69, DW_AT_TI_symbol_name("_destArray")
    1237                      .dwattr $C$DW$69, DW_AT_type(*$C$DW$T$81)
    1238                      .dwattr $C$DW$69, DW_AT_location[DW_OP_reg8]
TMS320C2000 Assembler PC v22.6.1 Wed May 21 09:51:55 2025

Copyright (c) 1996-2018 Texas Instruments Incorporated
C:\Users\Daniel\AppData\Local\Temp\{11E65CAE-3485-48B7-8496-5C6CE456308C} PAGE   24

    1239              
    1240              ;* AL    assigned to _temp
    1241              $C$DW$70        .dwtag  DW_TAG_variable
    1242                      .dwattr $C$DW$70, DW_AT_name("temp")
    1243                      .dwattr $C$DW$70, DW_AT_TI_symbol_name("_temp")
    1244                      .dwattr $C$DW$70, DW_AT_type(*$C$DW$T$76)
    1245                      .dwattr $C$DW$70, DW_AT_location[DW_OP_reg0]
    1246              
    1247                      .dwcfi  cfa_offset, -2
    1248                      .dwcfi  save_reg_to_mem, 26, 0
    1249 00000000 B2BD          MOVL      *SP++,XAR1            ; [CPU_ALU] 
    1250                      .dwcfi  save_reg_to_mem, 7, 2
    1251                      .dwcfi  cfa_offset, -4
    1252 00000001 8BA9          MOVL      XAR1,ACC              ; [CPU_ALU] |253| 
    1253 00000002 AABD          MOVL      *SP++,XAR2            ; [CPU_ALU] 
    1254                      .dwcfi  save_reg_to_mem, 9, 4
    1255                      .dwcfi  cfa_offset, -6
    1256 00000003 86A4          MOVL      XAR2,XAR4             ; [CPU_ALU] |253| 
    1257                      .dwpsn  file "../device/driverlib/aes.c",line 259,column 5,is_stmt,isa 0
    1258 00000004 8F04          MOVL      XAR4,#270336          ; [CPU_ARAU] |259| 
         00000005 2000 
    1259 00000006 A8A9          MOVL      ACC,XAR4              ; [CPU_ALU] |259| 
    1260 00000007 0FA1          CMPL      ACC,XAR1              ; [CPU_ALU] |259| 
    1261 00000008 6107          B         $C$L14,EQ             ; [CPU_ALU] |259| 
    1262                      ; branchcc occurs ; [] |259| 
    1263 00000009 FF20          MOV       ACC,#259              ; [CPU_ALU] |259| 
         0000000a 0103 
    1264 0000000b 8F00+         MOVL      XAR4,#$C$FSL1         ; [CPU_ARAU] |259| 
         0000000c 0000 
    1265              $C$DW$71        .dwtag  DW_TAG_TI_branch
    1266                      .dwattr $C$DW$71, DW_AT_low_pc(0x00)
    1267                      .dwattr $C$DW$71, DW_AT_name("___error__")
    1268                      .dwattr $C$DW$71, DW_AT_TI_call
    1269              
    1270 0000000d 7640!         LCR       #___error__           ; [CPU_ALU] |259| 
         0000000e 0000 
    1271                      ; call occurs [#___error__] ; [] |259| 
    1272 0000000f       $C$L14:    
    1273                      .dwpsn  file "../device/driverlib/aes.c",line 265,column 5,is_stmt,isa 0
    1274 0000000f 8AA1          MOVL      XAR4,XAR1             ; [CPU_ALU] |265| 
    1275 00000010 DC28          ADDB      XAR4,#40              ; [CPU_ALU] |265| 
    1276 00000011 06C4          MOVL      ACC,*+XAR4[0]         ; [CPU_ALU] |265| 
    1277 00000012 40A9          TBIT      AL,#0                 ; [CPU_ALU] |265| 
    1278                      .dwpsn  file "../device/driverlib/aes.c",line 268,column 9,is_stmt,isa 0
    1279 00000013 56BC          MOVB      AL,#0,NTC             ; [CPU_ALU] |268| 
         00000014 00A9 
    1280 00000015 6C11          B         $C$L15,NTC            ; [CPU_ALU] 
    1281                      ; branchcc occurs ; [] 
    1282                      .dwpsn  file "../device/driverlib/aes.c",line 275,column 9,is_stmt,isa 0
    1283 00000016 8AA1          MOVL      XAR4,XAR1             ; [CPU_ALU] |275| 
    1284                      .dwpsn  file "../device/driverlib/aes.c",line 276,column 9,is_stmt,isa 0
    1285 00000017 83A1          MOVL      XAR5,XAR1             ; [CPU_ALU] |276| 
    1286                      .dwpsn  file "../device/driverlib/aes.c",line 275,column 9,is_stmt,isa 0
    1287 00000018 DC36          ADDB      XAR4,#54              ; [CPU_ALU] |275| 
    1288                      .dwpsn  file "../device/driverlib/aes.c",line 276,column 9,is_stmt,isa 0
TMS320C2000 Assembler PC v22.6.1 Wed May 21 09:51:55 2025

Copyright (c) 1996-2018 Texas Instruments Incorporated
C:\Users\Daniel\AppData\Local\Temp\{11E65CAE-3485-48B7-8496-5C6CE456308C} PAGE   25

    1289 00000019 DD34          ADDB      XAR5,#52              ; [CPU_ALU] |276| 
    1290                      .dwpsn  file "../device/driverlib/aes.c",line 275,column 9,is_stmt,isa 0
    1291 0000001a 06C4          MOVL      ACC,*+XAR4[0]         ; [CPU_FPU] |275| 
    1292                      .dwpsn  file "../device/driverlib/aes.c",line 277,column 9,is_stmt,isa 0
    1293 0000001b 8AA1          MOVL      XAR4,XAR1             ; [CPU_FPU] |277| 
    1294                      .dwpsn  file "../device/driverlib/aes.c",line 275,column 9,is_stmt,isa 0
    1295 0000001c 1EC2          MOVL      *+XAR2[0],ACC         ; [CPU_FPU] |275| 
    1296                      .dwpsn  file "../device/driverlib/aes.c",line 278,column 9,is_stmt,isa 0
    1297 0000001d D930          ADDB      XAR1,#48              ; [CPU_ALU] |278| 
    1298                      .dwpsn  file "../device/driverlib/aes.c",line 276,column 9,is_stmt,isa 0
    1299 0000001e 06C5          MOVL      ACC,*+XAR5[0]         ; [CPU_FPU] |276| 
    1300                      .dwpsn  file "../device/driverlib/aes.c",line 277,column 9,is_stmt,isa 0
    1301 0000001f DC32          ADDB      XAR4,#50              ; [CPU_ALU] |277| 
    1302                      .dwpsn  file "../device/driverlib/aes.c",line 276,column 9,is_stmt,isa 0
    1303 00000020 1ED2          MOVL      *+XAR2[2],ACC         ; [CPU_FPU] |276| 
    1304                      .dwpsn  file "../device/driverlib/aes.c",line 277,column 9,is_stmt,isa 0
    1305 00000021 06C4          MOVL      ACC,*+XAR4[0]         ; [CPU_FPU] |277| 
    1306 00000022 1EE2          MOVL      *+XAR2[4],ACC         ; [CPU_FPU] |277| 
    1307                      .dwpsn  file "../device/driverlib/aes.c",line 278,column 9,is_stmt,isa 0
    1308 00000023 C4C1          MOVL      XAR6,*+XAR1[0]        ; [CPU_ALU] |278| 
    1309                      .dwpsn  file "../device/driverlib/aes.c",line 283,column 9,is_stmt,isa 0
    1310 00000024 9A01          MOVB      AL,#1                 ; [CPU_ALU] |283| 
    1311                      .dwpsn  file "../device/driverlib/aes.c",line 278,column 9,is_stmt,isa 0
    1312 00000025 C2F2          MOVL      *+XAR2[6],XAR6        ; [CPU_ALU] |278| 
    1313 00000026       $C$L15:    
    1314 00000026 86BE          MOVL      XAR2,*--SP            ; [CPU_ALU] 
    1315                      .dwcfi  cfa_offset, -4
    1316                      .dwcfi  restore_reg, 9
    1317 00000027 8BBE          MOVL      XAR1,*--SP            ; [CPU_ALU] 
    1318                      .dwcfi  cfa_offset, -2
    1319                      .dwcfi  restore_reg, 7
    1320              $C$DW$72        .dwtag  DW_TAG_TI_branch
    1321                      .dwattr $C$DW$72, DW_AT_low_pc(0x00)
    1322                      .dwattr $C$DW$72, DW_AT_TI_return
    1323              
    1324 00000028 0006          LRETR     ; [CPU_ALU] 
    1325                      ; return occurs ; [] 
    1326                      .dwattr $C$DW$65, DW_AT_TI_end_file("../device/driverlib/aes.c")
    1327                      .dwattr $C$DW$65, DW_AT_TI_end_line(0x11e)
    1328                      .dwattr $C$DW$65, DW_AT_TI_end_column(0x01)
    1329                      .dwendentry
    1330                      .dwendtag $C$DW$65
    1331              
    1332 00000000               .sect   ".text:_AES_readDataBlocking"
    1333                      .clink
    1334                      .global _AES_readDataBlocking
    1335              
    1336              $C$DW$73        .dwtag  DW_TAG_subprogram
    1337                      .dwattr $C$DW$73, DW_AT_name("AES_readDataBlocking")
    1338                      .dwattr $C$DW$73, DW_AT_low_pc(_AES_readDataBlocking)
    1339                      .dwattr $C$DW$73, DW_AT_high_pc(0x00)
    1340                      .dwattr $C$DW$73, DW_AT_TI_symbol_name("_AES_readDataBlocking")
    1341                      .dwattr $C$DW$73, DW_AT_external
    1342                      .dwattr $C$DW$73, DW_AT_TI_begin_file("../device/driverlib/aes.c")
    1343                      .dwattr $C$DW$73, DW_AT_TI_begin_line(0x126)
TMS320C2000 Assembler PC v22.6.1 Wed May 21 09:51:55 2025

Copyright (c) 1996-2018 Texas Instruments Incorporated
C:\Users\Daniel\AppData\Local\Temp\{11E65CAE-3485-48B7-8496-5C6CE456308C} PAGE   26

    1344                      .dwattr $C$DW$73, DW_AT_TI_begin_column(0x01)
    1345                      .dwattr $C$DW$73, DW_AT_TI_max_frame_size(-6)
    1346                      .dwpsn  file "../device/driverlib/aes.c",line 295,column 1,is_stmt,address _AES_readDataBlocking,isa 
    1347              
    1348                      .dwfde $C$DW$CIE, _AES_readDataBlocking
    1349              $C$DW$74        .dwtag  DW_TAG_formal_parameter
    1350                      .dwattr $C$DW$74, DW_AT_name("base")
    1351                      .dwattr $C$DW$74, DW_AT_TI_symbol_name("_base")
    1352                      .dwattr $C$DW$74, DW_AT_type(*$C$DW$T$46)
    1353                      .dwattr $C$DW$74, DW_AT_location[DW_OP_reg0]
    1354              
    1355              $C$DW$75        .dwtag  DW_TAG_formal_parameter
    1356                      .dwattr $C$DW$75, DW_AT_name("destArray")
    1357                      .dwattr $C$DW$75, DW_AT_TI_symbol_name("_destArray")
    1358                      .dwattr $C$DW$75, DW_AT_type(*$C$DW$T$59)
    1359                      .dwattr $C$DW$75, DW_AT_location[DW_OP_reg12]
    1360              
    1361              
    1362              ;***************************************************************
    1363              ;* FNAME: _AES_readDataBlocking         FR SIZE:   4           *
    1364              ;*                                                             *
    1365              ;* FUNCTION ENVIRONMENT                                        *
    1366              ;*                                                             *
    1367              ;* FUNCTION PROPERTIES                                         *
    1368              ;*                            0 Parameter,  0 Auto,  4 SOE     *
    1369              ;***************************************************************
    1370              
    1371              _AES_readDataBlocking:
    1372              ;* AR4   assigned to $O$K10
    1373              ;* AR1   assigned to _base
    1374              $C$DW$76        .dwtag  DW_TAG_variable
    1375                      .dwattr $C$DW$76, DW_AT_name("base")
    1376                      .dwattr $C$DW$76, DW_AT_TI_symbol_name("_base")
    1377                      .dwattr $C$DW$76, DW_AT_type(*$C$DW$T$54)
    1378                      .dwattr $C$DW$76, DW_AT_location[DW_OP_reg6]
    1379              
    1380              ;* AR2   assigned to _destArray
    1381              $C$DW$77        .dwtag  DW_TAG_variable
    1382                      .dwattr $C$DW$77, DW_AT_name("destArray")
    1383                      .dwattr $C$DW$77, DW_AT_TI_symbol_name("_destArray")
    1384                      .dwattr $C$DW$77, DW_AT_type(*$C$DW$T$81)
    1385                      .dwattr $C$DW$77, DW_AT_location[DW_OP_reg8]
    1386              
    1387                      .dwcfi  cfa_offset, -2
    1388                      .dwcfi  save_reg_to_mem, 26, 0
    1389 00000000 B2BD          MOVL      *SP++,XAR1            ; [CPU_ALU] 
    1390                      .dwcfi  save_reg_to_mem, 7, 2
    1391                      .dwcfi  cfa_offset, -4
    1392 00000001 8BA9          MOVL      XAR1,ACC              ; [CPU_ALU] |295| 
    1393 00000002 AABD          MOVL      *SP++,XAR2            ; [CPU_ALU] 
    1394                      .dwcfi  save_reg_to_mem, 9, 4
    1395                      .dwcfi  cfa_offset, -6
    1396 00000003 86A4          MOVL      XAR2,XAR4             ; [CPU_ALU] |295| 
    1397                      .dwpsn  file "../device/driverlib/aes.c",line 299,column 5,is_stmt,isa 0
    1398 00000004 8F04          MOVL      XAR4,#270336          ; [CPU_ARAU] |299| 
TMS320C2000 Assembler PC v22.6.1 Wed May 21 09:51:55 2025

Copyright (c) 1996-2018 Texas Instruments Incorporated
C:\Users\Daniel\AppData\Local\Temp\{11E65CAE-3485-48B7-8496-5C6CE456308C} PAGE   27

         00000005 2000 
    1399 00000006 A8A9          MOVL      ACC,XAR4              ; [CPU_ALU] |299| 
    1400 00000007 0FA1          CMPL      ACC,XAR1              ; [CPU_ALU] |299| 
    1401 00000008 6107          B         $C$L16,EQ             ; [CPU_ALU] |299| 
    1402                      ; branchcc occurs ; [] |299| 
    1403 00000009 FF20          MOV       ACC,#299              ; [CPU_ALU] |299| 
         0000000a 012B 
    1404 0000000b 8F00+         MOVL      XAR4,#$C$FSL1         ; [CPU_ARAU] |299| 
         0000000c 0000 
    1405              $C$DW$78        .dwtag  DW_TAG_TI_branch
    1406                      .dwattr $C$DW$78, DW_AT_low_pc(0x00)
    1407                      .dwattr $C$DW$78, DW_AT_name("___error__")
    1408                      .dwattr $C$DW$78, DW_AT_TI_call
    1409              
    1410 0000000d 7640!         LCR       #___error__           ; [CPU_ALU] |299| 
         0000000e 0000 
    1411                      ; call occurs [#___error__] ; [] |299| 
    1412 0000000f       $C$L16:    
    1413 0000000f 8AA1          MOVL      XAR4,XAR1             ; [CPU_ALU] 
    1414 00000010 DC28          ADDB      XAR4,#40              ; [CPU_ALU] 
    1415 00000011       $C$L17:    
    1416                      .dwpsn  file "../device/driverlib/aes.c",line 304,column 11,is_stmt,isa 0
    1417 00000011 06C4          MOVL      ACC,*+XAR4[0]         ; [CPU_ALU] |304| 
    1418 00000012 40A9          TBIT      AL,#0                 ; [CPU_ALU] |304| 
    1419 00000013 6CFE          B         $C$L17,NTC            ; [CPU_ALU] |304| 
    1420                      ; branchcc occurs ; [] |304| 
    1421                      .dwpsn  file "../device/driverlib/aes.c",line 312,column 5,is_stmt,isa 0
    1422 00000014 8AA1          MOVL      XAR4,XAR1             ; [CPU_ALU] |312| 
    1423                      .dwpsn  file "../device/driverlib/aes.c",line 313,column 5,is_stmt,isa 0
    1424 00000015 83A1          MOVL      XAR5,XAR1             ; [CPU_ALU] |313| 
    1425                      .dwpsn  file "../device/driverlib/aes.c",line 312,column 5,is_stmt,isa 0
    1426 00000016 DC36          ADDB      XAR4,#54              ; [CPU_ALU] |312| 
    1427                      .dwpsn  file "../device/driverlib/aes.c",line 313,column 5,is_stmt,isa 0
    1428 00000017 DD34          ADDB      XAR5,#52              ; [CPU_ALU] |313| 
    1429                      .dwpsn  file "../device/driverlib/aes.c",line 312,column 5,is_stmt,isa 0
    1430 00000018 06C4          MOVL      ACC,*+XAR4[0]         ; [CPU_FPU] |312| 
    1431                      .dwpsn  file "../device/driverlib/aes.c",line 314,column 5,is_stmt,isa 0
    1432 00000019 8AA1          MOVL      XAR4,XAR1             ; [CPU_FPU] |314| 
    1433                      .dwpsn  file "../device/driverlib/aes.c",line 312,column 5,is_stmt,isa 0
    1434 0000001a 1EC2          MOVL      *+XAR2[0],ACC         ; [CPU_FPU] |312| 
    1435                      .dwpsn  file "../device/driverlib/aes.c",line 315,column 5,is_stmt,isa 0
    1436 0000001b D930          ADDB      XAR1,#48              ; [CPU_ALU] |315| 
    1437                      .dwpsn  file "../device/driverlib/aes.c",line 313,column 5,is_stmt,isa 0
    1438 0000001c 06C5          MOVL      ACC,*+XAR5[0]         ; [CPU_FPU] |313| 
    1439                      .dwpsn  file "../device/driverlib/aes.c",line 314,column 5,is_stmt,isa 0
    1440 0000001d DC32          ADDB      XAR4,#50              ; [CPU_ALU] |314| 
    1441                      .dwpsn  file "../device/driverlib/aes.c",line 313,column 5,is_stmt,isa 0
    1442 0000001e 1ED2          MOVL      *+XAR2[2],ACC         ; [CPU_FPU] |313| 
    1443                      .dwpsn  file "../device/driverlib/aes.c",line 314,column 5,is_stmt,isa 0
    1444 0000001f 06C4          MOVL      ACC,*+XAR4[0]         ; [CPU_FPU] |314| 
    1445 00000020 1EE2          MOVL      *+XAR2[4],ACC         ; [CPU_FPU] |314| 
    1446                      .dwpsn  file "../device/driverlib/aes.c",line 315,column 5,is_stmt,isa 0
    1447 00000021 06C1          MOVL      ACC,*+XAR1[0]         ; [CPU_ALU] |315| 
    1448 00000022 1EF2          MOVL      *+XAR2[6],ACC         ; [CPU_ALU] |315| 
    1449 00000023 86BE          MOVL      XAR2,*--SP            ; [CPU_ALU] 
TMS320C2000 Assembler PC v22.6.1 Wed May 21 09:51:55 2025

Copyright (c) 1996-2018 Texas Instruments Incorporated
C:\Users\Daniel\AppData\Local\Temp\{11E65CAE-3485-48B7-8496-5C6CE456308C} PAGE   28

    1450                      .dwcfi  cfa_offset, -4
    1451                      .dwcfi  restore_reg, 9
    1452 00000024 8BBE          MOVL      XAR1,*--SP            ; [CPU_ALU] 
    1453                      .dwcfi  cfa_offset, -2
    1454                      .dwcfi  restore_reg, 7
    1455              $C$DW$79        .dwtag  DW_TAG_TI_branch
    1456                      .dwattr $C$DW$79, DW_AT_low_pc(0x00)
    1457                      .dwattr $C$DW$79, DW_AT_TI_return
    1458              
    1459 00000025 0006          LRETR     ; [CPU_ALU] 
    1460                      ; return occurs ; [] 
    1461                      .dwattr $C$DW$73, DW_AT_TI_end_file("../device/driverlib/aes.c")
    1462                      .dwattr $C$DW$73, DW_AT_TI_end_line(0x13c)
    1463                      .dwattr $C$DW$73, DW_AT_TI_end_column(0x01)
    1464                      .dwendentry
    1465                      .dwendtag $C$DW$73
    1466              
    1467 00000000               .sect   ".text:_AES_processDatainAuthMode"
    1468                      .clink
    1469                      .global _AES_processDatainAuthMode
    1470              
    1471              $C$DW$80        .dwtag  DW_TAG_subprogram
    1472                      .dwattr $C$DW$80, DW_AT_name("AES_processDatainAuthMode")
    1473                      .dwattr $C$DW$80, DW_AT_low_pc(_AES_processDatainAuthMode)
    1474                      .dwattr $C$DW$80, DW_AT_high_pc(0x00)
    1475                      .dwattr $C$DW$80, DW_AT_TI_symbol_name("_AES_processDatainAuthMode")
    1476                      .dwattr $C$DW$80, DW_AT_external
    1477                      .dwattr $C$DW$80, DW_AT_type(*$C$DW$T$76)
    1478                      .dwattr $C$DW$80, DW_AT_TI_begin_file("../device/driverlib/aes.c")
    1479                      .dwattr $C$DW$80, DW_AT_TI_begin_line(0x1e3)
    1480                      .dwattr $C$DW$80, DW_AT_TI_begin_column(0x01)
    1481                      .dwattr $C$DW$80, DW_AT_TI_max_frame_size(-24)
    1482                      .dwpsn  file "../device/driverlib/aes.c",line 487,column 1,is_stmt,address _AES_processDatainAuthMode
    1483              
    1484                      .dwfde $C$DW$CIE, _AES_processDatainAuthMode
    1485              $C$DW$81        .dwtag  DW_TAG_formal_parameter
    1486                      .dwattr $C$DW$81, DW_AT_name("base")
    1487                      .dwattr $C$DW$81, DW_AT_TI_symbol_name("_base")
    1488                      .dwattr $C$DW$81, DW_AT_type(*$C$DW$T$46)
    1489                      .dwattr $C$DW$81, DW_AT_location[DW_OP_breg20 -26]
    1490              
    1491              $C$DW$82        .dwtag  DW_TAG_formal_parameter
    1492                      .dwattr $C$DW$82, DW_AT_name("srcArray")
    1493                      .dwattr $C$DW$82, DW_AT_TI_symbol_name("_srcArray")
    1494                      .dwattr $C$DW$82, DW_AT_type(*$C$DW$T$55)
    1495                      .dwattr $C$DW$82, DW_AT_location[DW_OP_reg12]
    1496              
    1497              $C$DW$83        .dwtag  DW_TAG_formal_parameter
    1498                      .dwattr $C$DW$83, DW_AT_name("destArray")
    1499                      .dwattr $C$DW$83, DW_AT_TI_symbol_name("_destArray")
    1500                      .dwattr $C$DW$83, DW_AT_type(*$C$DW$T$59)
    1501                      .dwattr $C$DW$83, DW_AT_location[DW_OP_reg14]
    1502              
    1503              $C$DW$84        .dwtag  DW_TAG_formal_parameter
    1504                      .dwattr $C$DW$84, DW_AT_name("dataLength")
TMS320C2000 Assembler PC v22.6.1 Wed May 21 09:51:55 2025

Copyright (c) 1996-2018 Texas Instruments Incorporated
C:\Users\Daniel\AppData\Local\Temp\{11E65CAE-3485-48B7-8496-5C6CE456308C} PAGE   29

    1505                      .dwattr $C$DW$84, DW_AT_TI_symbol_name("_dataLength")
    1506                      .dwattr $C$DW$84, DW_AT_type(*$C$DW$T$50)
    1507                      .dwattr $C$DW$84, DW_AT_location[DW_OP_reg2]
    1508              
    1509              $C$DW$85        .dwtag  DW_TAG_formal_parameter
    1510                      .dwattr $C$DW$85, DW_AT_name("authDataArray")
    1511                      .dwattr $C$DW$85, DW_AT_TI_symbol_name("_authDataArray")
    1512                      .dwattr $C$DW$85, DW_AT_type(*$C$DW$T$55)
    1513                      .dwattr $C$DW$85, DW_AT_location[DW_OP_breg20 -28]
    1514              
    1515              $C$DW$86        .dwtag  DW_TAG_formal_parameter
    1516                      .dwattr $C$DW$86, DW_AT_name("authDataLength")
    1517                      .dwattr $C$DW$86, DW_AT_TI_symbol_name("_authDataLength")
    1518                      .dwattr $C$DW$86, DW_AT_type(*$C$DW$T$46)
    1519                      .dwattr $C$DW$86, DW_AT_location[DW_OP_breg20 -30]
    1520              
    1521              $C$DW$87        .dwtag  DW_TAG_formal_parameter
    1522                      .dwattr $C$DW$87, DW_AT_name("tagArray")
    1523                      .dwattr $C$DW$87, DW_AT_TI_symbol_name("_tagArray")
    1524                      .dwattr $C$DW$87, DW_AT_type(*$C$DW$T$59)
    1525                      .dwattr $C$DW$87, DW_AT_location[DW_OP_breg20 -32]
    1526              
    1527              
    1528              ;***************************************************************
    1529              ;* FNAME: _AES_processDatainAuthMode    FR SIZE:  22           *
    1530              ;*                                                             *
    1531              ;* FUNCTION ENVIRONMENT                                        *
    1532              ;*                                                             *
    1533              ;* FUNCTION PROPERTIES                                         *
    1534              ;*                            4 Parameter, 12 Auto,  6 SOE     *
    1535              ;***************************************************************
    1536              
    1537              _AES_processDatainAuthMode:
    1538              ;* AR3   assigned to $O$U37
    1539              ;* AR3   assigned to $O$U47
    1540              ;* AR2   assigned to $O$U48
    1541              ;* AR2   assigned to $O$L1
    1542              $C$DW$88        .dwtag  DW_TAG_variable
    1543                      .dwattr $C$DW$88, DW_AT_name("base")
    1544                      .dwattr $C$DW$88, DW_AT_TI_symbol_name("_base")
    1545                      .dwattr $C$DW$88, DW_AT_type(*$C$DW$T$54)
    1546                      .dwattr $C$DW$88, DW_AT_location[DW_OP_breg20 -10]
    1547              
    1548              $C$DW$89        .dwtag  DW_TAG_variable
    1549                      .dwattr $C$DW$89, DW_AT_name("srcArray")
    1550                      .dwattr $C$DW$89, DW_AT_TI_symbol_name("_srcArray")
    1551                      .dwattr $C$DW$89, DW_AT_type(*$C$DW$T$83)
    1552                      .dwattr $C$DW$89, DW_AT_location[DW_OP_breg20 -12]
    1553              
    1554              $C$DW$90        .dwtag  DW_TAG_variable
    1555                      .dwattr $C$DW$90, DW_AT_name("destArray")
    1556                      .dwattr $C$DW$90, DW_AT_TI_symbol_name("_destArray")
    1557                      .dwattr $C$DW$90, DW_AT_type(*$C$DW$T$81)
    1558                      .dwattr $C$DW$90, DW_AT_location[DW_OP_breg20 -14]
    1559              
TMS320C2000 Assembler PC v22.6.1 Wed May 21 09:51:55 2025

Copyright (c) 1996-2018 Texas Instruments Incorporated
C:\Users\Daniel\AppData\Local\Temp\{11E65CAE-3485-48B7-8496-5C6CE456308C} PAGE   30

    1560              ;* AR1   assigned to _dataLength
    1561              $C$DW$91        .dwtag  DW_TAG_variable
    1562                      .dwattr $C$DW$91, DW_AT_name("dataLength")
    1563                      .dwattr $C$DW$91, DW_AT_TI_symbol_name("_dataLength")
    1564                      .dwattr $C$DW$91, DW_AT_type(*$C$DW$T$85)
    1565                      .dwattr $C$DW$91, DW_AT_location[DW_OP_reg6 DW_OP_piece 2 DW_OP_piece 2]
    1566              
    1567              ;* AR2   assigned to _authDataArray
    1568              $C$DW$92        .dwtag  DW_TAG_variable
    1569                      .dwattr $C$DW$92, DW_AT_name("authDataArray")
    1570                      .dwattr $C$DW$92, DW_AT_TI_symbol_name("_authDataArray")
    1571                      .dwattr $C$DW$92, DW_AT_type(*$C$DW$T$83)
    1572                      .dwattr $C$DW$92, DW_AT_location[DW_OP_reg8]
    1573              
    1574              ;* AR3   assigned to _authDataLength
    1575              $C$DW$93        .dwtag  DW_TAG_variable
    1576                      .dwattr $C$DW$93, DW_AT_name("authDataLength")
    1577                      .dwattr $C$DW$93, DW_AT_TI_symbol_name("_authDataLength")
    1578                      .dwattr $C$DW$93, DW_AT_type(*$C$DW$T$54)
    1579                      .dwattr $C$DW$93, DW_AT_location[DW_OP_reg10]
    1580              
    1581              $C$DW$94        .dwtag  DW_TAG_variable
    1582                      .dwattr $C$DW$94, DW_AT_name("tagArray")
    1583                      .dwattr $C$DW$94, DW_AT_TI_symbol_name("_tagArray")
    1584                      .dwattr $C$DW$94, DW_AT_type(*$C$DW$T$81)
    1585                      .dwattr $C$DW$94, DW_AT_location[DW_OP_breg20 -16]
    1586              
    1587              ;* AR1   assigned to _count
    1588              $C$DW$95        .dwtag  DW_TAG_variable
    1589                      .dwattr $C$DW$95, DW_AT_name("count")
    1590                      .dwattr $C$DW$95, DW_AT_TI_symbol_name("_count")
    1591                      .dwattr $C$DW$95, DW_AT_type(*$C$DW$T$46)
    1592                      .dwattr $C$DW$95, DW_AT_location[DW_OP_reg6]
    1593              
    1594                      .dwcfi  cfa_offset, -2
    1595                      .dwcfi  save_reg_to_mem, 26, 0
    1596 00000000 B2BD          MOVL      *SP++,XAR1            ; [CPU_ALU] 
    1597                      .dwcfi  save_reg_to_mem, 7, 2
    1598                      .dwcfi  cfa_offset, -4
    1599 00000001 AABD          MOVL      *SP++,XAR2            ; [CPU_ALU] 
    1600                      .dwcfi  save_reg_to_mem, 9, 4
    1601                      .dwcfi  cfa_offset, -6
    1602 00000002 A2BD          MOVL      *SP++,XAR3            ; [CPU_ALU] 
    1603                      .dwcfi  save_reg_to_mem, 11, 6
    1604                      .dwcfi  cfa_offset, -8
    1605 00000003 FE10          ADDB      SP,#16                ; [CPU_ARAU] 
    1606                      .dwcfi  cfa_offset, -24
    1607 00000004 A84C          MOVL      *-SP[12],XAR4         ; [CPU_ALU] |487| 
    1608 00000005 C460          MOVL      XAR6,*-SP[32]         ; [CPU_ALU] |487| 
    1609 00000006 1E46          MOVL      *-SP[6],ACC           ; [CPU_ALU] |487| 
    1610                      .dwpsn  file "../device/driverlib/aes.c",line 493,column 5,is_stmt,isa 0
    1611 00000007 8F04          MOVL      XAR4,#270336          ; [CPU_ARAU] |493| 
         00000008 2000 
    1612                      .dwpsn  file "../device/driverlib/aes.c",line 487,column 1,is_stmt,isa 0
    1613 00000009 865C          MOVL      XAR2,*-SP[28]         ; [CPU_ALU] |487| 
TMS320C2000 Assembler PC v22.6.1 Wed May 21 09:51:55 2025

Copyright (c) 1996-2018 Texas Instruments Incorporated
C:\Users\Daniel\AppData\Local\Temp\{11E65CAE-3485-48B7-8496-5C6CE456308C} PAGE   31

    1614                      .dwpsn  file "../device/driverlib/aes.c",line 493,column 5,is_stmt,isa 0
    1615 0000000a A8A9          MOVL      ACC,XAR4              ; [CPU_ALU] |493| 
    1616                      .dwpsn  file "../device/driverlib/aes.c",line 487,column 1,is_stmt,isa 0
    1617 0000000b C250          MOVL      *-SP[16],XAR6         ; [CPU_ALU] |487| 
    1618 0000000c C45A          MOVL      XAR6,*-SP[26]         ; [CPU_ALU] |487| 
    1619 0000000d 825E          MOVL      XAR3,*-SP[30]         ; [CPU_ALU] |487| 
    1620 0000000e A04E          MOVL      *-SP[14],XAR5         ; [CPU_ALU] |487| 
    1621 0000000f A9A1          MOVL      XAR1,P                ; [CPU_ALU] |487| 
    1622                      .dwpsn  file "../device/driverlib/aes.c",line 493,column 5,is_stmt,isa 0
    1623 00000010 0FA6          CMPL      ACC,XAR6              ; [CPU_ALU] |493| 
    1624                      .dwpsn  file "../device/driverlib/aes.c",line 487,column 1,is_stmt,isa 0
    1625 00000011 C24A          MOVL      *-SP[10],XAR6         ; [CPU_ALU] |487| 
    1626                      .dwpsn  file "../device/driverlib/aes.c",line 493,column 5,is_stmt,isa 0
    1627 00000012 6107          B         $C$L18,EQ             ; [CPU_ALU] |493| 
    1628                      ; branchcc occurs ; [] |493| 
    1629 00000013 FF20          MOV       ACC,#493              ; [CPU_ALU] |493| 
         00000014 01ED 
    1630 00000015 8F00+         MOVL      XAR4,#$C$FSL1         ; [CPU_ARAU] |493| 
         00000016 0000 
    1631              $C$DW$96        .dwtag  DW_TAG_TI_branch
    1632                      .dwattr $C$DW$96, DW_AT_low_pc(0x00)
    1633                      .dwattr $C$DW$96, DW_AT_name("___error__")
    1634                      .dwattr $C$DW$96, DW_AT_TI_call
    1635              
    1636 00000017 7640!         LCR       #___error__           ; [CPU_ALU] |493| 
         00000018 0000 
    1637                      ; call occurs [#___error__] ; [] |493| 
    1638 00000019       $C$L18:    
    1639                      .dwpsn  file "..\device\driverlib\aes.h",line 360,column 5,is_stmt,isa 0
    1640 00000019 C44A          MOVL      XAR6,*-SP[10]         ; [CPU_ALU] |360| 
    1641 0000001a 8F04          MOVL      XAR4,#270336          ; [CPU_ARAU] |360| 
         0000001b 2000 
    1642 0000001c A8A9          MOVL      ACC,XAR4              ; [CPU_ALU] |360| 
    1643 0000001d 0FA6          CMPL      ACC,XAR6              ; [CPU_ALU] |360| 
    1644 0000001e 6107          B         $C$L19,EQ             ; [CPU_ALU] |360| 
    1645                      ; branchcc occurs ; [] |360| 
    1646 0000001f FF20          MOV       ACC,#360              ; [CPU_ALU] |360| 
         00000020 0168 
    1647 00000021 8F00+         MOVL      XAR4,#$C$FSL2         ; [CPU_ARAU] |360| 
         00000022 001A 
    1648              $C$DW$97        .dwtag  DW_TAG_TI_branch
    1649                      .dwattr $C$DW$97, DW_AT_low_pc(0x00)
    1650                      .dwattr $C$DW$97, DW_AT_name("___error__")
    1651                      .dwattr $C$DW$97, DW_AT_TI_call
    1652              
    1653 00000023 7640!         LCR       #___error__           ; [CPU_ALU] |360| 
         00000024 0000 
    1654                      ; call occurs [#___error__] ; [] |360| 
    1655 00000025       $C$L19:    
    1656                      .dwpsn  file "..\device\driverlib\aes.h",line 366,column 5,is_stmt,isa 0
    1657 00000025 8A4A          MOVL      XAR4,*-SP[10]         ; [CPU_ALU] |366| 
    1658 00000026 B2AB          MOVL      P,XAR1                ; [CPU_ALU] |366| 
    1659 00000027 0646          MOVL      ACC,*-SP[6]           ; [CPU_ALU] |366| 
    1660 00000028 28AC          MOV       T,#32                 ; [CPU_ALU] |366| 
         00000029 0020 
TMS320C2000 Assembler PC v22.6.1 Wed May 21 09:51:55 2025

Copyright (c) 1996-2018 Texas Instruments Incorporated
C:\Users\Daniel\AppData\Local\Temp\{11E65CAE-3485-48B7-8496-5C6CE456308C} PAGE   32

    1661                      .dwpsn  file "..\device\driverlib\aes.h",line 365,column 5,is_stmt,isa 0
    1662 0000002a C4A4          MOVL      XAR6,XAR4             ; [CPU_ALU] |365| 
    1663 0000002b 83A4          MOVL      XAR5,XAR4             ; [CPU_ALU] |365| 
    1664                      .dwpsn  file "..\device\driverlib\aes.h",line 366,column 5,is_stmt,isa 0
    1665 0000002c 565B          LSR64     ACC:P,T               ; [CPU_ALU] |366| 
    1666                      .dwpsn  file "..\device\driverlib\aes.h",line 365,column 5,is_stmt,isa 0
    1667 0000002d DC2A          ADDB      XAR4,#42              ; [CPU_ALU] |365| 
    1668 0000002e B2C4          MOVL      *+XAR4[0],XAR1        ; [CPU_FPU] |365| 
    1669                      .dwpsn  file "..\device\driverlib\aes.h",line 397,column 5,is_stmt,isa 0
    1670 0000002f 8F04          MOVL      XAR4,#270336          ; [CPU_ARAU] |397| 
         00000030 2000 
    1671 00000031 A8A9          MOVL      ACC,XAR4              ; [CPU_ALU] |397| 
    1672 00000032 8AA6          MOVL      XAR4,XAR6             ; [CPU_ALU] |397| 
    1673                      .dwpsn  file "..\device\driverlib\aes.h",line 366,column 5,is_stmt,isa 0
    1674 00000033 DD2C          ADDB      XAR5,#44              ; [CPU_ALU] |366| 
    1675 00000034 A9C5          MOVL      *+XAR5[0],P           ; [CPU_ALU] |366| 
    1676                      .dwpsn  file "..\device\driverlib\aes.h",line 397,column 5,is_stmt,isa 0
    1677 00000035 0FA4          CMPL      ACC,XAR4              ; [CPU_ALU] |397| 
    1678 00000036 6107          B         $C$L20,EQ             ; [CPU_ALU] |397| 
    1679                      ; branchcc occurs ; [] |397| 
    1680 00000037 FF20          MOV       ACC,#397              ; [CPU_ALU] |397| 
         00000038 018D 
    1681 00000039 8F00+         MOVL      XAR4,#$C$FSL2         ; [CPU_ARAU] |397| 
         0000003a 001A 
    1682              $C$DW$98        .dwtag  DW_TAG_TI_branch
    1683                      .dwattr $C$DW$98, DW_AT_low_pc(0x00)
    1684                      .dwattr $C$DW$98, DW_AT_name("___error__")
    1685                      .dwattr $C$DW$98, DW_AT_TI_call
    1686              
    1687 0000003b 7640!         LCR       #___error__           ; [CPU_ALU] |397| 
         0000003c 0000 
    1688                      ; call occurs [#___error__] ; [] |397| 
    1689 0000003d       $C$L20:    
    1690                      .dwpsn  file "../device/driverlib/aes.c",line 508,column 21,is_stmt,isa 0
    1691 0000003d 8A4A          MOVL      XAR4,*-SP[10]         ; [CPU_ALU] |508| 
    1692 0000003e A2A9          MOVL      ACC,XAR3              ; [CPU_ALU] |508| 
    1693 0000003f 2901          CLRC      SXM                   ; [CPU_ALU] 
    1694 00000040 090F          ADDB      ACC,#15               ; [CPU_ALU] |508| 
    1695                      .dwpsn  file "..\device\driverlib\aes.h",line 402,column 5,is_stmt,isa 0
    1696 00000041 DC2E          ADDB      XAR4,#46              ; [CPU_ALU] |402| 
    1697                      .dwpsn  file "../device/driverlib/aes.c",line 508,column 21,is_stmt,isa 0
    1698 00000042 FF43          SFR       ACC,4                 ; [CPU_ALU] |508| 
    1699                      .dwpsn  file "..\device\driverlib\aes.h",line 402,column 5,is_stmt,isa 0
    1700 00000043 A2C4          MOVL      *+XAR4[0],XAR3        ; [CPU_FPU] |402| 
    1701                      .dwpsn  file "../device/driverlib/aes.c",line 508,column 21,is_stmt,isa 0
    1702 00000044 610E          B         $C$L22,EQ             ; [CPU_ALU] |508| 
    1703                      ; branchcc occurs ; [] |508| 
    1704 00000045 82A2          MOVL      XAR3,XAR2             ; [CPU_ALU] 
    1705 00000046 1901          SUBB      ACC,#1                ; [CPU_ALU] 
    1706 00000047 86A9          MOVL      XAR2,ACC              ; [CPU_ALU] 
    1707 00000048       $C$L21:    
    1708 00000048 064A          MOVL      ACC,*-SP[10]          ; [CPU_ALU] 
    1709                      .dwpsn  file "../device/driverlib/aes.c",line 513,column 9,is_stmt,isa 0
    1710 00000049 8AA3          MOVL      XAR4,XAR3             ; [CPU_ALU] |513| 
    1711              $C$DW$99        .dwtag  DW_TAG_TI_branch
TMS320C2000 Assembler PC v22.6.1 Wed May 21 09:51:55 2025

Copyright (c) 1996-2018 Texas Instruments Incorporated
C:\Users\Daniel\AppData\Local\Temp\{11E65CAE-3485-48B7-8496-5C6CE456308C} PAGE   33

    1712                      .dwattr $C$DW$99, DW_AT_low_pc(0x00)
    1713                      .dwattr $C$DW$99, DW_AT_name("_AES_writeDataBlocking")
    1714                      .dwattr $C$DW$99, DW_AT_TI_call
    1715              
    1716 0000004a 7640+         LCR       #_AES_writeDataBlocking ; [CPU_ALU] |513| 
         0000004b 0000 
    1717                      ; call occurs [#_AES_writeDataBlocking] ; [] |513| 
    1718                      .dwpsn  file "../device/driverlib/aes.c",line 508,column 62,is_stmt,isa 0
    1719 0000004c DA81          SUBB      XAR2,#1               ; [CPU_ALU] |508| 
    1720 0000004d DB08          ADDB      XAR3,#8               ; [CPU_ALU] |508| 
    1721 0000004e 0200          MOVB      ACC,#0                ; [CPU_FPU] |508| 
    1722 0000004f 1901          SUBB      ACC,#1                ; [CPU_ALU] |508| 
    1723 00000050 0FA2          CMPL      ACC,XAR2              ; [CPU_ALU] |508| 
    1724 00000051 60F7          B         $C$L21,NEQ            ; [CPU_ALU] |508| 
    1725                      ; branchcc occurs ; [] |508| 
    1726 00000052       $C$L22:    
    1727                      .dwpsn  file "../device/driverlib/aes.c",line 519,column 21,is_stmt,isa 0
    1728 00000052 5633          ZAPA      ; [CPU_ALU] |519| 
    1729 00000053 C446          MOVL      XAR6,*-SP[6]          ; [CPU_ALU] |519| 
    1730 00000054 28AB          MOV       PL,#15                ; [CPU_ALU] |519| 
         00000055 000F 
    1731 00000056 B600          MOVB      XAR7,#0               ; [CPU_ALU] |519| 
    1732 00000057 5657          ADDUL     P,XAR1                ; [CPU_ALU] |519| 
         00000058 00A1 
    1733 00000059 5640          ADDCL     ACC,XAR6              ; [CPU_ALU] |519| 
         0000005a 00A6 
    1734 0000005b 5693          LSR64     ACC:P,4               ; [CPU_ALU] |519| 
    1735 0000005c 1E48          MOVL      *-SP[8],ACC           ; [CPU_ALU] |519| 
    1736 0000005d A946          MOVL      *-SP[6],P             ; [CPU_ALU] |519| 
    1737 0000005e C344          MOVL      *-SP[4],XAR7          ; [CPU_ALU] |519| 
    1738 0000005f 2B42          MOV       *-SP[2],#0            ; [CPU_ALU] |519| 
    1739 00000060 2B41          MOV       *-SP[1],#0            ; [CPU_ALU] |519| 
    1740              $C$DW$100       .dwtag  DW_TAG_TI_branch
    1741                      .dwattr $C$DW$100, DW_AT_low_pc(0x00)
    1742                      .dwattr $C$DW$100, DW_AT_name("ULL$$CMP")
    1743                      .dwattr $C$DW$100, DW_AT_TI_call
    1744              
    1745 00000061 00C0!         FFC       XAR7,#ULL$$CMP        ; [CPU_ALU] |519| 
         00000062 0000 
    1746                      ; call occurs [#ULL$$CMP] ; [] |519| 
    1747 00000063 5200          CMPB      AL,#0                 ; [CPU_ALU] |519| 
    1748 00000064 6119          B         $C$L24,EQ             ; [CPU_ALU] |519| 
    1749                      ; branchcc occurs ; [] |519| 
    1750 00000065 824C          MOVL      XAR3,*-SP[12]         ; [CPU_ALU] 
    1751 00000066 864E          MOVL      XAR2,*-SP[14]         ; [CPU_ALU] 
    1752                      .dwpsn  file "../device/driverlib/aes.c",line 519,column 9,is_stmt,isa 0
    1753 00000067 D100          MOVB      XAR1,#0               ; [CPU_ALU] |519| 
    1754 00000068       $C$L23:    
    1755 00000068 064A          MOVL      ACC,*-SP[10]          ; [CPU_ALU] 
    1756                      .dwpsn  file "../device/driverlib/aes.c",line 524,column 9,is_stmt,isa 0
    1757 00000069 8AA3          MOVL      XAR4,XAR3             ; [CPU_ALU] |524| 
    1758              $C$DW$101       .dwtag  DW_TAG_TI_branch
    1759                      .dwattr $C$DW$101, DW_AT_low_pc(0x00)
    1760                      .dwattr $C$DW$101, DW_AT_name("_AES_writeDataBlocking")
    1761                      .dwattr $C$DW$101, DW_AT_TI_call
TMS320C2000 Assembler PC v22.6.1 Wed May 21 09:51:55 2025

Copyright (c) 1996-2018 Texas Instruments Incorporated
C:\Users\Daniel\AppData\Local\Temp\{11E65CAE-3485-48B7-8496-5C6CE456308C} PAGE   34

    1762              
    1763 0000006a 7640+         LCR       #_AES_writeDataBlocking ; [CPU_ALU] |524| 
         0000006b 0000 
    1764                      ; call occurs [#_AES_writeDataBlocking] ; [] |524| 
    1765                      .dwpsn  file "../device/driverlib/aes.c",line 530,column 9,is_stmt,isa 0
    1766 0000006c 8AA2          MOVL      XAR4,XAR2             ; [CPU_ALU] |530| 
    1767 0000006d 064A          MOVL      ACC,*-SP[10]          ; [CPU_ALU] |530| 
    1768              $C$DW$102       .dwtag  DW_TAG_TI_branch
    1769                      .dwattr $C$DW$102, DW_AT_low_pc(0x00)
    1770                      .dwattr $C$DW$102, DW_AT_name("_AES_readDataBlocking")
    1771                      .dwattr $C$DW$102, DW_AT_TI_call
    1772              
    1773 0000006e 7640+         LCR       #_AES_readDataBlocking ; [CPU_ALU] |530| 
         0000006f 0000 
    1774                      ; call occurs [#_AES_readDataBlocking] ; [] |530| 
    1775                      .dwpsn  file "../device/driverlib/aes.c",line 519,column 57,is_stmt,isa 0
    1776 00000070 C446          MOVL      XAR6,*-SP[6]          ; [CPU_ALU] |519| 
    1777 00000071 C244          MOVL      *-SP[4],XAR6          ; [CPU_ALU] |519| 
    1778 00000072 C448          MOVL      XAR6,*-SP[8]          ; [CPU_ALU] |519| 
    1779 00000073 D901          ADDB      XAR1,#1               ; [CPU_ALU] |519| 
    1780 00000074 0200          MOVB      ACC,#0                ; [CPU_FPU] |519| 
    1781 00000075 B2AB          MOVL      P,XAR1                ; [CPU_ALU] |519| 
    1782 00000076 C242          MOVL      *-SP[2],XAR6          ; [CPU_ALU] |519| 
    1783              $C$DW$103       .dwtag  DW_TAG_TI_branch
    1784                      .dwattr $C$DW$103, DW_AT_low_pc(0x00)
    1785                      .dwattr $C$DW$103, DW_AT_name("ULL$$CMP")
    1786                      .dwattr $C$DW$103, DW_AT_TI_call
    1787              
    1788 00000077 00C0!         FFC       XAR7,#ULL$$CMP        ; [CPU_ALU] |519| 
         00000078 0000 
    1789                      ; call occurs [#ULL$$CMP] ; [] |519| 
    1790 00000079 DB08          ADDB      XAR3,#8               ; [CPU_ALU] |519| 
    1791 0000007a DA08          ADDB      XAR2,#8               ; [CPU_ALU] |519| 
    1792 0000007b 5200          CMPB      AL,#0                 ; [CPU_ALU] |519| 
    1793 0000007c 64EC          B         $C$L23,LT             ; [CPU_ALU] |519| 
    1794                      ; branchcc occurs ; [] |519| 
    1795 0000007d       $C$L24:    
    1796 0000007d 064A          MOVL      ACC,*-SP[10]          ; [CPU_ALU] 
    1797                      .dwpsn  file "../device/driverlib/aes.c",line 536,column 5,is_stmt,isa 0
    1798 0000007e 8A50          MOVL      XAR4,*-SP[16]         ; [CPU_ALU] |536| 
    1799              $C$DW$104       .dwtag  DW_TAG_TI_branch
    1800                      .dwattr $C$DW$104, DW_AT_low_pc(0x00)
    1801                      .dwattr $C$DW$104, DW_AT_name("_AES_readTag")
    1802                      .dwattr $C$DW$104, DW_AT_TI_call
    1803              
    1804 0000007f 7640+         LCR       #_AES_readTag         ; [CPU_ALU] |536| 
         00000080 0000 
    1805                      ; call occurs [#_AES_readTag] ; [] |536| 
    1806                      .dwpsn  file "../device/driverlib/aes.c",line 541,column 5,is_stmt,isa 0
    1807 00000081 9A01          MOVB      AL,#1                 ; [CPU_ALU] |541| 
    1808 00000082 FE90          SUBB      SP,#16                ; [CPU_ARAU] 
    1809                      .dwcfi  cfa_offset, -8
    1810 00000083 82BE          MOVL      XAR3,*--SP            ; [CPU_ALU] 
    1811                      .dwcfi  cfa_offset, -6
    1812                      .dwcfi  restore_reg, 11
TMS320C2000 Assembler PC v22.6.1 Wed May 21 09:51:55 2025

Copyright (c) 1996-2018 Texas Instruments Incorporated
C:\Users\Daniel\AppData\Local\Temp\{11E65CAE-3485-48B7-8496-5C6CE456308C} PAGE   35

    1813 00000084 86BE          MOVL      XAR2,*--SP            ; [CPU_ALU] 
    1814                      .dwcfi  cfa_offset, -4
    1815                      .dwcfi  restore_reg, 9
    1816 00000085 8BBE          MOVL      XAR1,*--SP            ; [CPU_ALU] 
    1817                      .dwcfi  cfa_offset, -2
    1818                      .dwcfi  restore_reg, 7
    1819              $C$DW$105       .dwtag  DW_TAG_TI_branch
    1820                      .dwattr $C$DW$105, DW_AT_low_pc(0x00)
    1821                      .dwattr $C$DW$105, DW_AT_TI_return
    1822              
    1823 00000086 0006          LRETR     ; [CPU_ALU] 
    1824                      ; return occurs ; [] 
    1825                      .dwattr $C$DW$80, DW_AT_TI_end_file("../device/driverlib/aes.c")
    1826                      .dwattr $C$DW$80, DW_AT_TI_end_line(0x21e)
    1827                      .dwattr $C$DW$80, DW_AT_TI_end_column(0x01)
    1828                      .dwendentry
    1829                      .dwendtag $C$DW$80
    1830              
    1831 00000000               .sect   ".text:_AES_processData"
    1832                      .clink
    1833                      .global _AES_processData
    1834              
    1835              $C$DW$106       .dwtag  DW_TAG_subprogram
    1836                      .dwattr $C$DW$106, DW_AT_name("AES_processData")
    1837                      .dwattr $C$DW$106, DW_AT_low_pc(_AES_processData)
    1838                      .dwattr $C$DW$106, DW_AT_high_pc(0x00)
    1839                      .dwattr $C$DW$106, DW_AT_TI_symbol_name("_AES_processData")
    1840                      .dwattr $C$DW$106, DW_AT_external
    1841                      .dwattr $C$DW$106, DW_AT_type(*$C$DW$T$76)
    1842                      .dwattr $C$DW$106, DW_AT_TI_begin_file("../device/driverlib/aes.c")
    1843                      .dwattr $C$DW$106, DW_AT_TI_begin_line(0x18b)
    1844                      .dwattr $C$DW$106, DW_AT_TI_begin_column(0x01)
    1845                      .dwattr $C$DW$106, DW_AT_TI_max_frame_size(-22)
    1846                      .dwpsn  file "../device/driverlib/aes.c",line 397,column 1,is_stmt,address _AES_processData,isa 0
    1847              
    1848                      .dwfde $C$DW$CIE, _AES_processData
    1849              $C$DW$107       .dwtag  DW_TAG_formal_parameter
    1850                      .dwattr $C$DW$107, DW_AT_name("base")
    1851                      .dwattr $C$DW$107, DW_AT_TI_symbol_name("_base")
    1852                      .dwattr $C$DW$107, DW_AT_type(*$C$DW$T$46)
    1853                      .dwattr $C$DW$107, DW_AT_location[DW_OP_breg20 -24]
    1854              
    1855              $C$DW$108       .dwtag  DW_TAG_formal_parameter
    1856                      .dwattr $C$DW$108, DW_AT_name("srcArray")
    1857                      .dwattr $C$DW$108, DW_AT_TI_symbol_name("_srcArray")
    1858                      .dwattr $C$DW$108, DW_AT_type(*$C$DW$T$55)
    1859                      .dwattr $C$DW$108, DW_AT_location[DW_OP_reg12]
    1860              
    1861              $C$DW$109       .dwtag  DW_TAG_formal_parameter
    1862                      .dwattr $C$DW$109, DW_AT_name("destArray")
    1863                      .dwattr $C$DW$109, DW_AT_TI_symbol_name("_destArray")
    1864                      .dwattr $C$DW$109, DW_AT_type(*$C$DW$T$59)
    1865                      .dwattr $C$DW$109, DW_AT_location[DW_OP_reg14]
    1866              
    1867              $C$DW$110       .dwtag  DW_TAG_formal_parameter
TMS320C2000 Assembler PC v22.6.1 Wed May 21 09:51:55 2025

Copyright (c) 1996-2018 Texas Instruments Incorporated
C:\Users\Daniel\AppData\Local\Temp\{11E65CAE-3485-48B7-8496-5C6CE456308C} PAGE   36

    1868                      .dwattr $C$DW$110, DW_AT_name("dataLength")
    1869                      .dwattr $C$DW$110, DW_AT_TI_symbol_name("_dataLength")
    1870                      .dwattr $C$DW$110, DW_AT_type(*$C$DW$T$50)
    1871                      .dwattr $C$DW$110, DW_AT_location[DW_OP_reg2]
    1872              
    1873              
    1874              ;***************************************************************
    1875              ;* FNAME: _AES_processData              FR SIZE:  20           *
    1876              ;*                                                             *
    1877              ;* FUNCTION ENVIRONMENT                                        *
    1878              ;*                                                             *
    1879              ;* FUNCTION PROPERTIES                                         *
    1880              ;*                            4 Parameter, 10 Auto,  6 SOE     *
    1881              ;***************************************************************
    1882              
    1883              _AES_processData:
    1884              ;* AR3   assigned to $O$C4
    1885              ;* AR2   assigned to _base
    1886              $C$DW$111       .dwtag  DW_TAG_variable
    1887                      .dwattr $C$DW$111, DW_AT_name("base")
    1888                      .dwattr $C$DW$111, DW_AT_TI_symbol_name("_base")
    1889                      .dwattr $C$DW$111, DW_AT_type(*$C$DW$T$54)
    1890                      .dwattr $C$DW$111, DW_AT_location[DW_OP_reg8]
    1891              
    1892              $C$DW$112       .dwtag  DW_TAG_variable
    1893                      .dwattr $C$DW$112, DW_AT_name("srcArray")
    1894                      .dwattr $C$DW$112, DW_AT_TI_symbol_name("_srcArray")
    1895                      .dwattr $C$DW$112, DW_AT_type(*$C$DW$T$83)
    1896                      .dwattr $C$DW$112, DW_AT_location[DW_OP_breg20 -14]
    1897              
    1898              ;* AR1   assigned to _destArray
    1899              $C$DW$113       .dwtag  DW_TAG_variable
    1900                      .dwattr $C$DW$113, DW_AT_name("destArray")
    1901                      .dwattr $C$DW$113, DW_AT_TI_symbol_name("_destArray")
    1902                      .dwattr $C$DW$113, DW_AT_type(*$C$DW$T$81)
    1903                      .dwattr $C$DW$113, DW_AT_location[DW_OP_reg6]
    1904              
    1905              ;* AR3   assigned to _dataLength
    1906              $C$DW$114       .dwtag  DW_TAG_variable
    1907                      .dwattr $C$DW$114, DW_AT_name("dataLength")
    1908                      .dwattr $C$DW$114, DW_AT_TI_symbol_name("_dataLength")
    1909                      .dwattr $C$DW$114, DW_AT_type(*$C$DW$T$85)
    1910                      .dwattr $C$DW$114, DW_AT_location[DW_OP_reg10 DW_OP_piece 2 DW_OP_piece 2]
    1911              
    1912                      .dwcfi  cfa_offset, -2
    1913                      .dwcfi  save_reg_to_mem, 26, 0
    1914 00000000 B2BD          MOVL      *SP++,XAR1            ; [CPU_ALU] 
    1915                      .dwcfi  save_reg_to_mem, 7, 2
    1916                      .dwcfi  cfa_offset, -4
    1917 00000001 AABD          MOVL      *SP++,XAR2            ; [CPU_ALU] 
    1918                      .dwcfi  save_reg_to_mem, 9, 4
    1919                      .dwcfi  cfa_offset, -6
    1920 00000002 A2BD          MOVL      *SP++,XAR3            ; [CPU_ALU] 
    1921                      .dwcfi  save_reg_to_mem, 11, 6
    1922                      .dwcfi  cfa_offset, -8
TMS320C2000 Assembler PC v22.6.1 Wed May 21 09:51:55 2025

Copyright (c) 1996-2018 Texas Instruments Incorporated
C:\Users\Daniel\AppData\Local\Temp\{11E65CAE-3485-48B7-8496-5C6CE456308C} PAGE   37

    1923 00000003 FE0E          ADDB      SP,#14                ; [CPU_ARAU] 
    1924                      .dwcfi  cfa_offset, -22
    1925 00000004 A84E          MOVL      *-SP[14],XAR4         ; [CPU_ALU] |397| 
    1926 00000005 A9A3          MOVL      XAR3,P                ; [CPU_ALU] |397| 
    1927 00000006 1E46          MOVL      *-SP[6],ACC           ; [CPU_ALU] |397| 
    1928 00000007 8658          MOVL      XAR2,*-SP[24]         ; [CPU_ALU] |397| 
    1929 00000008 8BA5          MOVL      XAR1,XAR5             ; [CPU_ALU] |397| 
    1930                      .dwpsn  file "../device/driverlib/aes.c",line 403,column 5,is_stmt,isa 0
    1931 00000009 8F04          MOVL      XAR4,#270336          ; [CPU_ARAU] |403| 
         0000000a 2000 
    1932 0000000b A8A9          MOVL      ACC,XAR4              ; [CPU_ALU] |403| 
    1933 0000000c 0FA2          CMPL      ACC,XAR2              ; [CPU_ALU] |403| 
    1934 0000000d 6107          B         $C$L25,EQ             ; [CPU_ALU] |403| 
    1935                      ; branchcc occurs ; [] |403| 
    1936 0000000e FF20          MOV       ACC,#403              ; [CPU_ALU] |403| 
         0000000f 0193 
    1937 00000010 8F00+         MOVL      XAR4,#$C$FSL1         ; [CPU_ARAU] |403| 
         00000011 0000 
    1938              $C$DW$115       .dwtag  DW_TAG_TI_branch
    1939                      .dwattr $C$DW$115, DW_AT_low_pc(0x00)
    1940                      .dwattr $C$DW$115, DW_AT_name("___error__")
    1941                      .dwattr $C$DW$115, DW_AT_TI_call
    1942              
    1943 00000012 7640!         LCR       #___error__           ; [CPU_ALU] |403| 
         00000013 0000 
    1944                      ; call occurs [#___error__] ; [] |403| 
    1945 00000014       $C$L25:    
    1946                      .dwpsn  file "..\device\driverlib\aes.h",line 360,column 5,is_stmt,isa 0
    1947 00000014 8F04          MOVL      XAR4,#270336          ; [CPU_ARAU] |360| 
         00000015 2000 
    1948 00000016 A8A9          MOVL      ACC,XAR4              ; [CPU_ALU] |360| 
    1949 00000017 0FA2          CMPL      ACC,XAR2              ; [CPU_ALU] |360| 
    1950 00000018 6107          B         $C$L26,EQ             ; [CPU_ALU] |360| 
    1951                      ; branchcc occurs ; [] |360| 
    1952 00000019 FF20          MOV       ACC,#360              ; [CPU_ALU] |360| 
         0000001a 0168 
    1953 0000001b 8F00+         MOVL      XAR4,#$C$FSL2         ; [CPU_ARAU] |360| 
         0000001c 001A 
    1954              $C$DW$116       .dwtag  DW_TAG_TI_branch
    1955                      .dwattr $C$DW$116, DW_AT_low_pc(0x00)
    1956                      .dwattr $C$DW$116, DW_AT_name("___error__")
    1957                      .dwattr $C$DW$116, DW_AT_TI_call
    1958              
    1959 0000001d 7640!         LCR       #___error__           ; [CPU_ALU] |360| 
         0000001e 0000 
    1960                      ; call occurs [#___error__] ; [] |360| 
    1961 0000001f       $C$L26:    
    1962                      .dwpsn  file "..\device\driverlib\aes.h",line 366,column 5,is_stmt,isa 0
    1963 0000001f C446          MOVL      XAR6,*-SP[6]          ; [CPU_ALU] |366| 
    1964                      .dwpsn  file "..\device\driverlib\aes.h",line 365,column 5,is_stmt,isa 0
    1965 00000020 83A2          MOVL      XAR5,XAR2             ; [CPU_ALU] |365| 
    1966                      .dwpsn  file "..\device\driverlib\aes.h",line 366,column 5,is_stmt,isa 0
    1967 00000021 8AA2          MOVL      XAR4,XAR2             ; [CPU_ALU] |366| 
    1968 00000022 A2AB          MOVL      P,XAR3                ; [CPU_ALU] |366| 
    1969 00000023 28AC          MOV       T,#32                 ; [CPU_ALU] |366| 
TMS320C2000 Assembler PC v22.6.1 Wed May 21 09:51:55 2025

Copyright (c) 1996-2018 Texas Instruments Incorporated
C:\Users\Daniel\AppData\Local\Temp\{11E65CAE-3485-48B7-8496-5C6CE456308C} PAGE   38

         00000024 0020 
    1970                      .dwpsn  file "../device/driverlib/aes.c",line 414,column 21,is_stmt,isa 0
    1971 00000025 B600          MOVB      XAR7,#0               ; [CPU_ALU] |414| 
    1972                      .dwpsn  file "..\device\driverlib\aes.h",line 366,column 5,is_stmt,isa 0
    1973 00000026 06A6          MOVL      ACC,XAR6              ; [CPU_ALU] |366| 
    1974                      .dwpsn  file "..\device\driverlib\aes.h",line 365,column 5,is_stmt,isa 0
    1975 00000027 DD2A          ADDB      XAR5,#42              ; [CPU_ALU] |365| 
    1976                      .dwpsn  file "..\device\driverlib\aes.h",line 366,column 5,is_stmt,isa 0
    1977 00000028 DC2C          ADDB      XAR4,#44              ; [CPU_ALU] |366| 
    1978                      .dwpsn  file "..\device\driverlib\aes.h",line 365,column 5,is_stmt,isa 0
    1979 00000029 A2C5          MOVL      *+XAR5[0],XAR3        ; [CPU_ALU] |365| 
    1980                      .dwpsn  file "..\device\driverlib\aes.h",line 366,column 5,is_stmt,isa 0
    1981 0000002a 565B          LSR64     ACC:P,T               ; [CPU_ALU] |366| 
    1982 0000002b A9C4          MOVL      *+XAR4[0],P           ; [CPU_ALU] |366| 
    1983                      .dwpsn  file "../device/driverlib/aes.c",line 414,column 21,is_stmt,isa 0
    1984 0000002c 5633          ZAPA      ; [CPU_ALU] |414| 
    1985 0000002d 28AB          MOV       PL,#15                ; [CPU_ALU] |414| 
         0000002e 000F 
    1986 0000002f C344          MOVL      *-SP[4],XAR7          ; [CPU_ALU] |414| 
    1987 00000030 2B42          MOV       *-SP[2],#0            ; [CPU_ALU] |414| 
    1988 00000031 5657          ADDUL     P,XAR3                ; [CPU_ALU] |414| 
         00000032 00A3 
    1989 00000033 2B41          MOV       *-SP[1],#0            ; [CPU_FPU] |414| 
    1990 00000034 5640          ADDCL     ACC,XAR6              ; [CPU_ALU] |414| 
         00000035 00A6 
    1991 00000036 5693          LSR64     ACC:P,4               ; [CPU_ALU] |414| 
    1992 00000037 1EA6          MOVL      XAR6,ACC              ; [CPU_ALU] |414| 
    1993              $C$DW$117       .dwtag  DW_TAG_TI_branch
    1994                      .dwattr $C$DW$117, DW_AT_low_pc(0x00)
    1995                      .dwattr $C$DW$117, DW_AT_name("ULL$$CMP")
    1996                      .dwattr $C$DW$117, DW_AT_TI_call
    1997              
    1998 00000038 00C0!         FFC       XAR7,#ULL$$CMP        ; [CPU_ALU] |414| 
         00000039 0000 
    1999                      ; call occurs [#ULL$$CMP] ; [] |414| 
    2000 0000003a 5200          CMPB      AL,#0                 ; [CPU_ALU] |414| 
    2001 0000003b 6138          B         $C$L28,EQ             ; [CPU_ALU] |414| 
    2002                      ; branchcc occurs ; [] |414| 
    2003 0000003c D401          MOVB      XAR4,#1               ; [CPU_ALU] 
    2004 0000003d D500          MOVB      XAR5,#0               ; [CPU_ALU] 
    2005 0000003e 06A6          MOVL      ACC,XAR6              ; [CPU_ALU] 
    2006 0000003f 565D          SUBUL     P,XAR4                ; [CPU_ALU] 
         00000040 00A4 
    2007 00000041 A94A          MOVL      *-SP[10],P            ; [CPU_ALU] 
    2008 00000042 5654          SUBBL     ACC,XAR5              ; [CPU_ALU] 
         00000043 00A5 
    2009 00000044 1E4C          MOVL      *-SP[12],ACC          ; [CPU_ALU] 
    2010 00000045 5633          ZAPA      ; [CPU_ALU] 
    2011 00000046 1E48          MOVL      *-SP[8],ACC           ; [CPU_ALU] 
    2012 00000047 A946          MOVL      *-SP[6],P             ; [CPU_ALU] 
    2013 00000048       $C$L27:    
    2014 00000048 0646          MOVL      ACC,*-SP[6]           ; [CPU_ALU] 
    2015                      .dwpsn  file "../device/driverlib/aes.c",line 419,column 9,is_stmt,isa 0
    2016 00000049 FF30          LSL       ACC,1                 ; [CPU_ALU] |419| 
    2017 0000004a 82A9          MOVL      XAR3,ACC              ; [CPU_ALU] |419| 
TMS320C2000 Assembler PC v22.6.1 Wed May 21 09:51:55 2025

Copyright (c) 1996-2018 Texas Instruments Incorporated
C:\Users\Daniel\AppData\Local\Temp\{11E65CAE-3485-48B7-8496-5C6CE456308C} PAGE   39

    2018 0000004b A34E          MOVL      P,*-SP[14]            ; [CPU_ALU] |419| 
    2019 0000004c AAA9          MOVL      ACC,XAR2              ; [CPU_ALU] |419| 
    2020 0000004d 5657          ADDUL     P,XAR3                ; [CPU_ALU] |419| 
         0000004e 00A3 
    2021 0000004f A9A4          MOVL      XAR4,P                ; [CPU_ALU] |419| 
    2022              $C$DW$118       .dwtag  DW_TAG_TI_branch
    2023                      .dwattr $C$DW$118, DW_AT_low_pc(0x00)
    2024                      .dwattr $C$DW$118, DW_AT_name("_AES_writeDataBlocking")
    2025                      .dwattr $C$DW$118, DW_AT_TI_call
    2026              
    2027 00000050 7640+         LCR       #_AES_writeDataBlocking ; [CPU_ALU] |419| 
         00000051 0000 
    2028                      ; call occurs [#_AES_writeDataBlocking] ; [] |419| 
    2029                      .dwpsn  file "../device/driverlib/aes.c",line 424,column 9,is_stmt,isa 0
    2030 00000052 B2A9          MOVL      ACC,XAR1              ; [CPU_ALU] |424| 
    2031 00000053 07A3          ADDL      ACC,XAR3              ; [CPU_ALU] |424| 
    2032 00000054 8AA9          MOVL      XAR4,ACC              ; [CPU_ALU] |424| 
    2033 00000055 AAA9          MOVL      ACC,XAR2              ; [CPU_ALU] |424| 
    2034              $C$DW$119       .dwtag  DW_TAG_TI_branch
    2035                      .dwattr $C$DW$119, DW_AT_low_pc(0x00)
    2036                      .dwattr $C$DW$119, DW_AT_name("_AES_readDataBlocking")
    2037                      .dwattr $C$DW$119, DW_AT_TI_call
    2038              
    2039 00000056 7640+         LCR       #_AES_readDataBlocking ; [CPU_ALU] |424| 
         00000057 0000 
    2040                      ; call occurs [#_AES_readDataBlocking] ; [] |424| 
    2041                      .dwpsn  file "../device/driverlib/aes.c",line 414,column 57,is_stmt,isa 0
    2042 00000058 D404          MOVB      XAR4,#4               ; [CPU_ALU] |414| 
    2043 00000059 A346          MOVL      P,*-SP[6]             ; [CPU_ALU] |414| 
    2044 0000005a D500          MOVB      XAR5,#0               ; [CPU_ALU] |414| 
    2045 0000005b 5657          ADDUL     P,XAR4                ; [CPU_ALU] |414| 
         0000005c 00A4 
    2046 0000005d A946          MOVL      *-SP[6],P             ; [CPU_ALU] |414| 
    2047 0000005e D401          MOVB      XAR4,#1               ; [CPU_ALU] |414| 
    2048 0000005f 0648          MOVL      ACC,*-SP[8]           ; [CPU_ALU] |414| 
    2049 00000060 5640          ADDCL     ACC,XAR5              ; [CPU_ALU] |414| 
         00000061 00A5 
    2050 00000062 1E48          MOVL      *-SP[8],ACC           ; [CPU_ALU] |414| 
    2051 00000063 0200          MOVB      ACC,#0                ; [CPU_ALU] |414| 
    2052 00000064 1901          SUBB      ACC,#1                ; [CPU_ALU] |414| 
    2053 00000065 1E44          MOVL      *-SP[4],ACC           ; [CPU_ALU] |414| 
    2054 00000066 1E42          MOVL      *-SP[2],ACC           ; [CPU_ALU] |414| 
    2055 00000067 A34A          MOVL      P,*-SP[10]            ; [CPU_ALU] |414| 
    2056 00000068 565D          SUBUL     P,XAR4                ; [CPU_ALU] |414| 
         00000069 00A4 
    2057 0000006a A94A          MOVL      *-SP[10],P            ; [CPU_ALU] |414| 
    2058 0000006b 064C          MOVL      ACC,*-SP[12]          ; [CPU_ALU] |414| 
    2059 0000006c 5654          SUBBL     ACC,XAR5              ; [CPU_ALU] |414| 
         0000006d 00A5 
    2060 0000006e 1E4C          MOVL      *-SP[12],ACC          ; [CPU_ALU] |414| 
    2061              $C$DW$120       .dwtag  DW_TAG_TI_branch
    2062                      .dwattr $C$DW$120, DW_AT_low_pc(0x00)
    2063                      .dwattr $C$DW$120, DW_AT_name("LL$$CMP")
    2064                      .dwattr $C$DW$120, DW_AT_TI_call
    2065              
TMS320C2000 Assembler PC v22.6.1 Wed May 21 09:51:55 2025

Copyright (c) 1996-2018 Texas Instruments Incorporated
C:\Users\Daniel\AppData\Local\Temp\{11E65CAE-3485-48B7-8496-5C6CE456308C} PAGE   40

    2066 0000006f 00C0!         FFC       XAR7,#LL$$CMP         ; [CPU_ALU] |414| 
         00000070 0000 
    2067                      ; call occurs [#LL$$CMP] ; [] |414| 
    2068 00000071 5200          CMPB      AL,#0                 ; [CPU_ALU] |414| 
    2069 00000072 60D6          B         $C$L27,NEQ            ; [CPU_ALU] |414| 
    2070                      ; branchcc occurs ; [] |414| 
    2071 00000073       $C$L28:    
    2072                      .dwpsn  file "../device/driverlib/aes.c",line 430,column 5,is_stmt,isa 0
    2073 00000073 9A01          MOVB      AL,#1                 ; [CPU_ALU] |430| 
    2074 00000074 FE8E          SUBB      SP,#14                ; [CPU_ARAU] 
    2075                      .dwcfi  cfa_offset, -8
    2076 00000075 82BE          MOVL      XAR3,*--SP            ; [CPU_ALU] 
    2077                      .dwcfi  cfa_offset, -6
    2078                      .dwcfi  restore_reg, 11
    2079 00000076 86BE          MOVL      XAR2,*--SP            ; [CPU_ALU] 
    2080                      .dwcfi  cfa_offset, -4
    2081                      .dwcfi  restore_reg, 9
    2082 00000077 8BBE          MOVL      XAR1,*--SP            ; [CPU_ALU] 
    2083                      .dwcfi  cfa_offset, -2
    2084                      .dwcfi  restore_reg, 7
    2085              $C$DW$121       .dwtag  DW_TAG_TI_branch
    2086                      .dwattr $C$DW$121, DW_AT_low_pc(0x00)
    2087                      .dwattr $C$DW$121, DW_AT_TI_return
    2088              
    2089 00000078 0006          LRETR     ; [CPU_ALU] 
    2090                      ; return occurs ; [] 
    2091                      .dwattr $C$DW$106, DW_AT_TI_end_file("../device/driverlib/aes.c")
    2092                      .dwattr $C$DW$106, DW_AT_TI_end_line(0x1af)
    2093                      .dwattr $C$DW$106, DW_AT_TI_end_column(0x01)
    2094                      .dwendentry
    2095                      .dwendtag $C$DW$106
    2096              
    2097 00000000               .sect   ".text:_AES_getInterruptStatus"
    2098                      .clink
    2099                      .global _AES_getInterruptStatus
    2100              
    2101              $C$DW$122       .dwtag  DW_TAG_subprogram
    2102                      .dwattr $C$DW$122, DW_AT_name("AES_getInterruptStatus")
    2103                      .dwattr $C$DW$122, DW_AT_low_pc(_AES_getInterruptStatus)
    2104                      .dwattr $C$DW$122, DW_AT_high_pc(0x00)
    2105                      .dwattr $C$DW$122, DW_AT_TI_symbol_name("_AES_getInterruptStatus")
    2106                      .dwattr $C$DW$122, DW_AT_external
    2107                      .dwattr $C$DW$122, DW_AT_type(*$C$DW$T$46)
    2108                      .dwattr $C$DW$122, DW_AT_TI_begin_file("../device/driverlib/aes.c")
    2109                      .dwattr $C$DW$122, DW_AT_TI_begin_line(0x226)
    2110                      .dwattr $C$DW$122, DW_AT_TI_begin_column(0x01)
    2111                      .dwattr $C$DW$122, DW_AT_TI_max_frame_size(-6)
    2112                      .dwpsn  file "../device/driverlib/aes.c",line 551,column 1,is_stmt,address _AES_getInterruptStatus,is
    2113              
    2114                      .dwfde $C$DW$CIE, _AES_getInterruptStatus
    2115              $C$DW$123       .dwtag  DW_TAG_formal_parameter
    2116                      .dwattr $C$DW$123, DW_AT_name("base")
    2117                      .dwattr $C$DW$123, DW_AT_TI_symbol_name("_base")
    2118                      .dwattr $C$DW$123, DW_AT_type(*$C$DW$T$46)
    2119                      .dwattr $C$DW$123, DW_AT_location[DW_OP_reg0]
TMS320C2000 Assembler PC v22.6.1 Wed May 21 09:51:55 2025

Copyright (c) 1996-2018 Texas Instruments Incorporated
C:\Users\Daniel\AppData\Local\Temp\{11E65CAE-3485-48B7-8496-5C6CE456308C} PAGE   41

    2120              
    2121              $C$DW$124       .dwtag  DW_TAG_formal_parameter
    2122                      .dwattr $C$DW$124, DW_AT_name("intMask")
    2123                      .dwattr $C$DW$124, DW_AT_TI_symbol_name("_intMask")
    2124                      .dwattr $C$DW$124, DW_AT_type(*$C$DW$T$76)
    2125                      .dwattr $C$DW$124, DW_AT_location[DW_OP_reg12]
    2126              
    2127              
    2128              ;***************************************************************
    2129              ;* FNAME: _AES_getInterruptStatus       FR SIZE:   4           *
    2130              ;*                                                             *
    2131              ;* FUNCTION ENVIRONMENT                                        *
    2132              ;*                                                             *
    2133              ;* FUNCTION PROPERTIES                                         *
    2134              ;*                            0 Parameter,  0 Auto,  4 SOE     *
    2135              ;***************************************************************
    2136              
    2137              _AES_getInterruptStatus:
    2138              ;* AR2   assigned to _base
    2139              $C$DW$125       .dwtag  DW_TAG_variable
    2140                      .dwattr $C$DW$125, DW_AT_name("base")
    2141                      .dwattr $C$DW$125, DW_AT_TI_symbol_name("_base")
    2142                      .dwattr $C$DW$125, DW_AT_type(*$C$DW$T$54)
    2143                      .dwattr $C$DW$125, DW_AT_location[DW_OP_reg8]
    2144              
    2145              ;* AR1   assigned to _intMask
    2146              $C$DW$126       .dwtag  DW_TAG_variable
    2147                      .dwattr $C$DW$126, DW_AT_name("intMask")
    2148                      .dwattr $C$DW$126, DW_AT_TI_symbol_name("_intMask")
    2149                      .dwattr $C$DW$126, DW_AT_type(*$C$DW$T$92)
    2150                      .dwattr $C$DW$126, DW_AT_location[DW_OP_reg6]
    2151              
    2152              ;* PL    assigned to _intStatus
    2153              $C$DW$127       .dwtag  DW_TAG_variable
    2154                      .dwattr $C$DW$127, DW_AT_name("intStatus")
    2155                      .dwattr $C$DW$127, DW_AT_TI_symbol_name("_intStatus")
    2156                      .dwattr $C$DW$127, DW_AT_type(*$C$DW$T$46)
    2157                      .dwattr $C$DW$127, DW_AT_location[DW_OP_reg2]
    2158              
    2159              ;* AL    assigned to _intEnable
    2160              $C$DW$128       .dwtag  DW_TAG_variable
    2161                      .dwattr $C$DW$128, DW_AT_name("intEnable")
    2162                      .dwattr $C$DW$128, DW_AT_TI_symbol_name("_intEnable")
    2163                      .dwattr $C$DW$128, DW_AT_type(*$C$DW$T$46)
    2164                      .dwattr $C$DW$128, DW_AT_location[DW_OP_reg0]
    2165              
    2166              ;* AL    assigned to _temp
    2167              $C$DW$129       .dwtag  DW_TAG_variable
    2168                      .dwattr $C$DW$129, DW_AT_name("temp")
    2169                      .dwattr $C$DW$129, DW_AT_TI_symbol_name("_temp")
    2170                      .dwattr $C$DW$129, DW_AT_type(*$C$DW$T$46)
    2171                      .dwattr $C$DW$129, DW_AT_location[DW_OP_reg0]
    2172              
    2173                      .dwcfi  cfa_offset, -2
    2174                      .dwcfi  save_reg_to_mem, 26, 0
TMS320C2000 Assembler PC v22.6.1 Wed May 21 09:51:55 2025

Copyright (c) 1996-2018 Texas Instruments Incorporated
C:\Users\Daniel\AppData\Local\Temp\{11E65CAE-3485-48B7-8496-5C6CE456308C} PAGE   42

    2175 00000000 B2BD          MOVL      *SP++,XAR1            ; [CPU_ALU] 
    2176                      .dwcfi  save_reg_to_mem, 7, 2
    2177                      .dwcfi  cfa_offset, -4
    2178 00000001 AABD          MOVL      *SP++,XAR2            ; [CPU_ALU] 
    2179                      .dwcfi  save_reg_to_mem, 9, 4
    2180                      .dwcfi  cfa_offset, -6
    2181 00000002 86A9          MOVL      XAR2,ACC              ; [CPU_ALU] |551| 
    2182 00000003 59A4          MOVZ      AR1,AR4               ; [CPU_ALU] |551| 
    2183                      .dwpsn  file "../device/driverlib/aes.c",line 557,column 5,is_stmt,isa 0
    2184 00000004 8F04          MOVL      XAR4,#270336          ; [CPU_ARAU] |557| 
         00000005 2000 
    2185 00000006 A8A9          MOVL      ACC,XAR4              ; [CPU_ALU] |557| 
    2186 00000007 0FA2          CMPL      ACC,XAR2              ; [CPU_ALU] |557| 
    2187 00000008 6107          B         $C$L29,EQ             ; [CPU_ALU] |557| 
    2188                      ; branchcc occurs ; [] |557| 
    2189 00000009 FF20          MOV       ACC,#557              ; [CPU_ALU] |557| 
         0000000a 022D 
    2190 0000000b 8F00+         MOVL      XAR4,#$C$FSL1         ; [CPU_ARAU] |557| 
         0000000c 0000 
    2191              $C$DW$130       .dwtag  DW_TAG_TI_branch
    2192                      .dwattr $C$DW$130, DW_AT_low_pc(0x00)
    2193                      .dwattr $C$DW$130, DW_AT_name("___error__")
    2194                      .dwattr $C$DW$130, DW_AT_TI_call
    2195              
    2196 0000000d 7640!         LCR       #___error__           ; [CPU_ALU] |557| 
         0000000e 0000 
    2197                      ; call occurs [#___error__] ; [] |557| 
    2198 0000000f       $C$L29:    
    2199                      .dwpsn  file "../device/driverlib/aes.c",line 562,column 5,is_stmt,isa 0
    2200 0000000f 8AA2          MOVL      XAR4,XAR2             ; [CPU_ALU] |562| 
    2201 00000010 92A1          MOV       AL,AR1                ; [CPU_ALU] |562| 
    2202                      .dwpsn  file "../device/driverlib/aes.c",line 563,column 5,is_stmt,isa 0
    2203 00000011 5201          CMPB      AL,#1                 ; [CPU_ALU] |563| 
    2204                      .dwpsn  file "../device/driverlib/aes.c",line 562,column 5,is_stmt,isa 0
    2205 00000012 DC46          ADDB      XAR4,#70              ; [CPU_ALU] |562| 
    2206 00000013 A3C4          MOVL      P,*+XAR4[0]           ; [CPU_FPU] |562| 
    2207                      .dwpsn  file "../device/driverlib/aes.c",line 563,column 5,is_stmt,isa 0
    2208 00000014 6103          B         $C$L30,EQ             ; [CPU_ALU] |563| 
    2209                      ; branchcc occurs ; [] |563| 
    2210                      .dwpsn  file "../device/driverlib/aes.c",line 570,column 9,is_stmt,isa 0
    2211 00000015 A9A9          MOVL      ACC,P                 ; [CPU_ALU] |570| 
    2212 00000016 6F05          B         $C$L31,UNC            ; [CPU_ALU] |570| 
    2213                      ; branch occurs ; [] |570| 
    2214 00000017       $C$L30:    
    2215                      .dwpsn  file "../device/driverlib/aes.c",line 565,column 9,is_stmt,isa 0
    2216 00000017 DA48          ADDB      XAR2,#72              ; [CPU_ALU] |565| 
    2217 00000018 06C2          MOVL      ACC,*+XAR2[0]         ; [CPU_ALU] |565| 
    2218                      .dwpsn  file "../device/driverlib/aes.c",line 566,column 9,is_stmt,isa 0
    2219 00000019 CEAB          AND       AL,PL                 ; [CPU_ALU] |566| 
    2220 0000001a CFAA          AND       AH,PH                 ; [CPU_ALU] |566| 
    2221 0000001b       $C$L31:    
    2222 0000001b 86BE          MOVL      XAR2,*--SP            ; [CPU_ALU] 
    2223                      .dwcfi  cfa_offset, -4
    2224                      .dwcfi  restore_reg, 9
    2225 0000001c 8BBE          MOVL      XAR1,*--SP            ; [CPU_ALU] 
TMS320C2000 Assembler PC v22.6.1 Wed May 21 09:51:55 2025

Copyright (c) 1996-2018 Texas Instruments Incorporated
C:\Users\Daniel\AppData\Local\Temp\{11E65CAE-3485-48B7-8496-5C6CE456308C} PAGE   43

    2226                      .dwcfi  cfa_offset, -2
    2227                      .dwcfi  restore_reg, 7
    2228              $C$DW$131       .dwtag  DW_TAG_TI_branch
    2229                      .dwattr $C$DW$131, DW_AT_low_pc(0x00)
    2230                      .dwattr $C$DW$131, DW_AT_TI_return
    2231              
    2232 0000001d 0006          LRETR     ; [CPU_ALU] 
    2233                      ; return occurs ; [] 
    2234                      .dwattr $C$DW$122, DW_AT_TI_end_file("../device/driverlib/aes.c")
    2235                      .dwattr $C$DW$122, DW_AT_TI_end_line(0x23d)
    2236                      .dwattr $C$DW$122, DW_AT_TI_end_column(0x01)
    2237                      .dwendentry
    2238                      .dwendtag $C$DW$122
    2239              
    2240 00000000               .sect   ".text:_AES_configureModule"
    2241                      .clink
    2242                      .global _AES_configureModule
    2243              
    2244              $C$DW$132       .dwtag  DW_TAG_subprogram
    2245                      .dwattr $C$DW$132, DW_AT_name("AES_configureModule")
    2246                      .dwattr $C$DW$132, DW_AT_low_pc(_AES_configureModule)
    2247                      .dwattr $C$DW$132, DW_AT_high_pc(0x00)
    2248                      .dwattr $C$DW$132, DW_AT_TI_symbol_name("_AES_configureModule")
    2249                      .dwattr $C$DW$132, DW_AT_external
    2250                      .dwattr $C$DW$132, DW_AT_TI_begin_file("../device/driverlib/aes.c")
    2251                      .dwattr $C$DW$132, DW_AT_TI_begin_line(0x31)
    2252                      .dwattr $C$DW$132, DW_AT_TI_begin_column(0x01)
    2253                      .dwattr $C$DW$132, DW_AT_TI_max_frame_size(-6)
    2254                      .dwpsn  file "../device/driverlib/aes.c",line 50,column 1,is_stmt,address _AES_configureModule,isa 0
    2255              
    2256                      .dwfde $C$DW$CIE, _AES_configureModule
    2257              $C$DW$133       .dwtag  DW_TAG_formal_parameter
    2258                      .dwattr $C$DW$133, DW_AT_name("base")
    2259                      .dwattr $C$DW$133, DW_AT_TI_symbol_name("_base")
    2260                      .dwattr $C$DW$133, DW_AT_type(*$C$DW$T$46)
    2261                      .dwattr $C$DW$133, DW_AT_location[DW_OP_reg0]
    2262              
    2263              $C$DW$134       .dwtag  DW_TAG_formal_parameter
    2264                      .dwattr $C$DW$134, DW_AT_name("config")
    2265                      .dwattr $C$DW$134, DW_AT_TI_symbol_name("_config")
    2266                      .dwattr $C$DW$134, DW_AT_type(*$C$DW$T$39)
    2267                      .dwattr $C$DW$134, DW_AT_location[DW_OP_reg12]
    2268              
    2269              
    2270              ;***************************************************************
    2271              ;* FNAME: _AES_configureModule          FR SIZE:   4           *
    2272              ;*                                                             *
    2273              ;* FUNCTION ENVIRONMENT                                        *
    2274              ;*                                                             *
    2275              ;* FUNCTION PROPERTIES                                         *
    2276              ;*                            0 Parameter,  0 Auto,  4 SOE     *
    2277              ;***************************************************************
    2278              
    2279              _AES_configureModule:
    2280              ;* AR2   assigned to $O$C2
TMS320C2000 Assembler PC v22.6.1 Wed May 21 09:51:55 2025

Copyright (c) 1996-2018 Texas Instruments Incorporated
C:\Users\Daniel\AppData\Local\Temp\{11E65CAE-3485-48B7-8496-5C6CE456308C} PAGE   44

    2281              ;* AR2   assigned to _base
    2282              $C$DW$135       .dwtag  DW_TAG_variable
    2283                      .dwattr $C$DW$135, DW_AT_name("base")
    2284                      .dwattr $C$DW$135, DW_AT_TI_symbol_name("_base")
    2285                      .dwattr $C$DW$135, DW_AT_type(*$C$DW$T$54)
    2286                      .dwattr $C$DW$135, DW_AT_location[DW_OP_reg8]
    2287              
    2288              ;* AR1   assigned to _config
    2289              $C$DW$136       .dwtag  DW_TAG_variable
    2290                      .dwattr $C$DW$136, DW_AT_name("config")
    2291                      .dwattr $C$DW$136, DW_AT_TI_symbol_name("_config")
    2292                      .dwattr $C$DW$136, DW_AT_type(*$C$DW$T$40)
    2293                      .dwattr $C$DW$136, DW_AT_location[DW_OP_reg6]
    2294              
    2295                      .dwcfi  cfa_offset, -2
    2296                      .dwcfi  save_reg_to_mem, 26, 0
    2297 00000000 B2BD          MOVL      *SP++,XAR1            ; [CPU_ALU] 
    2298                      .dwcfi  save_reg_to_mem, 7, 2
    2299                      .dwcfi  cfa_offset, -4
    2300 00000001 AABD          MOVL      *SP++,XAR2            ; [CPU_ALU] 
    2301                      .dwcfi  save_reg_to_mem, 9, 4
    2302                      .dwcfi  cfa_offset, -6
    2303 00000002 86A9          MOVL      XAR2,ACC              ; [CPU_ALU] |50| 
    2304 00000003 8BA4          MOVL      XAR1,XAR4             ; [CPU_ALU] |50| 
    2305                      .dwpsn  file "../device/driverlib/aes.c",line 54,column 5,is_stmt,isa 0
    2306 00000004 8F04          MOVL      XAR4,#270336          ; [CPU_ARAU] |54| 
         00000005 2000 
    2307 00000006 A8A9          MOVL      ACC,XAR4              ; [CPU_ALU] |54| 
    2308 00000007 0FA2          CMPL      ACC,XAR2              ; [CPU_ALU] |54| 
    2309 00000008 6106          B         $C$L32,EQ             ; [CPU_ALU] |54| 
    2310                      ; branchcc occurs ; [] |54| 
    2311 00000009 8F00+         MOVL      XAR4,#$C$FSL1         ; [CPU_ARAU] |54| 
         0000000a 0000 
    2312 0000000b 0236          MOVB      ACC,#54               ; [CPU_ALU] |54| 
    2313              $C$DW$137       .dwtag  DW_TAG_TI_branch
    2314                      .dwattr $C$DW$137, DW_AT_low_pc(0x00)
    2315                      .dwattr $C$DW$137, DW_AT_name("___error__")
    2316                      .dwattr $C$DW$137, DW_AT_TI_call
    2317              
    2318 0000000c 7640!         LCR       #___error__           ; [CPU_ALU] |54| 
         0000000d 0000 
    2319                      ; call occurs [#___error__] ; [] |54| 
    2320 0000000e       $C$L32:    
    2321                      .dwpsn  file "../device/driverlib/aes.c",line 59,column 5,is_stmt,isa 0
    2322 0000000e DA28          ADDB      XAR2,#40              ; [CPU_ALU] |59| 
    2323 0000000f 06C2          MOVL      ACC,*+XAR2[0]         ; [CPU_ALU] |59| 
    2324 00000010 9003          ANDB      AL,#3                 ; [CPU_ALU] |59| 
    2325 00000011 18A8          AND       AH,#65024             ; [CPU_ALU] |59| 
         00000012 FE00 
    2326 00000013 AFC1          OR        ACC,*+XAR1[0]         ; [CPU_ALU] |59| 
    2327 00000014 AFC9          OR        ACC,*+XAR1[1]         ; [CPU_ALU] |59| 
    2328 00000015 CAD1          OR        AL,*+XAR1[2]          ; [CPU_ALU] |59| 
    2329 00000016 CBD9          OR        AH,*+XAR1[3]          ; [CPU_ALU] |59| 
    2330 00000017 AFE1          OR        ACC,*+XAR1[4]         ; [CPU_ALU] |59| 
    2331 00000018 CAF1          OR        AL,*+XAR1[6]          ; [CPU_ALU] |59| 
TMS320C2000 Assembler PC v22.6.1 Wed May 21 09:51:55 2025

Copyright (c) 1996-2018 Texas Instruments Incorporated
C:\Users\Daniel\AppData\Local\Temp\{11E65CAE-3485-48B7-8496-5C6CE456308C} PAGE   45

    2332 00000019 CBF9          OR        AH,*+XAR1[7]          ; [CPU_ALU] |59| 
    2333 0000001a D908          ADDB      XAR1,#8               ; [CPU_ALU] |59| 
    2334 0000001b CAC1          OR        AL,*+XAR1[0]          ; [CPU_ALU] |59| 
    2335 0000001c CBC9          OR        AH,*+XAR1[1]          ; [CPU_ALU] |59| 
    2336 0000001d 1EC2          MOVL      *+XAR2[0],ACC         ; [CPU_ALU] |59| 
    2337 0000001e 86BE          MOVL      XAR2,*--SP            ; [CPU_ALU] 
    2338                      .dwcfi  cfa_offset, -4
    2339                      .dwcfi  restore_reg, 9
    2340 0000001f 8BBE          MOVL      XAR1,*--SP            ; [CPU_ALU] 
    2341                      .dwcfi  cfa_offset, -2
    2342                      .dwcfi  restore_reg, 7
    2343              $C$DW$138       .dwtag  DW_TAG_TI_branch
    2344                      .dwattr $C$DW$138, DW_AT_low_pc(0x00)
    2345                      .dwattr $C$DW$138, DW_AT_TI_return
    2346              
    2347 00000020 0006          LRETR     ; [CPU_ALU] 
    2348                      ; return occurs ; [] 
    2349                      .dwattr $C$DW$132, DW_AT_TI_end_file("../device/driverlib/aes.c")
    2350                      .dwattr $C$DW$132, DW_AT_TI_end_line(0x43)
    2351                      .dwattr $C$DW$132, DW_AT_TI_end_column(0x01)
    2352                      .dwendentry
    2353                      .dwendtag $C$DW$132
    2354              
    2355 00000000               .sect   ".text:_AES_authenticateData"
    2356                      .clink
    2357                      .global _AES_authenticateData
    2358              
    2359              $C$DW$139       .dwtag  DW_TAG_subprogram
    2360                      .dwattr $C$DW$139, DW_AT_name("AES_authenticateData")
    2361                      .dwattr $C$DW$139, DW_AT_low_pc(_AES_authenticateData)
    2362                      .dwattr $C$DW$139, DW_AT_high_pc(0x00)
    2363                      .dwattr $C$DW$139, DW_AT_TI_symbol_name("_AES_authenticateData")
    2364                      .dwattr $C$DW$139, DW_AT_external
    2365                      .dwattr $C$DW$139, DW_AT_type(*$C$DW$T$76)
    2366                      .dwattr $C$DW$139, DW_AT_TI_begin_file("../device/driverlib/aes.c")
    2367                      .dwattr $C$DW$139, DW_AT_TI_begin_line(0x1b7)
    2368                      .dwattr $C$DW$139, DW_AT_TI_begin_column(0x01)
    2369                      .dwattr $C$DW$139, DW_AT_TI_max_frame_size(-20)
    2370                      .dwpsn  file "../device/driverlib/aes.c",line 441,column 1,is_stmt,address _AES_authenticateData,isa 
    2371              
    2372                      .dwfde $C$DW$CIE, _AES_authenticateData
    2373              $C$DW$140       .dwtag  DW_TAG_formal_parameter
    2374                      .dwattr $C$DW$140, DW_AT_name("base")
    2375                      .dwattr $C$DW$140, DW_AT_TI_symbol_name("_base")
    2376                      .dwattr $C$DW$140, DW_AT_type(*$C$DW$T$46)
    2377                      .dwattr $C$DW$140, DW_AT_location[DW_OP_breg20 -22]
    2378              
    2379              $C$DW$141       .dwtag  DW_TAG_formal_parameter
    2380                      .dwattr $C$DW$141, DW_AT_name("srcArray")
    2381                      .dwattr $C$DW$141, DW_AT_TI_symbol_name("_srcArray")
    2382                      .dwattr $C$DW$141, DW_AT_type(*$C$DW$T$55)
    2383                      .dwattr $C$DW$141, DW_AT_location[DW_OP_reg12]
    2384              
    2385              $C$DW$142       .dwtag  DW_TAG_formal_parameter
    2386                      .dwattr $C$DW$142, DW_AT_name("dataLength")
TMS320C2000 Assembler PC v22.6.1 Wed May 21 09:51:55 2025

Copyright (c) 1996-2018 Texas Instruments Incorporated
C:\Users\Daniel\AppData\Local\Temp\{11E65CAE-3485-48B7-8496-5C6CE456308C} PAGE   46

    2387                      .dwattr $C$DW$142, DW_AT_TI_symbol_name("_dataLength")
    2388                      .dwattr $C$DW$142, DW_AT_type(*$C$DW$T$50)
    2389                      .dwattr $C$DW$142, DW_AT_location[DW_OP_reg2]
    2390              
    2391              $C$DW$143       .dwtag  DW_TAG_formal_parameter
    2392                      .dwattr $C$DW$143, DW_AT_name("tagArray")
    2393                      .dwattr $C$DW$143, DW_AT_TI_symbol_name("_tagArray")
    2394                      .dwattr $C$DW$143, DW_AT_type(*$C$DW$T$59)
    2395                      .dwattr $C$DW$143, DW_AT_location[DW_OP_reg14]
    2396              
    2397              
    2398              ;***************************************************************
    2399              ;* FNAME: _AES_authenticateData         FR SIZE:  18           *
    2400              ;*                                                             *
    2401              ;* FUNCTION ENVIRONMENT                                        *
    2402              ;*                                                             *
    2403              ;* FUNCTION PROPERTIES                                         *
    2404              ;*                            4 Parameter,  8 Auto,  6 SOE     *
    2405              ;***************************************************************
    2406              
    2407              _AES_authenticateData:
    2408              ;* AR2   assigned to $O$U31
    2409              $C$DW$144       .dwtag  DW_TAG_variable
    2410                      .dwattr $C$DW$144, DW_AT_name("base")
    2411                      .dwattr $C$DW$144, DW_AT_TI_symbol_name("_base")
    2412                      .dwattr $C$DW$144, DW_AT_type(*$C$DW$T$54)
    2413                      .dwattr $C$DW$144, DW_AT_location[DW_OP_breg20 -8]
    2414              
    2415              $C$DW$145       .dwtag  DW_TAG_variable
    2416                      .dwattr $C$DW$145, DW_AT_name("srcArray")
    2417                      .dwattr $C$DW$145, DW_AT_TI_symbol_name("_srcArray")
    2418                      .dwattr $C$DW$145, DW_AT_type(*$C$DW$T$83)
    2419                      .dwattr $C$DW$145, DW_AT_location[DW_OP_breg20 -10]
    2420              
    2421              ;* AR1   assigned to _dataLength
    2422              $C$DW$146       .dwtag  DW_TAG_variable
    2423                      .dwattr $C$DW$146, DW_AT_name("dataLength")
    2424                      .dwattr $C$DW$146, DW_AT_TI_symbol_name("_dataLength")
    2425                      .dwattr $C$DW$146, DW_AT_type(*$C$DW$T$85)
    2426                      .dwattr $C$DW$146, DW_AT_location[DW_OP_reg6 DW_OP_piece 2 DW_OP_reg10 DW_OP_piece 2]
    2427              
    2428              $C$DW$147       .dwtag  DW_TAG_variable
    2429                      .dwattr $C$DW$147, DW_AT_name("tagArray")
    2430                      .dwattr $C$DW$147, DW_AT_TI_symbol_name("_tagArray")
    2431                      .dwattr $C$DW$147, DW_AT_type(*$C$DW$T$81)
    2432                      .dwattr $C$DW$147, DW_AT_location[DW_OP_breg20 -12]
    2433              
    2434              ;* AR1   assigned to _count
    2435              $C$DW$148       .dwtag  DW_TAG_variable
    2436                      .dwattr $C$DW$148, DW_AT_name("count")
    2437                      .dwattr $C$DW$148, DW_AT_TI_symbol_name("_count")
    2438                      .dwattr $C$DW$148, DW_AT_type(*$C$DW$T$46)
    2439                      .dwattr $C$DW$148, DW_AT_location[DW_OP_reg6]
    2440              
    2441                      .dwcfi  cfa_offset, -2
TMS320C2000 Assembler PC v22.6.1 Wed May 21 09:51:55 2025

Copyright (c) 1996-2018 Texas Instruments Incorporated
C:\Users\Daniel\AppData\Local\Temp\{11E65CAE-3485-48B7-8496-5C6CE456308C} PAGE   47

    2442                      .dwcfi  save_reg_to_mem, 26, 0
    2443 00000000 B2BD          MOVL      *SP++,XAR1            ; [CPU_ALU] 
    2444                      .dwcfi  save_reg_to_mem, 7, 2
    2445                      .dwcfi  cfa_offset, -4
    2446 00000001 AABD          MOVL      *SP++,XAR2            ; [CPU_ALU] 
    2447                      .dwcfi  save_reg_to_mem, 9, 4
    2448                      .dwcfi  cfa_offset, -6
    2449 00000002 A2BD          MOVL      *SP++,XAR3            ; [CPU_ALU] 
    2450                      .dwcfi  save_reg_to_mem, 11, 6
    2451                      .dwcfi  cfa_offset, -8
    2452 00000003 FE0C          ADDB      SP,#12                ; [CPU_ARAU] 
    2453                      .dwcfi  cfa_offset, -20
    2454 00000004 82A9          MOVL      XAR3,ACC              ; [CPU_ALU] |441| 
    2455 00000005 A84A          MOVL      *-SP[10],XAR4         ; [CPU_ALU] |441| 
    2456 00000006 C456          MOVL      XAR6,*-SP[22]         ; [CPU_ALU] |441| 
    2457 00000007 A9A1          MOVL      XAR1,P                ; [CPU_ALU] |441| 
    2458                      .dwpsn  file "../device/driverlib/aes.c",line 447,column 5,is_stmt,isa 0
    2459 00000008 8F04          MOVL      XAR4,#270336          ; [CPU_ARAU] |447| 
         00000009 2000 
    2460                      .dwpsn  file "../device/driverlib/aes.c",line 441,column 1,is_stmt,isa 0
    2461 0000000a A04C          MOVL      *-SP[12],XAR5         ; [CPU_ALU] |441| 
    2462                      .dwpsn  file "../device/driverlib/aes.c",line 447,column 5,is_stmt,isa 0
    2463 0000000b A8A9          MOVL      ACC,XAR4              ; [CPU_ALU] |447| 
    2464                      .dwpsn  file "../device/driverlib/aes.c",line 441,column 1,is_stmt,isa 0
    2465 0000000c C248          MOVL      *-SP[8],XAR6          ; [CPU_ALU] |441| 
    2466                      .dwpsn  file "../device/driverlib/aes.c",line 447,column 5,is_stmt,isa 0
    2467 0000000d 0FA6          CMPL      ACC,XAR6              ; [CPU_ALU] |447| 
    2468 0000000e 6107          B         $C$L33,EQ             ; [CPU_ALU] |447| 
    2469                      ; branchcc occurs ; [] |447| 
    2470 0000000f FF20          MOV       ACC,#447              ; [CPU_ALU] |447| 
         00000010 01BF 
    2471 00000011 8F00+         MOVL      XAR4,#$C$FSL1         ; [CPU_ARAU] |447| 
         00000012 0000 
    2472              $C$DW$149       .dwtag  DW_TAG_TI_branch
    2473                      .dwattr $C$DW$149, DW_AT_low_pc(0x00)
    2474                      .dwattr $C$DW$149, DW_AT_name("___error__")
    2475                      .dwattr $C$DW$149, DW_AT_TI_call
    2476              
    2477 00000013 7640!         LCR       #___error__           ; [CPU_ALU] |447| 
         00000014 0000 
    2478                      ; call occurs [#___error__] ; [] |447| 
    2479 00000015       $C$L33:    
    2480                      .dwpsn  file "..\device\driverlib\aes.h",line 360,column 5,is_stmt,isa 0
    2481 00000015 C448          MOVL      XAR6,*-SP[8]          ; [CPU_ALU] |360| 
    2482 00000016 8F04          MOVL      XAR4,#270336          ; [CPU_ARAU] |360| 
         00000017 2000 
    2483 00000018 A8A9          MOVL      ACC,XAR4              ; [CPU_ALU] |360| 
    2484 00000019 0FA6          CMPL      ACC,XAR6              ; [CPU_ALU] |360| 
    2485 0000001a 6107          B         $C$L34,EQ             ; [CPU_ALU] |360| 
    2486                      ; branchcc occurs ; [] |360| 
    2487 0000001b FF20          MOV       ACC,#360              ; [CPU_ALU] |360| 
         0000001c 0168 
    2488 0000001d 8F00+         MOVL      XAR4,#$C$FSL2         ; [CPU_ARAU] |360| 
         0000001e 001A 
    2489              $C$DW$150       .dwtag  DW_TAG_TI_branch
TMS320C2000 Assembler PC v22.6.1 Wed May 21 09:51:55 2025

Copyright (c) 1996-2018 Texas Instruments Incorporated
C:\Users\Daniel\AppData\Local\Temp\{11E65CAE-3485-48B7-8496-5C6CE456308C} PAGE   48

    2490                      .dwattr $C$DW$150, DW_AT_low_pc(0x00)
    2491                      .dwattr $C$DW$150, DW_AT_name("___error__")
    2492                      .dwattr $C$DW$150, DW_AT_TI_call
    2493              
    2494 0000001f 7640!         LCR       #___error__           ; [CPU_ALU] |360| 
         00000020 0000 
    2495                      ; call occurs [#___error__] ; [] |360| 
    2496 00000021       $C$L34:    
    2497                      .dwpsn  file "..\device\driverlib\aes.h",line 366,column 5,is_stmt,isa 0
    2498 00000021 8A48          MOVL      XAR4,*-SP[8]          ; [CPU_ALU] |366| 
    2499 00000022 B2AB          MOVL      P,XAR1                ; [CPU_ALU] |366| 
    2500 00000023 A2A9          MOVL      ACC,XAR3              ; [CPU_ALU] |366| 
    2501                      .dwpsn  file "..\device\driverlib\aes.h",line 365,column 5,is_stmt,isa 0
    2502 00000024 83A4          MOVL      XAR5,XAR4             ; [CPU_ALU] |365| 
    2503                      .dwpsn  file "..\device\driverlib\aes.h",line 366,column 5,is_stmt,isa 0
    2504 00000025 28AC          MOV       T,#32                 ; [CPU_ALU] |366| 
         00000026 0020 
    2505                      .dwpsn  file "../device/driverlib/aes.c",line 458,column 21,is_stmt,isa 0
    2506 00000027 BE00          MOVB      XAR6,#0               ; [CPU_ALU] |458| 
    2507                      .dwpsn  file "..\device\driverlib\aes.h",line 366,column 5,is_stmt,isa 0
    2508 00000028 565B          LSR64     ACC:P,T               ; [CPU_ALU] |366| 
    2509                      .dwpsn  file "..\device\driverlib\aes.h",line 365,column 5,is_stmt,isa 0
    2510 00000029 DD2A          ADDB      XAR5,#42              ; [CPU_ALU] |365| 
    2511                      .dwpsn  file "..\device\driverlib\aes.h",line 366,column 5,is_stmt,isa 0
    2512 0000002a DC2C          ADDB      XAR4,#44              ; [CPU_ALU] |366| 
    2513                      .dwpsn  file "..\device\driverlib\aes.h",line 365,column 5,is_stmt,isa 0
    2514 0000002b B2C5          MOVL      *+XAR5[0],XAR1        ; [CPU_ALU] |365| 
    2515                      .dwpsn  file "..\device\driverlib\aes.h",line 366,column 5,is_stmt,isa 0
    2516 0000002c A9C4          MOVL      *+XAR4[0],P           ; [CPU_ALU] |366| 
    2517                      .dwpsn  file "../device/driverlib/aes.c",line 458,column 21,is_stmt,isa 0
    2518 0000002d 5633          ZAPA      ; [CPU_ALU] |458| 
    2519 0000002e 28AB          MOV       PL,#15                ; [CPU_ALU] |458| 
         0000002f 000F 
    2520 00000030 5657          ADDUL     P,XAR1                ; [CPU_ALU] |458| 
         00000031 00A1 
    2521 00000032 5640          ADDCL     ACC,XAR3              ; [CPU_ALU] |458| 
         00000033 00A3 
    2522 00000034 5693          LSR64     ACC:P,4               ; [CPU_ALU] |458| 
    2523 00000035 A946          MOVL      *-SP[6],P             ; [CPU_ALU] |458| 
    2524 00000036 82A9          MOVL      XAR3,ACC              ; [CPU_ALU] |458| 
    2525 00000037 C244          MOVL      *-SP[4],XAR6          ; [CPU_ALU] |458| 
    2526 00000038 2B42          MOV       *-SP[2],#0            ; [CPU_ALU] |458| 
    2527 00000039 2B41          MOV       *-SP[1],#0            ; [CPU_ALU] |458| 
    2528              $C$DW$151       .dwtag  DW_TAG_TI_branch
    2529                      .dwattr $C$DW$151, DW_AT_low_pc(0x00)
    2530                      .dwattr $C$DW$151, DW_AT_name("ULL$$CMP")
    2531                      .dwattr $C$DW$151, DW_AT_TI_call
    2532              
    2533 0000003a 00C0!         FFC       XAR7,#ULL$$CMP        ; [CPU_ALU] |458| 
         0000003b 0000 
    2534                      ; call occurs [#ULL$$CMP] ; [] |458| 
    2535 0000003c 5200          CMPB      AL,#0                 ; [CPU_ALU] |458| 
    2536 0000003d 6112          B         $C$L36,EQ             ; [CPU_ALU] |458| 
    2537                      ; branchcc occurs ; [] |458| 
    2538 0000003e 864A          MOVL      XAR2,*-SP[10]         ; [CPU_ALU] 
TMS320C2000 Assembler PC v22.6.1 Wed May 21 09:51:55 2025

Copyright (c) 1996-2018 Texas Instruments Incorporated
C:\Users\Daniel\AppData\Local\Temp\{11E65CAE-3485-48B7-8496-5C6CE456308C} PAGE   49

    2539                      .dwpsn  file "../device/driverlib/aes.c",line 458,column 9,is_stmt,isa 0
    2540 0000003f D100          MOVB      XAR1,#0               ; [CPU_ALU] |458| 
    2541 00000040       $C$L35:    
    2542 00000040 0648          MOVL      ACC,*-SP[8]           ; [CPU_ALU] 
    2543                      .dwpsn  file "../device/driverlib/aes.c",line 463,column 9,is_stmt,isa 0
    2544 00000041 8AA2          MOVL      XAR4,XAR2             ; [CPU_ALU] |463| 
    2545              $C$DW$152       .dwtag  DW_TAG_TI_branch
    2546                      .dwattr $C$DW$152, DW_AT_low_pc(0x00)
    2547                      .dwattr $C$DW$152, DW_AT_name("_AES_writeDataBlocking")
    2548                      .dwattr $C$DW$152, DW_AT_TI_call
    2549              
    2550 00000042 7640+         LCR       #_AES_writeDataBlocking ; [CPU_ALU] |463| 
         00000043 0000 
    2551                      ; call occurs [#_AES_writeDataBlocking] ; [] |463| 
    2552                      .dwpsn  file "../device/driverlib/aes.c",line 458,column 57,is_stmt,isa 0
    2553 00000044 C446          MOVL      XAR6,*-SP[6]          ; [CPU_ALU] |458| 
    2554 00000045 D901          ADDB      XAR1,#1               ; [CPU_ALU] |458| 
    2555 00000046 0200          MOVB      ACC,#0                ; [CPU_FPU] |458| 
    2556 00000047 B2AB          MOVL      P,XAR1                ; [CPU_ALU] |458| 
    2557 00000048 C244          MOVL      *-SP[4],XAR6          ; [CPU_ALU] |458| 
    2558 00000049 A242          MOVL      *-SP[2],XAR3          ; [CPU_ALU] |458| 
    2559              $C$DW$153       .dwtag  DW_TAG_TI_branch
    2560                      .dwattr $C$DW$153, DW_AT_low_pc(0x00)
    2561                      .dwattr $C$DW$153, DW_AT_name("ULL$$CMP")
    2562                      .dwattr $C$DW$153, DW_AT_TI_call
    2563              
    2564 0000004a 00C0!         FFC       XAR7,#ULL$$CMP        ; [CPU_ALU] |458| 
         0000004b 0000 
    2565                      ; call occurs [#ULL$$CMP] ; [] |458| 
    2566 0000004c DA08          ADDB      XAR2,#8               ; [CPU_ALU] |458| 
    2567 0000004d 5200          CMPB      AL,#0                 ; [CPU_ALU] |458| 
    2568 0000004e 64F2          B         $C$L35,LT             ; [CPU_ALU] |458| 
    2569                      ; branchcc occurs ; [] |458| 
    2570 0000004f       $C$L36:    
    2571 0000004f 0648          MOVL      ACC,*-SP[8]           ; [CPU_ALU] 
    2572                      .dwpsn  file "../device/driverlib/aes.c",line 469,column 5,is_stmt,isa 0
    2573 00000050 8A4C          MOVL      XAR4,*-SP[12]         ; [CPU_ALU] |469| 
    2574              $C$DW$154       .dwtag  DW_TAG_TI_branch
    2575                      .dwattr $C$DW$154, DW_AT_low_pc(0x00)
    2576                      .dwattr $C$DW$154, DW_AT_name("_AES_readTag")
    2577                      .dwattr $C$DW$154, DW_AT_TI_call
    2578              
    2579 00000051 7640+         LCR       #_AES_readTag         ; [CPU_ALU] |469| 
         00000052 0000 
    2580                      ; call occurs [#_AES_readTag] ; [] |469| 
    2581                      .dwpsn  file "../device/driverlib/aes.c",line 474,column 5,is_stmt,isa 0
    2582 00000053 9A01          MOVB      AL,#1                 ; [CPU_ALU] |474| 
    2583 00000054 FE8C          SUBB      SP,#12                ; [CPU_ARAU] 
    2584                      .dwcfi  cfa_offset, -8
    2585 00000055 82BE          MOVL      XAR3,*--SP            ; [CPU_ALU] 
    2586                      .dwcfi  cfa_offset, -6
    2587                      .dwcfi  restore_reg, 11
    2588 00000056 86BE          MOVL      XAR2,*--SP            ; [CPU_ALU] 
    2589                      .dwcfi  cfa_offset, -4
    2590                      .dwcfi  restore_reg, 9
TMS320C2000 Assembler PC v22.6.1 Wed May 21 09:51:55 2025

Copyright (c) 1996-2018 Texas Instruments Incorporated
C:\Users\Daniel\AppData\Local\Temp\{11E65CAE-3485-48B7-8496-5C6CE456308C} PAGE   50

    2591 00000057 8BBE          MOVL      XAR1,*--SP            ; [CPU_ALU] 
    2592                      .dwcfi  cfa_offset, -2
    2593                      .dwcfi  restore_reg, 7
    2594              $C$DW$155       .dwtag  DW_TAG_TI_branch
    2595                      .dwattr $C$DW$155, DW_AT_low_pc(0x00)
    2596                      .dwattr $C$DW$155, DW_AT_TI_return
    2597              
    2598 00000058 0006          LRETR     ; [CPU_ALU] 
    2599                      ; return occurs ; [] 
    2600                      .dwattr $C$DW$139, DW_AT_TI_end_file("../device/driverlib/aes.c")
    2601                      .dwattr $C$DW$139, DW_AT_TI_end_line(0x1db)
    2602                      .dwattr $C$DW$139, DW_AT_TI_end_column(0x01)
    2603                      .dwendentry
    2604                      .dwendtag $C$DW$139
    2605              
    2606              ;***************************************************************
    2607              ;* FAR STRINGS                                                 *
    2608              ;***************************************************************
    2609 00000000               .sect   ".econst:.string"
    2610                      .align  2
    2611 00000000 002E  $C$FSL1:        .string "../device/driverlib/aes.c",0
         00000001 002E 
         00000002 002F 
         00000003 0064 
         00000004 0065 
         00000005 0076 
         00000006 0069 
         00000007 0063 
         00000008 0065 
         00000009 002F 
         0000000a 0064 
         0000000b 0072 
         0000000c 0069 
         0000000d 0076 
         0000000e 0065 
         0000000f 0072 
         00000010 006C 
         00000011 0069 
         00000012 0062 
         00000013 002F 
         00000014 0061 
         00000015 0065 
         00000016 0073 
         00000017 002E 
         00000018 0063 
         00000019 0000 
    2612                      .align  2
    2613 0000001a 002E  $C$FSL2:        .string "..",92,"device",92,"driverlib",92,"aes.h",0
         0000001b 002E 
         0000001c 005C 
         0000001d 0064 
         0000001e 0065 
         0000001f 0076 
         00000020 0069 
         00000021 0063 
TMS320C2000 Assembler PC v22.6.1 Wed May 21 09:51:55 2025

Copyright (c) 1996-2018 Texas Instruments Incorporated
C:\Users\Daniel\AppData\Local\Temp\{11E65CAE-3485-48B7-8496-5C6CE456308C} PAGE   51

         00000022 0065 
         00000023 005C 
         00000024 0064 
         00000025 0072 
         00000026 0069 
         00000027 0076 
         00000028 0065 
         00000029 0072 
         0000002a 006C 
         0000002b 0069 
         0000002c 0062 
         0000002d 005C 
         0000002e 0061 
         0000002f 0065 
         00000030 0073 
         00000031 002E 
         00000032 0068 
         00000033 0000 
    2614              ;**************************************************************
    2615              ;* UNDEFINED EXTERNAL REFERENCES                              *
    2616              ;**************************************************************
    2617                      .global ___error__
    2618                      .global ULL$$CMP
    2619                      .global LL$$CMP
    2620              
    2621              ;***************************************************************
    2622              ;* TYPE INFORMATION                                            *
    2623              ;***************************************************************
    2624              
    2625              $C$DW$T$19      .dwtag  DW_TAG_enumeration_type
    2626                      .dwattr $C$DW$T$19, DW_AT_byte_size(0x01)
    2627              $C$DW$156       .dwtag  DW_TAG_enumerator
    2628                      .dwattr $C$DW$156, DW_AT_name("AES_DIRECTION_DECRYPT")
    2629                      .dwattr $C$DW$156, DW_AT_const_value(0x00)
    2630              
    2631              $C$DW$157       .dwtag  DW_TAG_enumerator
    2632                      .dwattr $C$DW$157, DW_AT_name("AES_DIRECTION_ENCRYPT")
    2633                      .dwattr $C$DW$157, DW_AT_const_value(0x04)
    2634              
    2635                      .dwendtag $C$DW$T$19
    2636              
    2637              $C$DW$T$20      .dwtag  DW_TAG_typedef
    2638                      .dwattr $C$DW$T$20, DW_AT_name("AES_Direction")
    2639                      .dwattr $C$DW$T$20, DW_AT_type(*$C$DW$T$19)
    2640                      .dwattr $C$DW$T$20, DW_AT_language(DW_LANG_C)
    2641              
    2642              
    2643              $C$DW$T$21      .dwtag  DW_TAG_enumeration_type
    2644                      .dwattr $C$DW$T$21, DW_AT_byte_size(0x01)
    2645              $C$DW$158       .dwtag  DW_TAG_enumerator
    2646                      .dwattr $C$DW$158, DW_AT_name("AES_KEY_SIZE_128BIT")
    2647                      .dwattr $C$DW$158, DW_AT_const_value(0x08)
    2648              
    2649              $C$DW$159       .dwtag  DW_TAG_enumerator
    2650                      .dwattr $C$DW$159, DW_AT_name("AES_KEY_SIZE_192BIT")
TMS320C2000 Assembler PC v22.6.1 Wed May 21 09:51:55 2025

Copyright (c) 1996-2018 Texas Instruments Incorporated
C:\Users\Daniel\AppData\Local\Temp\{11E65CAE-3485-48B7-8496-5C6CE456308C} PAGE   52

    2651                      .dwattr $C$DW$159, DW_AT_const_value(0x10)
    2652              
    2653              $C$DW$160       .dwtag  DW_TAG_enumerator
    2654                      .dwattr $C$DW$160, DW_AT_name("AES_KEY_SIZE_256BIT")
    2655                      .dwattr $C$DW$160, DW_AT_const_value(0x18)
    2656              
    2657                      .dwendtag $C$DW$T$21
    2658              
    2659              $C$DW$T$22      .dwtag  DW_TAG_typedef
    2660                      .dwattr $C$DW$T$22, DW_AT_name("AES_KeySize")
    2661                      .dwattr $C$DW$T$22, DW_AT_type(*$C$DW$T$21)
    2662                      .dwattr $C$DW$T$22, DW_AT_language(DW_LANG_C)
    2663              
    2664              $C$DW$161       .dwtag  DW_TAG_TI_far_type
    2665                      .dwattr $C$DW$161, DW_AT_type(*$C$DW$T$22)
    2666              
    2667              $C$DW$T$32      .dwtag  DW_TAG_const_type
    2668                      .dwattr $C$DW$T$32, DW_AT_type(*$C$DW$161)
    2669              
    2670              $C$DW$162       .dwtag  DW_TAG_TI_far_type
    2671                      .dwattr $C$DW$162, DW_AT_type(*$C$DW$T$22)
    2672              
    2673              $C$DW$T$33      .dwtag  DW_TAG_const_type
    2674                      .dwattr $C$DW$T$33, DW_AT_type(*$C$DW$162)
    2675              
    2676              
    2677              $C$DW$T$23      .dwtag  DW_TAG_enumeration_type
    2678                      .dwattr $C$DW$T$23, DW_AT_byte_size(0x02)
    2679              $C$DW$163       .dwtag  DW_TAG_enumerator
    2680                      .dwattr $C$DW$163, DW_AT_name("AES_OPMODE_ECB")
    2681                      .dwattr $C$DW$163, DW_AT_const_value(0x00)
    2682              
    2683              $C$DW$164       .dwtag  DW_TAG_enumerator
    2684                      .dwattr $C$DW$164, DW_AT_name("AES_OPMODE_CBC")
    2685                      .dwattr $C$DW$164, DW_AT_const_value(0x20)
    2686              
    2687              $C$DW$165       .dwtag  DW_TAG_enumerator
    2688                      .dwattr $C$DW$165, DW_AT_name("AES_OPMODE_CTR")
    2689                      .dwattr $C$DW$165, DW_AT_const_value(0x40)
    2690              
    2691              $C$DW$166       .dwtag  DW_TAG_enumerator
    2692                      .dwattr $C$DW$166, DW_AT_name("AES_OPMODE_ICM")
    2693                      .dwattr $C$DW$166, DW_AT_const_value(0x200)
    2694              
    2695              $C$DW$167       .dwtag  DW_TAG_enumerator
    2696                      .dwattr $C$DW$167, DW_AT_name("AES_OPMODE_CFB")
    2697                      .dwattr $C$DW$167, DW_AT_const_value(0x400)
    2698              
    2699              $C$DW$168       .dwtag  DW_TAG_enumerator
    2700                      .dwattr $C$DW$168, DW_AT_name("AES_OPMODE_XTS_TWEAKJL")
    2701                      .dwattr $C$DW$168, DW_AT_const_value(0x800)
    2702              
    2703              $C$DW$169       .dwtag  DW_TAG_enumerator
    2704                      .dwattr $C$DW$169, DW_AT_name("AES_OPMODE_XTS_K2NJL")
    2705                      .dwattr $C$DW$169, DW_AT_const_value(0x1000)
TMS320C2000 Assembler PC v22.6.1 Wed May 21 09:51:55 2025

Copyright (c) 1996-2018 Texas Instruments Incorporated
C:\Users\Daniel\AppData\Local\Temp\{11E65CAE-3485-48B7-8496-5C6CE456308C} PAGE   53

    2706              
    2707              $C$DW$170       .dwtag  DW_TAG_enumerator
    2708                      .dwattr $C$DW$170, DW_AT_name("AES_OPMODE_XTS_K2NLJ0")
    2709                      .dwattr $C$DW$170, DW_AT_const_value(0x1800)
    2710              
    2711              $C$DW$171       .dwtag  DW_TAG_enumerator
    2712                      .dwattr $C$DW$171, DW_AT_name("AES_OPMODE_F8")
    2713                      .dwattr $C$DW$171, DW_AT_const_value(0x2000)
    2714              
    2715              $C$DW$172       .dwtag  DW_TAG_enumerator
    2716                      .dwattr $C$DW$172, DW_AT_name("AES_OPMODE_F9")
    2717                      .dwattr $C$DW$172, DW_AT_const_value(0x20004000)
    2718              
    2719              $C$DW$173       .dwtag  DW_TAG_enumerator
    2720                      .dwattr $C$DW$173, DW_AT_name("AES_OPMODE_CBCMAC")
    2721                      .dwattr $C$DW$173, DW_AT_const_value(0x20008000)
    2722              
    2723              $C$DW$174       .dwtag  DW_TAG_enumerator
    2724                      .dwattr $C$DW$174, DW_AT_name("AES_OPMODE_GCM_HLY0ZERO")
    2725                      .dwattr $C$DW$174, DW_AT_const_value(0x20010000)
    2726              
    2727              $C$DW$175       .dwtag  DW_TAG_enumerator
    2728                      .dwattr $C$DW$175, DW_AT_name("AES_OPMODE_GCM_HLY0CALC")
    2729                      .dwattr $C$DW$175, DW_AT_const_value(0x20020040)
    2730              
    2731              $C$DW$176       .dwtag  DW_TAG_enumerator
    2732                      .dwattr $C$DW$176, DW_AT_name("AES_OPMODE_GCM_HY0CALC")
    2733                      .dwattr $C$DW$176, DW_AT_const_value(0x20030040)
    2734              
    2735              $C$DW$177       .dwtag  DW_TAG_enumerator
    2736                      .dwattr $C$DW$177, DW_AT_name("AES_OPMODE_CCM")
    2737                      .dwattr $C$DW$177, DW_AT_const_value(0x20040040)
    2738              
    2739                      .dwendtag $C$DW$T$23
    2740              
    2741              $C$DW$T$24      .dwtag  DW_TAG_typedef
    2742                      .dwattr $C$DW$T$24, DW_AT_name("AES_OpMode")
    2743                      .dwattr $C$DW$T$24, DW_AT_type(*$C$DW$T$23)
    2744                      .dwattr $C$DW$T$24, DW_AT_language(DW_LANG_C)
    2745              
    2746              
    2747              $C$DW$T$25      .dwtag  DW_TAG_enumeration_type
    2748                      .dwattr $C$DW$T$25, DW_AT_byte_size(0x01)
    2749              $C$DW$178       .dwtag  DW_TAG_enumerator
    2750                      .dwattr $C$DW$178, DW_AT_name("AES_CTR_WIDTH_32BIT")
    2751                      .dwattr $C$DW$178, DW_AT_const_value(0x00)
    2752              
    2753              $C$DW$179       .dwtag  DW_TAG_enumerator
    2754                      .dwattr $C$DW$179, DW_AT_name("AES_CTR_WIDTH_64BIT")
    2755                      .dwattr $C$DW$179, DW_AT_const_value(0x80)
    2756              
    2757              $C$DW$180       .dwtag  DW_TAG_enumerator
    2758                      .dwattr $C$DW$180, DW_AT_name("AES_CTR_WIDTH_96BIT")
    2759                      .dwattr $C$DW$180, DW_AT_const_value(0x100)
    2760              
TMS320C2000 Assembler PC v22.6.1 Wed May 21 09:51:55 2025

Copyright (c) 1996-2018 Texas Instruments Incorporated
C:\Users\Daniel\AppData\Local\Temp\{11E65CAE-3485-48B7-8496-5C6CE456308C} PAGE   54

    2761              $C$DW$181       .dwtag  DW_TAG_enumerator
    2762                      .dwattr $C$DW$181, DW_AT_name("AES_CTR_WIDTH_128BIT")
    2763                      .dwattr $C$DW$181, DW_AT_const_value(0x180)
    2764              
    2765                      .dwendtag $C$DW$T$25
    2766              
    2767              $C$DW$T$26      .dwtag  DW_TAG_typedef
    2768                      .dwattr $C$DW$T$26, DW_AT_name("AES_CounterWidth")
    2769                      .dwattr $C$DW$T$26, DW_AT_type(*$C$DW$T$25)
    2770                      .dwattr $C$DW$T$26, DW_AT_language(DW_LANG_C)
    2771              
    2772              
    2773              $C$DW$T$27      .dwtag  DW_TAG_enumeration_type
    2774                      .dwattr $C$DW$T$27, DW_AT_byte_size(0x02)
    2775              $C$DW$182       .dwtag  DW_TAG_enumerator
    2776                      .dwattr $C$DW$182, DW_AT_name("AES_CCM_L_1")
    2777                      .dwattr $C$DW$182, DW_AT_const_value(0x00)
    2778              
    2779              $C$DW$183       .dwtag  DW_TAG_enumerator
    2780                      .dwattr $C$DW$183, DW_AT_name("AES_CCM_L_2")
    2781                      .dwattr $C$DW$183, DW_AT_const_value(0x80000)
    2782              
    2783              $C$DW$184       .dwtag  DW_TAG_enumerator
    2784                      .dwattr $C$DW$184, DW_AT_name("AES_CCM_L_4")
    2785                      .dwattr $C$DW$184, DW_AT_const_value(0x180000)
    2786              
    2787              $C$DW$185       .dwtag  DW_TAG_enumerator
    2788                      .dwattr $C$DW$185, DW_AT_name("AES_CCM_L_8")
    2789                      .dwattr $C$DW$185, DW_AT_const_value(0x380000)
    2790              
    2791                      .dwendtag $C$DW$T$27
    2792              
    2793              $C$DW$T$28      .dwtag  DW_TAG_typedef
    2794                      .dwattr $C$DW$T$28, DW_AT_name("AES_CCMLenWidth")
    2795                      .dwattr $C$DW$T$28, DW_AT_type(*$C$DW$T$27)
    2796                      .dwattr $C$DW$T$28, DW_AT_language(DW_LANG_C)
    2797              
    2798              
    2799              $C$DW$T$29      .dwtag  DW_TAG_enumeration_type
    2800                      .dwattr $C$DW$T$29, DW_AT_byte_size(0x02)
    2801              $C$DW$186       .dwtag  DW_TAG_enumerator
    2802                      .dwattr $C$DW$186, DW_AT_name("AES_CCM_M_0")
    2803                      .dwattr $C$DW$186, DW_AT_const_value(0x00)
    2804              
    2805              $C$DW$187       .dwtag  DW_TAG_enumerator
    2806                      .dwattr $C$DW$187, DW_AT_name("AES_CCM_M_4")
    2807                      .dwattr $C$DW$187, DW_AT_const_value(0x400000)
    2808              
    2809              $C$DW$188       .dwtag  DW_TAG_enumerator
    2810                      .dwattr $C$DW$188, DW_AT_name("AES_CCM_M_6")
    2811                      .dwattr $C$DW$188, DW_AT_const_value(0x800000)
    2812              
    2813              $C$DW$189       .dwtag  DW_TAG_enumerator
    2814                      .dwattr $C$DW$189, DW_AT_name("AES_CCM_M_8")
    2815                      .dwattr $C$DW$189, DW_AT_const_value(0xc00000)
TMS320C2000 Assembler PC v22.6.1 Wed May 21 09:51:55 2025

Copyright (c) 1996-2018 Texas Instruments Incorporated
C:\Users\Daniel\AppData\Local\Temp\{11E65CAE-3485-48B7-8496-5C6CE456308C} PAGE   55

    2816              
    2817              $C$DW$190       .dwtag  DW_TAG_enumerator
    2818                      .dwattr $C$DW$190, DW_AT_name("AES_CCM_M_10")
    2819                      .dwattr $C$DW$190, DW_AT_const_value(0x1000000)
    2820              
    2821              $C$DW$191       .dwtag  DW_TAG_enumerator
    2822                      .dwattr $C$DW$191, DW_AT_name("AES_CCM_M_12")
    2823                      .dwattr $C$DW$191, DW_AT_const_value(0x1400000)
    2824              
    2825              $C$DW$192       .dwtag  DW_TAG_enumerator
    2826                      .dwattr $C$DW$192, DW_AT_name("AES_CCM_M_14")
    2827                      .dwattr $C$DW$192, DW_AT_const_value(0x1800000)
    2828              
    2829              $C$DW$193       .dwtag  DW_TAG_enumerator
    2830                      .dwattr $C$DW$193, DW_AT_name("AES_CCM_M_16")
    2831                      .dwattr $C$DW$193, DW_AT_const_value(0x1c00000)
    2832              
    2833                      .dwendtag $C$DW$T$29
    2834              
    2835              $C$DW$T$30      .dwtag  DW_TAG_typedef
    2836                      .dwattr $C$DW$T$30, DW_AT_name("AES_CCMAuthLenWidth")
    2837                      .dwattr $C$DW$T$30, DW_AT_type(*$C$DW$T$29)
    2838                      .dwattr $C$DW$T$30, DW_AT_language(DW_LANG_C)
    2839              
    2840              
    2841              $C$DW$T$31      .dwtag  DW_TAG_structure_type
    2842                      .dwattr $C$DW$T$31, DW_AT_byte_size(0x0a)
    2843              $C$DW$194       .dwtag  DW_TAG_member
    2844                      .dwattr $C$DW$194, DW_AT_type(*$C$DW$T$20)
    2845                      .dwattr $C$DW$194, DW_AT_name("direction")
    2846                      .dwattr $C$DW$194, DW_AT_TI_symbol_name("_direction")
    2847                      .dwattr $C$DW$194, DW_AT_data_member_location[DW_OP_plus_uconst 0x0]
    2848                      .dwattr $C$DW$194, DW_AT_accessibility(DW_ACCESS_public)
    2849              
    2850              $C$DW$195       .dwtag  DW_TAG_member
    2851                      .dwattr $C$DW$195, DW_AT_type(*$C$DW$T$22)
    2852                      .dwattr $C$DW$195, DW_AT_name("keySize")
    2853                      .dwattr $C$DW$195, DW_AT_TI_symbol_name("_keySize")
    2854                      .dwattr $C$DW$195, DW_AT_data_member_location[DW_OP_plus_uconst 0x1]
    2855                      .dwattr $C$DW$195, DW_AT_accessibility(DW_ACCESS_public)
    2856              
    2857              $C$DW$196       .dwtag  DW_TAG_member
    2858                      .dwattr $C$DW$196, DW_AT_type(*$C$DW$T$24)
    2859                      .dwattr $C$DW$196, DW_AT_name("opMode")
    2860                      .dwattr $C$DW$196, DW_AT_TI_symbol_name("_opMode")
    2861                      .dwattr $C$DW$196, DW_AT_data_member_location[DW_OP_plus_uconst 0x2]
    2862                      .dwattr $C$DW$196, DW_AT_accessibility(DW_ACCESS_public)
    2863              
    2864              $C$DW$197       .dwtag  DW_TAG_member
    2865                      .dwattr $C$DW$197, DW_AT_type(*$C$DW$T$26)
    2866                      .dwattr $C$DW$197, DW_AT_name("ctrWidth")
    2867                      .dwattr $C$DW$197, DW_AT_TI_symbol_name("_ctrWidth")
    2868                      .dwattr $C$DW$197, DW_AT_data_member_location[DW_OP_plus_uconst 0x4]
    2869                      .dwattr $C$DW$197, DW_AT_accessibility(DW_ACCESS_public)
    2870              
TMS320C2000 Assembler PC v22.6.1 Wed May 21 09:51:55 2025

Copyright (c) 1996-2018 Texas Instruments Incorporated
C:\Users\Daniel\AppData\Local\Temp\{11E65CAE-3485-48B7-8496-5C6CE456308C} PAGE   56

    2871              $C$DW$198       .dwtag  DW_TAG_member
    2872                      .dwattr $C$DW$198, DW_AT_type(*$C$DW$T$28)
    2873                      .dwattr $C$DW$198, DW_AT_name("ccmLenWidth")
    2874                      .dwattr $C$DW$198, DW_AT_TI_symbol_name("_ccmLenWidth")
    2875                      .dwattr $C$DW$198, DW_AT_data_member_location[DW_OP_plus_uconst 0x6]
    2876                      .dwattr $C$DW$198, DW_AT_accessibility(DW_ACCESS_public)
    2877              
    2878              $C$DW$199       .dwtag  DW_TAG_member
    2879                      .dwattr $C$DW$199, DW_AT_type(*$C$DW$T$30)
    2880                      .dwattr $C$DW$199, DW_AT_name("ccmAuthLenWidth")
    2881                      .dwattr $C$DW$199, DW_AT_TI_symbol_name("_ccmAuthLenWidth")
    2882                      .dwattr $C$DW$199, DW_AT_data_member_location[DW_OP_plus_uconst 0x8]
    2883                      .dwattr $C$DW$199, DW_AT_accessibility(DW_ACCESS_public)
    2884              
    2885                      .dwendtag $C$DW$T$31
    2886              
    2887              $C$DW$T$37      .dwtag  DW_TAG_typedef
    2888                      .dwattr $C$DW$T$37, DW_AT_name("AES_ConfigParams")
    2889                      .dwattr $C$DW$T$37, DW_AT_type(*$C$DW$T$31)
    2890                      .dwattr $C$DW$T$37, DW_AT_language(DW_LANG_C)
    2891              
    2892              $C$DW$200       .dwtag  DW_TAG_TI_far_type
    2893                      .dwattr $C$DW$200, DW_AT_type(*$C$DW$T$37)
    2894              
    2895              $C$DW$T$38      .dwtag  DW_TAG_const_type
    2896                      .dwattr $C$DW$T$38, DW_AT_type(*$C$DW$200)
    2897              
    2898              $C$DW$T$39      .dwtag  DW_TAG_pointer_type
    2899                      .dwattr $C$DW$T$39, DW_AT_type(*$C$DW$T$38)
    2900                      .dwattr $C$DW$T$39, DW_AT_address_class(0x20)
    2901              
    2902              $C$DW$201       .dwtag  DW_TAG_TI_far_type
    2903                      .dwattr $C$DW$201, DW_AT_type(*$C$DW$T$39)
    2904              
    2905              $C$DW$T$40      .dwtag  DW_TAG_const_type
    2906                      .dwattr $C$DW$T$40, DW_AT_type(*$C$DW$201)
    2907              
    2908              $C$DW$T$2       .dwtag  DW_TAG_unspecified_type
    2909                      .dwattr $C$DW$T$2, DW_AT_name("void")
    2910              
    2911              $C$DW$T$4       .dwtag  DW_TAG_base_type
    2912                      .dwattr $C$DW$T$4, DW_AT_encoding(DW_ATE_boolean)
    2913                      .dwattr $C$DW$T$4, DW_AT_name("bool")
    2914                      .dwattr $C$DW$T$4, DW_AT_byte_size(0x01)
    2915              
    2916              $C$DW$T$5       .dwtag  DW_TAG_base_type
    2917                      .dwattr $C$DW$T$5, DW_AT_encoding(DW_ATE_signed_char)
    2918                      .dwattr $C$DW$T$5, DW_AT_name("signed char")
    2919                      .dwattr $C$DW$T$5, DW_AT_byte_size(0x01)
    2920              
    2921              $C$DW$T$6       .dwtag  DW_TAG_base_type
    2922                      .dwattr $C$DW$T$6, DW_AT_encoding(DW_ATE_unsigned_char)
    2923                      .dwattr $C$DW$T$6, DW_AT_name("unsigned char")
    2924                      .dwattr $C$DW$T$6, DW_AT_byte_size(0x01)
    2925              
TMS320C2000 Assembler PC v22.6.1 Wed May 21 09:51:55 2025

Copyright (c) 1996-2018 Texas Instruments Incorporated
C:\Users\Daniel\AppData\Local\Temp\{11E65CAE-3485-48B7-8496-5C6CE456308C} PAGE   57

    2926              $C$DW$T$7       .dwtag  DW_TAG_base_type
    2927                      .dwattr $C$DW$T$7, DW_AT_encoding(DW_ATE_signed_char)
    2928                      .dwattr $C$DW$T$7, DW_AT_name("wchar_t")
    2929                      .dwattr $C$DW$T$7, DW_AT_byte_size(0x01)
    2930              
    2931              $C$DW$T$8       .dwtag  DW_TAG_base_type
    2932                      .dwattr $C$DW$T$8, DW_AT_encoding(DW_ATE_signed)
    2933                      .dwattr $C$DW$T$8, DW_AT_name("short")
    2934                      .dwattr $C$DW$T$8, DW_AT_byte_size(0x01)
    2935              
    2936              $C$DW$T$9       .dwtag  DW_TAG_base_type
    2937                      .dwattr $C$DW$T$9, DW_AT_encoding(DW_ATE_unsigned)
    2938                      .dwattr $C$DW$T$9, DW_AT_name("unsigned short")
    2939                      .dwattr $C$DW$T$9, DW_AT_byte_size(0x01)
    2940              
    2941              $C$DW$T$10      .dwtag  DW_TAG_base_type
    2942                      .dwattr $C$DW$T$10, DW_AT_encoding(DW_ATE_signed)
    2943                      .dwattr $C$DW$T$10, DW_AT_name("int")
    2944                      .dwattr $C$DW$T$10, DW_AT_byte_size(0x01)
    2945              
    2946              $C$DW$T$11      .dwtag  DW_TAG_base_type
    2947                      .dwattr $C$DW$T$11, DW_AT_encoding(DW_ATE_unsigned)
    2948                      .dwattr $C$DW$T$11, DW_AT_name("unsigned int")
    2949                      .dwattr $C$DW$T$11, DW_AT_byte_size(0x01)
    2950              
    2951              $C$DW$T$12      .dwtag  DW_TAG_base_type
    2952                      .dwattr $C$DW$T$12, DW_AT_encoding(DW_ATE_signed)
    2953                      .dwattr $C$DW$T$12, DW_AT_name("long")
    2954                      .dwattr $C$DW$T$12, DW_AT_byte_size(0x02)
    2955              
    2956              $C$DW$T$13      .dwtag  DW_TAG_base_type
    2957                      .dwattr $C$DW$T$13, DW_AT_encoding(DW_ATE_unsigned)
    2958                      .dwattr $C$DW$T$13, DW_AT_name("unsigned long")
    2959                      .dwattr $C$DW$T$13, DW_AT_byte_size(0x02)
    2960              
    2961              $C$DW$T$45      .dwtag  DW_TAG_typedef
    2962                      .dwattr $C$DW$T$45, DW_AT_name("__uint32_t")
    2963                      .dwattr $C$DW$T$45, DW_AT_type(*$C$DW$T$13)
    2964                      .dwattr $C$DW$T$45, DW_AT_language(DW_LANG_C)
    2965              
    2966              $C$DW$T$46      .dwtag  DW_TAG_typedef
    2967                      .dwattr $C$DW$T$46, DW_AT_name("uint32_t")
    2968                      .dwattr $C$DW$T$46, DW_AT_type(*$C$DW$T$45)
    2969                      .dwattr $C$DW$T$46, DW_AT_language(DW_LANG_C)
    2970              
    2971              $C$DW$T$59      .dwtag  DW_TAG_pointer_type
    2972                      .dwattr $C$DW$T$59, DW_AT_type(*$C$DW$T$46)
    2973                      .dwattr $C$DW$T$59, DW_AT_address_class(0x20)
    2974              
    2975              $C$DW$202       .dwtag  DW_TAG_TI_far_type
    2976                      .dwattr $C$DW$202, DW_AT_type(*$C$DW$T$59)
    2977              
    2978              $C$DW$T$81      .dwtag  DW_TAG_const_type
    2979                      .dwattr $C$DW$T$81, DW_AT_type(*$C$DW$202)
    2980              
TMS320C2000 Assembler PC v22.6.1 Wed May 21 09:51:55 2025

Copyright (c) 1996-2018 Texas Instruments Incorporated
C:\Users\Daniel\AppData\Local\Temp\{11E65CAE-3485-48B7-8496-5C6CE456308C} PAGE   58

    2981              $C$DW$203       .dwtag  DW_TAG_TI_far_type
    2982                      .dwattr $C$DW$203, DW_AT_type(*$C$DW$T$46)
    2983              
    2984              $C$DW$T$54      .dwtag  DW_TAG_const_type
    2985                      .dwattr $C$DW$T$54, DW_AT_type(*$C$DW$203)
    2986              
    2987              $C$DW$T$55      .dwtag  DW_TAG_pointer_type
    2988                      .dwattr $C$DW$T$55, DW_AT_type(*$C$DW$T$54)
    2989                      .dwattr $C$DW$T$55, DW_AT_address_class(0x20)
    2990              
    2991              $C$DW$204       .dwtag  DW_TAG_TI_far_type
    2992                      .dwattr $C$DW$204, DW_AT_type(*$C$DW$T$55)
    2993              
    2994              $C$DW$T$83      .dwtag  DW_TAG_const_type
    2995                      .dwattr $C$DW$T$83, DW_AT_type(*$C$DW$204)
    2996              
    2997              $C$DW$T$14      .dwtag  DW_TAG_base_type
    2998                      .dwattr $C$DW$T$14, DW_AT_encoding(DW_ATE_signed)
    2999                      .dwattr $C$DW$T$14, DW_AT_name("long long")
    3000                      .dwattr $C$DW$T$14, DW_AT_byte_size(0x04)
    3001              
    3002              $C$DW$T$15      .dwtag  DW_TAG_base_type
    3003                      .dwattr $C$DW$T$15, DW_AT_encoding(DW_ATE_unsigned)
    3004                      .dwattr $C$DW$T$15, DW_AT_name("unsigned long long")
    3005                      .dwattr $C$DW$T$15, DW_AT_byte_size(0x04)
    3006              
    3007              $C$DW$T$49      .dwtag  DW_TAG_typedef
    3008                      .dwattr $C$DW$T$49, DW_AT_name("__uint64_t")
    3009                      .dwattr $C$DW$T$49, DW_AT_type(*$C$DW$T$15)
    3010                      .dwattr $C$DW$T$49, DW_AT_language(DW_LANG_C)
    3011              
    3012              $C$DW$T$50      .dwtag  DW_TAG_typedef
    3013                      .dwattr $C$DW$T$50, DW_AT_name("uint64_t")
    3014                      .dwattr $C$DW$T$50, DW_AT_type(*$C$DW$T$49)
    3015                      .dwattr $C$DW$T$50, DW_AT_language(DW_LANG_C)
    3016              
    3017              $C$DW$205       .dwtag  DW_TAG_TI_far_type
    3018                      .dwattr $C$DW$205, DW_AT_type(*$C$DW$T$50)
    3019              
    3020              $C$DW$T$85      .dwtag  DW_TAG_const_type
    3021                      .dwattr $C$DW$T$85, DW_AT_type(*$C$DW$205)
    3022              
    3023              $C$DW$T$16      .dwtag  DW_TAG_base_type
    3024                      .dwattr $C$DW$T$16, DW_AT_encoding(DW_ATE_float)
    3025                      .dwattr $C$DW$T$16, DW_AT_name("float")
    3026                      .dwattr $C$DW$T$16, DW_AT_byte_size(0x02)
    3027              
    3028              $C$DW$T$17      .dwtag  DW_TAG_base_type
    3029                      .dwattr $C$DW$T$17, DW_AT_encoding(DW_ATE_float)
    3030                      .dwattr $C$DW$T$17, DW_AT_name("double")
    3031                      .dwattr $C$DW$T$17, DW_AT_byte_size(0x02)
    3032              
    3033              $C$DW$T$18      .dwtag  DW_TAG_base_type
    3034                      .dwattr $C$DW$T$18, DW_AT_encoding(DW_ATE_float)
    3035                      .dwattr $C$DW$T$18, DW_AT_name("long double")
TMS320C2000 Assembler PC v22.6.1 Wed May 21 09:51:55 2025

Copyright (c) 1996-2018 Texas Instruments Incorporated
C:\Users\Daniel\AppData\Local\Temp\{11E65CAE-3485-48B7-8496-5C6CE456308C} PAGE   59

    3036                      .dwattr $C$DW$T$18, DW_AT_byte_size(0x04)
    3037              
    3038              $C$DW$206       .dwtag  DW_TAG_TI_far_type
    3039                      .dwattr $C$DW$206, DW_AT_type(*$C$DW$T$5)
    3040              
    3041              $C$DW$T$43      .dwtag  DW_TAG_const_type
    3042                      .dwattr $C$DW$T$43, DW_AT_type(*$C$DW$206)
    3043              
    3044              $C$DW$T$44      .dwtag  DW_TAG_pointer_type
    3045                      .dwattr $C$DW$T$44, DW_AT_type(*$C$DW$T$43)
    3046                      .dwattr $C$DW$T$44, DW_AT_address_class(0x20)
    3047              
    3048              $C$DW$T$76      .dwtag  DW_TAG_base_type
    3049                      .dwattr $C$DW$T$76, DW_AT_encoding(DW_ATE_unsigned_char)
    3050                      .dwattr $C$DW$T$76, DW_AT_name("unsigned char")
    3051                      .dwattr $C$DW$T$76, DW_AT_byte_size(0x01)
    3052              
    3053              $C$DW$207       .dwtag  DW_TAG_TI_far_type
    3054                      .dwattr $C$DW$207, DW_AT_type(*$C$DW$T$76)
    3055              
    3056              $C$DW$T$92      .dwtag  DW_TAG_const_type
    3057                      .dwattr $C$DW$T$92, DW_AT_type(*$C$DW$207)
    3058              
    3059                      .dwattr $C$DW$CU, DW_AT_language(DW_LANG_C)
    3060              
    3061              ;***************************************************************
    3062              ;* DWARF CIE ENTRIES                                           *
    3063              ;***************************************************************
    3064              
    3065              $C$DW$CIE       .dwcie 26
    3066                      .dwcfi  cfa_register, 20
    3067                      .dwcfi  cfa_offset, 0
    3068                      .dwcfi  same_value, 28
    3069                      .dwcfi  same_value, 6
    3070                      .dwcfi  same_value, 7
    3071                      .dwcfi  same_value, 8
    3072                      .dwcfi  same_value, 9
    3073                      .dwcfi  same_value, 10
    3074                      .dwcfi  same_value, 11
    3075                      .dwcfi  same_value, 59
    3076                      .dwcfi  same_value, 63
    3077                      .dwcfi  same_value, 67
    3078                      .dwcfi  same_value, 71
    3079                      .dwendentry
    3080              
    3081              ;***************************************************************
    3082              ;* DWARF REGISTER MAP                                          *
    3083              ;***************************************************************
    3084              
    3085              $C$DW$208       .dwtag  DW_TAG_TI_assign_register
    3086                      .dwattr $C$DW$208, DW_AT_name("AL")
    3087                      .dwattr $C$DW$208, DW_AT_location[DW_OP_reg0]
    3088              
    3089              $C$DW$209       .dwtag  DW_TAG_TI_assign_register
    3090                      .dwattr $C$DW$209, DW_AT_name("AH")
TMS320C2000 Assembler PC v22.6.1 Wed May 21 09:51:55 2025

Copyright (c) 1996-2018 Texas Instruments Incorporated
C:\Users\Daniel\AppData\Local\Temp\{11E65CAE-3485-48B7-8496-5C6CE456308C} PAGE   60

    3091                      .dwattr $C$DW$209, DW_AT_location[DW_OP_reg1]
    3092              
    3093              $C$DW$210       .dwtag  DW_TAG_TI_assign_register
    3094                      .dwattr $C$DW$210, DW_AT_name("PL")
    3095                      .dwattr $C$DW$210, DW_AT_location[DW_OP_reg2]
    3096              
    3097              $C$DW$211       .dwtag  DW_TAG_TI_assign_register
    3098                      .dwattr $C$DW$211, DW_AT_name("PH")
    3099                      .dwattr $C$DW$211, DW_AT_location[DW_OP_reg3]
    3100              
    3101              $C$DW$212       .dwtag  DW_TAG_TI_assign_register
    3102                      .dwattr $C$DW$212, DW_AT_name("SP")
    3103                      .dwattr $C$DW$212, DW_AT_location[DW_OP_reg20]
    3104              
    3105              $C$DW$213       .dwtag  DW_TAG_TI_assign_register
    3106                      .dwattr $C$DW$213, DW_AT_name("XT")
    3107                      .dwattr $C$DW$213, DW_AT_location[DW_OP_reg21]
    3108              
    3109              $C$DW$214       .dwtag  DW_TAG_TI_assign_register
    3110                      .dwattr $C$DW$214, DW_AT_name("T")
    3111                      .dwattr $C$DW$214, DW_AT_location[DW_OP_reg22]
    3112              
    3113              $C$DW$215       .dwtag  DW_TAG_TI_assign_register
    3114                      .dwattr $C$DW$215, DW_AT_name("ST0")
    3115                      .dwattr $C$DW$215, DW_AT_location[DW_OP_reg23]
    3116              
    3117              $C$DW$216       .dwtag  DW_TAG_TI_assign_register
    3118                      .dwattr $C$DW$216, DW_AT_name("ST1")
    3119                      .dwattr $C$DW$216, DW_AT_location[DW_OP_reg24]
    3120              
    3121              $C$DW$217       .dwtag  DW_TAG_TI_assign_register
    3122                      .dwattr $C$DW$217, DW_AT_name("PC")
    3123                      .dwattr $C$DW$217, DW_AT_location[DW_OP_reg25]
    3124              
    3125              $C$DW$218       .dwtag  DW_TAG_TI_assign_register
    3126                      .dwattr $C$DW$218, DW_AT_name("RPC")
    3127                      .dwattr $C$DW$218, DW_AT_location[DW_OP_reg26]
    3128              
    3129              $C$DW$219       .dwtag  DW_TAG_TI_assign_register
    3130                      .dwattr $C$DW$219, DW_AT_name("FP")
    3131                      .dwattr $C$DW$219, DW_AT_location[DW_OP_reg28]
    3132              
    3133              $C$DW$220       .dwtag  DW_TAG_TI_assign_register
    3134                      .dwattr $C$DW$220, DW_AT_name("DP")
    3135                      .dwattr $C$DW$220, DW_AT_location[DW_OP_reg29]
    3136              
    3137              $C$DW$221       .dwtag  DW_TAG_TI_assign_register
    3138                      .dwattr $C$DW$221, DW_AT_name("SXM")
    3139                      .dwattr $C$DW$221, DW_AT_location[DW_OP_reg30]
    3140              
    3141              $C$DW$222       .dwtag  DW_TAG_TI_assign_register
    3142                      .dwattr $C$DW$222, DW_AT_name("PM")
    3143                      .dwattr $C$DW$222, DW_AT_location[DW_OP_reg31]
    3144              
    3145              $C$DW$223       .dwtag  DW_TAG_TI_assign_register
TMS320C2000 Assembler PC v22.6.1 Wed May 21 09:51:55 2025

Copyright (c) 1996-2018 Texas Instruments Incorporated
C:\Users\Daniel\AppData\Local\Temp\{11E65CAE-3485-48B7-8496-5C6CE456308C} PAGE   61

    3146                      .dwattr $C$DW$223, DW_AT_name("OVM")
    3147                      .dwattr $C$DW$223, DW_AT_location[DW_OP_regx 0x20]
    3148              
    3149              $C$DW$224       .dwtag  DW_TAG_TI_assign_register
    3150                      .dwattr $C$DW$224, DW_AT_name("PAGE0")
    3151                      .dwattr $C$DW$224, DW_AT_location[DW_OP_regx 0x21]
    3152              
    3153              $C$DW$225       .dwtag  DW_TAG_TI_assign_register
    3154                      .dwattr $C$DW$225, DW_AT_name("AMODE")
    3155                      .dwattr $C$DW$225, DW_AT_location[DW_OP_regx 0x22]
    3156              
    3157              $C$DW$226       .dwtag  DW_TAG_TI_assign_register
    3158                      .dwattr $C$DW$226, DW_AT_name("EALLOW")
    3159                      .dwattr $C$DW$226, DW_AT_location[DW_OP_regx 0x4e]
    3160              
    3161              $C$DW$227       .dwtag  DW_TAG_TI_assign_register
    3162                      .dwattr $C$DW$227, DW_AT_name("INTM")
    3163                      .dwattr $C$DW$227, DW_AT_location[DW_OP_regx 0x23]
    3164              
    3165              $C$DW$228       .dwtag  DW_TAG_TI_assign_register
    3166                      .dwattr $C$DW$228, DW_AT_name("IFR")
    3167                      .dwattr $C$DW$228, DW_AT_location[DW_OP_regx 0x24]
    3168              
    3169              $C$DW$229       .dwtag  DW_TAG_TI_assign_register
    3170                      .dwattr $C$DW$229, DW_AT_name("IER")
    3171                      .dwattr $C$DW$229, DW_AT_location[DW_OP_regx 0x25]
    3172              
    3173              $C$DW$230       .dwtag  DW_TAG_TI_assign_register
    3174                      .dwattr $C$DW$230, DW_AT_name("V")
    3175                      .dwattr $C$DW$230, DW_AT_location[DW_OP_regx 0x26]
    3176              
    3177              $C$DW$231       .dwtag  DW_TAG_TI_assign_register
    3178                      .dwattr $C$DW$231, DW_AT_name("PSEUDOH")
    3179                      .dwattr $C$DW$231, DW_AT_location[DW_OP_regx 0x4c]
    3180              
    3181              $C$DW$232       .dwtag  DW_TAG_TI_assign_register
    3182                      .dwattr $C$DW$232, DW_AT_name("VOL")
    3183                      .dwattr $C$DW$232, DW_AT_location[DW_OP_regx 0x4d]
    3184              
    3185              $C$DW$233       .dwtag  DW_TAG_TI_assign_register
    3186                      .dwattr $C$DW$233, DW_AT_name("AR0")
    3187                      .dwattr $C$DW$233, DW_AT_location[DW_OP_reg4]
    3188              
    3189              $C$DW$234       .dwtag  DW_TAG_TI_assign_register
    3190                      .dwattr $C$DW$234, DW_AT_name("XAR0")
    3191                      .dwattr $C$DW$234, DW_AT_location[DW_OP_reg5]
    3192              
    3193              $C$DW$235       .dwtag  DW_TAG_TI_assign_register
    3194                      .dwattr $C$DW$235, DW_AT_name("AR1")
    3195                      .dwattr $C$DW$235, DW_AT_location[DW_OP_reg6]
    3196              
    3197              $C$DW$236       .dwtag  DW_TAG_TI_assign_register
    3198                      .dwattr $C$DW$236, DW_AT_name("XAR1")
    3199                      .dwattr $C$DW$236, DW_AT_location[DW_OP_reg7]
    3200              
TMS320C2000 Assembler PC v22.6.1 Wed May 21 09:51:55 2025

Copyright (c) 1996-2018 Texas Instruments Incorporated
C:\Users\Daniel\AppData\Local\Temp\{11E65CAE-3485-48B7-8496-5C6CE456308C} PAGE   62

    3201              $C$DW$237       .dwtag  DW_TAG_TI_assign_register
    3202                      .dwattr $C$DW$237, DW_AT_name("AR2")
    3203                      .dwattr $C$DW$237, DW_AT_location[DW_OP_reg8]
    3204              
    3205              $C$DW$238       .dwtag  DW_TAG_TI_assign_register
    3206                      .dwattr $C$DW$238, DW_AT_name("XAR2")
    3207                      .dwattr $C$DW$238, DW_AT_location[DW_OP_reg9]
    3208              
    3209              $C$DW$239       .dwtag  DW_TAG_TI_assign_register
    3210                      .dwattr $C$DW$239, DW_AT_name("AR3")
    3211                      .dwattr $C$DW$239, DW_AT_location[DW_OP_reg10]
    3212              
    3213              $C$DW$240       .dwtag  DW_TAG_TI_assign_register
    3214                      .dwattr $C$DW$240, DW_AT_name("XAR3")
    3215                      .dwattr $C$DW$240, DW_AT_location[DW_OP_reg11]
    3216              
    3217              $C$DW$241       .dwtag  DW_TAG_TI_assign_register
    3218                      .dwattr $C$DW$241, DW_AT_name("AR4")
    3219                      .dwattr $C$DW$241, DW_AT_location[DW_OP_reg12]
    3220              
    3221              $C$DW$242       .dwtag  DW_TAG_TI_assign_register
    3222                      .dwattr $C$DW$242, DW_AT_name("XAR4")
    3223                      .dwattr $C$DW$242, DW_AT_location[DW_OP_reg13]
    3224              
    3225              $C$DW$243       .dwtag  DW_TAG_TI_assign_register
    3226                      .dwattr $C$DW$243, DW_AT_name("AR5")
    3227                      .dwattr $C$DW$243, DW_AT_location[DW_OP_reg14]
    3228              
    3229              $C$DW$244       .dwtag  DW_TAG_TI_assign_register
    3230                      .dwattr $C$DW$244, DW_AT_name("XAR5")
    3231                      .dwattr $C$DW$244, DW_AT_location[DW_OP_reg15]
    3232              
    3233              $C$DW$245       .dwtag  DW_TAG_TI_assign_register
    3234                      .dwattr $C$DW$245, DW_AT_name("AR6")
    3235                      .dwattr $C$DW$245, DW_AT_location[DW_OP_reg16]
    3236              
    3237              $C$DW$246       .dwtag  DW_TAG_TI_assign_register
    3238                      .dwattr $C$DW$246, DW_AT_name("XAR6")
    3239                      .dwattr $C$DW$246, DW_AT_location[DW_OP_reg17]
    3240              
    3241              $C$DW$247       .dwtag  DW_TAG_TI_assign_register
    3242                      .dwattr $C$DW$247, DW_AT_name("AR7")
    3243                      .dwattr $C$DW$247, DW_AT_location[DW_OP_reg18]
    3244              
    3245              $C$DW$248       .dwtag  DW_TAG_TI_assign_register
    3246                      .dwattr $C$DW$248, DW_AT_name("XAR7")
    3247                      .dwattr $C$DW$248, DW_AT_location[DW_OP_reg19]
    3248              
    3249              $C$DW$249       .dwtag  DW_TAG_TI_assign_register
    3250                      .dwattr $C$DW$249, DW_AT_name("R0H")
    3251                      .dwattr $C$DW$249, DW_AT_location[DW_OP_regx 0x2b]
    3252              
    3253              $C$DW$250       .dwtag  DW_TAG_TI_assign_register
    3254                      .dwattr $C$DW$250, DW_AT_name("R1H")
    3255                      .dwattr $C$DW$250, DW_AT_location[DW_OP_regx 0x2f]
TMS320C2000 Assembler PC v22.6.1 Wed May 21 09:51:55 2025

Copyright (c) 1996-2018 Texas Instruments Incorporated
C:\Users\Daniel\AppData\Local\Temp\{11E65CAE-3485-48B7-8496-5C6CE456308C} PAGE   63

    3256              
    3257              $C$DW$251       .dwtag  DW_TAG_TI_assign_register
    3258                      .dwattr $C$DW$251, DW_AT_name("R2H")
    3259                      .dwattr $C$DW$251, DW_AT_location[DW_OP_regx 0x33]
    3260              
    3261              $C$DW$252       .dwtag  DW_TAG_TI_assign_register
    3262                      .dwattr $C$DW$252, DW_AT_name("R3H")
    3263                      .dwattr $C$DW$252, DW_AT_location[DW_OP_regx 0x37]
    3264              
    3265              $C$DW$253       .dwtag  DW_TAG_TI_assign_register
    3266                      .dwattr $C$DW$253, DW_AT_name("R4H")
    3267                      .dwattr $C$DW$253, DW_AT_location[DW_OP_regx 0x3b]
    3268              
    3269              $C$DW$254       .dwtag  DW_TAG_TI_assign_register
    3270                      .dwattr $C$DW$254, DW_AT_name("R5H")
    3271                      .dwattr $C$DW$254, DW_AT_location[DW_OP_regx 0x3f]
    3272              
    3273              $C$DW$255       .dwtag  DW_TAG_TI_assign_register
    3274                      .dwattr $C$DW$255, DW_AT_name("R6H")
    3275                      .dwattr $C$DW$255, DW_AT_location[DW_OP_regx 0x43]
    3276              
    3277              $C$DW$256       .dwtag  DW_TAG_TI_assign_register
    3278                      .dwattr $C$DW$256, DW_AT_name("R7H")
    3279                      .dwattr $C$DW$256, DW_AT_location[DW_OP_regx 0x47]
    3280              
    3281              $C$DW$257       .dwtag  DW_TAG_TI_assign_register
    3282                      .dwattr $C$DW$257, DW_AT_name("RB")
    3283                      .dwattr $C$DW$257, DW_AT_location[DW_OP_regx 0x4a]
    3284              
    3285              $C$DW$258       .dwtag  DW_TAG_TI_assign_register
    3286                      .dwattr $C$DW$258, DW_AT_name("STF")
    3287                      .dwattr $C$DW$258, DW_AT_location[DW_OP_regx 0x28]
    3288              
    3289              $C$DW$259       .dwtag  DW_TAG_TI_assign_register
    3290                      .dwattr $C$DW$259, DW_AT_name("FPUHAZ")
    3291                      .dwattr $C$DW$259, DW_AT_location[DW_OP_reg27]
    3292              
    3293              $C$DW$260       .dwtag  DW_TAG_TI_assign_register
    3294                      .dwattr $C$DW$260, DW_AT_name("STF_HWDIV")
    3295                      .dwattr $C$DW$260, DW_AT_location[DW_OP_regx 0x4f]
    3296              
    3297              $C$DW$261       .dwtag  DW_TAG_TI_assign_register
    3298                      .dwattr $C$DW$261, DW_AT_name("VCRC")
    3299                      .dwattr $C$DW$261, DW_AT_location[DW_OP_regx 0x50]
    3300              
    3301              $C$DW$262       .dwtag  DW_TAG_TI_assign_register
    3302                      .dwattr $C$DW$262, DW_AT_name("VSTATUS")
    3303                      .dwattr $C$DW$262, DW_AT_location[DW_OP_regx 0x51]
    3304              
    3305              $C$DW$263       .dwtag  DW_TAG_TI_assign_register
    3306                      .dwattr $C$DW$263, DW_AT_name("VCRCPOLY")
    3307                      .dwattr $C$DW$263, DW_AT_location[DW_OP_regx 0x52]
    3308              
    3309              $C$DW$264       .dwtag  DW_TAG_TI_assign_register
    3310                      .dwattr $C$DW$264, DW_AT_name("VCRCSIZE")
TMS320C2000 Assembler PC v22.6.1 Wed May 21 09:51:55 2025

Copyright (c) 1996-2018 Texas Instruments Incorporated
C:\Users\Daniel\AppData\Local\Temp\{11E65CAE-3485-48B7-8496-5C6CE456308C} PAGE   64

    3311                      .dwattr $C$DW$264, DW_AT_location[DW_OP_regx 0x53]
    3312              
    3313                      .dwendtag $C$DW$CU
    3314              

No Assembly Errors, No Assembly Warnings
