TMS320C2000 Assembler PC v22.6.1 Wed May 21 09:51:56 2025

Copyright (c) 1996-2018 Texas Instruments Incorporated
C:\Users\Daniel\AppData\Local\Temp\{3E78D54A-297D-4D45-89F7-B8D766A9F422} PAGE    1

       1              ;***************************************************************
       2              ;* TMS320C2000 G3 C/C++ Codegen                               PC v22.6.1.LTS *
       3              ;* Date/Time created: Wed May 21 09:51:55 2025                 *
       4              ;***************************************************************
       5                      .compiler_opts --abi=coffabi --cla_support=cla2 --diag_wrap=off --float_support=fpu32 --hll_source=on
       6                      .asg    XAR2, FP
       7              
       8              $C$DW$CU        .dwtag  DW_TAG_compile_unit
       9                      .dwattr $C$DW$CU, DW_AT_name("../device/driverlib/can.c")
      10                      .dwattr $C$DW$CU, DW_AT_producer("TI TMS320C2000 G3 C/C++ Codegen PC v22.6.1.LTS Copyright (c) 1996-2
      11                      .dwattr $C$DW$CU, DW_AT_TI_version(0x01)
      12                      .dwattr $C$DW$CU, DW_AT_comp_dir("C:\Users\Daniel\CodeComposer\UPS_MUCI\CPU1_FLASH")
      13              
      14              $C$DW$1 .dwtag  DW_TAG_subprogram
      15                      .dwattr $C$DW$1, DW_AT_name("__error__")
      16                      .dwattr $C$DW$1, DW_AT_TI_symbol_name("___error__")
      17                      .dwattr $C$DW$1, DW_AT_declaration
      18                      .dwattr $C$DW$1, DW_AT_external
      19              $C$DW$2 .dwtag  DW_TAG_formal_parameter
      20                      .dwattr $C$DW$2, DW_AT_type(*$C$DW$T$31)
      21              
      22              $C$DW$3 .dwtag  DW_TAG_formal_parameter
      23                      .dwattr $C$DW$3, DW_AT_type(*$C$DW$T$33)
      24              
      25                      .dwendtag $C$DW$1
      26              
      27              
      28              $C$DW$4 .dwtag  DW_TAG_subprogram
      29                      .dwattr $C$DW$4, DW_AT_name("SysCtl_delay")
      30                      .dwattr $C$DW$4, DW_AT_TI_symbol_name("_SysCtl_delay")
      31                      .dwattr $C$DW$4, DW_AT_declaration
      32                      .dwattr $C$DW$4, DW_AT_external
      33              $C$DW$5 .dwtag  DW_TAG_formal_parameter
      34                      .dwattr $C$DW$5, DW_AT_type(*$C$DW$T$33)
      35              
      36                      .dwendtag $C$DW$4
      37              
      38              ;       D:\Programs\TI\ccs1281\ccs\tools\compiler\ti-cgt-c2000_22.6.1.LTS\bin\opt2000.exe C:\\Users\\Daniel\\
      39              ;       D:\Programs\TI\ccs1281\ccs\tools\compiler\ti-cgt-c2000_22.6.1.LTS\bin\ac2000.exe -@C:\\Users\\Daniel\
      40 00000000               .sect   ".text:_CAN_transferMessage"
      41                      .clink
      42                      .global _CAN_transferMessage
      43              
      44              $C$DW$6 .dwtag  DW_TAG_subprogram
      45                      .dwattr $C$DW$6, DW_AT_name("CAN_transferMessage")
      46                      .dwattr $C$DW$6, DW_AT_low_pc(_CAN_transferMessage)
      47                      .dwattr $C$DW$6, DW_AT_high_pc(0x00)
      48                      .dwattr $C$DW$6, DW_AT_TI_symbol_name("_CAN_transferMessage")
      49                      .dwattr $C$DW$6, DW_AT_external
      50                      .dwattr $C$DW$6, DW_AT_TI_begin_file("../device/driverlib/can.c")
      51                      .dwattr $C$DW$6, DW_AT_TI_begin_line(0x3c5)
      52                      .dwattr $C$DW$6, DW_AT_TI_begin_column(0x01)
      53                      .dwattr $C$DW$6, DW_AT_TI_max_frame_size(-12)
      54                      .dwpsn  file "../device/driverlib/can.c",line 967,column 1,is_stmt,address _CAN_transferMessage,isa 0
      55              
TMS320C2000 Assembler PC v22.6.1 Wed May 21 09:51:56 2025

Copyright (c) 1996-2018 Texas Instruments Incorporated
C:\Users\Daniel\AppData\Local\Temp\{3E78D54A-297D-4D45-89F7-B8D766A9F422} PAGE    2

      56                      .dwfde $C$DW$CIE, _CAN_transferMessage
      57              $C$DW$7 .dwtag  DW_TAG_formal_parameter
      58                      .dwattr $C$DW$7, DW_AT_name("base")
      59                      .dwattr $C$DW$7, DW_AT_TI_symbol_name("_base")
      60                      .dwattr $C$DW$7, DW_AT_type(*$C$DW$T$33)
      61                      .dwattr $C$DW$7, DW_AT_location[DW_OP_reg0]
      62              
      63              $C$DW$8 .dwtag  DW_TAG_formal_parameter
      64                      .dwattr $C$DW$8, DW_AT_name("interface")
      65                      .dwattr $C$DW$8, DW_AT_TI_symbol_name("_interface")
      66                      .dwattr $C$DW$8, DW_AT_type(*$C$DW$T$39)
      67                      .dwattr $C$DW$8, DW_AT_location[DW_OP_reg12]
      68              
      69              $C$DW$9 .dwtag  DW_TAG_formal_parameter
      70                      .dwattr $C$DW$9, DW_AT_name("objID")
      71                      .dwattr $C$DW$9, DW_AT_TI_symbol_name("_objID")
      72                      .dwattr $C$DW$9, DW_AT_type(*$C$DW$T$33)
      73                      .dwattr $C$DW$9, DW_AT_location[DW_OP_breg20 -14]
      74              
      75              $C$DW$10        .dwtag  DW_TAG_formal_parameter
      76                      .dwattr $C$DW$10, DW_AT_name("direction")
      77                      .dwattr $C$DW$10, DW_AT_TI_symbol_name("_direction")
      78                      .dwattr $C$DW$10, DW_AT_type(*$C$DW$T$57)
      79                      .dwattr $C$DW$10, DW_AT_location[DW_OP_reg14]
      80              
      81              $C$DW$11        .dwtag  DW_TAG_formal_parameter
      82                      .dwattr $C$DW$11, DW_AT_name("dmaRequest")
      83                      .dwattr $C$DW$11, DW_AT_TI_symbol_name("_dmaRequest")
      84                      .dwattr $C$DW$11, DW_AT_type(*$C$DW$T$57)
      85                      .dwattr $C$DW$11, DW_AT_location[DW_OP_breg20 -15]
      86              
      87              
      88              ;***************************************************************
      89              ;* FNAME: _CAN_transferMessage          FR SIZE:  10           *
      90              ;*                                                             *
      91              ;* FUNCTION ENVIRONMENT                                        *
      92              ;*                                                             *
      93              ;* FUNCTION PROPERTIES                                         *
      94              ;*                            0 Parameter,  4 Auto,  6 SOE     *
      95              ;***************************************************************
      96              
      97              _CAN_transferMessage:
      98              ;* AR5   assigned to $O$S1
      99              ;* AR4   assigned to $O$S2
     100              ;* AR5   assigned to $O$S3
     101              ;* AR4   assigned to $O$S5
     102              ;* AR1   assigned to _base
     103              $C$DW$12        .dwtag  DW_TAG_variable
     104                      .dwattr $C$DW$12, DW_AT_name("base")
     105                      .dwattr $C$DW$12, DW_AT_TI_symbol_name("_base")
     106                      .dwattr $C$DW$12, DW_AT_type(*$C$DW$T$44)
     107                      .dwattr $C$DW$12, DW_AT_location[DW_OP_reg6]
     108              
     109              ;* AR3   assigned to _interface
     110              $C$DW$13        .dwtag  DW_TAG_variable
TMS320C2000 Assembler PC v22.6.1 Wed May 21 09:51:56 2025

Copyright (c) 1996-2018 Texas Instruments Incorporated
C:\Users\Daniel\AppData\Local\Temp\{3E78D54A-297D-4D45-89F7-B8D766A9F422} PAGE    3

     111                      .dwattr $C$DW$13, DW_AT_name("interface")
     112                      .dwattr $C$DW$13, DW_AT_TI_symbol_name("_interface")
     113                      .dwattr $C$DW$13, DW_AT_type(*$C$DW$T$40)
     114                      .dwattr $C$DW$13, DW_AT_location[DW_OP_reg10]
     115              
     116              ;* AR2   assigned to _objID
     117              $C$DW$14        .dwtag  DW_TAG_variable
     118                      .dwattr $C$DW$14, DW_AT_name("objID")
     119                      .dwattr $C$DW$14, DW_AT_TI_symbol_name("_objID")
     120                      .dwattr $C$DW$14, DW_AT_type(*$C$DW$T$44)
     121                      .dwattr $C$DW$14, DW_AT_location[DW_OP_reg8]
     122              
     123              $C$DW$15        .dwtag  DW_TAG_variable
     124                      .dwattr $C$DW$15, DW_AT_name("direction")
     125                      .dwattr $C$DW$15, DW_AT_TI_symbol_name("_direction")
     126                      .dwattr $C$DW$15, DW_AT_type(*$C$DW$T$89)
     127                      .dwattr $C$DW$15, DW_AT_location[DW_OP_breg20 -1]
     128              
     129              $C$DW$16        .dwtag  DW_TAG_variable
     130                      .dwattr $C$DW$16, DW_AT_name("dmaRequest")
     131                      .dwattr $C$DW$16, DW_AT_TI_symbol_name("_dmaRequest")
     132                      .dwattr $C$DW$16, DW_AT_type(*$C$DW$T$89)
     133                      .dwattr $C$DW$16, DW_AT_location[DW_OP_breg20 -2]
     134              
     135              ;* PL    assigned to _cmdMaskReg
     136              $C$DW$17        .dwtag  DW_TAG_variable
     137                      .dwattr $C$DW$17, DW_AT_name("cmdMaskReg")
     138                      .dwattr $C$DW$17, DW_AT_TI_symbol_name("_cmdMaskReg")
     139                      .dwattr $C$DW$17, DW_AT_type(*$C$DW$T$33)
     140                      .dwattr $C$DW$17, DW_AT_location[DW_OP_reg2]
     141              
     142                      .dwcfi  cfa_offset, -2
     143                      .dwcfi  save_reg_to_mem, 26, 0
     144 00000000 B2BD          MOVL      *SP++,XAR1            ; [CPU_ALU] 
     145                      .dwcfi  save_reg_to_mem, 7, 2
     146                      .dwcfi  cfa_offset, -4
     147 00000001 AABD          MOVL      *SP++,XAR2            ; [CPU_ALU] 
     148                      .dwcfi  save_reg_to_mem, 9, 4
     149                      .dwcfi  cfa_offset, -6
     150 00000002 A2BD          MOVL      *SP++,XAR3            ; [CPU_ALU] 
     151                      .dwcfi  save_reg_to_mem, 11, 6
     152                      .dwcfi  cfa_offset, -8
     153 00000003 FE04          ADDB      SP,#4                 ; [CPU_ARAU] 
     154                      .dwcfi  cfa_offset, -12
     155 00000004 5BA4          MOVZ      AR3,AR4               ; [CPU_ALU] |967| 
     156 00000005 8BA9          MOVL      XAR1,ACC              ; [CPU_ALU] |967| 
     157                      .dwpsn  file "../device/driverlib/can.c",line 970,column 5,is_stmt,isa 0
     158 00000006 8F04          MOVL      XAR4,#294912          ; [CPU_ARAU] |970| 
         00000007 8000 
     159                      .dwpsn  file "../device/driverlib/can.c",line 967,column 1,is_stmt,isa 0
     160 00000008 924F          MOV       AL,*-SP[15]           ; [CPU_ALU] |967| 
     161 00000009 7D41          MOV       *-SP[1],AR5           ; [CPU_ALU] |967| 
     162 0000000a 864E          MOVL      XAR2,*-SP[14]         ; [CPU_ALU] |967| 
     163 0000000b 9642          MOV       *-SP[2],AL            ; [CPU_ALU] |967| 
     164                      .dwpsn  file "../device/driverlib/can.c",line 970,column 5,is_stmt,isa 0
TMS320C2000 Assembler PC v22.6.1 Wed May 21 09:51:56 2025

Copyright (c) 1996-2018 Texas Instruments Incorporated
C:\Users\Daniel\AppData\Local\Temp\{3E78D54A-297D-4D45-89F7-B8D766A9F422} PAGE    4

     165 0000000c A8A9          MOVL      ACC,XAR4              ; [CPU_ALU] |970| 
     166 0000000d 0FA1          CMPL      ACC,XAR1              ; [CPU_ALU] |970| 
     167 0000000e 6107          B         $C$L1,EQ              ; [CPU_ALU] |970| 
     168                      ; branchcc occurs ; [] |970| 
     169 0000000f FF20          MOV       ACC,#970              ; [CPU_ALU] |970| 
         00000010 03CA 
     170 00000011 8F00+         MOVL      XAR4,#$C$FSL1         ; [CPU_ARAU] |970| 
         00000012 0000 
     171              $C$DW$18        .dwtag  DW_TAG_TI_branch
     172                      .dwattr $C$DW$18, DW_AT_low_pc(0x00)
     173                      .dwattr $C$DW$18, DW_AT_name("___error__")
     174                      .dwattr $C$DW$18, DW_AT_TI_call
     175              
     176 00000013 7640!         LCR       #___error__           ; [CPU_ALU] |970| 
         00000014 0000 
     177                      ; call occurs [#___error__] ; [] |970| 
     178 00000015       $C$L1:    
     179                      .dwpsn  file "../device/driverlib/can.c",line 971,column 5,is_stmt,isa 0
     180 00000015 BE20          MOVB      XAR6,#32              ; [CPU_ALU] |971| 
     181 00000016 AAA9          MOVL      ACC,XAR2              ; [CPU_ALU] |971| 
     182 00000017 1901          SUBB      ACC,#1                ; [CPU_ALU] |971| 
     183 00000018 0FA6          CMPL      ACC,XAR6              ; [CPU_ALU] |971| 
     184 00000019 6807          B         $C$L2,LO              ; [CPU_ALU] |971| 
     185                      ; branchcc occurs ; [] |971| 
     186 0000001a FF20          MOV       ACC,#971              ; [CPU_ALU] |971| 
         0000001b 03CB 
     187 0000001c 8F00+         MOVL      XAR4,#$C$FSL1         ; [CPU_ARAU] |971| 
         0000001d 0000 
     188              $C$DW$19        .dwtag  DW_TAG_TI_branch
     189                      .dwattr $C$DW$19, DW_AT_low_pc(0x00)
     190                      .dwattr $C$DW$19, DW_AT_name("___error__")
     191                      .dwattr $C$DW$19, DW_AT_TI_call
     192              
     193 0000001e 7640!         LCR       #___error__           ; [CPU_ALU] |971| 
         0000001f 0000 
     194                      ; call occurs [#___error__] ; [] |971| 
     195 00000020       $C$L2:    
     196 00000020 92A3          MOV       AL,AR3                ; [CPU_ALU] 
     197                      .dwpsn  file "../device/driverlib/can.c",line 972,column 5,is_stmt,isa 0
     198 00000021 5201          CMPB      AL,#1                 ; [CPU_ALU] |972| 
     199 00000022 6109          B         $C$L3,EQ              ; [CPU_ALU] |972| 
     200                      ; branchcc occurs ; [] |972| 
     201 00000023 5202          CMPB      AL,#2                 ; [CPU_ALU] |972| 
     202 00000024 6107          B         $C$L3,EQ              ; [CPU_ALU] |972| 
     203                      ; branchcc occurs ; [] |972| 
     204 00000025 FF20          MOV       ACC,#972              ; [CPU_ALU] |972| 
         00000026 03CC 
     205 00000027 8F00+         MOVL      XAR4,#$C$FSL1         ; [CPU_ARAU] |972| 
         00000028 0000 
     206              $C$DW$20        .dwtag  DW_TAG_TI_branch
     207                      .dwattr $C$DW$20, DW_AT_low_pc(0x00)
     208                      .dwattr $C$DW$20, DW_AT_name("___error__")
     209                      .dwattr $C$DW$20, DW_AT_TI_call
     210              
     211 00000029 7640!         LCR       #___error__           ; [CPU_ALU] |972| 
TMS320C2000 Assembler PC v22.6.1 Wed May 21 09:51:56 2025

Copyright (c) 1996-2018 Texas Instruments Incorporated
C:\Users\Daniel\AppData\Local\Temp\{3E78D54A-297D-4D45-89F7-B8D766A9F422} PAGE    5

         0000002a 0000 
     212                      ; call occurs [#___error__] ; [] |972| 
     213 0000002b       $C$L3:    
     214 0000002b 9241          MOV       AL,*-SP[1]            ; [CPU_ALU] 
     215                      .dwpsn  file "../device/driverlib/can.c",line 978,column 5,is_stmt,isa 0
     216 0000002c 6105          B         $C$L4,EQ              ; [CPU_ALU] |978| 
     217                      ; branchcc occurs ; [] |978| 
     218 0000002d 2BAB          MOV       PL,#0                 ; [CPU_ALU] |978| 
     219 0000002e 28AA          MOV       PH,#128               ; [CPU_ALU] |978| 
         0000002f 0080 
     220 00000030 6F02          B         $C$L5,UNC             ; [CPU_ALU] |978| 
     221                      ; branch occurs ; [] |978| 
     222 00000031       $C$L4:    
     223 00000031 3100          MOV       P,#0                  ; [CPU_ALU] |978| 
     224 00000032       $C$L5:    
     225 00000032 9242          MOV       AL,*-SP[2]            ; [CPU_ALU] 
     226 00000033 6104          B         $C$L6,EQ              ; [CPU_ALU] |978| 
     227                      ; branchcc occurs ; [] |978| 
     228 00000034 8F00          MOVL      XAR4,#16384           ; [CPU_ARAU] |978| 
         00000035 4000 
     229 00000036 6F02          B         $C$L7,UNC             ; [CPU_ALU] |978| 
     230                      ; branch occurs ; [] |978| 
     231 00000037       $C$L6:    
     232 00000037 D400          MOVB      XAR4,#0               ; [CPU_ALU] |978| 
     233 00000038       $C$L7:    
     234 00000038 A8A9          MOVL      ACC,XAR4              ; [CPU_ALU] |978| 
     235 00000039 CBAA          OR        AH,PH                 ; [CPU_ALU] |978| 
     236 0000003a CAAB          OR        AL,PL                 ; [CPU_ALU] |978| 
     237 0000003b 5177          OR        AH,#119               ; [CPU_ALU] |978| 
     238 0000003c FF5A          MOVL      P,ACC                 ; [CPU_ALU] |978| 
     239 0000003d       $C$L8:    
     240 0000003d 92A3          MOV       AL,AR3                ; [CPU_ALU] 
     241                      .dwpsn  file "../device/driverlib/can.c",line 988,column 11,is_stmt,isa 0
     242 0000003e 5202          CMPB      AL,#2                 ; [CPU_ALU] |988| 
     243 0000003f 6004          B         $C$L9,NEQ             ; [CPU_ALU] |988| 
     244                      ; branchcc occurs ; [] |988| 
     245 00000040 8F40          MOVL      XAR5,#288             ; [CPU_ARAU] |988| 
         00000041 0120 
     246 00000042 6F03          B         $C$L10,UNC            ; [CPU_ALU] |988| 
     247                      ; branch occurs ; [] |988| 
     248 00000043       $C$L9:    
     249 00000043 8F40          MOVL      XAR5,#256             ; [CPU_ARAU] |988| 
         00000044 0100 
     250 00000045       $C$L10:    
     251 00000045 8AA1          MOVL      XAR4,XAR1             ; [CPU_ALU] |988| 
     252 00000046 A0A9          MOVL      ACC,XAR5              ; [CPU_ALU] |988| 
     253 00000047 5601          ADDL      XAR4,ACC              ; [CPU_ALU] |988| 
         00000048 00A4 
     254 00000049 4FC4          TBIT      *+XAR4[0],#15         ; [CPU_ALU] |988| 
     255 0000004a 6DF3          B         $C$L8,TC              ; [CPU_ALU] |988| 
     256                      ; branchcc occurs ; [] |988| 
     257 0000004b 92A3          MOV       AL,AR3                ; [CPU_ALU] 
     258                      .dwpsn  file "../device/driverlib/can.c",line 997,column 5,is_stmt,isa 0
     259 0000004c 5202          CMPB      AL,#2                 ; [CPU_ALU] |997| 
     260 0000004d 6004          B         $C$L11,NEQ            ; [CPU_ALU] |997| 
TMS320C2000 Assembler PC v22.6.1 Wed May 21 09:51:56 2025

Copyright (c) 1996-2018 Texas Instruments Incorporated
C:\Users\Daniel\AppData\Local\Temp\{3E78D54A-297D-4D45-89F7-B8D766A9F422} PAGE    6

     261                      ; branchcc occurs ; [] |997| 
     262 0000004e 8F00          MOVL      XAR4,#288             ; [CPU_ARAU] |997| 
         0000004f 0120 
     263 00000050 6F03          B         $C$L12,UNC            ; [CPU_ALU] |997| 
     264                      ; branch occurs ; [] |997| 
     265 00000051       $C$L11:    
     266 00000051 8F00          MOVL      XAR4,#256             ; [CPU_ARAU] |997| 
         00000052 0100 
     267 00000053       $C$L12:    
     268 00000053 AA44          MOVL      *-SP[4],XAR2          ; [CPU_ALU] |997| 
     269 00000054 9244          MOV       AL,*-SP[4]            ; [CPU_ALU] |997| 
     270 00000055 90FF          ANDB      AL,#0xff              ; [CPU_ALU] |997| 
     271 00000056 83A1          MOVL      XAR5,XAR1             ; [CPU_FPU] |997| 
     272 00000057 9644          MOV       *-SP[4],AL            ; [CPU_ALU] |997| 
     273 00000058 2B43          MOV       *-SP[3],#0            ; [CPU_ALU] |997| 
     274 00000059 0644          MOVL      ACC,*-SP[4]           ; [CPU_ALU] |997| 
     275 0000005a CAAB          OR        AL,PL                 ; [CPU_ALU] |997| 
     276 0000005b CBAA          OR        AH,PH                 ; [CPU_ALU] |997| 
     277 0000005c 1E44          MOVL      *-SP[4],ACC           ; [CPU_ALU] |997| 
     278 0000005d A8A9          MOVL      ACC,XAR4              ; [CPU_ALU] |997| 
     279 0000005e 5601          ADDL      XAR5,ACC              ; [CPU_ALU] |997| 
         0000005f 00A5 
     280 00000060 0644          MOVL      ACC,*-SP[4]           ; [CPU_ALU] |997| 
     281 00000061 1EC5          MOVL      *+XAR5[0],ACC         ; [CPU_ALU] |997| 
     282 00000062       $C$L13:    
     283 00000062 92A3          MOV       AL,AR3                ; [CPU_ALU] 
     284                      .dwpsn  file "../device/driverlib/can.c",line 1003,column 11,is_stmt,isa 0
     285 00000063 5202          CMPB      AL,#2                 ; [CPU_ALU] |1003| 
     286 00000064 6004          B         $C$L14,NEQ            ; [CPU_ALU] |1003| 
     287                      ; branchcc occurs ; [] |1003| 
     288 00000065 8F40          MOVL      XAR5,#288             ; [CPU_ARAU] |1003| 
         00000066 0120 
     289 00000067 6F03          B         $C$L15,UNC            ; [CPU_ALU] |1003| 
     290                      ; branch occurs ; [] |1003| 
     291 00000068       $C$L14:    
     292 00000068 8F40          MOVL      XAR5,#256             ; [CPU_ARAU] |1003| 
         00000069 0100 
     293 0000006a       $C$L15:    
     294 0000006a 8AA1          MOVL      XAR4,XAR1             ; [CPU_ALU] |1003| 
     295 0000006b A0A9          MOVL      ACC,XAR5              ; [CPU_ALU] |1003| 
     296 0000006c 5601          ADDL      XAR4,ACC              ; [CPU_ALU] |1003| 
         0000006d 00A4 
     297 0000006e 4FC4          TBIT      *+XAR4[0],#15         ; [CPU_ALU] |1003| 
     298 0000006f 6DF3          B         $C$L13,TC             ; [CPU_ALU] |1003| 
     299                      ; branchcc occurs ; [] |1003| 
     300 00000070 FE84          SUBB      SP,#4                 ; [CPU_ARAU] 
     301                      .dwcfi  cfa_offset, -8
     302 00000071 82BE          MOVL      XAR3,*--SP            ; [CPU_ALU] 
     303                      .dwcfi  cfa_offset, -6
     304                      .dwcfi  restore_reg, 11
     305 00000072 86BE          MOVL      XAR2,*--SP            ; [CPU_ALU] 
     306                      .dwcfi  cfa_offset, -4
     307                      .dwcfi  restore_reg, 9
     308 00000073 8BBE          MOVL      XAR1,*--SP            ; [CPU_ALU] 
     309                      .dwcfi  cfa_offset, -2
TMS320C2000 Assembler PC v22.6.1 Wed May 21 09:51:56 2025

Copyright (c) 1996-2018 Texas Instruments Incorporated
C:\Users\Daniel\AppData\Local\Temp\{3E78D54A-297D-4D45-89F7-B8D766A9F422} PAGE    7

     310                      .dwcfi  restore_reg, 7
     311              $C$DW$21        .dwtag  DW_TAG_TI_branch
     312                      .dwattr $C$DW$21, DW_AT_low_pc(0x00)
     313                      .dwattr $C$DW$21, DW_AT_TI_return
     314              
     315 00000074 0006          LRETR     ; [CPU_ALU] 
     316                      ; return occurs ; [] 
     317                      .dwattr $C$DW$6, DW_AT_TI_end_file("../device/driverlib/can.c")
     318                      .dwattr $C$DW$6, DW_AT_TI_end_line(0x3ef)
     319                      .dwattr $C$DW$6, DW_AT_TI_end_column(0x01)
     320                      .dwendentry
     321                      .dwendtag $C$DW$6
     322              
     323 00000000               .sect   ".text:_CAN_setupMessageObject"
     324                      .clink
     325                      .global _CAN_setupMessageObject
     326              
     327              $C$DW$22        .dwtag  DW_TAG_subprogram
     328                      .dwattr $C$DW$22, DW_AT_name("CAN_setupMessageObject")
     329                      .dwattr $C$DW$22, DW_AT_low_pc(_CAN_setupMessageObject)
     330                      .dwattr $C$DW$22, DW_AT_high_pc(0x00)
     331                      .dwattr $C$DW$22, DW_AT_TI_symbol_name("_CAN_setupMessageObject")
     332                      .dwattr $C$DW$22, DW_AT_external
     333                      .dwattr $C$DW$22, DW_AT_TI_begin_file("../device/driverlib/can.c")
     334                      .dwattr $C$DW$22, DW_AT_TI_begin_line(0xff)
     335                      .dwattr $C$DW$22, DW_AT_TI_begin_column(0x01)
     336                      .dwattr $C$DW$22, DW_AT_TI_max_frame_size(-20)
     337                      .dwpsn  file "../device/driverlib/can.c",line 258,column 1,is_stmt,address _CAN_setupMessageObject,is
     338              
     339                      .dwfde $C$DW$CIE, _CAN_setupMessageObject
     340              $C$DW$23        .dwtag  DW_TAG_formal_parameter
     341                      .dwattr $C$DW$23, DW_AT_name("base")
     342                      .dwattr $C$DW$23, DW_AT_TI_symbol_name("_base")
     343                      .dwattr $C$DW$23, DW_AT_type(*$C$DW$T$33)
     344                      .dwattr $C$DW$23, DW_AT_location[DW_OP_reg0]
     345              
     346              $C$DW$24        .dwtag  DW_TAG_formal_parameter
     347                      .dwattr $C$DW$24, DW_AT_name("objID")
     348                      .dwattr $C$DW$24, DW_AT_TI_symbol_name("_objID")
     349                      .dwattr $C$DW$24, DW_AT_type(*$C$DW$T$33)
     350                      .dwattr $C$DW$24, DW_AT_location[DW_OP_breg20 -22]
     351              
     352              $C$DW$25        .dwtag  DW_TAG_formal_parameter
     353                      .dwattr $C$DW$25, DW_AT_name("msgID")
     354                      .dwattr $C$DW$25, DW_AT_TI_symbol_name("_msgID")
     355                      .dwattr $C$DW$25, DW_AT_type(*$C$DW$T$33)
     356                      .dwattr $C$DW$25, DW_AT_location[DW_OP_breg20 -24]
     357              
     358              $C$DW$26        .dwtag  DW_TAG_formal_parameter
     359                      .dwattr $C$DW$26, DW_AT_name("frame")
     360                      .dwattr $C$DW$26, DW_AT_TI_symbol_name("_frame")
     361                      .dwattr $C$DW$26, DW_AT_type(*$C$DW$T$20)
     362                      .dwattr $C$DW$26, DW_AT_location[DW_OP_reg12]
     363              
     364              $C$DW$27        .dwtag  DW_TAG_formal_parameter
TMS320C2000 Assembler PC v22.6.1 Wed May 21 09:51:56 2025

Copyright (c) 1996-2018 Texas Instruments Incorporated
C:\Users\Daniel\AppData\Local\Temp\{3E78D54A-297D-4D45-89F7-B8D766A9F422} PAGE    8

     365                      .dwattr $C$DW$27, DW_AT_name("msgType")
     366                      .dwattr $C$DW$27, DW_AT_TI_symbol_name("_msgType")
     367                      .dwattr $C$DW$27, DW_AT_type(*$C$DW$T$27)
     368                      .dwattr $C$DW$27, DW_AT_location[DW_OP_reg14]
     369              
     370              $C$DW$28        .dwtag  DW_TAG_formal_parameter
     371                      .dwattr $C$DW$28, DW_AT_name("msgIDMask")
     372                      .dwattr $C$DW$28, DW_AT_TI_symbol_name("_msgIDMask")
     373                      .dwattr $C$DW$28, DW_AT_type(*$C$DW$T$33)
     374                      .dwattr $C$DW$28, DW_AT_location[DW_OP_breg20 -26]
     375              
     376              $C$DW$29        .dwtag  DW_TAG_formal_parameter
     377                      .dwattr $C$DW$29, DW_AT_name("flags")
     378                      .dwattr $C$DW$29, DW_AT_TI_symbol_name("_flags")
     379                      .dwattr $C$DW$29, DW_AT_type(*$C$DW$T$33)
     380                      .dwattr $C$DW$29, DW_AT_location[DW_OP_breg20 -28]
     381              
     382              $C$DW$30        .dwtag  DW_TAG_formal_parameter
     383                      .dwattr $C$DW$30, DW_AT_name("msgLen")
     384                      .dwattr $C$DW$30, DW_AT_TI_symbol_name("_msgLen")
     385                      .dwattr $C$DW$30, DW_AT_type(*$C$DW$T$39)
     386                      .dwattr $C$DW$30, DW_AT_location[DW_OP_breg20 -29]
     387              
     388              
     389              ;***************************************************************
     390              ;* FNAME: _CAN_setupMessageObject       FR SIZE:  18           *
     391              ;*                                                             *
     392              ;* FUNCTION ENVIRONMENT                                        *
     393              ;*                                                             *
     394              ;* FUNCTION PROPERTIES                                         *
     395              ;*                            0 Parameter, 12 Auto,  6 SOE     *
     396              ;***************************************************************
     397              
     398              _CAN_setupMessageObject:
     399              ;* AR4   assigned to $O$K29
     400              ;* AR1   assigned to _base
     401              $C$DW$31        .dwtag  DW_TAG_variable
     402                      .dwattr $C$DW$31, DW_AT_name("base")
     403                      .dwattr $C$DW$31, DW_AT_TI_symbol_name("_base")
     404                      .dwattr $C$DW$31, DW_AT_type(*$C$DW$T$44)
     405                      .dwattr $C$DW$31, DW_AT_location[DW_OP_reg6]
     406              
     407              $C$DW$32        .dwtag  DW_TAG_variable
     408                      .dwattr $C$DW$32, DW_AT_name("objID")
     409                      .dwattr $C$DW$32, DW_AT_TI_symbol_name("_objID")
     410                      .dwattr $C$DW$32, DW_AT_type(*$C$DW$T$44)
     411                      .dwattr $C$DW$32, DW_AT_location[DW_OP_breg20 -6]
     412              
     413              $C$DW$33        .dwtag  DW_TAG_variable
     414                      .dwattr $C$DW$33, DW_AT_name("msgID")
     415                      .dwattr $C$DW$33, DW_AT_TI_symbol_name("_msgID")
     416                      .dwattr $C$DW$33, DW_AT_type(*$C$DW$T$44)
     417                      .dwattr $C$DW$33, DW_AT_location[DW_OP_breg20 -8]
     418              
     419              $C$DW$34        .dwtag  DW_TAG_variable
TMS320C2000 Assembler PC v22.6.1 Wed May 21 09:51:56 2025

Copyright (c) 1996-2018 Texas Instruments Incorporated
C:\Users\Daniel\AppData\Local\Temp\{3E78D54A-297D-4D45-89F7-B8D766A9F422} PAGE    9

     420                      .dwattr $C$DW$34, DW_AT_name("frame")
     421                      .dwattr $C$DW$34, DW_AT_TI_symbol_name("_frame")
     422                      .dwattr $C$DW$34, DW_AT_type(*$C$DW$T$21)
     423                      .dwattr $C$DW$34, DW_AT_location[DW_OP_breg20 -1]
     424              
     425              $C$DW$35        .dwtag  DW_TAG_variable
     426                      .dwattr $C$DW$35, DW_AT_name("msgType")
     427                      .dwattr $C$DW$35, DW_AT_TI_symbol_name("_msgType")
     428                      .dwattr $C$DW$35, DW_AT_type(*$C$DW$T$28)
     429                      .dwattr $C$DW$35, DW_AT_location[DW_OP_breg20 -2]
     430              
     431              ;* AR3   assigned to _msgIDMask
     432              $C$DW$36        .dwtag  DW_TAG_variable
     433                      .dwattr $C$DW$36, DW_AT_name("msgIDMask")
     434                      .dwattr $C$DW$36, DW_AT_TI_symbol_name("_msgIDMask")
     435                      .dwattr $C$DW$36, DW_AT_type(*$C$DW$T$44)
     436                      .dwattr $C$DW$36, DW_AT_location[DW_OP_reg10]
     437              
     438              $C$DW$37        .dwtag  DW_TAG_variable
     439                      .dwattr $C$DW$37, DW_AT_name("flags")
     440                      .dwattr $C$DW$37, DW_AT_TI_symbol_name("_flags")
     441                      .dwattr $C$DW$37, DW_AT_type(*$C$DW$T$44)
     442                      .dwattr $C$DW$37, DW_AT_location[DW_OP_breg20 -10]
     443              
     444              $C$DW$38        .dwtag  DW_TAG_variable
     445                      .dwattr $C$DW$38, DW_AT_name("msgLen")
     446                      .dwattr $C$DW$38, DW_AT_TI_symbol_name("_msgLen")
     447                      .dwattr $C$DW$38, DW_AT_type(*$C$DW$T$40)
     448                      .dwattr $C$DW$38, DW_AT_location[DW_OP_breg20 -3]
     449              
     450              $C$DW$39        .dwtag  DW_TAG_variable
     451                      .dwattr $C$DW$39, DW_AT_name("maskReg")
     452                      .dwattr $C$DW$39, DW_AT_TI_symbol_name("_maskReg")
     453                      .dwattr $C$DW$39, DW_AT_type(*$C$DW$T$33)
     454                      .dwattr $C$DW$39, DW_AT_location[DW_OP_breg20 -12]
     455              
     456              ;* AR6   assigned to _arbReg
     457              $C$DW$40        .dwtag  DW_TAG_variable
     458                      .dwattr $C$DW$40, DW_AT_name("arbReg")
     459                      .dwattr $C$DW$40, DW_AT_TI_symbol_name("_arbReg")
     460                      .dwattr $C$DW$40, DW_AT_type(*$C$DW$T$33)
     461                      .dwattr $C$DW$40, DW_AT_location[DW_OP_reg16]
     462              
     463              ;* AR2   assigned to _msgCtrl
     464              $C$DW$41        .dwtag  DW_TAG_variable
     465                      .dwattr $C$DW$41, DW_AT_name("msgCtrl")
     466                      .dwattr $C$DW$41, DW_AT_TI_symbol_name("_msgCtrl")
     467                      .dwattr $C$DW$41, DW_AT_type(*$C$DW$T$33)
     468                      .dwattr $C$DW$41, DW_AT_location[DW_OP_reg8]
     469              
     470                      .dwcfi  cfa_offset, -2
     471                      .dwcfi  save_reg_to_mem, 26, 0
     472 00000000 B2BD          MOVL      *SP++,XAR1            ; [CPU_ALU] 
     473                      .dwcfi  save_reg_to_mem, 7, 2
     474                      .dwcfi  cfa_offset, -4
TMS320C2000 Assembler PC v22.6.1 Wed May 21 09:51:56 2025

Copyright (c) 1996-2018 Texas Instruments Incorporated
C:\Users\Daniel\AppData\Local\Temp\{3E78D54A-297D-4D45-89F7-B8D766A9F422} PAGE   10

     475 00000001 AABD          MOVL      *SP++,XAR2            ; [CPU_ALU] 
     476                      .dwcfi  save_reg_to_mem, 9, 4
     477                      .dwcfi  cfa_offset, -6
     478 00000002 A2BD          MOVL      *SP++,XAR3            ; [CPU_ALU] 
     479                      .dwcfi  save_reg_to_mem, 11, 6
     480                      .dwcfi  cfa_offset, -8
     481 00000003 FE0C          ADDB      SP,#12                ; [CPU_ARAU] 
     482                      .dwcfi  cfa_offset, -20
     483 00000004 C45C          MOVL      XAR6,*-SP[28]         ; [CPU_ALU] |258| 
     484 00000005 C24A          MOVL      *-SP[10],XAR6         ; [CPU_ALU] |258| 
     485 00000006 885D          MOVZ      AR6,*-SP[29]          ; [CPU_ALU] |258| 
     486 00000007 8BA9          MOVL      XAR1,ACC              ; [CPU_ALU] |258| 
     487 00000008 7E43          MOV       *-SP[3],AR6           ; [CPU_ALU] |258| 
     488 00000009 C458          MOVL      XAR6,*-SP[24]         ; [CPU_ALU] |258| 
     489 0000000a 7C41          MOV       *-SP[1],AR4           ; [CPU_ALU] |258| 
     490                      .dwpsn  file "../device/driverlib/can.c",line 267,column 5,is_stmt,isa 0
     491 0000000b 8F04          MOVL      XAR4,#294912          ; [CPU_ARAU] |267| 
         0000000c 8000 
     492 0000000d A8A9          MOVL      ACC,XAR4              ; [CPU_ALU] |267| 
     493                      .dwpsn  file "../device/driverlib/can.c",line 258,column 1,is_stmt,isa 0
     494 0000000e C248          MOVL      *-SP[8],XAR6          ; [CPU_ALU] |258| 
     495 0000000f C456          MOVL      XAR6,*-SP[22]         ; [CPU_ALU] |258| 
     496                      .dwpsn  file "../device/driverlib/can.c",line 267,column 5,is_stmt,isa 0
     497 00000010 0FA1          CMPL      ACC,XAR1              ; [CPU_ALU] |267| 
     498                      .dwpsn  file "../device/driverlib/can.c",line 258,column 1,is_stmt,isa 0
     499 00000011 825A          MOVL      XAR3,*-SP[26]         ; [CPU_FPU] |258| 
     500 00000012 7D42          MOV       *-SP[2],AR5           ; [CPU_ALU] |258| 
     501 00000013 C246          MOVL      *-SP[6],XAR6          ; [CPU_ALU] |258| 
     502                      .dwpsn  file "../device/driverlib/can.c",line 267,column 5,is_stmt,isa 0
     503 00000014 6107          B         $C$L16,EQ             ; [CPU_ALU] |267| 
     504                      ; branchcc occurs ; [] |267| 
     505 00000015 FF20          MOV       ACC,#267              ; [CPU_ALU] |267| 
         00000016 010B 
     506 00000017 8F00+         MOVL      XAR4,#$C$FSL1         ; [CPU_ARAU] |267| 
         00000018 0000 
     507              $C$DW$42        .dwtag  DW_TAG_TI_branch
     508                      .dwattr $C$DW$42, DW_AT_low_pc(0x00)
     509                      .dwattr $C$DW$42, DW_AT_name("___error__")
     510                      .dwattr $C$DW$42, DW_AT_TI_call
     511              
     512 00000019 7640!         LCR       #___error__           ; [CPU_ALU] |267| 
         0000001a 0000 
     513                      ; call occurs [#___error__] ; [] |267| 
     514 0000001b       $C$L16:    
     515                      .dwpsn  file "../device/driverlib/can.c",line 260,column 22,is_stmt,isa 0
     516 0000001b BE00          MOVB      XAR6,#0               ; [CPU_ALU] |260| 
     517 0000001c C24C          MOVL      *-SP[12],XAR6         ; [CPU_ALU] |260| 
     518                      .dwpsn  file "../device/driverlib/can.c",line 262,column 22,is_stmt,isa 0
     519 0000001d C446          MOVL      XAR6,*-SP[6]          ; [CPU_ALU] |262| 
     520 0000001e D200          MOVB      XAR2,#0               ; [CPU_ALU] |262| 
     521                      .dwpsn  file "../device/driverlib/can.c",line 268,column 5,is_stmt,isa 0
     522 0000001f 0220          MOVB      ACC,#32               ; [CPU_ALU] |268| 
     523 00000020 0FA6          CMPL      ACC,XAR6              ; [CPU_ALU] |268| 
     524 00000021 6803          B         $C$L17,LO             ; [CPU_ALU] |268| 
     525                      ; branchcc occurs ; [] |268| 
TMS320C2000 Assembler PC v22.6.1 Wed May 21 09:51:56 2025

Copyright (c) 1996-2018 Texas Instruments Incorporated
C:\Users\Daniel\AppData\Local\Temp\{3E78D54A-297D-4D45-89F7-B8D766A9F422} PAGE   11

     526 00000022 0646          MOVL      ACC,*-SP[6]           ; [CPU_ALU] 
     527 00000023 6007          B         $C$L18,NEQ            ; [CPU_ALU] |268| 
     528                      ; branchcc occurs ; [] |268| 
     529 00000024       $C$L17:    
     530 00000024 FF20          MOV       ACC,#268              ; [CPU_ALU] |268| 
         00000025 010C 
     531 00000026 8F00+         MOVL      XAR4,#$C$FSL1         ; [CPU_ARAU] |268| 
         00000027 0000 
     532              $C$DW$43        .dwtag  DW_TAG_TI_branch
     533                      .dwattr $C$DW$43, DW_AT_low_pc(0x00)
     534                      .dwattr $C$DW$43, DW_AT_name("___error__")
     535                      .dwattr $C$DW$43, DW_AT_TI_call
     536              
     537 00000028 7640!         LCR       #___error__           ; [CPU_ALU] |268| 
         00000029 0000 
     538                      ; call occurs [#___error__] ; [] |268| 
     539 0000002a       $C$L18:    
     540 0000002a 9243          MOV       AL,*-SP[3]            ; [CPU_ALU] 
     541                      .dwpsn  file "../device/driverlib/can.c",line 269,column 5,is_stmt,isa 0
     542 0000002b 5208          CMPB      AL,#8                 ; [CPU_ALU] |269| 
     543 0000002c 6907          B         $C$L19,LOS            ; [CPU_ALU] |269| 
     544                      ; branchcc occurs ; [] |269| 
     545 0000002d FF20          MOV       ACC,#269              ; [CPU_ALU] |269| 
         0000002e 010D 
     546 0000002f 8F00+         MOVL      XAR4,#$C$FSL1         ; [CPU_ARAU] |269| 
         00000030 0000 
     547              $C$DW$44        .dwtag  DW_TAG_TI_branch
     548                      .dwattr $C$DW$44, DW_AT_low_pc(0x00)
     549                      .dwattr $C$DW$44, DW_AT_name("___error__")
     550                      .dwattr $C$DW$44, DW_AT_TI_call
     551              
     552 00000031 7640!         LCR       #___error__           ; [CPU_ALU] |269| 
         00000032 0000 
     553                      ; call occurs [#___error__] ; [] |269| 
     554 00000033       $C$L19:    
     555                      .dwpsn  file "../device/driverlib/can.c",line 278,column 5,is_stmt,isa 0
     556 00000033 8D00          MOVL      XAR0,#256             ; [CPU_ALU] |278| 
         00000034 0100 
     557 00000035       $C$L20:    
     558 00000035 B2A9          MOVL      ACC,XAR1              ; [CPU_ALU] |278| 
     559 00000036 FF18          ADD       ACC,#1 << 8           ; [CPU_ALU] |278| 
         00000037 0001 
     560 00000038 4F91          TBIT      *+XAR1[AR0],#15       ; [CPU_ALU] |278| 
     561 00000039 8AA9          MOVL      XAR4,ACC              ; [CPU_FPU] |278| 
     562 0000003a 6DFB          B         $C$L20,TC             ; [CPU_ALU] |278| 
     563                      ; branchcc occurs ; [] |278| 
     564 0000003b 9242          MOV       AL,*-SP[2]            ; [CPU_ALU] 
     565 0000003c 6107          B         $C$L22,EQ             ; [CPU_ALU] |278| 
     566                      ; branchcc occurs ; [] |278| 
     567 0000003d 5203          CMPB      AL,#3                 ; [CPU_ALU] |278| 
     568 0000003e 6103          B         $C$L21,EQ             ; [CPU_ALU] |278| 
     569                      ; branchcc occurs ; [] |278| 
     570                      .dwpsn  file "../device/driverlib/can.c",line 320,column 12,is_stmt,isa 0
     571 0000003f 0200          MOVB      ACC,#0                ; [CPU_ALU] |320| 
     572                      .dwpsn  file "../device/driverlib/can.c",line 322,column 12,is_stmt,isa 0
TMS320C2000 Assembler PC v22.6.1 Wed May 21 09:51:56 2025

Copyright (c) 1996-2018 Texas Instruments Incorporated
C:\Users\Daniel\AppData\Local\Temp\{3E78D54A-297D-4D45-89F7-B8D766A9F422} PAGE   12

     573 00000040 6F05          B         $C$L23,UNC            ; [CPU_ALU] |322| 
     574                      ; branch occurs ; [] |322| 
     575 00000041       $C$L21:    
     576                      .dwpsn  file "../device/driverlib/can.c",line 305,column 13,is_stmt,isa 0
     577 00000041 8D80          MOVL      XAR2,#4608            ; [CPU_ARAU] |305| 
         00000042 1200 
     578 00000043       $C$L22:    
     579                      .dwpsn  file "../device/driverlib/can.c",line 288,column 13,is_stmt,isa 0
     580 00000043 FF2F          MOV       ACC,#16384 << 15      ; [CPU_ALU] |288| 
         00000044 4000 
     581 00000045       $C$L23:    
     582 00000045 1EA6          MOVL      XAR6,ACC              ; [CPU_ALU] |288| 
     583 00000046 9241          MOV       AL,*-SP[1]            ; [CPU_ALU] 
     584                      .dwpsn  file "../device/driverlib/can.c",line 329,column 5,is_stmt,isa 0
     585 00000047 5201          CMPB      AL,#1                 ; [CPU_ALU] |329| 
     586 00000048 6118          B         $C$L25,EQ             ; [CPU_ALU] |329| 
     587                      ; branchcc occurs ; [] |329| 
     588 00000049 924A          MOV       AL,*-SP[10]           ; [CPU_ALU] 
     589                      .dwpsn  file "../device/driverlib/can.c",line 351,column 9,is_stmt,isa 0
     590 0000004a 40A9          TBIT      AL,#0                 ; [CPU_ALU] |351| 
     591 0000004b 6C09          B         $C$L24,NTC            ; [CPU_ALU] |351| 
     592                      ; branchcc occurs ; [] |351| 
     593                      .dwpsn  file "../device/driverlib/can.c",line 353,column 12,is_stmt,isa 0
     594 0000004c A2A9          MOVL      ACC,XAR3              ; [CPU_ALU] |353| 
     595 0000004d 28AC          MOV       T,#18                 ; [CPU_ALU] |353| 
         0000004e 0012 
     596 0000004f 18A9          AND       AL,#2047              ; [CPU_ALU] |353| 
         00000050 07FF 
     597 00000051 9100          ANDB      AH,#0                 ; [CPU_ALU] |353| 
     598 00000052 563B          LSLL      ACC,T                 ; [CPU_ALU] |353| 
     599 00000053 1E4C          MOVL      *-SP[12],ACC          ; [CPU_ALU] |353| 
     600 00000054       $C$L24:    
     601 00000054 0648          MOVL      ACC,*-SP[8]           ; [CPU_ALU] 
     602                      .dwpsn  file "../device/driverlib/can.c",line 362,column 9,is_stmt,isa 0
     603 00000055 28AC          MOV       T,#18                 ; [CPU_ALU] |362| 
         00000056 0012 
     604 00000057 A3A6          MOVL      P,XAR6                ; [CPU_ALU] |362| 
     605 00000058 18A9          AND       AL,#2047              ; [CPU_ALU] |362| 
         00000059 07FF 
     606 0000005a 9100          ANDB      AH,#0                 ; [CPU_ALU] |362| 
     607 0000005b 563B          LSLL      ACC,T                 ; [CPU_ALU] |362| 
     608 0000005c CBAA          OR        AH,PH                 ; [CPU_ALU] |362| 
     609 0000005d 1AA8          OR        AH,#32768             ; [CPU_ALU] |362| 
         0000005e 8000 
     610 0000005f 6F0F          B         $C$L27,UNC            ; [CPU_ALU] |362| 
     611                      ; branch occurs ; [] |362| 
     612 00000060       $C$L25:    
     613 00000060 924A          MOV       AL,*-SP[10]           ; [CPU_ALU] 
     614                      .dwpsn  file "../device/driverlib/can.c",line 334,column 9,is_stmt,isa 0
     615 00000061 40A9          TBIT      AL,#0                 ; [CPU_ALU] |334| 
     616 00000062 6C05          B         $C$L26,NTC            ; [CPU_ALU] |334| 
     617                      ; branchcc occurs ; [] |334| 
     618                      .dwpsn  file "../device/driverlib/can.c",line 336,column 13,is_stmt,isa 0
     619 00000063 A2AB          MOVL      P,XAR3                ; [CPU_ALU] |336| 
     620 00000064 18AA          AND       PH,#8191              ; [CPU_ALU] |336| 
TMS320C2000 Assembler PC v22.6.1 Wed May 21 09:51:56 2025

Copyright (c) 1996-2018 Texas Instruments Incorporated
C:\Users\Daniel\AppData\Local\Temp\{3E78D54A-297D-4D45-89F7-B8D766A9F422} PAGE   13

         00000065 1FFF 
     621 00000066 A94C          MOVL      *-SP[12],P            ; [CPU_ALU] |336| 
     622 00000067       $C$L26:    
     623 00000067 0648          MOVL      ACC,*-SP[8]           ; [CPU_ALU] 
     624                      .dwpsn  file "../device/driverlib/can.c",line 343,column 9,is_stmt,isa 0
     625 00000068 A3A6          MOVL      P,XAR6                ; [CPU_ALU] |343| 
     626 00000069 18A8          AND       AH,#8191              ; [CPU_ALU] |343| 
         0000006a 1FFF 
     627 0000006b CBAA          OR        AH,PH                 ; [CPU_ALU] |343| 
     628 0000006c 1AA8          OR        AH,#49152             ; [CPU_ALU] |343| 
         0000006d C000 
     629 0000006e       $C$L27:    
     630 0000006e CAAB          OR        AL,PL                 ; [CPU_ALU] |343| 
     631 0000006f 1EA6          MOVL      XAR6,ACC              ; [CPU_ALU] |343| 
     632                      .dwpsn  file "../device/driverlib/can.c",line 369,column 5,is_stmt,isa 0
     633 00000070 A34C          MOVL      P,*-SP[12]            ; [CPU_ALU] |369| 
     634 00000071 064A          MOVL      ACC,*-SP[10]          ; [CPU_ALU] 
     635 00000072 9000          ANDB      AL,#0                 ; [CPU_ALU] |369| 
     636 00000073 18A8          AND       AH,#16384             ; [CPU_ALU] |369| 
         00000074 4000 
     637 00000075 CAAB          OR        AL,PL                 ; [CPU_ALU] |369| 
     638 00000076 CBAA          OR        AH,PH                 ; [CPU_ALU] |369| 
     639 00000077 A34A          MOVL      P,*-SP[10]            ; [CPU_FPU] |369| 
     640 00000078 18AB          AND       PL,#0                 ; [CPU_ALU] |369| 
         00000079 0000 
     641 0000007a 18AA          AND       PH,#32768             ; [CPU_ALU] |369| 
         0000007b 8000 
     642 0000007c CAAB          OR        AL,PL                 ; [CPU_ALU] |369| 
     643 0000007d CBAA          OR        AH,PH                 ; [CPU_ALU] |369| 
     644 0000007e 1E4C          MOVL      *-SP[12],ACC          ; [CPU_ALU] |369| 
     645 0000007f A34A          MOVL      P,*-SP[10]            ; [CPU_ALU] |369| 
     646                      .dwpsn  file "../device/driverlib/can.c",line 379,column 5,is_stmt,isa 0
     647 00000080 064A          MOVL      ACC,*-SP[10]          ; [CPU_ALU] |379| 
     648 00000081 18AA          AND       PH,#49152             ; [CPU_ALU] |379| 
         00000082 C000 
     649 00000083 18AB          AND       PL,#0                 ; [CPU_ALU] |379| 
         00000084 0000 
     650 00000085 9B00          MOVB      AH,#0                 ; [CPU_FPU] |379| 
     651 00000086 9001          ANDB      AL,#0x01              ; [CPU_ALU] |379| 
     652 00000087 CBAA          OR        AH,PH                 ; [CPU_ALU] |379| 
     653 00000088 CAAB          OR        AL,PL                 ; [CPU_ALU] |379| 
     654 00000089 FF58          TEST      ACC                   ; [CPU_ALU] |379| 
     655 0000008a 6105          B         $C$L28,EQ             ; [CPU_ALU] |379| 
     656                      ; branchcc occurs ; [] |379| 
     657 0000008b AAAB          MOVL      P,XAR2                ; [CPU_ALU] 
     658                      .dwpsn  file "../device/driverlib/can.c",line 383,column 9,is_stmt,isa 0
     659 0000008c 1AAB          OR        PL,#4096              ; [CPU_ALU] |383| 
         0000008d 1000 
     660 0000008e A9A2          MOVL      XAR2,P                ; [CPU_ALU] |383| 
     661 0000008f       $C$L28:    
     662 0000008f 9242          MOV       AL,*-SP[2]            ; [CPU_ALU] 
     663                      .dwpsn  file "../device/driverlib/can.c",line 390,column 5,is_stmt,isa 0
     664 00000090 6103          B         $C$L29,EQ             ; [CPU_ALU] |390| 
     665                      ; branchcc occurs ; [] |390| 
     666 00000091 5203          CMPB      AL,#3                 ; [CPU_ALU] |390| 
TMS320C2000 Assembler PC v22.6.1 Wed May 21 09:51:56 2025

Copyright (c) 1996-2018 Texas Instruments Incorporated
C:\Users\Daniel\AppData\Local\Temp\{3E78D54A-297D-4D45-89F7-B8D766A9F422} PAGE   14

     667 00000092 6007          B         $C$L30,NEQ            ; [CPU_ALU] |390| 
     668                      ; branchcc occurs ; [] |390| 
     669 00000093       $C$L29:    
     670 00000093 9243          MOV       AL,*-SP[3]            ; [CPU_ALU] 
     671                      .dwpsn  file "../device/driverlib/can.c",line 393,column 9,is_stmt,isa 0
     672 00000094 900F          ANDB      AL,#15                ; [CPU_ALU] |393| 
     673 00000095 80A9          MOVZ      AR7,AL                ; [CPU_ALU] |393| 
     674 00000096 AAA9          MOVL      ACC,XAR2              ; [CPU_ALU] |393| 
     675 00000097 AFA7          OR        ACC,AR7               ; [CPU_ALU] |393| 
     676 00000098 86A9          MOVL      XAR2,ACC              ; [CPU_ALU] |393| 
     677 00000099       $C$L30:    
     678 00000099 924A          MOV       AL,*-SP[10]           ; [CPU_ALU] 
     679                      .dwpsn  file "../device/driverlib/can.c",line 400,column 5,is_stmt,isa 0
     680 0000009a 41A9          TBIT      AL,#1                 ; [CPU_ALU] |400| 
     681 0000009b AAA9          MOVL      ACC,XAR2              ; [CPU_FPU] 
     682                      .dwpsn  file "../device/driverlib/can.c",line 402,column 9,is_stmt,isa 0
     683 0000009c 5080          ORB       AL,#0x80              ; [CPU_ALU] |402| 
     684 0000009d 5648          MOVL      XAR2,ACC,NTC          ; [CPU_ALU] |402| 
         0000009e 0CA2 
     685 0000009f 064A          MOVL      ACC,*-SP[10]          ; [CPU_ALU] 
     686                      .dwpsn  file "../device/driverlib/can.c",line 408,column 5,is_stmt,isa 0
     687 000000a0 AAAB          MOVL      P,XAR2                ; [CPU_ALU] |408| 
     688 000000a1 18A9          AND       AL,#1024              ; [CPU_ALU] |408| 
         000000a2 0400 
     689 000000a3 9100          ANDB      AH,#0                 ; [CPU_ALU] |408| 
     690 000000a4 CAAB          OR        AL,PL                 ; [CPU_ALU] |408| 
     691 000000a5 CBAA          OR        AH,PH                 ; [CPU_ALU] |408| 
     692 000000a6 A34A          MOVL      P,*-SP[10]            ; [CPU_FPU] |408| 
     693 000000a7 18AB          AND       PL,#2048              ; [CPU_ALU] |408| 
         000000a8 0800 
     694 000000a9 18AA          AND       PH,#0                 ; [CPU_ALU] |408| 
         000000aa 0000 
     695 000000ab CAAB          OR        AL,PL                 ; [CPU_ALU] |408| 
     696 000000ac CBAA          OR        AH,PH                 ; [CPU_ALU] |408| 
     697 000000ad 86A9          MOVL      XAR2,ACC              ; [CPU_ALU] |408| 
     698                      .dwpsn  file "../device/driverlib/can.c",line 427,column 5,is_stmt,isa 0
     699 000000ae B2A9          MOVL      ACC,XAR1              ; [CPU_ALU] |427| 
     700 000000af FF12          ADD       ACC,#65 << 2          ; [CPU_ALU] |427| 
         000000b0 0041 
     701 000000b1 83A9          MOVL      XAR5,ACC              ; [CPU_ALU] |427| 
     702 000000b2 064C          MOVL      ACC,*-SP[12]          ; [CPU_ALU] |427| 
     703 000000b3 1EC5          MOVL      *+XAR5[0],ACC         ; [CPU_ALU] |427| 
     704                      .dwpsn  file "../device/driverlib/can.c",line 428,column 5,is_stmt,isa 0
     705 000000b4 B2A9          MOVL      ACC,XAR1              ; [CPU_ALU] |428| 
     706 000000b5 FF13          ADD       ACC,#33 << 3          ; [CPU_ALU] |428| 
         000000b6 0021 
     707 000000b7 83A9          MOVL      XAR5,ACC              ; [CPU_ALU] |428| 
     708                      .dwpsn  file "../device/driverlib/can.c",line 429,column 5,is_stmt,isa 0
     709 000000b8 B2A9          MOVL      ACC,XAR1              ; [CPU_ALU] |429| 
     710                      .dwpsn  file "../device/driverlib/can.c",line 428,column 5,is_stmt,isa 0
     711 000000b9 C2C5          MOVL      *+XAR5[0],XAR6        ; [CPU_ALU] |428| 
     712                      .dwpsn  file "../device/driverlib/can.c",line 429,column 5,is_stmt,isa 0
     713 000000ba FF12          ADD       ACC,#67 << 2          ; [CPU_ALU] |429| 
         000000bb 0043 
     714 000000bc 83A9          MOVL      XAR5,ACC              ; [CPU_ALU] |429| 
TMS320C2000 Assembler PC v22.6.1 Wed May 21 09:51:56 2025

Copyright (c) 1996-2018 Texas Instruments Incorporated
C:\Users\Daniel\AppData\Local\Temp\{3E78D54A-297D-4D45-89F7-B8D766A9F422} PAGE   15

     715 000000bd 0646          MOVL      ACC,*-SP[6]           ; [CPU_ALU] |429| 
     716                      .dwpsn  file "../device/driverlib/can.c",line 434,column 5,is_stmt,isa 0
     717 000000be 9B00          MOVB      AH,#0                 ; [CPU_ALU] |434| 
     718 000000bf 90FF          ANDB      AL,#0xff              ; [CPU_ALU] |434| 
     719 000000c0 51F0          OR        AH,#240               ; [CPU_ALU] |434| 
     720                      .dwpsn  file "../device/driverlib/can.c",line 429,column 5,is_stmt,isa 0
     721 000000c1 AAC5          MOVL      *+XAR5[0],XAR2        ; [CPU_FPU] |429| 
     722 000000c2 FE8C          SUBB      SP,#12                ; [CPU_ARAU] 
     723                      .dwcfi  cfa_offset, -8
     724                      .dwpsn  file "../device/driverlib/can.c",line 434,column 5,is_stmt,isa 0
     725 000000c3 1EC4          MOVL      *+XAR4[0],ACC         ; [CPU_ALU] |434| 
     726 000000c4 82BE          MOVL      XAR3,*--SP            ; [CPU_ALU] 
     727                      .dwcfi  cfa_offset, -6
     728                      .dwcfi  restore_reg, 11
     729 000000c5 86BE          MOVL      XAR2,*--SP            ; [CPU_ALU] 
     730                      .dwcfi  cfa_offset, -4
     731                      .dwcfi  restore_reg, 9
     732 000000c6 8BBE          MOVL      XAR1,*--SP            ; [CPU_ALU] 
     733                      .dwcfi  cfa_offset, -2
     734                      .dwcfi  restore_reg, 7
     735              $C$DW$45        .dwtag  DW_TAG_TI_branch
     736                      .dwattr $C$DW$45, DW_AT_low_pc(0x00)
     737                      .dwattr $C$DW$45, DW_AT_TI_return
     738              
     739 000000c7 0006          LRETR     ; [CPU_ALU] 
     740                      ; return occurs ; [] 
     741                      .dwattr $C$DW$22, DW_AT_TI_end_file("../device/driverlib/can.c")
     742                      .dwattr $C$DW$22, DW_AT_TI_end_line(0x1b4)
     743                      .dwattr $C$DW$22, DW_AT_TI_end_column(0x01)
     744                      .dwendentry
     745                      .dwendtag $C$DW$22
     746              
     747 00000000               .sect   ".text:_CAN_setBitTiming"
     748                      .clink
     749                      .global _CAN_setBitTiming
     750              
     751              $C$DW$46        .dwtag  DW_TAG_subprogram
     752                      .dwattr $C$DW$46, DW_AT_name("CAN_setBitTiming")
     753                      .dwattr $C$DW$46, DW_AT_low_pc(_CAN_setBitTiming)
     754                      .dwattr $C$DW$46, DW_AT_high_pc(0x00)
     755                      .dwattr $C$DW$46, DW_AT_TI_symbol_name("_CAN_setBitTiming")
     756                      .dwattr $C$DW$46, DW_AT_external
     757                      .dwattr $C$DW$46, DW_AT_TI_begin_file("../device/driverlib/can.c")
     758                      .dwattr $C$DW$46, DW_AT_TI_begin_line(0x96)
     759                      .dwattr $C$DW$46, DW_AT_TI_begin_column(0x01)
     760                      .dwattr $C$DW$46, DW_AT_TI_max_frame_size(-12)
     761                      .dwpsn  file "../device/driverlib/can.c",line 153,column 1,is_stmt,address _CAN_setBitTiming,isa 0
     762              
     763                      .dwfde $C$DW$CIE, _CAN_setBitTiming
     764              $C$DW$47        .dwtag  DW_TAG_formal_parameter
     765                      .dwattr $C$DW$47, DW_AT_name("base")
     766                      .dwattr $C$DW$47, DW_AT_TI_symbol_name("_base")
     767                      .dwattr $C$DW$47, DW_AT_type(*$C$DW$T$33)
     768                      .dwattr $C$DW$47, DW_AT_location[DW_OP_reg0]
     769              
TMS320C2000 Assembler PC v22.6.1 Wed May 21 09:51:56 2025

Copyright (c) 1996-2018 Texas Instruments Incorporated
C:\Users\Daniel\AppData\Local\Temp\{3E78D54A-297D-4D45-89F7-B8D766A9F422} PAGE   16

     770              $C$DW$48        .dwtag  DW_TAG_formal_parameter
     771                      .dwattr $C$DW$48, DW_AT_name("prescaler")
     772                      .dwattr $C$DW$48, DW_AT_TI_symbol_name("_prescaler")
     773                      .dwattr $C$DW$48, DW_AT_type(*$C$DW$T$39)
     774                      .dwattr $C$DW$48, DW_AT_location[DW_OP_reg12]
     775              
     776              $C$DW$49        .dwtag  DW_TAG_formal_parameter
     777                      .dwattr $C$DW$49, DW_AT_name("prescalerExtension")
     778                      .dwattr $C$DW$49, DW_AT_TI_symbol_name("_prescalerExtension")
     779                      .dwattr $C$DW$49, DW_AT_type(*$C$DW$T$39)
     780                      .dwattr $C$DW$49, DW_AT_location[DW_OP_reg14]
     781              
     782              $C$DW$50        .dwtag  DW_TAG_formal_parameter
     783                      .dwattr $C$DW$50, DW_AT_name("tSeg1")
     784                      .dwattr $C$DW$50, DW_AT_TI_symbol_name("_tSeg1")
     785                      .dwattr $C$DW$50, DW_AT_type(*$C$DW$T$39)
     786                      .dwattr $C$DW$50, DW_AT_location[DW_OP_breg20 -13]
     787              
     788              $C$DW$51        .dwtag  DW_TAG_formal_parameter
     789                      .dwattr $C$DW$51, DW_AT_name("tSeg2")
     790                      .dwattr $C$DW$51, DW_AT_TI_symbol_name("_tSeg2")
     791                      .dwattr $C$DW$51, DW_AT_type(*$C$DW$T$39)
     792                      .dwattr $C$DW$51, DW_AT_location[DW_OP_breg20 -14]
     793              
     794              $C$DW$52        .dwtag  DW_TAG_formal_parameter
     795                      .dwattr $C$DW$52, DW_AT_name("sjw")
     796                      .dwattr $C$DW$52, DW_AT_TI_symbol_name("_sjw")
     797                      .dwattr $C$DW$52, DW_AT_type(*$C$DW$T$39)
     798                      .dwattr $C$DW$52, DW_AT_location[DW_OP_breg20 -15]
     799              
     800              
     801              ;***************************************************************
     802              ;* FNAME: _CAN_setBitTiming             FR SIZE:  10           *
     803              ;*                                                             *
     804              ;* FUNCTION ENVIRONMENT                                        *
     805              ;*                                                             *
     806              ;* FUNCTION PROPERTIES                                         *
     807              ;*                            0 Parameter,  3 Auto,  6 SOE     *
     808              ;***************************************************************
     809              
     810              _CAN_setBitTiming:
     811              ;* AR3   assigned to _base
     812              $C$DW$53        .dwtag  DW_TAG_variable
     813                      .dwattr $C$DW$53, DW_AT_name("base")
     814                      .dwattr $C$DW$53, DW_AT_TI_symbol_name("_base")
     815                      .dwattr $C$DW$53, DW_AT_type(*$C$DW$T$44)
     816                      .dwattr $C$DW$53, DW_AT_location[DW_OP_reg10]
     817              
     818              ;* AR2   assigned to _prescaler
     819              $C$DW$54        .dwtag  DW_TAG_variable
     820                      .dwattr $C$DW$54, DW_AT_name("prescaler")
     821                      .dwattr $C$DW$54, DW_AT_TI_symbol_name("_prescaler")
     822                      .dwattr $C$DW$54, DW_AT_type(*$C$DW$T$40)
     823                      .dwattr $C$DW$54, DW_AT_location[DW_OP_reg8]
     824              
TMS320C2000 Assembler PC v22.6.1 Wed May 21 09:51:56 2025

Copyright (c) 1996-2018 Texas Instruments Incorporated
C:\Users\Daniel\AppData\Local\Temp\{3E78D54A-297D-4D45-89F7-B8D766A9F422} PAGE   17

     825              $C$DW$55        .dwtag  DW_TAG_variable
     826                      .dwattr $C$DW$55, DW_AT_name("prescalerExtension")
     827                      .dwattr $C$DW$55, DW_AT_TI_symbol_name("_prescalerExtension")
     828                      .dwattr $C$DW$55, DW_AT_type(*$C$DW$T$40)
     829                      .dwattr $C$DW$55, DW_AT_location[DW_OP_breg20 -1]
     830              
     831              ;* AR1   assigned to _tSeg1
     832              $C$DW$56        .dwtag  DW_TAG_variable
     833                      .dwattr $C$DW$56, DW_AT_name("tSeg1")
     834                      .dwattr $C$DW$56, DW_AT_TI_symbol_name("_tSeg1")
     835                      .dwattr $C$DW$56, DW_AT_type(*$C$DW$T$40)
     836                      .dwattr $C$DW$56, DW_AT_location[DW_OP_reg6]
     837              
     838              $C$DW$57        .dwtag  DW_TAG_variable
     839                      .dwattr $C$DW$57, DW_AT_name("tSeg2")
     840                      .dwattr $C$DW$57, DW_AT_TI_symbol_name("_tSeg2")
     841                      .dwattr $C$DW$57, DW_AT_type(*$C$DW$T$40)
     842                      .dwattr $C$DW$57, DW_AT_location[DW_OP_breg20 -2]
     843              
     844              $C$DW$58        .dwtag  DW_TAG_variable
     845                      .dwattr $C$DW$58, DW_AT_name("sjw")
     846                      .dwattr $C$DW$58, DW_AT_TI_symbol_name("_sjw")
     847                      .dwattr $C$DW$58, DW_AT_type(*$C$DW$T$40)
     848                      .dwattr $C$DW$58, DW_AT_location[DW_OP_breg20 -3]
     849              
     850              ;* AR5   assigned to _savedInit
     851              $C$DW$59        .dwtag  DW_TAG_variable
     852                      .dwattr $C$DW$59, DW_AT_name("savedInit")
     853                      .dwattr $C$DW$59, DW_AT_TI_symbol_name("_savedInit")
     854                      .dwattr $C$DW$59, DW_AT_type(*$C$DW$T$39)
     855                      .dwattr $C$DW$59, DW_AT_location[DW_OP_reg14]
     856              
     857              ;* AR7   assigned to _bitReg
     858              $C$DW$60        .dwtag  DW_TAG_variable
     859                      .dwattr $C$DW$60, DW_AT_name("bitReg")
     860                      .dwattr $C$DW$60, DW_AT_TI_symbol_name("_bitReg")
     861                      .dwattr $C$DW$60, DW_AT_type(*$C$DW$T$33)
     862                      .dwattr $C$DW$60, DW_AT_location[DW_OP_reg18]
     863              
     864                      .dwcfi  cfa_offset, -2
     865                      .dwcfi  save_reg_to_mem, 26, 0
     866 00000000 B2BD          MOVL      *SP++,XAR1            ; [CPU_ALU] 
     867                      .dwcfi  save_reg_to_mem, 7, 2
     868                      .dwcfi  cfa_offset, -4
     869 00000001 AABD          MOVL      *SP++,XAR2            ; [CPU_ALU] 
     870                      .dwcfi  save_reg_to_mem, 9, 4
     871                      .dwcfi  cfa_offset, -6
     872 00000002 A2BD          MOVL      *SP++,XAR3            ; [CPU_ALU] 
     873                      .dwcfi  save_reg_to_mem, 11, 6
     874                      .dwcfi  cfa_offset, -8
     875 00000003 FE04          ADDB      SP,#4                 ; [CPU_ARAU] 
     876                      .dwcfi  cfa_offset, -12
     877 00000004 5AA4          MOVZ      AR2,AR4               ; [CPU_ALU] |153| 
     878 00000005 82A9          MOVL      XAR3,ACC              ; [CPU_ALU] |153| 
     879                      .dwpsn  file "../device/driverlib/can.c",line 160,column 5,is_stmt,isa 0
TMS320C2000 Assembler PC v22.6.1 Wed May 21 09:51:56 2025

Copyright (c) 1996-2018 Texas Instruments Incorporated
C:\Users\Daniel\AppData\Local\Temp\{3E78D54A-297D-4D45-89F7-B8D766A9F422} PAGE   18

     880 00000006 8F04          MOVL      XAR4,#294912          ; [CPU_ARAU] |160| 
         00000007 8000 
     881                      .dwpsn  file "../device/driverlib/can.c",line 153,column 1,is_stmt,isa 0
     882 00000008 924F          MOV       AL,*-SP[15]           ; [CPU_ALU] |153| 
     883 00000009 594D          MOVZ      AR1,*-SP[13]          ; [CPU_ALU] |153| 
     884 0000000a 7D41          MOV       *-SP[1],AR5           ; [CPU_ALU] |153| 
     885 0000000b 9643          MOV       *-SP[3],AL            ; [CPU_ALU] |153| 
     886 0000000c 924E          MOV       AL,*-SP[14]           ; [CPU_ALU] |153| 
     887 0000000d 9642          MOV       *-SP[2],AL            ; [CPU_ALU] |153| 
     888                      .dwpsn  file "../device/driverlib/can.c",line 160,column 5,is_stmt,isa 0
     889 0000000e A8A9          MOVL      ACC,XAR4              ; [CPU_ALU] |160| 
     890 0000000f 0FA3          CMPL      ACC,XAR3              ; [CPU_ALU] |160| 
     891 00000010 6106          B         $C$L31,EQ             ; [CPU_ALU] |160| 
     892                      ; branchcc occurs ; [] |160| 
     893 00000011 8F00+         MOVL      XAR4,#$C$FSL1         ; [CPU_ARAU] |160| 
         00000012 0000 
     894 00000013 02A0          MOVB      ACC,#160              ; [CPU_ALU] |160| 
     895              $C$DW$61        .dwtag  DW_TAG_TI_branch
     896                      .dwattr $C$DW$61, DW_AT_low_pc(0x00)
     897                      .dwattr $C$DW$61, DW_AT_name("___error__")
     898                      .dwattr $C$DW$61, DW_AT_TI_call
     899              
     900 00000014 7640!         LCR       #___error__           ; [CPU_ALU] |160| 
         00000015 0000 
     901                      ; call occurs [#___error__] ; [] |160| 
     902 00000016       $C$L31:    
     903 00000016 92A2          MOV       AL,AR2                ; [CPU_ALU] 
     904                      .dwpsn  file "../device/driverlib/can.c",line 161,column 5,is_stmt,isa 0
     905 00000017 5240          CMPB      AL,#64                ; [CPU_ALU] |161| 
     906 00000018 6806          B         $C$L32,LO             ; [CPU_ALU] |161| 
     907                      ; branchcc occurs ; [] |161| 
     908 00000019 8F00+         MOVL      XAR4,#$C$FSL1         ; [CPU_ARAU] |161| 
         0000001a 0000 
     909 0000001b 02A1          MOVB      ACC,#161              ; [CPU_ALU] |161| 
     910              $C$DW$62        .dwtag  DW_TAG_TI_branch
     911                      .dwattr $C$DW$62, DW_AT_low_pc(0x00)
     912                      .dwattr $C$DW$62, DW_AT_name("___error__")
     913                      .dwattr $C$DW$62, DW_AT_TI_call
     914              
     915 0000001c 7640!         LCR       #___error__           ; [CPU_ALU] |161| 
         0000001d 0000 
     916                      ; call occurs [#___error__] ; [] |161| 
     917 0000001e       $C$L32:    
     918 0000001e 92A1          MOV       AL,AR1                ; [CPU_ALU] 
     919                      .dwpsn  file "../device/driverlib/can.c",line 162,column 5,is_stmt,isa 0
     920 0000001f 6103          B         $C$L33,EQ             ; [CPU_ALU] |162| 
     921                      ; branchcc occurs ; [] |162| 
     922 00000020 5210          CMPB      AL,#16                ; [CPU_ALU] |162| 
     923 00000021 6806          B         $C$L34,LO             ; [CPU_ALU] |162| 
     924                      ; branchcc occurs ; [] |162| 
     925 00000022       $C$L33:    
     926 00000022 8F00+         MOVL      XAR4,#$C$FSL1         ; [CPU_ARAU] |162| 
         00000023 0000 
     927 00000024 02A2          MOVB      ACC,#162              ; [CPU_ALU] |162| 
     928              $C$DW$63        .dwtag  DW_TAG_TI_branch
TMS320C2000 Assembler PC v22.6.1 Wed May 21 09:51:56 2025

Copyright (c) 1996-2018 Texas Instruments Incorporated
C:\Users\Daniel\AppData\Local\Temp\{3E78D54A-297D-4D45-89F7-B8D766A9F422} PAGE   19

     929                      .dwattr $C$DW$63, DW_AT_low_pc(0x00)
     930                      .dwattr $C$DW$63, DW_AT_name("___error__")
     931                      .dwattr $C$DW$63, DW_AT_TI_call
     932              
     933 00000025 7640!         LCR       #___error__           ; [CPU_ALU] |162| 
         00000026 0000 
     934                      ; call occurs [#___error__] ; [] |162| 
     935 00000027       $C$L34:    
     936 00000027 9242          MOV       AL,*-SP[2]            ; [CPU_ALU] 
     937                      .dwpsn  file "../device/driverlib/can.c",line 163,column 5,is_stmt,isa 0
     938 00000028 5208          CMPB      AL,#8                 ; [CPU_ALU] |163| 
     939 00000029 6806          B         $C$L35,LO             ; [CPU_ALU] |163| 
     940                      ; branchcc occurs ; [] |163| 
     941 0000002a 8F00+         MOVL      XAR4,#$C$FSL1         ; [CPU_ARAU] |163| 
         0000002b 0000 
     942 0000002c 02A3          MOVB      ACC,#163              ; [CPU_ALU] |163| 
     943              $C$DW$64        .dwtag  DW_TAG_TI_branch
     944                      .dwattr $C$DW$64, DW_AT_low_pc(0x00)
     945                      .dwattr $C$DW$64, DW_AT_name("___error__")
     946                      .dwattr $C$DW$64, DW_AT_TI_call
     947              
     948 0000002d 7640!         LCR       #___error__           ; [CPU_ALU] |163| 
         0000002e 0000 
     949                      ; call occurs [#___error__] ; [] |163| 
     950 0000002f       $C$L35:    
     951 0000002f 9243          MOV       AL,*-SP[3]            ; [CPU_ALU] 
     952                      .dwpsn  file "../device/driverlib/can.c",line 164,column 5,is_stmt,isa 0
     953 00000030 5204          CMPB      AL,#4                 ; [CPU_ALU] |164| 
     954 00000031 6806          B         $C$L36,LO             ; [CPU_ALU] |164| 
     955                      ; branchcc occurs ; [] |164| 
     956 00000032 8F00+         MOVL      XAR4,#$C$FSL1         ; [CPU_ARAU] |164| 
         00000033 0000 
     957 00000034 02A4          MOVB      ACC,#164              ; [CPU_ALU] |164| 
     958              $C$DW$65        .dwtag  DW_TAG_TI_branch
     959                      .dwattr $C$DW$65, DW_AT_low_pc(0x00)
     960                      .dwattr $C$DW$65, DW_AT_name("___error__")
     961                      .dwattr $C$DW$65, DW_AT_TI_call
     962              
     963 00000035 7640!         LCR       #___error__           ; [CPU_ALU] |164| 
         00000036 0000 
     964                      ; call occurs [#___error__] ; [] |164| 
     965 00000037       $C$L36:    
     966 00000037 9241          MOV       AL,*-SP[1]            ; [CPU_ALU] 
     967                      .dwpsn  file "../device/driverlib/can.c",line 165,column 5,is_stmt,isa 0
     968 00000038 5210          CMPB      AL,#16                ; [CPU_ALU] |165| 
     969 00000039 6806          B         $C$L37,LO             ; [CPU_ALU] |165| 
     970                      ; branchcc occurs ; [] |165| 
     971 0000003a 8F00+         MOVL      XAR4,#$C$FSL1         ; [CPU_ARAU] |165| 
         0000003b 0000 
     972 0000003c 02A5          MOVB      ACC,#165              ; [CPU_ALU] |165| 
     973              $C$DW$66        .dwtag  DW_TAG_TI_branch
     974                      .dwattr $C$DW$66, DW_AT_low_pc(0x00)
     975                      .dwattr $C$DW$66, DW_AT_name("___error__")
     976                      .dwattr $C$DW$66, DW_AT_TI_call
     977              
TMS320C2000 Assembler PC v22.6.1 Wed May 21 09:51:56 2025

Copyright (c) 1996-2018 Texas Instruments Incorporated
C:\Users\Daniel\AppData\Local\Temp\{3E78D54A-297D-4D45-89F7-B8D766A9F422} PAGE   20

     978 0000003d 7640!         LCR       #___error__           ; [CPU_ALU] |165| 
         0000003e 0000 
     979                      ; call occurs [#___error__] ; [] |165| 
     980 0000003f       $C$L37:    
     981                      .dwpsn  file "../device/driverlib/can.c",line 172,column 5,is_stmt,isa 0
     982 0000003f 5DC3          MOVZ      AR5,*+XAR3[0]         ; [CPU_ALU] |172| 
     983                      .dwpsn  file "../device/driverlib/can.c",line 173,column 5,is_stmt,isa 0
     984 00000040 92A5          MOV       AL,AR5                ; [CPU_ALU] |173| 
     985 00000041 5041          ORB       AL,#0x41              ; [CPU_ALU] |173| 
     986 00000042 96C3          MOV       *+XAR3[0],AL          ; [CPU_ALU] |173| 
     987 00000043 92A2          MOV       AL,AR2                ; [CPU_ALU] |173| 
     988                      .dwpsn  file "../device/driverlib/can.c",line 178,column 5,is_stmt,isa 0
     989 00000044 903F          ANDB      AL,#63                ; [CPU_ALU] |178| 
     990 00000045 80A9          MOVZ      AR7,AL                ; [CPU_ALU] |178| 
     991 00000046 9243          MOV       AL,*-SP[3]            ; [CPU_ALU] |178| 
     992                      .dwpsn  file "../device/driverlib/can.c",line 179,column 5,is_stmt,isa 0
     993 00000047 9003          ANDB      AL,#3                 ; [CPU_ALU] |179| 
     994 00000048 FF85          LSL       AL,6                  ; [CPU_ALU] |179| 
     995 00000049 88A9          MOVZ      AR6,AL                ; [CPU_ALU] |179| 
     996 0000004a 06A7          MOVL      ACC,XAR7              ; [CPU_ALU] |179| 
     997 0000004b AFA6          OR        ACC,AR6               ; [CPU_ALU] |179| 
     998 0000004c 1EA7          MOVL      XAR7,ACC              ; [CPU_ALU] |179| 
     999 0000004d 92A1          MOV       AL,AR1                ; [CPU_ALU] |179| 
    1000                      .dwpsn  file "../device/driverlib/can.c",line 180,column 5,is_stmt,isa 0
    1001 0000004e 900F          ANDB      AL,#15                ; [CPU_ALU] |180| 
    1002 0000004f FF87          LSL       AL,8                  ; [CPU_ALU] |180| 
    1003 00000050 59A9          MOVZ      AR1,AL                ; [CPU_ALU] |180| 
    1004                      .dwpsn  file "../device/driverlib/can.c",line 187,column 5,is_stmt,isa 0
    1005 00000051 8AA3          MOVL      XAR4,XAR3             ; [CPU_ALU] |187| 
    1006                      .dwpsn  file "../device/driverlib/can.c",line 180,column 5,is_stmt,isa 0
    1007 00000052 06A7          MOVL      ACC,XAR7              ; [CPU_ALU] |180| 
    1008 00000053 AFA1          OR        ACC,AR1               ; [CPU_ALU] |180| 
    1009 00000054 1EA7          MOVL      XAR7,ACC              ; [CPU_ALU] |180| 
    1010 00000055 9242          MOV       AL,*-SP[2]            ; [CPU_ALU] |180| 
    1011                      .dwpsn  file "../device/driverlib/can.c",line 182,column 5,is_stmt,isa 0
    1012 00000056 9007          ANDB      AL,#7                 ; [CPU_ALU] |182| 
    1013 00000057 FF8B          LSL       AL,12                 ; [CPU_ALU] |182| 
    1014 00000058 88A9          MOVZ      AR6,AL                ; [CPU_ALU] |182| 
    1015                      .dwpsn  file "../device/driverlib/can.c",line 194,column 5,is_stmt,isa 0
    1016 00000059 18A5          AND       AR5,#0xffbf           ; [CPU_ALU] |194| 
         0000005a FFBF 
    1017                      .dwpsn  file "../device/driverlib/can.c",line 187,column 5,is_stmt,isa 0
    1018 0000005b DC0C          ADDB      XAR4,#12              ; [CPU_ALU] |187| 
    1019                      .dwpsn  file "../device/driverlib/can.c",line 182,column 5,is_stmt,isa 0
    1020 0000005c 06A7          MOVL      ACC,XAR7              ; [CPU_FPU] |182| 
    1021 0000005d AFA6          OR        ACC,AR6               ; [CPU_ALU] |182| 
    1022                      .dwpsn  file "../device/driverlib/can.c",line 184,column 5,is_stmt,isa 0
    1023 0000005e 8841          MOVZ      AR6,*-SP[1]           ; [CPU_FPU] |184| 
    1024                      .dwpsn  file "../device/driverlib/can.c",line 182,column 5,is_stmt,isa 0
    1025 0000005f 1EA7          MOVL      XAR7,ACC              ; [CPU_FPU] |182| 
    1026                      .dwpsn  file "../device/driverlib/can.c",line 184,column 5,is_stmt,isa 0
    1027 00000060 020F          MOVB      ACC,#15               ; [CPU_FPU] |184| 
    1028 00000061 FE84          SUBB      SP,#4                 ; [CPU_ARAU] 
    1029                      .dwcfi  cfa_offset, -8
    1030 00000062 89A6          AND       ACC,AR6               ; [CPU_ALU] |184| 
TMS320C2000 Assembler PC v22.6.1 Wed May 21 09:51:56 2025

Copyright (c) 1996-2018 Texas Instruments Incorporated
C:\Users\Daniel\AppData\Local\Temp\{3E78D54A-297D-4D45-89F7-B8D766A9F422} PAGE   21

    1031 00000063 FF3F          LSL       ACC,16                ; [CPU_ALU] |184| 
    1032 00000064 FF5A          MOVL      P,ACC                 ; [CPU_FPU] |184| 
    1033 00000065 06A7          MOVL      ACC,XAR7              ; [CPU_FPU] |184| 
    1034 00000066 CAAB          OR        AL,PL                 ; [CPU_ALU] |184| 
    1035 00000067 CBAA          OR        AH,PH                 ; [CPU_ALU] |184| 
    1036                      .dwpsn  file "../device/driverlib/can.c",line 187,column 5,is_stmt,isa 0
    1037 00000068 1EC4          MOVL      *+XAR4[0],ACC         ; [CPU_ALU] |187| 
    1038                      .dwpsn  file "../device/driverlib/can.c",line 194,column 5,is_stmt,isa 0
    1039 00000069 7DC3          MOV       *+XAR3[0],AR5         ; [CPU_ALU] |194| 
    1040 0000006a 82BE          MOVL      XAR3,*--SP            ; [CPU_ALU] 
    1041                      .dwcfi  cfa_offset, -6
    1042                      .dwcfi  restore_reg, 11
    1043 0000006b 86BE          MOVL      XAR2,*--SP            ; [CPU_ALU] 
    1044                      .dwcfi  cfa_offset, -4
    1045                      .dwcfi  restore_reg, 9
    1046 0000006c 8BBE          MOVL      XAR1,*--SP            ; [CPU_ALU] 
    1047                      .dwcfi  cfa_offset, -2
    1048                      .dwcfi  restore_reg, 7
    1049              $C$DW$67        .dwtag  DW_TAG_TI_branch
    1050                      .dwattr $C$DW$67, DW_AT_low_pc(0x00)
    1051                      .dwattr $C$DW$67, DW_AT_TI_return
    1052              
    1053 0000006d 0006          LRETR     ; [CPU_ALU] 
    1054                      ; return occurs ; [] 
    1055                      .dwattr $C$DW$46, DW_AT_TI_end_file("../device/driverlib/can.c")
    1056                      .dwattr $C$DW$46, DW_AT_TI_end_line(0xc3)
    1057                      .dwattr $C$DW$46, DW_AT_TI_end_column(0x01)
    1058                      .dwendentry
    1059                      .dwendtag $C$DW$46
    1060              
    1061 00000000               .sect   ".text:_CAN_setBitRate"
    1062                      .clink
    1063                      .global _CAN_setBitRate
    1064              
    1065              $C$DW$68        .dwtag  DW_TAG_subprogram
    1066                      .dwattr $C$DW$68, DW_AT_name("CAN_setBitRate")
    1067                      .dwattr $C$DW$68, DW_AT_low_pc(_CAN_setBitRate)
    1068                      .dwattr $C$DW$68, DW_AT_high_pc(0x00)
    1069                      .dwattr $C$DW$68, DW_AT_TI_symbol_name("_CAN_setBitRate")
    1070                      .dwattr $C$DW$68, DW_AT_external
    1071                      .dwattr $C$DW$68, DW_AT_TI_begin_file("../device/driverlib/can.c")
    1072                      .dwattr $C$DW$68, DW_AT_TI_begin_line(0x5b)
    1073                      .dwattr $C$DW$68, DW_AT_TI_begin_column(0x01)
    1074                      .dwattr $C$DW$68, DW_AT_TI_max_frame_size(-14)
    1075                      .dwpsn  file "../device/driverlib/can.c",line 93,column 1,is_stmt,address _CAN_setBitRate,isa 0
    1076              
    1077                      .dwfde $C$DW$CIE, _CAN_setBitRate
    1078              $C$DW$69        .dwtag  DW_TAG_formal_parameter
    1079                      .dwattr $C$DW$69, DW_AT_name("base")
    1080                      .dwattr $C$DW$69, DW_AT_TI_symbol_name("_base")
    1081                      .dwattr $C$DW$69, DW_AT_type(*$C$DW$T$33)
    1082                      .dwattr $C$DW$69, DW_AT_location[DW_OP_reg0]
    1083              
    1084              $C$DW$70        .dwtag  DW_TAG_formal_parameter
    1085                      .dwattr $C$DW$70, DW_AT_name("clockFreq")
TMS320C2000 Assembler PC v22.6.1 Wed May 21 09:51:56 2025

Copyright (c) 1996-2018 Texas Instruments Incorporated
C:\Users\Daniel\AppData\Local\Temp\{3E78D54A-297D-4D45-89F7-B8D766A9F422} PAGE   22

    1086                      .dwattr $C$DW$70, DW_AT_TI_symbol_name("_clockFreq")
    1087                      .dwattr $C$DW$70, DW_AT_type(*$C$DW$T$33)
    1088                      .dwattr $C$DW$70, DW_AT_location[DW_OP_breg20 -16]
    1089              
    1090              $C$DW$71        .dwtag  DW_TAG_formal_parameter
    1091                      .dwattr $C$DW$71, DW_AT_name("bitRate")
    1092                      .dwattr $C$DW$71, DW_AT_TI_symbol_name("_bitRate")
    1093                      .dwattr $C$DW$71, DW_AT_type(*$C$DW$T$33)
    1094                      .dwattr $C$DW$71, DW_AT_location[DW_OP_breg20 -18]
    1095              
    1096              $C$DW$72        .dwtag  DW_TAG_formal_parameter
    1097                      .dwattr $C$DW$72, DW_AT_name("bitTime")
    1098                      .dwattr $C$DW$72, DW_AT_TI_symbol_name("_bitTime")
    1099                      .dwattr $C$DW$72, DW_AT_type(*$C$DW$T$39)
    1100                      .dwattr $C$DW$72, DW_AT_location[DW_OP_reg12]
    1101              
    1102              
    1103              ;***************************************************************
    1104              ;* FNAME: _CAN_setBitRate               FR SIZE:  12           *
    1105              ;*                                                             *
    1106              ;* FUNCTION ENVIRONMENT                                        *
    1107              ;*                                                             *
    1108              ;* FUNCTION PROPERTIES                                         *
    1109              ;*                            3 Parameter,  3 Auto,  6 SOE     *
    1110              ;***************************************************************
    1111              
    1112              _CAN_setBitRate:
    1113              ;* AR2   assigned to $O$C2
    1114              ;* AR3   assigned to _base
    1115              $C$DW$73        .dwtag  DW_TAG_variable
    1116                      .dwattr $C$DW$73, DW_AT_name("base")
    1117                      .dwattr $C$DW$73, DW_AT_TI_symbol_name("_base")
    1118                      .dwattr $C$DW$73, DW_AT_type(*$C$DW$T$44)
    1119                      .dwattr $C$DW$73, DW_AT_location[DW_OP_reg10]
    1120              
    1121              ;* AR2   assigned to _clockFreq
    1122              $C$DW$74        .dwtag  DW_TAG_variable
    1123                      .dwattr $C$DW$74, DW_AT_name("clockFreq")
    1124                      .dwattr $C$DW$74, DW_AT_TI_symbol_name("_clockFreq")
    1125                      .dwattr $C$DW$74, DW_AT_type(*$C$DW$T$44)
    1126                      .dwattr $C$DW$74, DW_AT_location[DW_OP_reg8]
    1127              
    1128              $C$DW$75        .dwtag  DW_TAG_variable
    1129                      .dwattr $C$DW$75, DW_AT_name("bitRate")
    1130                      .dwattr $C$DW$75, DW_AT_TI_symbol_name("_bitRate")
    1131                      .dwattr $C$DW$75, DW_AT_type(*$C$DW$T$44)
    1132                      .dwattr $C$DW$75, DW_AT_location[DW_OP_breg20 -6]
    1133              
    1134              ;* AR1   assigned to _bitTime
    1135              $C$DW$76        .dwtag  DW_TAG_variable
    1136                      .dwattr $C$DW$76, DW_AT_name("bitTime")
    1137                      .dwattr $C$DW$76, DW_AT_TI_symbol_name("_bitTime")
    1138                      .dwattr $C$DW$76, DW_AT_type(*$C$DW$T$40)
    1139                      .dwattr $C$DW$76, DW_AT_location[DW_OP_reg6]
    1140              
TMS320C2000 Assembler PC v22.6.1 Wed May 21 09:51:56 2025

Copyright (c) 1996-2018 Texas Instruments Incorporated
C:\Users\Daniel\AppData\Local\Temp\{3E78D54A-297D-4D45-89F7-B8D766A9F422} PAGE   23

    1141              ;* AR2   assigned to _brp
    1142              $C$DW$77        .dwtag  DW_TAG_variable
    1143                      .dwattr $C$DW$77, DW_AT_name("brp")
    1144                      .dwattr $C$DW$77, DW_AT_TI_symbol_name("_brp")
    1145                      .dwattr $C$DW$77, DW_AT_type(*$C$DW$T$39)
    1146                      .dwattr $C$DW$77, DW_AT_location[DW_OP_reg8]
    1147              
    1148              ;* AR1   assigned to _tPhase
    1149              $C$DW$78        .dwtag  DW_TAG_variable
    1150                      .dwattr $C$DW$78, DW_AT_name("tPhase")
    1151                      .dwattr $C$DW$78, DW_AT_TI_symbol_name("_tPhase")
    1152                      .dwattr $C$DW$78, DW_AT_type(*$C$DW$T$39)
    1153                      .dwattr $C$DW$78, DW_AT_location[DW_OP_reg6]
    1154              
    1155              ;* AL    assigned to _phaseSeg2
    1156              $C$DW$79        .dwtag  DW_TAG_variable
    1157                      .dwattr $C$DW$79, DW_AT_name("phaseSeg2")
    1158                      .dwattr $C$DW$79, DW_AT_TI_symbol_name("_phaseSeg2")
    1159                      .dwattr $C$DW$79, DW_AT_type(*$C$DW$T$39)
    1160                      .dwattr $C$DW$79, DW_AT_location[DW_OP_reg0]
    1161              
    1162              ;* AR1   assigned to _tSeg1
    1163              $C$DW$80        .dwtag  DW_TAG_variable
    1164                      .dwattr $C$DW$80, DW_AT_name("tSeg1")
    1165                      .dwattr $C$DW$80, DW_AT_TI_symbol_name("_tSeg1")
    1166                      .dwattr $C$DW$80, DW_AT_type(*$C$DW$T$39)
    1167                      .dwattr $C$DW$80, DW_AT_location[DW_OP_reg6]
    1168              
    1169              ;* AH    assigned to _tSeg2
    1170              $C$DW$81        .dwtag  DW_TAG_variable
    1171                      .dwattr $C$DW$81, DW_AT_name("tSeg2")
    1172                      .dwattr $C$DW$81, DW_AT_TI_symbol_name("_tSeg2")
    1173                      .dwattr $C$DW$81, DW_AT_type(*$C$DW$T$39)
    1174                      .dwattr $C$DW$81, DW_AT_location[DW_OP_reg1]
    1175              
    1176              ;* AL    assigned to _sjw
    1177              $C$DW$82        .dwtag  DW_TAG_variable
    1178                      .dwattr $C$DW$82, DW_AT_name("sjw")
    1179                      .dwattr $C$DW$82, DW_AT_TI_symbol_name("_sjw")
    1180                      .dwattr $C$DW$82, DW_AT_type(*$C$DW$T$39)
    1181                      .dwattr $C$DW$82, DW_AT_location[DW_OP_reg0]
    1182              
    1183                      .dwcfi  cfa_offset, -2
    1184                      .dwcfi  save_reg_to_mem, 26, 0
    1185 00000000 B2BD          MOVL      *SP++,XAR1            ; [CPU_ALU] 
    1186                      .dwcfi  save_reg_to_mem, 7, 2
    1187                      .dwcfi  cfa_offset, -4
    1188 00000001 AABD          MOVL      *SP++,XAR2            ; [CPU_ALU] 
    1189                      .dwcfi  save_reg_to_mem, 9, 4
    1190                      .dwcfi  cfa_offset, -6
    1191 00000002 A2BD          MOVL      *SP++,XAR3            ; [CPU_ALU] 
    1192                      .dwcfi  save_reg_to_mem, 11, 6
    1193                      .dwcfi  cfa_offset, -8
    1194 00000003 FE06          ADDB      SP,#6                 ; [CPU_ARAU] 
    1195                      .dwcfi  cfa_offset, -14
TMS320C2000 Assembler PC v22.6.1 Wed May 21 09:51:56 2025

Copyright (c) 1996-2018 Texas Instruments Incorporated
C:\Users\Daniel\AppData\Local\Temp\{3E78D54A-297D-4D45-89F7-B8D766A9F422} PAGE   24

    1196 00000004 59A4          MOVZ      AR1,AR4               ; [CPU_ALU] |93| 
    1197 00000005 82A9          MOVL      XAR3,ACC              ; [CPU_ALU] |93| 
    1198                      .dwpsn  file "../device/driverlib/can.c",line 108,column 5,is_stmt,isa 0
    1199 00000006 8F04          MOVL      XAR4,#294912          ; [CPU_ARAU] |108| 
         00000007 8000 
    1200                      .dwpsn  file "../device/driverlib/can.c",line 93,column 1,is_stmt,isa 0
    1201 00000008 C452          MOVL      XAR6,*-SP[18]         ; [CPU_ALU] |93| 
    1202                      .dwpsn  file "../device/driverlib/can.c",line 108,column 5,is_stmt,isa 0
    1203 00000009 A8A9          MOVL      ACC,XAR4              ; [CPU_ALU] |108| 
    1204                      .dwpsn  file "../device/driverlib/can.c",line 93,column 1,is_stmt,isa 0
    1205 0000000a 8650          MOVL      XAR2,*-SP[16]         ; [CPU_ALU] |93| 
    1206                      .dwpsn  file "../device/driverlib/can.c",line 108,column 5,is_stmt,isa 0
    1207 0000000b 0FA3          CMPL      ACC,XAR3              ; [CPU_ALU] |108| 
    1208                      .dwpsn  file "../device/driverlib/can.c",line 93,column 1,is_stmt,isa 0
    1209 0000000c C246          MOVL      *-SP[6],XAR6          ; [CPU_ALU] |93| 
    1210                      .dwpsn  file "../device/driverlib/can.c",line 108,column 5,is_stmt,isa 0
    1211 0000000d 6106          B         $C$L38,EQ             ; [CPU_ALU] |108| 
    1212                      ; branchcc occurs ; [] |108| 
    1213 0000000e 8F00+         MOVL      XAR4,#$C$FSL1         ; [CPU_ARAU] |108| 
         0000000f 0000 
    1214 00000010 026C          MOVB      ACC,#108              ; [CPU_ALU] |108| 
    1215              $C$DW$83        .dwtag  DW_TAG_TI_branch
    1216                      .dwattr $C$DW$83, DW_AT_low_pc(0x00)
    1217                      .dwattr $C$DW$83, DW_AT_name("___error__")
    1218                      .dwattr $C$DW$83, DW_AT_TI_call
    1219              
    1220 00000011 7640!         LCR       #___error__           ; [CPU_ALU] |108| 
         00000012 0000 
    1221                      ; call occurs [#___error__] ; [] |108| 
    1222 00000013       $C$L38:    
    1223 00000013 92A1          MOV       AL,AR1                ; [CPU_ALU] 
    1224                      .dwpsn  file "../device/driverlib/can.c",line 109,column 5,is_stmt,isa 0
    1225 00000014 5207          CMPB      AL,#7                 ; [CPU_ALU] |109| 
    1226 00000015 6903          B         $C$L39,LOS            ; [CPU_ALU] |109| 
    1227                      ; branchcc occurs ; [] |109| 
    1228 00000016 521A          CMPB      AL,#26                ; [CPU_ALU] |109| 
    1229 00000017 6806          B         $C$L40,LO             ; [CPU_ALU] |109| 
    1230                      ; branchcc occurs ; [] |109| 
    1231 00000018       $C$L39:    
    1232 00000018 8F00+         MOVL      XAR4,#$C$FSL1         ; [CPU_ARAU] |109| 
         00000019 0000 
    1233 0000001a 026D          MOVB      ACC,#109              ; [CPU_ALU] |109| 
    1234              $C$DW$84        .dwtag  DW_TAG_TI_branch
    1235                      .dwattr $C$DW$84, DW_AT_low_pc(0x00)
    1236                      .dwattr $C$DW$84, DW_AT_name("___error__")
    1237                      .dwattr $C$DW$84, DW_AT_TI_call
    1238              
    1239 0000001b 7640!         LCR       #___error__           ; [CPU_ALU] |109| 
         0000001c 0000 
    1240                      ; call occurs [#___error__] ; [] |109| 
    1241 0000001d       $C$L40:    
    1242                      .dwpsn  file "../device/driverlib/can.c",line 110,column 5,is_stmt,isa 0
    1243 0000001d C446          MOVL      XAR6,*-SP[6]          ; [CPU_ALU] |110| 
    1244 0000001e 8F0F          MOVL      XAR4,#1000000         ; [CPU_ARAU] |110| 
         0000001f 4240 
TMS320C2000 Assembler PC v22.6.1 Wed May 21 09:51:56 2025

Copyright (c) 1996-2018 Texas Instruments Incorporated
C:\Users\Daniel\AppData\Local\Temp\{3E78D54A-297D-4D45-89F7-B8D766A9F422} PAGE   25

    1245 00000020 A8A9          MOVL      ACC,XAR4              ; [CPU_ALU] |110| 
    1246 00000021 0FA6          CMPL      ACC,XAR6              ; [CPU_ALU] |110| 
    1247 00000022 6706          B         $C$L41,HIS            ; [CPU_ALU] |110| 
    1248                      ; branchcc occurs ; [] |110| 
    1249 00000023 8F00+         MOVL      XAR4,#$C$FSL1         ; [CPU_ARAU] |110| 
         00000024 0000 
    1250 00000025 026E          MOVB      ACC,#110              ; [CPU_ALU] |110| 
    1251              $C$DW$85        .dwtag  DW_TAG_TI_branch
    1252                      .dwattr $C$DW$85, DW_AT_low_pc(0x00)
    1253                      .dwattr $C$DW$85, DW_AT_name("___error__")
    1254                      .dwattr $C$DW$85, DW_AT_TI_call
    1255              
    1256 00000026 7640!         LCR       #___error__           ; [CPU_ALU] |110| 
         00000027 0000 
    1257                      ; call occurs [#___error__] ; [] |110| 
    1258 00000028       $C$L41:    
    1259                      .dwpsn  file "../device/driverlib/can.c",line 115,column 5,is_stmt,isa 0
    1260 00000028 0EA1          MOVU      ACC,AR1               ; [CPU_ALU] |115| 
    1261 00000029 8746          MOVL      XT,*-SP[6]            ; [CPU_ALU] |115| 
    1262 0000002a 5665          IMPYXUL   P,XT,ACC              ; [CPU_ALU] |115| 
         0000002b 00A9 
    1263 0000002c A9A6          MOVL      XAR6,P                ; [CPU_ALU] |115| 
    1264                      .dwpsn  file "../device/driverlib/can.c",line 116,column 5,is_stmt,isa 0
    1265 0000002d D983          SUBB      XAR1,#3               ; [CPU_ARAU] |116| 
    1266                      .dwpsn  file "../device/driverlib/can.c",line 115,column 5,is_stmt,isa 0
    1267 0000002e 0200          MOVB      ACC,#0                ; [CPU_ALU] |115| 
    1268 0000002f AAAB          MOVL      P,XAR2                ; [CPU_ALU] |115| 
    1269 00000030 F61F          RPT       #31
    1270 00000031 5617  ||     SUBCUL    ACC,XAR6              ; [CPU_ALU] |115| 
         00000032 00A6 
    1271                      .dwpsn  file "../device/driverlib/can.c",line 119,column 9,is_stmt,isa 0
    1272 00000033 92A1          MOV       AL,AR1                ; [CPU_ALU] |119| 
    1273                      .dwpsn  file "../device/driverlib/can.c",line 115,column 5,is_stmt,isa 0
    1274 00000034 5AAB          MOVZ      AR2,PL                ; [CPU_ALU] |115| 
    1275                      .dwpsn  file "../device/driverlib/can.c",line 119,column 9,is_stmt,isa 0
    1276 00000035 FFC0          LSR       AL,1                  ; [CPU_ALU] |119| 
    1277 00000036 5208          CMPB      AL,#8                 ; [CPU_ALU] |119| 
    1278 00000037 6604          B         $C$L42,HI             ; [CPU_ALU] |119| 
    1279                      ; branchcc occurs ; [] |119| 
    1280 00000038 92A1          MOV       AL,AR1                ; [CPU_ALU] |119| 
    1281 00000039 FFC0          LSR       AL,1                  ; [CPU_ALU] |119| 
    1282 0000003a 6F02          B         $C$L43,UNC            ; [CPU_ALU] |119| 
    1283                      ; branch occurs ; [] |119| 
    1284 0000003b       $C$L42:    
    1285 0000003b 9A08          MOVB      AL,#8                 ; [CPU_ALU] |119| 
    1286 0000003c       $C$L43:    
    1287                      .dwpsn  file "../device/driverlib/can.c",line 125,column 5,is_stmt,isa 0
    1288 0000003c 74A1          SUB       AR1,AL                ; [CPU_ALU] |125| 
    1289                      .dwpsn  file "../device/driverlib/can.c",line 126,column 5,is_stmt,isa 0
    1290 0000003d 93A9          MOV       AH,AL                 ; [CPU_ALU] |126| 
    1291 0000003e 9DFF          ADDB      AH,#-1                ; [CPU_ALU] |126| 
    1292                      .dwpsn  file "../device/driverlib/can.c",line 129,column 9,is_stmt,isa 0
    1293 0000003f 5204          CMPB      AL,#4                 ; [CPU_ALU] |129| 
    1294                      .dwpsn  file "../device/driverlib/can.c",line 125,column 5,is_stmt,isa 0
    1295 00000040 D901          ADDB      XAR1,#1               ; [CPU_ALU] |125| 
TMS320C2000 Assembler PC v22.6.1 Wed May 21 09:51:56 2025

Copyright (c) 1996-2018 Texas Instruments Incorporated
C:\Users\Daniel\AppData\Local\Temp\{3E78D54A-297D-4D45-89F7-B8D766A9F422} PAGE   26

    1296                      .dwpsn  file "../device/driverlib/can.c",line 129,column 9,is_stmt,isa 0
    1297 00000041 6903          B         $C$L44,LOS            ; [CPU_ALU] |129| 
    1298                      ; branchcc occurs ; [] |129| 
    1299 00000042 9A03          MOVB      AL,#3                 ; [CPU_ALU] |129| 
    1300 00000043 6F02          B         $C$L45,UNC            ; [CPU_ALU] |129| 
    1301                      ; branch occurs ; [] |129| 
    1302 00000044       $C$L44:    
    1303 00000044 92A8          MOV       AL,AH                 ; [CPU_ALU] |129| 
    1304 00000045       $C$L45:    
    1305                      .dwpsn  file "../device/driverlib/can.c",line 141,column 5,is_stmt,isa 0
    1306 00000045 7941          MOV       *-SP[1],AR1           ; [CPU_ALU] |141| 
    1307 00000046 DA81          SUBB      XAR2,#1               ; [CPU_ARAU] |141| 
    1308 00000047 9742          MOV       *-SP[2],AH            ; [CPU_ALU] |141| 
    1309 00000048 CDA2          AND       AH,AR2,#0x003f        ; [CPU_ALU] |141| 
         00000049 003F 
    1310 0000004a 9643          MOV       *-SP[3],AL            ; [CPU_ALU] |141| 
    1311 0000004b 5CA8          MOVZ      AR4,AH                ; [CPU_ALU] |141| 
    1312 0000004c 92A2          MOV       AL,AR2                ; [CPU_ALU] |141| 
    1313 0000004d FFC5          LSR       AL,6                  ; [CPU_ALU] |141| 
    1314 0000004e 5DA9          MOVZ      AR5,AL                ; [CPU_ALU] |141| 
    1315 0000004f A2A9          MOVL      ACC,XAR3              ; [CPU_ALU] |141| 
    1316              $C$DW$86        .dwtag  DW_TAG_TI_branch
    1317                      .dwattr $C$DW$86, DW_AT_low_pc(0x00)
    1318                      .dwattr $C$DW$86, DW_AT_name("_CAN_setBitTiming")
    1319                      .dwattr $C$DW$86, DW_AT_TI_call
    1320              
    1321 00000050 7640+         LCR       #_CAN_setBitTiming    ; [CPU_ALU] |141| 
         00000051 0000 
    1322                      ; call occurs [#_CAN_setBitTiming] ; [] |141| 
    1323 00000052 FE86          SUBB      SP,#6                 ; [CPU_ARAU] 
    1324                      .dwcfi  cfa_offset, -8
    1325 00000053 82BE          MOVL      XAR3,*--SP            ; [CPU_ALU] 
    1326                      .dwcfi  cfa_offset, -6
    1327                      .dwcfi  restore_reg, 11
    1328 00000054 86BE          MOVL      XAR2,*--SP            ; [CPU_ALU] 
    1329                      .dwcfi  cfa_offset, -4
    1330                      .dwcfi  restore_reg, 9
    1331 00000055 8BBE          MOVL      XAR1,*--SP            ; [CPU_ALU] 
    1332                      .dwcfi  cfa_offset, -2
    1333                      .dwcfi  restore_reg, 7
    1334              $C$DW$87        .dwtag  DW_TAG_TI_branch
    1335                      .dwattr $C$DW$87, DW_AT_low_pc(0x00)
    1336                      .dwattr $C$DW$87, DW_AT_TI_return
    1337              
    1338 00000056 0006          LRETR     ; [CPU_ALU] 
    1339                      ; return occurs ; [] 
    1340                      .dwattr $C$DW$68, DW_AT_TI_end_file("../device/driverlib/can.c")
    1341                      .dwattr $C$DW$68, DW_AT_TI_end_line(0x8e)
    1342                      .dwattr $C$DW$68, DW_AT_TI_end_column(0x01)
    1343                      .dwendentry
    1344                      .dwendtag $C$DW$68
    1345              
    1346 00000000               .sect   ".text:_CAN_sendRemoteRequestMessage"
    1347                      .clink
    1348                      .global _CAN_sendRemoteRequestMessage
TMS320C2000 Assembler PC v22.6.1 Wed May 21 09:51:56 2025

Copyright (c) 1996-2018 Texas Instruments Incorporated
C:\Users\Daniel\AppData\Local\Temp\{3E78D54A-297D-4D45-89F7-B8D766A9F422} PAGE   27

    1349              
    1350              $C$DW$88        .dwtag  DW_TAG_subprogram
    1351                      .dwattr $C$DW$88, DW_AT_name("CAN_sendRemoteRequestMessage")
    1352                      .dwattr $C$DW$88, DW_AT_low_pc(_CAN_sendRemoteRequestMessage)
    1353                      .dwattr $C$DW$88, DW_AT_high_pc(0x00)
    1354                      .dwattr $C$DW$88, DW_AT_TI_symbol_name("_CAN_sendRemoteRequestMessage")
    1355                      .dwattr $C$DW$88, DW_AT_external
    1356                      .dwattr $C$DW$88, DW_AT_TI_begin_file("../device/driverlib/can.c")
    1357                      .dwattr $C$DW$88, DW_AT_TI_begin_line(0x315)
    1358                      .dwattr $C$DW$88, DW_AT_TI_begin_column(0x01)
    1359                      .dwattr $C$DW$88, DW_AT_TI_max_frame_size(-8)
    1360                      .dwpsn  file "../device/driverlib/can.c",line 790,column 1,is_stmt,address _CAN_sendRemoteRequestMess
    1361              
    1362                      .dwfde $C$DW$CIE, _CAN_sendRemoteRequestMessage
    1363              $C$DW$89        .dwtag  DW_TAG_formal_parameter
    1364                      .dwattr $C$DW$89, DW_AT_name("base")
    1365                      .dwattr $C$DW$89, DW_AT_TI_symbol_name("_base")
    1366                      .dwattr $C$DW$89, DW_AT_type(*$C$DW$T$33)
    1367                      .dwattr $C$DW$89, DW_AT_location[DW_OP_reg0]
    1368              
    1369              $C$DW$90        .dwtag  DW_TAG_formal_parameter
    1370                      .dwattr $C$DW$90, DW_AT_name("objID")
    1371                      .dwattr $C$DW$90, DW_AT_TI_symbol_name("_objID")
    1372                      .dwattr $C$DW$90, DW_AT_type(*$C$DW$T$33)
    1373                      .dwattr $C$DW$90, DW_AT_location[DW_OP_breg20 -10]
    1374              
    1375              
    1376              ;***************************************************************
    1377              ;* FNAME: _CAN_sendRemoteRequestMessage FR SIZE:   6           *
    1378              ;*                                                             *
    1379              ;* FUNCTION ENVIRONMENT                                        *
    1380              ;*                                                             *
    1381              ;* FUNCTION PROPERTIES                                         *
    1382              ;*                            0 Parameter,  0 Auto,  6 SOE     *
    1383              ;***************************************************************
    1384              
    1385              _CAN_sendRemoteRequestMessage:
    1386              ;* AR2   assigned to $O$K16
    1387              ;* AR3   assigned to $O$K21
    1388              ;* AR1   assigned to _base
    1389              $C$DW$91        .dwtag  DW_TAG_variable
    1390                      .dwattr $C$DW$91, DW_AT_name("base")
    1391                      .dwattr $C$DW$91, DW_AT_TI_symbol_name("_base")
    1392                      .dwattr $C$DW$91, DW_AT_type(*$C$DW$T$44)
    1393                      .dwattr $C$DW$91, DW_AT_location[DW_OP_reg6]
    1394              
    1395              ;* AR2   assigned to _objID
    1396              $C$DW$92        .dwtag  DW_TAG_variable
    1397                      .dwattr $C$DW$92, DW_AT_name("objID")
    1398                      .dwattr $C$DW$92, DW_AT_TI_symbol_name("_objID")
    1399                      .dwattr $C$DW$92, DW_AT_type(*$C$DW$T$44)
    1400                      .dwattr $C$DW$92, DW_AT_location[DW_OP_reg8]
    1401              
    1402                      .dwcfi  cfa_offset, -2
    1403                      .dwcfi  save_reg_to_mem, 26, 0
TMS320C2000 Assembler PC v22.6.1 Wed May 21 09:51:56 2025

Copyright (c) 1996-2018 Texas Instruments Incorporated
C:\Users\Daniel\AppData\Local\Temp\{3E78D54A-297D-4D45-89F7-B8D766A9F422} PAGE   28

    1404 00000000 B2BD          MOVL      *SP++,XAR1            ; [CPU_ALU] 
    1405                      .dwcfi  save_reg_to_mem, 7, 2
    1406                      .dwcfi  cfa_offset, -4
    1407                      .dwpsn  file "../device/driverlib/can.c",line 796,column 5,is_stmt,isa 0
    1408 00000001 8F04          MOVL      XAR4,#294912          ; [CPU_ARAU] |796| 
         00000002 8000 
    1409                      .dwpsn  file "../device/driverlib/can.c",line 790,column 1,is_stmt,isa 0
    1410 00000003 8BA9          MOVL      XAR1,ACC              ; [CPU_ALU] |790| 
    1411 00000004 AABD          MOVL      *SP++,XAR2            ; [CPU_ALU] 
    1412                      .dwcfi  save_reg_to_mem, 9, 4
    1413                      .dwcfi  cfa_offset, -6
    1414                      .dwpsn  file "../device/driverlib/can.c",line 796,column 5,is_stmt,isa 0
    1415 00000005 A8A9          MOVL      ACC,XAR4              ; [CPU_ALU] |796| 
    1416 00000006 A2BD          MOVL      *SP++,XAR3            ; [CPU_ALU] 
    1417                      .dwcfi  save_reg_to_mem, 11, 6
    1418                      .dwcfi  cfa_offset, -8
    1419 00000007 0FA1          CMPL      ACC,XAR1              ; [CPU_ALU] |796| 
    1420                      .dwpsn  file "../device/driverlib/can.c",line 790,column 1,is_stmt,isa 0
    1421 00000008 864A          MOVL      XAR2,*-SP[10]         ; [CPU_FPU] |790| 
    1422                      .dwpsn  file "../device/driverlib/can.c",line 796,column 5,is_stmt,isa 0
    1423 00000009 6107          B         $C$L46,EQ             ; [CPU_ALU] |796| 
    1424                      ; branchcc occurs ; [] |796| 
    1425 0000000a FF20          MOV       ACC,#796              ; [CPU_ALU] |796| 
         0000000b 031C 
    1426 0000000c 8F00+         MOVL      XAR4,#$C$FSL1         ; [CPU_ARAU] |796| 
         0000000d 0000 
    1427              $C$DW$93        .dwtag  DW_TAG_TI_branch
    1428                      .dwattr $C$DW$93, DW_AT_low_pc(0x00)
    1429                      .dwattr $C$DW$93, DW_AT_name("___error__")
    1430                      .dwattr $C$DW$93, DW_AT_TI_call
    1431              
    1432 0000000e 7640!         LCR       #___error__           ; [CPU_ALU] |796| 
         0000000f 0000 
    1433                      ; call occurs [#___error__] ; [] |796| 
    1434 00000010       $C$L46:    
    1435                      .dwpsn  file "../device/driverlib/can.c",line 797,column 5,is_stmt,isa 0
    1436 00000010 0220          MOVB      ACC,#32               ; [CPU_ALU] |797| 
    1437 00000011 0FA2          CMPL      ACC,XAR2              ; [CPU_ALU] |797| 
    1438 00000012 6803          B         $C$L47,LO             ; [CPU_ALU] |797| 
    1439                      ; branchcc occurs ; [] |797| 
    1440 00000013 AAA9          MOVL      ACC,XAR2              ; [CPU_ALU] 
    1441 00000014 6007          B         $C$L48,NEQ            ; [CPU_ALU] |797| 
    1442                      ; branchcc occurs ; [] |797| 
    1443 00000015       $C$L47:    
    1444 00000015 FF20          MOV       ACC,#797              ; [CPU_ALU] |797| 
         00000016 031D 
    1445 00000017 8F00+         MOVL      XAR4,#$C$FSL1         ; [CPU_ARAU] |797| 
         00000018 0000 
    1446              $C$DW$94        .dwtag  DW_TAG_TI_branch
    1447                      .dwattr $C$DW$94, DW_AT_low_pc(0x00)
    1448                      .dwattr $C$DW$94, DW_AT_name("___error__")
    1449                      .dwattr $C$DW$94, DW_AT_TI_call
    1450              
    1451 00000019 7640!         LCR       #___error__           ; [CPU_ALU] |797| 
         0000001a 0000 
TMS320C2000 Assembler PC v22.6.1 Wed May 21 09:51:56 2025

Copyright (c) 1996-2018 Texas Instruments Incorporated
C:\Users\Daniel\AppData\Local\Temp\{3E78D54A-297D-4D45-89F7-B8D766A9F422} PAGE   29

    1452                      ; call occurs [#___error__] ; [] |797| 
    1453 0000001b       $C$L48:    
    1454                      .dwpsn  file "../device/driverlib/can.c",line 805,column 5,is_stmt,isa 0
    1455 0000001b AAA9          MOVL      ACC,XAR2              ; [CPU_ALU] |805| 
    1456 0000001c 9B00          MOVB      AH,#0                 ; [CPU_ALU] |805| 
    1457 0000001d 90FF          ANDB      AL,#0xff              ; [CPU_ALU] |805| 
    1458 0000001e FF5A          MOVL      P,ACC                 ; [CPU_ALU] |805| 
    1459 0000001f 86A9          MOVL      XAR2,ACC              ; [CPU_ALU] |805| 
    1460 00000020 B2A9          MOVL      ACC,XAR1              ; [CPU_ALU] |805| 
    1461 00000021 FF18          ADD       ACC,#1 << 8           ; [CPU_ALU] |805| 
         00000022 0001 
    1462 00000023 8AA9          MOVL      XAR4,ACC              ; [CPU_ALU] |805| 
    1463 00000024 1AAA          OR        PH,#16                ; [CPU_ALU] |805| 
         00000025 0010 
    1464                      .dwpsn  file "../device/driverlib/can.c",line 811,column 11,is_stmt,isa 0
    1465 00000026 8D00          MOVL      XAR0,#256             ; [CPU_FPU] |811| 
         00000027 0100 
    1466                      .dwpsn  file "../device/driverlib/can.c",line 805,column 5,is_stmt,isa 0
    1467 00000028 A9C4          MOVL      *+XAR4[0],P           ; [CPU_ALU] |805| 
    1468 00000029       $C$L49:    
    1469                      .dwpsn  file "../device/driverlib/can.c",line 811,column 11,is_stmt,isa 0
    1470 00000029 B2A9          MOVL      ACC,XAR1              ; [CPU_ALU] |811| 
    1471 0000002a FF18          ADD       ACC,#1 << 8           ; [CPU_ALU] |811| 
         0000002b 0001 
    1472 0000002c 4F91          TBIT      *+XAR1[AR0],#15       ; [CPU_ALU] |811| 
    1473 0000002d 82A9          MOVL      XAR3,ACC              ; [CPU_FPU] |811| 
    1474 0000002e 6DFB          B         $C$L49,TC             ; [CPU_ALU] |811| 
    1475                      ; branchcc occurs ; [] |811| 
    1476                      .dwpsn  file "../device/driverlib/can.c",line 818,column 5,is_stmt,isa 0
    1477 0000002f 8D00          MOVL      XAR0,#268             ; [CPU_ALU] |818| 
         00000030 010C 
    1478 00000031 0E91          MOVU      ACC,*+XAR1[AR0]       ; [CPU_ALU] |818| 
    1479                      .dwpsn  file "../device/driverlib/can.c",line 823,column 5,is_stmt,isa 0
    1480 00000032 9B00          MOVB      AH,#0                 ; [CPU_ALU] |823| 
    1481 00000033 900F          ANDB      AL,#0x0f              ; [CPU_ALU] |823| 
    1482 00000034 FF58          TEST      ACC                   ; [CPU_ALU] |823| 
    1483 00000035 6107          B         $C$L50,EQ             ; [CPU_ALU] |823| 
    1484                      ; branchcc occurs ; [] |823| 
    1485 00000036 FF20          MOV       ACC,#823              ; [CPU_ALU] |823| 
         00000037 0337 
    1486 00000038 8F00+         MOVL      XAR4,#$C$FSL1         ; [CPU_ARAU] |823| 
         00000039 0000 
    1487              $C$DW$95        .dwtag  DW_TAG_TI_branch
    1488                      .dwattr $C$DW$95, DW_AT_low_pc(0x00)
    1489                      .dwattr $C$DW$95, DW_AT_name("___error__")
    1490                      .dwattr $C$DW$95, DW_AT_TI_call
    1491              
    1492 0000003a 7640!         LCR       #___error__           ; [CPU_ALU] |823| 
         0000003b 0000 
    1493                      ; call occurs [#___error__] ; [] |823| 
    1494 0000003c       $C$L50:    
    1495                      .dwpsn  file "../device/driverlib/can.c",line 833,column 5,is_stmt,isa 0
    1496 0000003c AAA9          MOVL      ACC,XAR2              ; [CPU_ALU] |833| 
    1497 0000003d 5184          OR        AH,#132               ; [CPU_ALU] |833| 
    1498 0000003e 1EC3          MOVL      *+XAR3[0],ACC         ; [CPU_ALU] |833| 
TMS320C2000 Assembler PC v22.6.1 Wed May 21 09:51:56 2025

Copyright (c) 1996-2018 Texas Instruments Incorporated
C:\Users\Daniel\AppData\Local\Temp\{3E78D54A-297D-4D45-89F7-B8D766A9F422} PAGE   30

    1499 0000003f 82BE          MOVL      XAR3,*--SP            ; [CPU_ALU] 
    1500                      .dwcfi  cfa_offset, -6
    1501                      .dwcfi  restore_reg, 11
    1502 00000040 86BE          MOVL      XAR2,*--SP            ; [CPU_ALU] 
    1503                      .dwcfi  cfa_offset, -4
    1504                      .dwcfi  restore_reg, 9
    1505 00000041 8BBE          MOVL      XAR1,*--SP            ; [CPU_ALU] 
    1506                      .dwcfi  cfa_offset, -2
    1507                      .dwcfi  restore_reg, 7
    1508              $C$DW$96        .dwtag  DW_TAG_TI_branch
    1509                      .dwattr $C$DW$96, DW_AT_low_pc(0x00)
    1510                      .dwattr $C$DW$96, DW_AT_TI_return
    1511              
    1512 00000042 0006          LRETR     ; [CPU_ALU] 
    1513                      ; return occurs ; [] 
    1514                      .dwattr $C$DW$88, DW_AT_TI_end_file("../device/driverlib/can.c")
    1515                      .dwattr $C$DW$88, DW_AT_TI_end_line(0x344)
    1516                      .dwattr $C$DW$88, DW_AT_TI_end_column(0x01)
    1517                      .dwendentry
    1518                      .dwendtag $C$DW$88
    1519              
    1520 00000000               .sect   ".text:_CAN_sendMessage_updateDLC"
    1521                      .clink
    1522                      .global _CAN_sendMessage_updateDLC
    1523              
    1524              $C$DW$97        .dwtag  DW_TAG_subprogram
    1525                      .dwattr $C$DW$97, DW_AT_name("CAN_sendMessage_updateDLC")
    1526                      .dwattr $C$DW$97, DW_AT_low_pc(_CAN_sendMessage_updateDLC)
    1527                      .dwattr $C$DW$97, DW_AT_high_pc(0x00)
    1528                      .dwattr $C$DW$97, DW_AT_TI_symbol_name("_CAN_sendMessage_updateDLC")
    1529                      .dwattr $C$DW$97, DW_AT_external
    1530                      .dwattr $C$DW$97, DW_AT_TI_begin_file("../device/driverlib/can.c")
    1531                      .dwattr $C$DW$97, DW_AT_TI_begin_line(0x29d)
    1532                      .dwattr $C$DW$97, DW_AT_TI_begin_column(0x01)
    1533                      .dwattr $C$DW$97, DW_AT_TI_max_frame_size(-16)
    1534                      .dwpsn  file "../device/driverlib/can.c",line 671,column 1,is_stmt,address _CAN_sendMessage_updateDLC
    1535              
    1536                      .dwfde $C$DW$CIE, _CAN_sendMessage_updateDLC
    1537              $C$DW$98        .dwtag  DW_TAG_formal_parameter
    1538                      .dwattr $C$DW$98, DW_AT_name("base")
    1539                      .dwattr $C$DW$98, DW_AT_TI_symbol_name("_base")
    1540                      .dwattr $C$DW$98, DW_AT_type(*$C$DW$T$33)
    1541                      .dwattr $C$DW$98, DW_AT_location[DW_OP_reg0]
    1542              
    1543              $C$DW$99        .dwtag  DW_TAG_formal_parameter
    1544                      .dwattr $C$DW$99, DW_AT_name("objID")
    1545                      .dwattr $C$DW$99, DW_AT_TI_symbol_name("_objID")
    1546                      .dwattr $C$DW$99, DW_AT_type(*$C$DW$T$33)
    1547                      .dwattr $C$DW$99, DW_AT_location[DW_OP_breg20 -18]
    1548              
    1549              $C$DW$100       .dwtag  DW_TAG_formal_parameter
    1550                      .dwattr $C$DW$100, DW_AT_name("msgLen")
    1551                      .dwattr $C$DW$100, DW_AT_TI_symbol_name("_msgLen")
    1552                      .dwattr $C$DW$100, DW_AT_type(*$C$DW$T$39)
    1553                      .dwattr $C$DW$100, DW_AT_location[DW_OP_reg14]
TMS320C2000 Assembler PC v22.6.1 Wed May 21 09:51:56 2025

Copyright (c) 1996-2018 Texas Instruments Incorporated
C:\Users\Daniel\AppData\Local\Temp\{3E78D54A-297D-4D45-89F7-B8D766A9F422} PAGE   31

    1554              
    1555              $C$DW$101       .dwtag  DW_TAG_formal_parameter
    1556                      .dwattr $C$DW$101, DW_AT_name("msgData")
    1557                      .dwattr $C$DW$101, DW_AT_TI_symbol_name("_msgData")
    1558                      .dwattr $C$DW$101, DW_AT_type(*$C$DW$T$41)
    1559                      .dwattr $C$DW$101, DW_AT_location[DW_OP_reg12]
    1560              
    1561              
    1562              ;***************************************************************
    1563              ;* FNAME: _CAN_sendMessage_updateDLC    FR SIZE:  14           *
    1564              ;*                                                             *
    1565              ;* FUNCTION ENVIRONMENT                                        *
    1566              ;*                                                             *
    1567              ;* FUNCTION PROPERTIES                                         *
    1568              ;*                            0 Parameter,  8 Auto,  6 SOE     *
    1569              ;***************************************************************
    1570              
    1571              _CAN_sendMessage_updateDLC:
    1572              ;* AR4   assigned to $O$C2
    1573              ;* AR4   assigned to _msgCtrl
    1574              $C$DW$102       .dwtag  DW_TAG_variable
    1575                      .dwattr $C$DW$102, DW_AT_name("msgCtrl")
    1576                      .dwattr $C$DW$102, DW_AT_TI_symbol_name("_msgCtrl")
    1577                      .dwattr $C$DW$102, DW_AT_type(*$C$DW$T$33)
    1578                      .dwattr $C$DW$102, DW_AT_location[DW_OP_reg12]
    1579              
    1580              ;* AR7   assigned to _msgCtrl
    1581              $C$DW$103       .dwtag  DW_TAG_variable
    1582                      .dwattr $C$DW$103, DW_AT_name("msgCtrl")
    1583                      .dwattr $C$DW$103, DW_AT_TI_symbol_name("_msgCtrl")
    1584                      .dwattr $C$DW$103, DW_AT_type(*$C$DW$T$33)
    1585                      .dwattr $C$DW$103, DW_AT_location[DW_OP_reg18]
    1586              
    1587              ;* AR2   assigned to $O$K27
    1588              ;* PL    assigned to $O$K24
    1589              ;* AR4   assigned to $O$U56
    1590              ;* AR5   assigned to _idx
    1591              $C$DW$104       .dwtag  DW_TAG_variable
    1592                      .dwattr $C$DW$104, DW_AT_name("idx")
    1593                      .dwattr $C$DW$104, DW_AT_TI_symbol_name("_idx")
    1594                      .dwattr $C$DW$104, DW_AT_type(*$C$DW$T$11)
    1595                      .dwattr $C$DW$104, DW_AT_location[DW_OP_reg14]
    1596              
    1597              ;* AR1   assigned to _base
    1598              $C$DW$105       .dwtag  DW_TAG_variable
    1599                      .dwattr $C$DW$105, DW_AT_name("base")
    1600                      .dwattr $C$DW$105, DW_AT_TI_symbol_name("_base")
    1601                      .dwattr $C$DW$105, DW_AT_type(*$C$DW$T$44)
    1602                      .dwattr $C$DW$105, DW_AT_location[DW_OP_reg6]
    1603              
    1604              ;* AR2   assigned to _objID
    1605              $C$DW$106       .dwtag  DW_TAG_variable
    1606                      .dwattr $C$DW$106, DW_AT_name("objID")
    1607                      .dwattr $C$DW$106, DW_AT_TI_symbol_name("_objID")
    1608                      .dwattr $C$DW$106, DW_AT_type(*$C$DW$T$44)
TMS320C2000 Assembler PC v22.6.1 Wed May 21 09:51:56 2025

Copyright (c) 1996-2018 Texas Instruments Incorporated
C:\Users\Daniel\AppData\Local\Temp\{3E78D54A-297D-4D45-89F7-B8D766A9F422} PAGE   32

    1609                      .dwattr $C$DW$106, DW_AT_location[DW_OP_reg8]
    1610              
    1611              $C$DW$107       .dwtag  DW_TAG_variable
    1612                      .dwattr $C$DW$107, DW_AT_name("msgLen")
    1613                      .dwattr $C$DW$107, DW_AT_TI_symbol_name("_msgLen")
    1614                      .dwattr $C$DW$107, DW_AT_type(*$C$DW$T$40)
    1615                      .dwattr $C$DW$107, DW_AT_location[DW_OP_breg20 -1]
    1616              
    1617              $C$DW$108       .dwtag  DW_TAG_variable
    1618                      .dwattr $C$DW$108, DW_AT_name("msgData")
    1619                      .dwattr $C$DW$108, DW_AT_TI_symbol_name("_msgData")
    1620                      .dwattr $C$DW$108, DW_AT_type(*$C$DW$T$42)
    1621                      .dwattr $C$DW$108, DW_AT_location[DW_OP_breg20 -8]
    1622              
    1623              $C$DW$109       .dwtag  DW_TAG_variable
    1624                      .dwattr $C$DW$109, DW_AT_name("size")
    1625                      .dwattr $C$DW$109, DW_AT_TI_symbol_name("_size")
    1626                      .dwattr $C$DW$109, DW_AT_type(*$C$DW$T$33)
    1627                      .dwattr $C$DW$109, DW_AT_location[DW_OP_breg20 -6]
    1628              
    1629              ;* AR3   assigned to _dataReg
    1630              $C$DW$110       .dwtag  DW_TAG_variable
    1631                      .dwattr $C$DW$110, DW_AT_name("dataReg")
    1632                      .dwattr $C$DW$110, DW_AT_TI_symbol_name("_dataReg")
    1633                      .dwattr $C$DW$110, DW_AT_type(*$C$DW$T$33)
    1634                      .dwattr $C$DW$110, DW_AT_location[DW_OP_reg10]
    1635              
    1636                      .dwcfi  cfa_offset, -2
    1637                      .dwcfi  save_reg_to_mem, 26, 0
    1638 00000000 B2BD          MOVL      *SP++,XAR1            ; [CPU_ALU] 
    1639                      .dwcfi  save_reg_to_mem, 7, 2
    1640                      .dwcfi  cfa_offset, -4
    1641 00000001 AABD          MOVL      *SP++,XAR2            ; [CPU_ALU] 
    1642                      .dwcfi  save_reg_to_mem, 9, 4
    1643                      .dwcfi  cfa_offset, -6
    1644 00000002 A2BD          MOVL      *SP++,XAR3            ; [CPU_ALU] 
    1645                      .dwcfi  save_reg_to_mem, 11, 6
    1646                      .dwcfi  cfa_offset, -8
    1647 00000003 FE08          ADDB      SP,#8                 ; [CPU_ARAU] 
    1648                      .dwcfi  cfa_offset, -16
    1649 00000004 8BA9          MOVL      XAR1,ACC              ; [CPU_ALU] |671| 
    1650 00000005 A848          MOVL      *-SP[8],XAR4          ; [CPU_ALU] |671| 
    1651                      .dwpsn  file "../device/driverlib/can.c",line 677,column 5,is_stmt,isa 0
    1652 00000006 8F04          MOVL      XAR4,#294912          ; [CPU_ARAU] |677| 
         00000007 8000 
    1653                      .dwpsn  file "../device/driverlib/can.c",line 671,column 1,is_stmt,isa 0
    1654 00000008 7D41          MOV       *-SP[1],AR5           ; [CPU_ALU] |671| 
    1655 00000009 8652          MOVL      XAR2,*-SP[18]         ; [CPU_ALU] |671| 
    1656                      .dwpsn  file "../device/driverlib/can.c",line 677,column 5,is_stmt,isa 0
    1657 0000000a A8A9          MOVL      ACC,XAR4              ; [CPU_ALU] |677| 
    1658 0000000b 0FA1          CMPL      ACC,XAR1              ; [CPU_ALU] |677| 
    1659 0000000c 6107          B         $C$L51,EQ             ; [CPU_ALU] |677| 
    1660                      ; branchcc occurs ; [] |677| 
    1661 0000000d FF20          MOV       ACC,#677              ; [CPU_ALU] |677| 
         0000000e 02A5 
TMS320C2000 Assembler PC v22.6.1 Wed May 21 09:51:56 2025

Copyright (c) 1996-2018 Texas Instruments Incorporated
C:\Users\Daniel\AppData\Local\Temp\{3E78D54A-297D-4D45-89F7-B8D766A9F422} PAGE   33

    1662 0000000f 8F00+         MOVL      XAR4,#$C$FSL1         ; [CPU_ARAU] |677| 
         00000010 0000 
    1663              $C$DW$111       .dwtag  DW_TAG_TI_branch
    1664                      .dwattr $C$DW$111, DW_AT_low_pc(0x00)
    1665                      .dwattr $C$DW$111, DW_AT_name("___error__")
    1666                      .dwattr $C$DW$111, DW_AT_TI_call
    1667              
    1668 00000011 7640!         LCR       #___error__           ; [CPU_ALU] |677| 
         00000012 0000 
    1669                      ; call occurs [#___error__] ; [] |677| 
    1670 00000013       $C$L51:    
    1671                      .dwpsn  file "../device/driverlib/can.c",line 678,column 5,is_stmt,isa 0
    1672 00000013 0220          MOVB      ACC,#32               ; [CPU_ALU] |678| 
    1673 00000014 0FA2          CMPL      ACC,XAR2              ; [CPU_ALU] |678| 
    1674 00000015 6803          B         $C$L52,LO             ; [CPU_ALU] |678| 
    1675                      ; branchcc occurs ; [] |678| 
    1676 00000016 AAA9          MOVL      ACC,XAR2              ; [CPU_ALU] 
    1677 00000017 6007          B         $C$L53,NEQ            ; [CPU_ALU] |678| 
    1678                      ; branchcc occurs ; [] |678| 
    1679 00000018       $C$L52:    
    1680 00000018 FF20          MOV       ACC,#678              ; [CPU_ALU] |678| 
         00000019 02A6 
    1681 0000001a 8F00+         MOVL      XAR4,#$C$FSL1         ; [CPU_ARAU] |678| 
         0000001b 0000 
    1682              $C$DW$112       .dwtag  DW_TAG_TI_branch
    1683                      .dwattr $C$DW$112, DW_AT_low_pc(0x00)
    1684                      .dwattr $C$DW$112, DW_AT_name("___error__")
    1685                      .dwattr $C$DW$112, DW_AT_TI_call
    1686              
    1687 0000001c 7640!         LCR       #___error__           ; [CPU_ALU] |678| 
         0000001d 0000 
    1688                      ; call occurs [#___error__] ; [] |678| 
    1689 0000001e       $C$L53:    
    1690 0000001e 9241          MOV       AL,*-SP[1]            ; [CPU_ALU] 
    1691                      .dwpsn  file "../device/driverlib/can.c",line 679,column 5,is_stmt,isa 0
    1692 0000001f 5208          CMPB      AL,#8                 ; [CPU_ALU] |679| 
    1693 00000020 6907          B         $C$L54,LOS            ; [CPU_ALU] |679| 
    1694                      ; branchcc occurs ; [] |679| 
    1695 00000021 FF20          MOV       ACC,#679              ; [CPU_ALU] |679| 
         00000022 02A7 
    1696 00000023 8F00+         MOVL      XAR4,#$C$FSL1         ; [CPU_ARAU] |679| 
         00000024 0000 
    1697              $C$DW$113       .dwtag  DW_TAG_TI_branch
    1698                      .dwattr $C$DW$113, DW_AT_low_pc(0x00)
    1699                      .dwattr $C$DW$113, DW_AT_name("___error__")
    1700                      .dwattr $C$DW$113, DW_AT_TI_call
    1701              
    1702 00000025 7640!         LCR       #___error__           ; [CPU_ALU] |679| 
         00000026 0000 
    1703                      ; call occurs [#___error__] ; [] |679| 
    1704 00000027       $C$L54:    
    1705 00000027 AAA9          MOVL      ACC,XAR2              ; [CPU_ALU] 
    1706                      .dwpsn  file "../device/driverlib/can.c",line 687,column 5,is_stmt,isa 0
    1707 00000028 9B00          MOVB      AH,#0                 ; [CPU_ALU] |687| 
    1708 00000029 90FF          ANDB      AL,#0xff              ; [CPU_ALU] |687| 
TMS320C2000 Assembler PC v22.6.1 Wed May 21 09:51:56 2025

Copyright (c) 1996-2018 Texas Instruments Incorporated
C:\Users\Daniel\AppData\Local\Temp\{3E78D54A-297D-4D45-89F7-B8D766A9F422} PAGE   34

    1709 0000002a 1E44          MOVL      *-SP[4],ACC           ; [CPU_ALU] |687| 
    1710 0000002b 5110          OR        AH,#16                ; [CPU_ALU] |687| 
    1711 0000002c FF5A          MOVL      P,ACC                 ; [CPU_ALU] |687| 
    1712 0000002d B2A9          MOVL      ACC,XAR1              ; [CPU_ALU] |687| 
    1713 0000002e FF18          ADD       ACC,#1 << 8           ; [CPU_ALU] |687| 
         0000002f 0001 
    1714 00000030 8AA9          MOVL      XAR4,ACC              ; [CPU_ALU] |687| 
    1715                      .dwpsn  file "../device/driverlib/can.c",line 693,column 11,is_stmt,isa 0
    1716 00000031 8D00          MOVL      XAR0,#256             ; [CPU_ALU] |693| 
         00000032 0100 
    1717                      .dwpsn  file "../device/driverlib/can.c",line 687,column 5,is_stmt,isa 0
    1718 00000033 A9C4          MOVL      *+XAR4[0],P           ; [CPU_ALU] |687| 
    1719 00000034       $C$L55:    
    1720                      .dwpsn  file "../device/driverlib/can.c",line 693,column 11,is_stmt,isa 0
    1721 00000034 B2A9          MOVL      ACC,XAR1              ; [CPU_ALU] |693| 
    1722 00000035 FF18          ADD       ACC,#1 << 8           ; [CPU_ALU] |693| 
         00000036 0001 
    1723 00000037 4F91          TBIT      *+XAR1[AR0],#15       ; [CPU_ALU] |693| 
    1724 00000038 86A9          MOVL      XAR2,ACC              ; [CPU_FPU] |693| 
    1725 00000039 6DFB          B         $C$L55,TC             ; [CPU_ALU] |693| 
    1726                      ; branchcc occurs ; [] |693| 
    1727                      .dwpsn  file "../device/driverlib/can.c",line 700,column 5,is_stmt,isa 0
    1728 0000003a B2A9          MOVL      ACC,XAR1              ; [CPU_ALU] |700| 
    1729 0000003b FF12          ADD       ACC,#67 << 2          ; [CPU_ALU] |700| 
         0000003c 0043 
    1730 0000003d 8AA9          MOVL      XAR4,ACC              ; [CPU_ALU] |700| 
    1731 0000003e 80C4          MOVZ      AR7,*+XAR4[0]         ; [CPU_ALU] |700| 
    1732 0000003f 06A7          MOVL      ACC,XAR7              ; [CPU_ALU] |700| 
    1733                      .dwpsn  file "../device/driverlib/can.c",line 705,column 5,is_stmt,isa 0
    1734 00000040 18A9          AND       AL,#65520             ; [CPU_ALU] |705| 
         00000041 FFF0 
    1735 00000042 9100          ANDB      AH,#0                 ; [CPU_ALU] |705| 
    1736 00000043 1EA7          MOVL      XAR7,ACC              ; [CPU_ALU] |705| 
    1737 00000044 9241          MOV       AL,*-SP[1]            ; [CPU_ALU] |705| 
    1738                      .dwpsn  file "../device/driverlib/can.c",line 706,column 5,is_stmt,isa 0
    1739 00000045 900F          ANDB      AL,#15                ; [CPU_ALU] |706| 
    1740 00000046 88A9          MOVZ      AR6,AL                ; [CPU_ALU] |706| 
    1741 00000047 06A7          MOVL      ACC,XAR7              ; [CPU_ALU] |706| 
    1742 00000048 AFA6          OR        ACC,AR6               ; [CPU_ALU] |706| 
    1743                      .dwpsn  file "../device/driverlib/can.c",line 711,column 5,is_stmt,isa 0
    1744 00000049 1EC4          MOVL      *+XAR4[0],ACC         ; [CPU_ALU] |711| 
    1745 0000004a 0644          MOVL      ACC,*-SP[4]           ; [CPU_ALU] |711| 
    1746                      .dwpsn  file "../device/driverlib/can.c",line 716,column 5,is_stmt,isa 0
    1747 0000004b 5190          OR        AH,#144               ; [CPU_ALU] |716| 
    1748 0000004c 1EC2          MOVL      *+XAR2[0],ACC         ; [CPU_ALU] |716| 
    1749 0000004d       $C$L56:    
    1750                      .dwpsn  file "../device/driverlib/can.c",line 722,column 11,is_stmt,isa 0
    1751 0000004d 4FC2          TBIT      *+XAR2[0],#15         ; [CPU_ALU] |722| 
    1752 0000004e 6DFF          B         $C$L56,TC             ; [CPU_ALU] |722| 
    1753                      ; branchcc occurs ; [] |722| 
    1754                      .dwpsn  file "../device/driverlib/can.c",line 732,column 5,is_stmt,isa 0
    1755 0000004f A9C2          MOVL      *+XAR2[0],P           ; [CPU_ALU] |732| 
    1756 00000050       $C$L57:    
    1757                      .dwpsn  file "../device/driverlib/can.c",line 738,column 11,is_stmt,isa 0
    1758 00000050 4FC2          TBIT      *+XAR2[0],#15         ; [CPU_ALU] |738| 
TMS320C2000 Assembler PC v22.6.1 Wed May 21 09:51:56 2025

Copyright (c) 1996-2018 Texas Instruments Incorporated
C:\Users\Daniel\AppData\Local\Temp\{3E78D54A-297D-4D45-89F7-B8D766A9F422} PAGE   35

    1759 00000051 6DFF          B         $C$L57,TC             ; [CPU_ALU] |738| 
    1760                      ; branchcc occurs ; [] |738| 
    1761                      .dwpsn  file "../device/driverlib/can.c",line 745,column 5,is_stmt,isa 0
    1762 00000052 8D00          MOVL      XAR0,#268             ; [CPU_ALU] |745| 
         00000053 010C 
    1763 00000054 0E91          MOVU      ACC,*+XAR1[AR0]       ; [CPU_ALU] |745| 
    1764                      .dwpsn  file "../device/driverlib/can.c",line 750,column 5,is_stmt,isa 0
    1765 00000055 8841          MOVZ      AR6,*-SP[1]           ; [CPU_ALU] |750| 
    1766 00000056 9B00          MOVB      AH,#0                 ; [CPU_ALU] |750| 
    1767 00000057 900F          ANDB      AL,#0x0f              ; [CPU_ALU] |750| 
    1768 00000058 1EA7          MOVL      XAR7,ACC              ; [CPU_ALU] |750| 
    1769 00000059 1E46          MOVL      *-SP[6],ACC           ; [CPU_ALU] |750| 
    1770 0000005a 0EA6          MOVU      ACC,AR6               ; [CPU_ALU] |750| 
    1771 0000005b 0FA7          CMPL      ACC,XAR7              ; [CPU_ALU] |750| 
    1772 0000005c 6107          B         $C$L58,EQ             ; [CPU_ALU] |750| 
    1773                      ; branchcc occurs ; [] |750| 
    1774 0000005d FF20          MOV       ACC,#750              ; [CPU_ALU] |750| 
         0000005e 02EE 
    1775 0000005f 8F00+         MOVL      XAR4,#$C$FSL1         ; [CPU_ARAU] |750| 
         00000060 0000 
    1776              $C$DW$114       .dwtag  DW_TAG_TI_branch
    1777                      .dwattr $C$DW$114, DW_AT_low_pc(0x00)
    1778                      .dwattr $C$DW$114, DW_AT_name("___error__")
    1779                      .dwattr $C$DW$114, DW_AT_TI_call
    1780              
    1781 00000061 7640!         LCR       #___error__           ; [CPU_ALU] |750| 
         00000062 0000 
    1782                      ; call occurs [#___error__] ; [] |750| 
    1783 00000063       $C$L58:    
    1784                      .dwpsn  file "..\device\driverlib\can.h",line 344,column 22,is_stmt,isa 0
    1785 00000063 B2A9          MOVL      ACC,XAR1              ; [CPU_ALU] |344| 
    1786 00000064 3B01          SETC      SXM                   ; [CPU_ALU] 
    1787 00000065 FF14          ADD       ACC,#17 << 4          ; [CPU_ALU] |344| 
         00000066 0011 
    1788 00000067 82A9          MOVL      XAR3,ACC              ; [CPU_ALU] |344| 
    1789                      .dwpsn  file "..\device\driverlib\can.h",line 349,column 5,is_stmt,isa 0
    1790 00000068 FF24          MOV       ACC,#-17 << 4         ; [CPU_ALU] |349| 
         00000069 FFEF 
    1791 0000006a 0FA1          CMPL      ACC,XAR1              ; [CPU_ALU] |349| 
    1792 0000006b 6007          B         $C$L59,NEQ            ; [CPU_ALU] |349| 
    1793                      ; branchcc occurs ; [] |349| 
    1794 0000006c FF20          MOV       ACC,#349              ; [CPU_ALU] |349| 
         0000006d 015D 
    1795 0000006e 8F00+         MOVL      XAR4,#$C$FSL2         ; [CPU_ARAU] |349| 
         0000006f 001A 
    1796              $C$DW$115       .dwtag  DW_TAG_TI_branch
    1797                      .dwattr $C$DW$115, DW_AT_low_pc(0x00)
    1798                      .dwattr $C$DW$115, DW_AT_name("___error__")
    1799                      .dwattr $C$DW$115, DW_AT_TI_call
    1800              
    1801 00000070 7640!         LCR       #___error__           ; [CPU_ALU] |349| 
         00000071 0000 
    1802                      ; call occurs [#___error__] ; [] |349| 
    1803 00000072       $C$L59:    
    1804 00000072 0646          MOVL      ACC,*-SP[6]           ; [CPU_ALU] 
TMS320C2000 Assembler PC v22.6.1 Wed May 21 09:51:56 2025

Copyright (c) 1996-2018 Texas Instruments Incorporated
C:\Users\Daniel\AppData\Local\Temp\{3E78D54A-297D-4D45-89F7-B8D766A9F422} PAGE   36

    1805                      .dwpsn  file "..\device\driverlib\can.h",line 354,column 19,is_stmt,isa 0
    1806 00000073 610B          B         $C$L61,EQ             ; [CPU_ALU] |354| 
    1807                      ; branchcc occurs ; [] |354| 
    1808 00000074 8A48          MOVL      XAR4,*-SP[8]          ; [CPU_ALU] 
    1809 00000075 D500          MOVB      XAR5,#0               ; [CPU_ALU] 
    1810 00000076       $C$L60:    
    1811 00000076 DD01          ADDB      XAR5,#1               ; [CPU_ALU] |354| 
    1812                      .dwpsn  file "..\device\driverlib\can.h",line 359,column 9,is_stmt,isa 0
    1813 00000077 9284          MOV       AL,*XAR4++            ; [CPU_FPU] |359| 
    1814                      .dwpsn  file "..\device\driverlib\can.h",line 354,column 19,is_stmt,isa 0
    1815 00000078 88A5          MOVZ      AR6,AR5               ; [CPU_ALU] |354| 
    1816                      .dwpsn  file "..\device\driverlib\can.h",line 359,column 9,is_stmt,isa 0
    1817 00000079 3CC3          MOVB      *+XAR3[0],AL.LSB      ; [CPU_ALU] |359| 
    1818                      .dwpsn  file "..\device\driverlib\can.h",line 361,column 9,is_stmt,isa 0
    1819 0000007a 0646          MOVL      ACC,*-SP[6]           ; [CPU_ALU] |361| 
    1820 0000007b DB01          ADDB      XAR3,#1               ; [CPU_ALU] |361| 
    1821                      .dwpsn  file "..\device\driverlib\can.h",line 354,column 19,is_stmt,isa 0
    1822 0000007c 0FA6          CMPL      ACC,XAR6              ; [CPU_ALU] |354| 
    1823 0000007d 66F9          B         $C$L60,HI             ; [CPU_ALU] |354| 
    1824                      ; branchcc occurs ; [] |354| 
    1825 0000007e       $C$L61:    
    1826 0000007e 9241          MOV       AL,*-SP[1]            ; [CPU_ALU] 
    1827                      .dwpsn  file "../device/driverlib/can.c",line 763,column 9,is_stmt,isa 0
    1828 0000007f 6104          B         $C$L62,EQ             ; [CPU_ALU] |763| 
    1829                      ; branchcc occurs ; [] |763| 
    1830 00000080 8F03          MOVL      XAR4,#196608          ; [CPU_ARAU] |763| 
         00000081 0000 
    1831 00000082 6F02          B         $C$L63,UNC            ; [CPU_ALU] |763| 
    1832                      ; branch occurs ; [] |763| 
    1833 00000083       $C$L62:    
    1834 00000083 D400          MOVB      XAR4,#0               ; [CPU_ALU] |763| 
    1835 00000084       $C$L63:    
    1836                      .dwpsn  file "../device/driverlib/can.c",line 778,column 5,is_stmt,isa 0
    1837 00000084 A8A9          MOVL      ACC,XAR4              ; [CPU_ALU] |778| 
    1838 00000085 A344          MOVL      P,*-SP[4]             ; [CPU_ALU] |778| 
    1839 00000086 CBAA          OR        AH,PH                 ; [CPU_ALU] |778| 
    1840 00000087 CAAB          OR        AL,PL                 ; [CPU_ALU] |778| 
    1841 00000088 FE88          SUBB      SP,#8                 ; [CPU_ARAU] 
    1842                      .dwcfi  cfa_offset, -8
    1843 00000089 5184          OR        AH,#132               ; [CPU_ALU] |778| 
    1844 0000008a 1EC2          MOVL      *+XAR2[0],ACC         ; [CPU_ALU] |778| 
    1845 0000008b 82BE          MOVL      XAR3,*--SP            ; [CPU_ALU] 
    1846                      .dwcfi  cfa_offset, -6
    1847                      .dwcfi  restore_reg, 11
    1848 0000008c 86BE          MOVL      XAR2,*--SP            ; [CPU_ALU] 
    1849                      .dwcfi  cfa_offset, -4
    1850                      .dwcfi  restore_reg, 9
    1851 0000008d 8BBE          MOVL      XAR1,*--SP            ; [CPU_ALU] 
    1852                      .dwcfi  cfa_offset, -2
    1853                      .dwcfi  restore_reg, 7
    1854              $C$DW$116       .dwtag  DW_TAG_TI_branch
    1855                      .dwattr $C$DW$116, DW_AT_low_pc(0x00)
    1856                      .dwattr $C$DW$116, DW_AT_TI_return
    1857              
    1858 0000008e 0006          LRETR     ; [CPU_ALU] 
TMS320C2000 Assembler PC v22.6.1 Wed May 21 09:51:56 2025

Copyright (c) 1996-2018 Texas Instruments Incorporated
C:\Users\Daniel\AppData\Local\Temp\{3E78D54A-297D-4D45-89F7-B8D766A9F422} PAGE   37

    1859                      ; return occurs ; [] 
    1860                      .dwattr $C$DW$97, DW_AT_TI_end_file("../device/driverlib/can.c")
    1861                      .dwattr $C$DW$97, DW_AT_TI_end_line(0x30d)
    1862                      .dwattr $C$DW$97, DW_AT_TI_end_column(0x01)
    1863                      .dwendentry
    1864                      .dwendtag $C$DW$97
    1865              
    1866 00000000               .sect   ".text:_CAN_sendMessage_32bit"
    1867                      .clink
    1868                      .global _CAN_sendMessage_32bit
    1869              
    1870              $C$DW$117       .dwtag  DW_TAG_subprogram
    1871                      .dwattr $C$DW$117, DW_AT_name("CAN_sendMessage_32bit")
    1872                      .dwattr $C$DW$117, DW_AT_low_pc(_CAN_sendMessage_32bit)
    1873                      .dwattr $C$DW$117, DW_AT_high_pc(0x00)
    1874                      .dwattr $C$DW$117, DW_AT_TI_symbol_name("_CAN_sendMessage_32bit")
    1875                      .dwattr $C$DW$117, DW_AT_external
    1876                      .dwattr $C$DW$117, DW_AT_TI_begin_file("../device/driverlib/can.c")
    1877                      .dwattr $C$DW$117, DW_AT_TI_begin_line(0x252)
    1878                      .dwattr $C$DW$117, DW_AT_TI_begin_column(0x01)
    1879                      .dwattr $C$DW$117, DW_AT_TI_max_frame_size(-16)
    1880                      .dwpsn  file "../device/driverlib/can.c",line 596,column 1,is_stmt,address _CAN_sendMessage_32bit,isa
    1881              
    1882                      .dwfde $C$DW$CIE, _CAN_sendMessage_32bit
    1883              $C$DW$118       .dwtag  DW_TAG_formal_parameter
    1884                      .dwattr $C$DW$118, DW_AT_name("base")
    1885                      .dwattr $C$DW$118, DW_AT_TI_symbol_name("_base")
    1886                      .dwattr $C$DW$118, DW_AT_type(*$C$DW$T$33)
    1887                      .dwattr $C$DW$118, DW_AT_location[DW_OP_reg0]
    1888              
    1889              $C$DW$119       .dwtag  DW_TAG_formal_parameter
    1890                      .dwattr $C$DW$119, DW_AT_name("objID")
    1891                      .dwattr $C$DW$119, DW_AT_TI_symbol_name("_objID")
    1892                      .dwattr $C$DW$119, DW_AT_type(*$C$DW$T$33)
    1893                      .dwattr $C$DW$119, DW_AT_location[DW_OP_breg20 -18]
    1894              
    1895              $C$DW$120       .dwtag  DW_TAG_formal_parameter
    1896                      .dwattr $C$DW$120, DW_AT_name("msgLen")
    1897                      .dwattr $C$DW$120, DW_AT_TI_symbol_name("_msgLen")
    1898                      .dwattr $C$DW$120, DW_AT_type(*$C$DW$T$39)
    1899                      .dwattr $C$DW$120, DW_AT_location[DW_OP_reg14]
    1900              
    1901              $C$DW$121       .dwtag  DW_TAG_formal_parameter
    1902                      .dwattr $C$DW$121, DW_AT_name("msgData")
    1903                      .dwattr $C$DW$121, DW_AT_TI_symbol_name("_msgData")
    1904                      .dwattr $C$DW$121, DW_AT_type(*$C$DW$T$45)
    1905                      .dwattr $C$DW$121, DW_AT_location[DW_OP_reg12]
    1906              
    1907              
    1908              ;***************************************************************
    1909              ;* FNAME: _CAN_sendMessage_32bit        FR SIZE:  14           *
    1910              ;*                                                             *
    1911              ;* FUNCTION ENVIRONMENT                                        *
    1912              ;*                                                             *
    1913              ;* FUNCTION PROPERTIES                                         *
TMS320C2000 Assembler PC v22.6.1 Wed May 21 09:51:56 2025

Copyright (c) 1996-2018 Texas Instruments Incorporated
C:\Users\Daniel\AppData\Local\Temp\{3E78D54A-297D-4D45-89F7-B8D766A9F422} PAGE   38

    1914              ;*                            0 Parameter,  8 Auto,  6 SOE     *
    1915              ;***************************************************************
    1916              
    1917              _CAN_sendMessage_32bit:
    1918              ;* AR4   assigned to _msgCtrl
    1919              $C$DW$122       .dwtag  DW_TAG_variable
    1920                      .dwattr $C$DW$122, DW_AT_name("msgCtrl")
    1921                      .dwattr $C$DW$122, DW_AT_TI_symbol_name("_msgCtrl")
    1922                      .dwattr $C$DW$122, DW_AT_type(*$C$DW$T$33)
    1923                      .dwattr $C$DW$122, DW_AT_location[DW_OP_reg12]
    1924              
    1925              ;* AR6   assigned to $O$U59
    1926              ;* AR5   assigned to _idx
    1927              $C$DW$123       .dwtag  DW_TAG_variable
    1928                      .dwattr $C$DW$123, DW_AT_name("idx")
    1929                      .dwattr $C$DW$123, DW_AT_TI_symbol_name("_idx")
    1930                      .dwattr $C$DW$123, DW_AT_type(*$C$DW$T$11)
    1931                      .dwattr $C$DW$123, DW_AT_location[DW_OP_reg14]
    1932              
    1933              ;* AR1   assigned to _base
    1934              $C$DW$124       .dwtag  DW_TAG_variable
    1935                      .dwattr $C$DW$124, DW_AT_name("base")
    1936                      .dwattr $C$DW$124, DW_AT_TI_symbol_name("_base")
    1937                      .dwattr $C$DW$124, DW_AT_type(*$C$DW$T$44)
    1938                      .dwattr $C$DW$124, DW_AT_location[DW_OP_reg6]
    1939              
    1940              ;* AR2   assigned to _objID
    1941              $C$DW$125       .dwtag  DW_TAG_variable
    1942                      .dwattr $C$DW$125, DW_AT_name("objID")
    1943                      .dwattr $C$DW$125, DW_AT_TI_symbol_name("_objID")
    1944                      .dwattr $C$DW$125, DW_AT_type(*$C$DW$T$44)
    1945                      .dwattr $C$DW$125, DW_AT_location[DW_OP_reg8]
    1946              
    1947              $C$DW$126       .dwtag  DW_TAG_variable
    1948                      .dwattr $C$DW$126, DW_AT_name("msgLen")
    1949                      .dwattr $C$DW$126, DW_AT_TI_symbol_name("_msgLen")
    1950                      .dwattr $C$DW$126, DW_AT_type(*$C$DW$T$40)
    1951                      .dwattr $C$DW$126, DW_AT_location[DW_OP_breg20 -1]
    1952              
    1953              ;* AR3   assigned to _msgData
    1954              $C$DW$127       .dwtag  DW_TAG_variable
    1955                      .dwattr $C$DW$127, DW_AT_name("msgData")
    1956                      .dwattr $C$DW$127, DW_AT_TI_symbol_name("_msgData")
    1957                      .dwattr $C$DW$127, DW_AT_type(*$C$DW$T$46)
    1958                      .dwattr $C$DW$127, DW_AT_location[DW_OP_reg10]
    1959              
    1960              $C$DW$128       .dwtag  DW_TAG_variable
    1961                      .dwattr $C$DW$128, DW_AT_name("size")
    1962                      .dwattr $C$DW$128, DW_AT_TI_symbol_name("_size")
    1963                      .dwattr $C$DW$128, DW_AT_type(*$C$DW$T$33)
    1964                      .dwattr $C$DW$128, DW_AT_location[DW_OP_breg20 -4]
    1965              
    1966              ;* AR2   assigned to _dataReg
    1967              $C$DW$129       .dwtag  DW_TAG_variable
    1968                      .dwattr $C$DW$129, DW_AT_name("dataReg")
TMS320C2000 Assembler PC v22.6.1 Wed May 21 09:51:56 2025

Copyright (c) 1996-2018 Texas Instruments Incorporated
C:\Users\Daniel\AppData\Local\Temp\{3E78D54A-297D-4D45-89F7-B8D766A9F422} PAGE   39

    1969                      .dwattr $C$DW$129, DW_AT_TI_symbol_name("_dataReg")
    1970                      .dwattr $C$DW$129, DW_AT_type(*$C$DW$T$33)
    1971                      .dwattr $C$DW$129, DW_AT_location[DW_OP_reg8]
    1972              
    1973                      .dwcfi  cfa_offset, -2
    1974                      .dwcfi  save_reg_to_mem, 26, 0
    1975 00000000 B2BD          MOVL      *SP++,XAR1            ; [CPU_ALU] 
    1976                      .dwcfi  save_reg_to_mem, 7, 2
    1977                      .dwcfi  cfa_offset, -4
    1978 00000001 AABD          MOVL      *SP++,XAR2            ; [CPU_ALU] 
    1979                      .dwcfi  save_reg_to_mem, 9, 4
    1980                      .dwcfi  cfa_offset, -6
    1981 00000002 A2BD          MOVL      *SP++,XAR3            ; [CPU_ALU] 
    1982                      .dwcfi  save_reg_to_mem, 11, 6
    1983                      .dwcfi  cfa_offset, -8
    1984 00000003 FE08          ADDB      SP,#8                 ; [CPU_ARAU] 
    1985                      .dwcfi  cfa_offset, -16
    1986 00000004 82A4          MOVL      XAR3,XAR4             ; [CPU_ALU] |596| 
    1987 00000005 8BA9          MOVL      XAR1,ACC              ; [CPU_ALU] |596| 
    1988                      .dwpsn  file "../device/driverlib/can.c",line 602,column 5,is_stmt,isa 0
    1989 00000006 8F04          MOVL      XAR4,#294912          ; [CPU_ARAU] |602| 
         00000007 8000 
    1990                      .dwpsn  file "../device/driverlib/can.c",line 596,column 1,is_stmt,isa 0
    1991 00000008 7D41          MOV       *-SP[1],AR5           ; [CPU_ALU] |596| 
    1992                      .dwpsn  file "../device/driverlib/can.c",line 602,column 5,is_stmt,isa 0
    1993 00000009 A8A9          MOVL      ACC,XAR4              ; [CPU_ALU] |602| 
    1994                      .dwpsn  file "../device/driverlib/can.c",line 596,column 1,is_stmt,isa 0
    1995 0000000a 8652          MOVL      XAR2,*-SP[18]         ; [CPU_ALU] |596| 
    1996                      .dwpsn  file "../device/driverlib/can.c",line 602,column 5,is_stmt,isa 0
    1997 0000000b 0FA1          CMPL      ACC,XAR1              ; [CPU_ALU] |602| 
    1998 0000000c 6107          B         $C$L64,EQ             ; [CPU_ALU] |602| 
    1999                      ; branchcc occurs ; [] |602| 
    2000 0000000d FF20          MOV       ACC,#602              ; [CPU_ALU] |602| 
         0000000e 025A 
    2001 0000000f 8F00+         MOVL      XAR4,#$C$FSL1         ; [CPU_ARAU] |602| 
         00000010 0000 
    2002              $C$DW$130       .dwtag  DW_TAG_TI_branch
    2003                      .dwattr $C$DW$130, DW_AT_low_pc(0x00)
    2004                      .dwattr $C$DW$130, DW_AT_name("___error__")
    2005                      .dwattr $C$DW$130, DW_AT_TI_call
    2006              
    2007 00000011 7640!         LCR       #___error__           ; [CPU_ALU] |602| 
         00000012 0000 
    2008                      ; call occurs [#___error__] ; [] |602| 
    2009 00000013       $C$L64:    
    2010                      .dwpsn  file "../device/driverlib/can.c",line 603,column 5,is_stmt,isa 0
    2011 00000013 0220          MOVB      ACC,#32               ; [CPU_ALU] |603| 
    2012 00000014 0FA2          CMPL      ACC,XAR2              ; [CPU_ALU] |603| 
    2013 00000015 6803          B         $C$L65,LO             ; [CPU_ALU] |603| 
    2014                      ; branchcc occurs ; [] |603| 
    2015 00000016 AAA9          MOVL      ACC,XAR2              ; [CPU_ALU] 
    2016 00000017 6007          B         $C$L66,NEQ            ; [CPU_ALU] |603| 
    2017                      ; branchcc occurs ; [] |603| 
    2018 00000018       $C$L65:    
    2019 00000018 FF20          MOV       ACC,#603              ; [CPU_ALU] |603| 
TMS320C2000 Assembler PC v22.6.1 Wed May 21 09:51:56 2025

Copyright (c) 1996-2018 Texas Instruments Incorporated
C:\Users\Daniel\AppData\Local\Temp\{3E78D54A-297D-4D45-89F7-B8D766A9F422} PAGE   40

         00000019 025B 
    2020 0000001a 8F00+         MOVL      XAR4,#$C$FSL1         ; [CPU_ARAU] |603| 
         0000001b 0000 
    2021              $C$DW$131       .dwtag  DW_TAG_TI_branch
    2022                      .dwattr $C$DW$131, DW_AT_low_pc(0x00)
    2023                      .dwattr $C$DW$131, DW_AT_name("___error__")
    2024                      .dwattr $C$DW$131, DW_AT_TI_call
    2025              
    2026 0000001c 7640!         LCR       #___error__           ; [CPU_ALU] |603| 
         0000001d 0000 
    2027                      ; call occurs [#___error__] ; [] |603| 
    2028 0000001e       $C$L66:    
    2029 0000001e 9241          MOV       AL,*-SP[1]            ; [CPU_ALU] 
    2030                      .dwpsn  file "../device/driverlib/can.c",line 604,column 5,is_stmt,isa 0
    2031 0000001f 5208          CMPB      AL,#8                 ; [CPU_ALU] |604| 
    2032 00000020 6907          B         $C$L67,LOS            ; [CPU_ALU] |604| 
    2033                      ; branchcc occurs ; [] |604| 
    2034 00000021 FF20          MOV       ACC,#604              ; [CPU_ALU] |604| 
         00000022 025C 
    2035 00000023 8F00+         MOVL      XAR4,#$C$FSL1         ; [CPU_ARAU] |604| 
         00000024 0000 
    2036              $C$DW$132       .dwtag  DW_TAG_TI_branch
    2037                      .dwattr $C$DW$132, DW_AT_low_pc(0x00)
    2038                      .dwattr $C$DW$132, DW_AT_name("___error__")
    2039                      .dwattr $C$DW$132, DW_AT_TI_call
    2040              
    2041 00000025 7640!         LCR       #___error__           ; [CPU_ALU] |604| 
         00000026 0000 
    2042                      ; call occurs [#___error__] ; [] |604| 
    2043 00000027       $C$L67:    
    2044 00000027 AAA9          MOVL      ACC,XAR2              ; [CPU_ALU] 
    2045                      .dwpsn  file "../device/driverlib/can.c",line 612,column 5,is_stmt,isa 0
    2046 00000028 9B00          MOVB      AH,#0                 ; [CPU_ALU] |612| 
    2047 00000029 90FF          ANDB      AL,#0xff              ; [CPU_ALU] |612| 
    2048 0000002a 1E46          MOVL      *-SP[6],ACC           ; [CPU_ALU] |612| 
    2049 0000002b FF5A          MOVL      P,ACC                 ; [CPU_ALU] |612| 
    2050 0000002c B2A9          MOVL      ACC,XAR1              ; [CPU_ALU] |612| 
    2051 0000002d FF18          ADD       ACC,#1 << 8           ; [CPU_ALU] |612| 
         0000002e 0001 
    2052 0000002f 8AA9          MOVL      XAR4,ACC              ; [CPU_ALU] |612| 
    2053 00000030 1AAA          OR        PH,#16                ; [CPU_ALU] |612| 
         00000031 0010 
    2054                      .dwpsn  file "../device/driverlib/can.c",line 618,column 11,is_stmt,isa 0
    2055 00000032 8D00          MOVL      XAR0,#256             ; [CPU_FPU] |618| 
         00000033 0100 
    2056                      .dwpsn  file "../device/driverlib/can.c",line 612,column 5,is_stmt,isa 0
    2057 00000034 A9C4          MOVL      *+XAR4[0],P           ; [CPU_ALU] |612| 
    2058 00000035       $C$L68:    
    2059                      .dwpsn  file "../device/driverlib/can.c",line 618,column 11,is_stmt,isa 0
    2060 00000035 B2A9          MOVL      ACC,XAR1              ; [CPU_ALU] |618| 
    2061 00000036 FF18          ADD       ACC,#1 << 8           ; [CPU_ALU] |618| 
         00000037 0001 
    2062 00000038 4F91          TBIT      *+XAR1[AR0],#15       ; [CPU_ALU] |618| 
    2063 00000039 1E48          MOVL      *-SP[8],ACC           ; [CPU_FPU] |618| 
    2064 0000003a 6DFB          B         $C$L68,TC             ; [CPU_ALU] |618| 
TMS320C2000 Assembler PC v22.6.1 Wed May 21 09:51:56 2025

Copyright (c) 1996-2018 Texas Instruments Incorporated
C:\Users\Daniel\AppData\Local\Temp\{3E78D54A-297D-4D45-89F7-B8D766A9F422} PAGE   41

    2065                      ; branchcc occurs ; [] |618| 
    2066                      .dwpsn  file "../device/driverlib/can.c",line 625,column 5,is_stmt,isa 0
    2067 0000003b 8D00          MOVL      XAR0,#268             ; [CPU_ALU] |625| 
         0000003c 010C 
    2068 0000003d 0E91          MOVU      ACC,*+XAR1[AR0]       ; [CPU_ALU] |625| 
    2069                      .dwpsn  file "../device/driverlib/can.c",line 630,column 5,is_stmt,isa 0
    2070 0000003e 8841          MOVZ      AR6,*-SP[1]           ; [CPU_ALU] |630| 
    2071 0000003f 9B00          MOVB      AH,#0                 ; [CPU_ALU] |630| 
    2072 00000040 900F          ANDB      AL,#0x0f              ; [CPU_ALU] |630| 
    2073 00000041 1EA7          MOVL      XAR7,ACC              ; [CPU_ALU] |630| 
    2074 00000042 1E44          MOVL      *-SP[4],ACC           ; [CPU_ALU] |630| 
    2075 00000043 0EA6          MOVU      ACC,AR6               ; [CPU_ALU] |630| 
    2076 00000044 0FA7          CMPL      ACC,XAR7              ; [CPU_ALU] |630| 
    2077 00000045 6107          B         $C$L69,EQ             ; [CPU_ALU] |630| 
    2078                      ; branchcc occurs ; [] |630| 
    2079 00000046 FF20          MOV       ACC,#630              ; [CPU_ALU] |630| 
         00000047 0276 
    2080 00000048 8F00+         MOVL      XAR4,#$C$FSL1         ; [CPU_ARAU] |630| 
         00000049 0000 
    2081              $C$DW$133       .dwtag  DW_TAG_TI_branch
    2082                      .dwattr $C$DW$133, DW_AT_low_pc(0x00)
    2083                      .dwattr $C$DW$133, DW_AT_name("___error__")
    2084                      .dwattr $C$DW$133, DW_AT_TI_call
    2085              
    2086 0000004a 7640!         LCR       #___error__           ; [CPU_ALU] |630| 
         0000004b 0000 
    2087                      ; call occurs [#___error__] ; [] |630| 
    2088 0000004c       $C$L69:    
    2089                      .dwpsn  file "..\device\driverlib\can.h",line 441,column 22,is_stmt,isa 0
    2090 0000004c B2A9          MOVL      ACC,XAR1              ; [CPU_ALU] |441| 
    2091 0000004d 3B01          SETC      SXM                   ; [CPU_ALU] 
    2092 0000004e FF14          ADD       ACC,#17 << 4          ; [CPU_ALU] |441| 
         0000004f 0011 
    2093 00000050 86A9          MOVL      XAR2,ACC              ; [CPU_ALU] |441| 
    2094                      .dwpsn  file "..\device\driverlib\can.h",line 446,column 5,is_stmt,isa 0
    2095 00000051 FF24          MOV       ACC,#-17 << 4         ; [CPU_ALU] |446| 
         00000052 FFEF 
    2096 00000053 0FA1          CMPL      ACC,XAR1              ; [CPU_ALU] |446| 
    2097 00000054 6007          B         $C$L70,NEQ            ; [CPU_ALU] |446| 
    2098                      ; branchcc occurs ; [] |446| 
    2099 00000055 FF20          MOV       ACC,#446              ; [CPU_ALU] |446| 
         00000056 01BE 
    2100 00000057 8F00+         MOVL      XAR4,#$C$FSL2         ; [CPU_ARAU] |446| 
         00000058 001A 
    2101              $C$DW$134       .dwtag  DW_TAG_TI_branch
    2102                      .dwattr $C$DW$134, DW_AT_low_pc(0x00)
    2103                      .dwattr $C$DW$134, DW_AT_name("___error__")
    2104                      .dwattr $C$DW$134, DW_AT_TI_call
    2105              
    2106 00000059 7640!         LCR       #___error__           ; [CPU_ALU] |446| 
         0000005a 0000 
    2107                      ; call occurs [#___error__] ; [] |446| 
    2108 0000005b       $C$L70:    
    2109 0000005b 0644          MOVL      ACC,*-SP[4]           ; [CPU_ALU] 
    2110                      .dwpsn  file "..\device\driverlib\can.h",line 451,column 19,is_stmt,isa 0
TMS320C2000 Assembler PC v22.6.1 Wed May 21 09:51:56 2025

Copyright (c) 1996-2018 Texas Instruments Incorporated
C:\Users\Daniel\AppData\Local\Temp\{3E78D54A-297D-4D45-89F7-B8D766A9F422} PAGE   42

    2111 0000005c 6118          B         $C$L72,EQ             ; [CPU_ALU] |451| 
    2112                      ; branchcc occurs ; [] |451| 
    2113 0000005d BE00          MOVB      XAR6,#0               ; [CPU_ALU] 
    2114 0000005e 5DA6          MOVZ      AR5,AR6               ; [CPU_ALU] 
    2115 0000005f 2901          CLRC      SXM                   ; [CPU_ALU] 
    2116 00000060       $C$L71:    
    2117                      .dwpsn  file "..\device\driverlib\can.h",line 456,column 9,is_stmt,isa 0
    2118 00000060 0EA5          MOVU      ACC,AR5               ; [CPU_ALU] |456| 
    2119 00000061 FF41          SFR       ACC,2                 ; [CPU_ALU] |456| 
    2120 00000062 FF30          LSL       ACC,1                 ; [CPU_ALU] |456| 
    2121 00000063 07A3          ADDL      ACC,XAR3              ; [CPU_ALU] |456| 
    2122 00000064 8AA9          MOVL      XAR4,ACC              ; [CPU_ALU] |456| 
    2123 00000065 CCA6          AND       AL,AR6,#0x001f        ; [CPU_ALU] |456| 
         00000066 001F 
    2124 00000067 2DA9          MOV       T,AL                  ; [CPU_ALU] |456| 
    2125 00000068 06C4          MOVL      ACC,*+XAR4[0]         ; [CPU_ALU] |456| 
    2126 00000069 5622          LSRL      ACC,T                 ; [CPU_ALU] |456| 
    2127 0000006a 1EA7          MOVL      XAR7,ACC              ; [CPU_ALU] |456| 
    2128                      .dwpsn  file "..\device\driverlib\can.h",line 451,column 19,is_stmt,isa 0
    2129 0000006b DD01          ADDB      XAR5,#1               ; [CPU_ALU] |451| 
    2130                      .dwpsn  file "..\device\driverlib\can.h",line 456,column 9,is_stmt,isa 0
    2131 0000006c 92A7          MOV       AL,AR7                ; [CPU_FPU] |456| 
    2132 0000006d 3CC2          MOVB      *+XAR2[0],AL.LSB      ; [CPU_FPU] |456| 
    2133                      .dwpsn  file "..\device\driverlib\can.h",line 451,column 19,is_stmt,isa 0
    2134 0000006e 80A5          MOVZ      AR7,AR5               ; [CPU_ALU] |451| 
    2135 0000006f DE08          ADDB      XAR6,#8               ; [CPU_ALU] |451| 
    2136                      .dwpsn  file "..\device\driverlib\can.h",line 458,column 9,is_stmt,isa 0
    2137 00000070 0644          MOVL      ACC,*-SP[4]           ; [CPU_FPU] |458| 
    2138 00000071 DA01          ADDB      XAR2,#1               ; [CPU_ALU] |458| 
    2139                      .dwpsn  file "..\device\driverlib\can.h",line 451,column 19,is_stmt,isa 0
    2140 00000072 0FA7          CMPL      ACC,XAR7              ; [CPU_ALU] |451| 
    2141 00000073 66ED          B         $C$L71,HI             ; [CPU_ALU] |451| 
    2142                      ; branchcc occurs ; [] |451| 
    2143 00000074       $C$L72:    
    2144 00000074 9241          MOV       AL,*-SP[1]            ; [CPU_ALU] 
    2145                      .dwpsn  file "../device/driverlib/can.c",line 643,column 9,is_stmt,isa 0
    2146 00000075 6104          B         $C$L73,EQ             ; [CPU_ALU] |643| 
    2147                      ; branchcc occurs ; [] |643| 
    2148 00000076 8F03          MOVL      XAR4,#196608          ; [CPU_ARAU] |643| 
         00000077 0000 
    2149 00000078 6F02          B         $C$L74,UNC            ; [CPU_ALU] |643| 
    2150                      ; branch occurs ; [] |643| 
    2151 00000079       $C$L73:    
    2152 00000079 D400          MOVB      XAR4,#0               ; [CPU_ALU] |643| 
    2153 0000007a       $C$L74:    
    2154                      .dwpsn  file "../device/driverlib/can.c",line 658,column 5,is_stmt,isa 0
    2155 0000007a A8A9          MOVL      ACC,XAR4              ; [CPU_ALU] |658| 
    2156 0000007b A346          MOVL      P,*-SP[6]             ; [CPU_ALU] |658| 
    2157 0000007c 8A48          MOVL      XAR4,*-SP[8]          ; [CPU_ALU] |658| 
    2158 0000007d CBAA          OR        AH,PH                 ; [CPU_ALU] |658| 
    2159 0000007e CAAB          OR        AL,PL                 ; [CPU_ALU] |658| 
    2160 0000007f 5184          OR        AH,#132               ; [CPU_ALU] |658| 
    2161 00000080 FE88          SUBB      SP,#8                 ; [CPU_ARAU] 
    2162                      .dwcfi  cfa_offset, -8
    2163 00000081 1EC4          MOVL      *+XAR4[0],ACC         ; [CPU_ALU] |658| 
TMS320C2000 Assembler PC v22.6.1 Wed May 21 09:51:56 2025

Copyright (c) 1996-2018 Texas Instruments Incorporated
C:\Users\Daniel\AppData\Local\Temp\{3E78D54A-297D-4D45-89F7-B8D766A9F422} PAGE   43

    2164 00000082 82BE          MOVL      XAR3,*--SP            ; [CPU_ALU] 
    2165                      .dwcfi  cfa_offset, -6
    2166                      .dwcfi  restore_reg, 11
    2167 00000083 86BE          MOVL      XAR2,*--SP            ; [CPU_ALU] 
    2168                      .dwcfi  cfa_offset, -4
    2169                      .dwcfi  restore_reg, 9
    2170 00000084 8BBE          MOVL      XAR1,*--SP            ; [CPU_ALU] 
    2171                      .dwcfi  cfa_offset, -2
    2172                      .dwcfi  restore_reg, 7
    2173              $C$DW$135       .dwtag  DW_TAG_TI_branch
    2174                      .dwattr $C$DW$135, DW_AT_low_pc(0x00)
    2175                      .dwattr $C$DW$135, DW_AT_TI_return
    2176              
    2177 00000085 0006          LRETR     ; [CPU_ALU] 
    2178                      ; return occurs ; [] 
    2179                      .dwattr $C$DW$117, DW_AT_TI_end_file("../device/driverlib/can.c")
    2180                      .dwattr $C$DW$117, DW_AT_TI_end_line(0x295)
    2181                      .dwattr $C$DW$117, DW_AT_TI_end_column(0x01)
    2182                      .dwendentry
    2183                      .dwendtag $C$DW$117
    2184              
    2185 00000000               .sect   ".text:_CAN_sendMessage_16bit"
    2186                      .clink
    2187                      .global _CAN_sendMessage_16bit
    2188              
    2189              $C$DW$136       .dwtag  DW_TAG_subprogram
    2190                      .dwattr $C$DW$136, DW_AT_name("CAN_sendMessage_16bit")
    2191                      .dwattr $C$DW$136, DW_AT_low_pc(_CAN_sendMessage_16bit)
    2192                      .dwattr $C$DW$136, DW_AT_high_pc(0x00)
    2193                      .dwattr $C$DW$136, DW_AT_TI_symbol_name("_CAN_sendMessage_16bit")
    2194                      .dwattr $C$DW$136, DW_AT_external
    2195                      .dwattr $C$DW$136, DW_AT_TI_begin_file("../device/driverlib/can.c")
    2196                      .dwattr $C$DW$136, DW_AT_TI_begin_line(0x207)
    2197                      .dwattr $C$DW$136, DW_AT_TI_begin_column(0x01)
    2198                      .dwattr $C$DW$136, DW_AT_TI_max_frame_size(-16)
    2199                      .dwpsn  file "../device/driverlib/can.c",line 521,column 1,is_stmt,address _CAN_sendMessage_16bit,isa
    2200              
    2201                      .dwfde $C$DW$CIE, _CAN_sendMessage_16bit
    2202              $C$DW$137       .dwtag  DW_TAG_formal_parameter
    2203                      .dwattr $C$DW$137, DW_AT_name("base")
    2204                      .dwattr $C$DW$137, DW_AT_TI_symbol_name("_base")
    2205                      .dwattr $C$DW$137, DW_AT_type(*$C$DW$T$33)
    2206                      .dwattr $C$DW$137, DW_AT_location[DW_OP_reg0]
    2207              
    2208              $C$DW$138       .dwtag  DW_TAG_formal_parameter
    2209                      .dwattr $C$DW$138, DW_AT_name("objID")
    2210                      .dwattr $C$DW$138, DW_AT_TI_symbol_name("_objID")
    2211                      .dwattr $C$DW$138, DW_AT_type(*$C$DW$T$33)
    2212                      .dwattr $C$DW$138, DW_AT_location[DW_OP_breg20 -18]
    2213              
    2214              $C$DW$139       .dwtag  DW_TAG_formal_parameter
    2215                      .dwattr $C$DW$139, DW_AT_name("msgLen")
    2216                      .dwattr $C$DW$139, DW_AT_TI_symbol_name("_msgLen")
    2217                      .dwattr $C$DW$139, DW_AT_type(*$C$DW$T$39)
    2218                      .dwattr $C$DW$139, DW_AT_location[DW_OP_reg14]
TMS320C2000 Assembler PC v22.6.1 Wed May 21 09:51:56 2025

Copyright (c) 1996-2018 Texas Instruments Incorporated
C:\Users\Daniel\AppData\Local\Temp\{3E78D54A-297D-4D45-89F7-B8D766A9F422} PAGE   44

    2219              
    2220              $C$DW$140       .dwtag  DW_TAG_formal_parameter
    2221                      .dwattr $C$DW$140, DW_AT_name("msgData")
    2222                      .dwattr $C$DW$140, DW_AT_TI_symbol_name("_msgData")
    2223                      .dwattr $C$DW$140, DW_AT_type(*$C$DW$T$41)
    2224                      .dwattr $C$DW$140, DW_AT_location[DW_OP_reg12]
    2225              
    2226              
    2227              ;***************************************************************
    2228              ;* FNAME: _CAN_sendMessage_16bit        FR SIZE:  14           *
    2229              ;*                                                             *
    2230              ;* FUNCTION ENVIRONMENT                                        *
    2231              ;*                                                             *
    2232              ;* FUNCTION PROPERTIES                                         *
    2233              ;*                            0 Parameter,  8 Auto,  6 SOE     *
    2234              ;***************************************************************
    2235              
    2236              _CAN_sendMessage_16bit:
    2237              ;* AR4   assigned to _msgCtrl
    2238              $C$DW$141       .dwtag  DW_TAG_variable
    2239                      .dwattr $C$DW$141, DW_AT_name("msgCtrl")
    2240                      .dwattr $C$DW$141, DW_AT_TI_symbol_name("_msgCtrl")
    2241                      .dwattr $C$DW$141, DW_AT_type(*$C$DW$T$33)
    2242                      .dwattr $C$DW$141, DW_AT_location[DW_OP_reg12]
    2243              
    2244              ;* AR6   assigned to $O$U56
    2245              ;* AR5   assigned to _idx
    2246              $C$DW$142       .dwtag  DW_TAG_variable
    2247                      .dwattr $C$DW$142, DW_AT_name("idx")
    2248                      .dwattr $C$DW$142, DW_AT_TI_symbol_name("_idx")
    2249                      .dwattr $C$DW$142, DW_AT_type(*$C$DW$T$11)
    2250                      .dwattr $C$DW$142, DW_AT_location[DW_OP_reg14]
    2251              
    2252              ;* AR1   assigned to _base
    2253              $C$DW$143       .dwtag  DW_TAG_variable
    2254                      .dwattr $C$DW$143, DW_AT_name("base")
    2255                      .dwattr $C$DW$143, DW_AT_TI_symbol_name("_base")
    2256                      .dwattr $C$DW$143, DW_AT_type(*$C$DW$T$44)
    2257                      .dwattr $C$DW$143, DW_AT_location[DW_OP_reg6]
    2258              
    2259              ;* AR2   assigned to _objID
    2260              $C$DW$144       .dwtag  DW_TAG_variable
    2261                      .dwattr $C$DW$144, DW_AT_name("objID")
    2262                      .dwattr $C$DW$144, DW_AT_TI_symbol_name("_objID")
    2263                      .dwattr $C$DW$144, DW_AT_type(*$C$DW$T$44)
    2264                      .dwattr $C$DW$144, DW_AT_location[DW_OP_reg8]
    2265              
    2266              $C$DW$145       .dwtag  DW_TAG_variable
    2267                      .dwattr $C$DW$145, DW_AT_name("msgLen")
    2268                      .dwattr $C$DW$145, DW_AT_TI_symbol_name("_msgLen")
    2269                      .dwattr $C$DW$145, DW_AT_type(*$C$DW$T$40)
    2270                      .dwattr $C$DW$145, DW_AT_location[DW_OP_breg20 -1]
    2271              
    2272              ;* AR3   assigned to _msgData
    2273              $C$DW$146       .dwtag  DW_TAG_variable
TMS320C2000 Assembler PC v22.6.1 Wed May 21 09:51:56 2025

Copyright (c) 1996-2018 Texas Instruments Incorporated
C:\Users\Daniel\AppData\Local\Temp\{3E78D54A-297D-4D45-89F7-B8D766A9F422} PAGE   45

    2274                      .dwattr $C$DW$146, DW_AT_name("msgData")
    2275                      .dwattr $C$DW$146, DW_AT_TI_symbol_name("_msgData")
    2276                      .dwattr $C$DW$146, DW_AT_type(*$C$DW$T$42)
    2277                      .dwattr $C$DW$146, DW_AT_location[DW_OP_reg10]
    2278              
    2279              $C$DW$147       .dwtag  DW_TAG_variable
    2280                      .dwattr $C$DW$147, DW_AT_name("size")
    2281                      .dwattr $C$DW$147, DW_AT_TI_symbol_name("_size")
    2282                      .dwattr $C$DW$147, DW_AT_type(*$C$DW$T$33)
    2283                      .dwattr $C$DW$147, DW_AT_location[DW_OP_breg20 -4]
    2284              
    2285              ;* AR2   assigned to _dataReg
    2286              $C$DW$148       .dwtag  DW_TAG_variable
    2287                      .dwattr $C$DW$148, DW_AT_name("dataReg")
    2288                      .dwattr $C$DW$148, DW_AT_TI_symbol_name("_dataReg")
    2289                      .dwattr $C$DW$148, DW_AT_type(*$C$DW$T$33)
    2290                      .dwattr $C$DW$148, DW_AT_location[DW_OP_reg8]
    2291              
    2292                      .dwcfi  cfa_offset, -2
    2293                      .dwcfi  save_reg_to_mem, 26, 0
    2294 00000000 B2BD          MOVL      *SP++,XAR1            ; [CPU_ALU] 
    2295                      .dwcfi  save_reg_to_mem, 7, 2
    2296                      .dwcfi  cfa_offset, -4
    2297 00000001 AABD          MOVL      *SP++,XAR2            ; [CPU_ALU] 
    2298                      .dwcfi  save_reg_to_mem, 9, 4
    2299                      .dwcfi  cfa_offset, -6
    2300 00000002 A2BD          MOVL      *SP++,XAR3            ; [CPU_ALU] 
    2301                      .dwcfi  save_reg_to_mem, 11, 6
    2302                      .dwcfi  cfa_offset, -8
    2303 00000003 FE08          ADDB      SP,#8                 ; [CPU_ARAU] 
    2304                      .dwcfi  cfa_offset, -16
    2305 00000004 82A4          MOVL      XAR3,XAR4             ; [CPU_ALU] |521| 
    2306 00000005 8BA9          MOVL      XAR1,ACC              ; [CPU_ALU] |521| 
    2307                      .dwpsn  file "../device/driverlib/can.c",line 527,column 5,is_stmt,isa 0
    2308 00000006 8F04          MOVL      XAR4,#294912          ; [CPU_ARAU] |527| 
         00000007 8000 
    2309                      .dwpsn  file "../device/driverlib/can.c",line 521,column 1,is_stmt,isa 0
    2310 00000008 7D41          MOV       *-SP[1],AR5           ; [CPU_ALU] |521| 
    2311                      .dwpsn  file "../device/driverlib/can.c",line 527,column 5,is_stmt,isa 0
    2312 00000009 A8A9          MOVL      ACC,XAR4              ; [CPU_ALU] |527| 
    2313                      .dwpsn  file "../device/driverlib/can.c",line 521,column 1,is_stmt,isa 0
    2314 0000000a 8652          MOVL      XAR2,*-SP[18]         ; [CPU_ALU] |521| 
    2315                      .dwpsn  file "../device/driverlib/can.c",line 527,column 5,is_stmt,isa 0
    2316 0000000b 0FA1          CMPL      ACC,XAR1              ; [CPU_ALU] |527| 
    2317 0000000c 6107          B         $C$L75,EQ             ; [CPU_ALU] |527| 
    2318                      ; branchcc occurs ; [] |527| 
    2319 0000000d FF20          MOV       ACC,#527              ; [CPU_ALU] |527| 
         0000000e 020F 
    2320 0000000f 8F00+         MOVL      XAR4,#$C$FSL1         ; [CPU_ARAU] |527| 
         00000010 0000 
    2321              $C$DW$149       .dwtag  DW_TAG_TI_branch
    2322                      .dwattr $C$DW$149, DW_AT_low_pc(0x00)
    2323                      .dwattr $C$DW$149, DW_AT_name("___error__")
    2324                      .dwattr $C$DW$149, DW_AT_TI_call
    2325              
TMS320C2000 Assembler PC v22.6.1 Wed May 21 09:51:56 2025

Copyright (c) 1996-2018 Texas Instruments Incorporated
C:\Users\Daniel\AppData\Local\Temp\{3E78D54A-297D-4D45-89F7-B8D766A9F422} PAGE   46

    2326 00000011 7640!         LCR       #___error__           ; [CPU_ALU] |527| 
         00000012 0000 
    2327                      ; call occurs [#___error__] ; [] |527| 
    2328 00000013       $C$L75:    
    2329                      .dwpsn  file "../device/driverlib/can.c",line 528,column 5,is_stmt,isa 0
    2330 00000013 0220          MOVB      ACC,#32               ; [CPU_ALU] |528| 
    2331 00000014 0FA2          CMPL      ACC,XAR2              ; [CPU_ALU] |528| 
    2332 00000015 6803          B         $C$L76,LO             ; [CPU_ALU] |528| 
    2333                      ; branchcc occurs ; [] |528| 
    2334 00000016 AAA9          MOVL      ACC,XAR2              ; [CPU_ALU] 
    2335 00000017 6007          B         $C$L77,NEQ            ; [CPU_ALU] |528| 
    2336                      ; branchcc occurs ; [] |528| 
    2337 00000018       $C$L76:    
    2338 00000018 FF20          MOV       ACC,#528              ; [CPU_ALU] |528| 
         00000019 0210 
    2339 0000001a 8F00+         MOVL      XAR4,#$C$FSL1         ; [CPU_ARAU] |528| 
         0000001b 0000 
    2340              $C$DW$150       .dwtag  DW_TAG_TI_branch
    2341                      .dwattr $C$DW$150, DW_AT_low_pc(0x00)
    2342                      .dwattr $C$DW$150, DW_AT_name("___error__")
    2343                      .dwattr $C$DW$150, DW_AT_TI_call
    2344              
    2345 0000001c 7640!         LCR       #___error__           ; [CPU_ALU] |528| 
         0000001d 0000 
    2346                      ; call occurs [#___error__] ; [] |528| 
    2347 0000001e       $C$L77:    
    2348 0000001e 9241          MOV       AL,*-SP[1]            ; [CPU_ALU] 
    2349                      .dwpsn  file "../device/driverlib/can.c",line 529,column 5,is_stmt,isa 0
    2350 0000001f 5208          CMPB      AL,#8                 ; [CPU_ALU] |529| 
    2351 00000020 6907          B         $C$L78,LOS            ; [CPU_ALU] |529| 
    2352                      ; branchcc occurs ; [] |529| 
    2353 00000021 FF20          MOV       ACC,#529              ; [CPU_ALU] |529| 
         00000022 0211 
    2354 00000023 8F00+         MOVL      XAR4,#$C$FSL1         ; [CPU_ARAU] |529| 
         00000024 0000 
    2355              $C$DW$151       .dwtag  DW_TAG_TI_branch
    2356                      .dwattr $C$DW$151, DW_AT_low_pc(0x00)
    2357                      .dwattr $C$DW$151, DW_AT_name("___error__")
    2358                      .dwattr $C$DW$151, DW_AT_TI_call
    2359              
    2360 00000025 7640!         LCR       #___error__           ; [CPU_ALU] |529| 
         00000026 0000 
    2361                      ; call occurs [#___error__] ; [] |529| 
    2362 00000027       $C$L78:    
    2363 00000027 AAA9          MOVL      ACC,XAR2              ; [CPU_ALU] 
    2364                      .dwpsn  file "../device/driverlib/can.c",line 537,column 5,is_stmt,isa 0
    2365 00000028 9B00          MOVB      AH,#0                 ; [CPU_ALU] |537| 
    2366 00000029 90FF          ANDB      AL,#0xff              ; [CPU_ALU] |537| 
    2367 0000002a 1E46          MOVL      *-SP[6],ACC           ; [CPU_ALU] |537| 
    2368 0000002b FF5A          MOVL      P,ACC                 ; [CPU_ALU] |537| 
    2369 0000002c B2A9          MOVL      ACC,XAR1              ; [CPU_ALU] |537| 
    2370 0000002d FF18          ADD       ACC,#1 << 8           ; [CPU_ALU] |537| 
         0000002e 0001 
    2371 0000002f 8AA9          MOVL      XAR4,ACC              ; [CPU_ALU] |537| 
    2372 00000030 1AAA          OR        PH,#16                ; [CPU_ALU] |537| 
TMS320C2000 Assembler PC v22.6.1 Wed May 21 09:51:56 2025

Copyright (c) 1996-2018 Texas Instruments Incorporated
C:\Users\Daniel\AppData\Local\Temp\{3E78D54A-297D-4D45-89F7-B8D766A9F422} PAGE   47

         00000031 0010 
    2373                      .dwpsn  file "../device/driverlib/can.c",line 543,column 11,is_stmt,isa 0
    2374 00000032 8D00          MOVL      XAR0,#256             ; [CPU_FPU] |543| 
         00000033 0100 
    2375                      .dwpsn  file "../device/driverlib/can.c",line 537,column 5,is_stmt,isa 0
    2376 00000034 A9C4          MOVL      *+XAR4[0],P           ; [CPU_ALU] |537| 
    2377 00000035       $C$L79:    
    2378                      .dwpsn  file "../device/driverlib/can.c",line 543,column 11,is_stmt,isa 0
    2379 00000035 B2A9          MOVL      ACC,XAR1              ; [CPU_ALU] |543| 
    2380 00000036 FF18          ADD       ACC,#1 << 8           ; [CPU_ALU] |543| 
         00000037 0001 
    2381 00000038 4F91          TBIT      *+XAR1[AR0],#15       ; [CPU_ALU] |543| 
    2382 00000039 1E48          MOVL      *-SP[8],ACC           ; [CPU_FPU] |543| 
    2383 0000003a 6DFB          B         $C$L79,TC             ; [CPU_ALU] |543| 
    2384                      ; branchcc occurs ; [] |543| 
    2385                      .dwpsn  file "../device/driverlib/can.c",line 550,column 5,is_stmt,isa 0
    2386 0000003b 8D00          MOVL      XAR0,#268             ; [CPU_ALU] |550| 
         0000003c 010C 
    2387 0000003d 0E91          MOVU      ACC,*+XAR1[AR0]       ; [CPU_ALU] |550| 
    2388                      .dwpsn  file "../device/driverlib/can.c",line 555,column 5,is_stmt,isa 0
    2389 0000003e 8841          MOVZ      AR6,*-SP[1]           ; [CPU_ALU] |555| 
    2390 0000003f 9B00          MOVB      AH,#0                 ; [CPU_ALU] |555| 
    2391 00000040 900F          ANDB      AL,#0x0f              ; [CPU_ALU] |555| 
    2392 00000041 1EA7          MOVL      XAR7,ACC              ; [CPU_ALU] |555| 
    2393 00000042 1E44          MOVL      *-SP[4],ACC           ; [CPU_ALU] |555| 
    2394 00000043 0EA6          MOVU      ACC,AR6               ; [CPU_ALU] |555| 
    2395 00000044 0FA7          CMPL      ACC,XAR7              ; [CPU_ALU] |555| 
    2396 00000045 6107          B         $C$L80,EQ             ; [CPU_ALU] |555| 
    2397                      ; branchcc occurs ; [] |555| 
    2398 00000046 FF20          MOV       ACC,#555              ; [CPU_ALU] |555| 
         00000047 022B 
    2399 00000048 8F00+         MOVL      XAR4,#$C$FSL1         ; [CPU_ARAU] |555| 
         00000049 0000 
    2400              $C$DW$152       .dwtag  DW_TAG_TI_branch
    2401                      .dwattr $C$DW$152, DW_AT_low_pc(0x00)
    2402                      .dwattr $C$DW$152, DW_AT_name("___error__")
    2403                      .dwattr $C$DW$152, DW_AT_TI_call
    2404              
    2405 0000004a 7640!         LCR       #___error__           ; [CPU_ALU] |555| 
         0000004b 0000 
    2406                      ; call occurs [#___error__] ; [] |555| 
    2407 0000004c       $C$L80:    
    2408                      .dwpsn  file "..\device\driverlib\can.h",line 392,column 22,is_stmt,isa 0
    2409 0000004c B2A9          MOVL      ACC,XAR1              ; [CPU_ALU] |392| 
    2410 0000004d 3B01          SETC      SXM                   ; [CPU_ALU] 
    2411 0000004e FF14          ADD       ACC,#17 << 4          ; [CPU_ALU] |392| 
         0000004f 0011 
    2412 00000050 86A9          MOVL      XAR2,ACC              ; [CPU_ALU] |392| 
    2413                      .dwpsn  file "..\device\driverlib\can.h",line 397,column 5,is_stmt,isa 0
    2414 00000051 FF24          MOV       ACC,#-17 << 4         ; [CPU_ALU] |397| 
         00000052 FFEF 
    2415 00000053 0FA1          CMPL      ACC,XAR1              ; [CPU_ALU] |397| 
    2416 00000054 6007          B         $C$L81,NEQ            ; [CPU_ALU] |397| 
    2417                      ; branchcc occurs ; [] |397| 
    2418 00000055 FF20          MOV       ACC,#397              ; [CPU_ALU] |397| 
TMS320C2000 Assembler PC v22.6.1 Wed May 21 09:51:56 2025

Copyright (c) 1996-2018 Texas Instruments Incorporated
C:\Users\Daniel\AppData\Local\Temp\{3E78D54A-297D-4D45-89F7-B8D766A9F422} PAGE   48

         00000056 018D 
    2419 00000057 8F00+         MOVL      XAR4,#$C$FSL2         ; [CPU_ARAU] |397| 
         00000058 001A 
    2420              $C$DW$153       .dwtag  DW_TAG_TI_branch
    2421                      .dwattr $C$DW$153, DW_AT_low_pc(0x00)
    2422                      .dwattr $C$DW$153, DW_AT_name("___error__")
    2423                      .dwattr $C$DW$153, DW_AT_TI_call
    2424              
    2425 00000059 7640!         LCR       #___error__           ; [CPU_ALU] |397| 
         0000005a 0000 
    2426                      ; call occurs [#___error__] ; [] |397| 
    2427 0000005b       $C$L81:    
    2428 0000005b 0644          MOVL      ACC,*-SP[4]           ; [CPU_ALU] 
    2429                      .dwpsn  file "..\device\driverlib\can.h",line 402,column 19,is_stmt,isa 0
    2430 0000005c 6115          B         $C$L83,EQ             ; [CPU_ALU] |402| 
    2431                      ; branchcc occurs ; [] |402| 
    2432 0000005d BE00          MOVB      XAR6,#0               ; [CPU_ALU] 
    2433 0000005e 5DA6          MOVZ      AR5,AR6               ; [CPU_ALU] 
    2434 0000005f 2901          CLRC      SXM                   ; [CPU_ALU] 
    2435 00000060       $C$L82:    
    2436                      .dwpsn  file "..\device\driverlib\can.h",line 407,column 9,is_stmt,isa 0
    2437 00000060 0EA5          MOVU      ACC,AR5               ; [CPU_ALU] |407| 
    2438                      .dwpsn  file "..\device\driverlib\can.h",line 402,column 19,is_stmt,isa 0
    2439 00000061 DD01          ADDB      XAR5,#1               ; [CPU_ALU] |402| 
    2440                      .dwpsn  file "..\device\driverlib\can.h",line 407,column 9,is_stmt,isa 0
    2441 00000062 FF40          SFR       ACC,1                 ; [CPU_ALU] |407| 
    2442 00000063 07A3          ADDL      ACC,XAR3              ; [CPU_ALU] |407| 
    2443 00000064 8AA9          MOVL      XAR4,ACC              ; [CPU_FPU] |407| 
    2444                      .dwpsn  file "..\device\driverlib\can.h",line 402,column 19,is_stmt,isa 0
    2445 00000065 80A5          MOVZ      AR7,AR5               ; [CPU_ALU] |402| 
    2446                      .dwpsn  file "..\device\driverlib\can.h",line 407,column 9,is_stmt,isa 0
    2447 00000066 CCA6          AND       AL,AR6,#0x000f        ; [CPU_ALU] |407| 
         00000067 000F 
    2448 00000068 2DA9          MOV       T,AL                  ; [CPU_ALU] |407| 
    2449 00000069 93C4          MOV       AH,*+XAR4[0]          ; [CPU_ALU] |407| 
    2450                      .dwpsn  file "..\device\driverlib\can.h",line 402,column 19,is_stmt,isa 0
    2451 0000006a DE08          ADDB      XAR6,#8               ; [CPU_ALU] |402| 
    2452                      .dwpsn  file "..\device\driverlib\can.h",line 407,column 9,is_stmt,isa 0
    2453 0000006b FF63          LSR       AH,T                  ; [CPU_ALU] |407| 
    2454 0000006c 3DC2          MOVB      *+XAR2[0],AH.LSB      ; [CPU_FPU] |407| 
    2455                      .dwpsn  file "..\device\driverlib\can.h",line 409,column 9,is_stmt,isa 0
    2456 0000006d 0644          MOVL      ACC,*-SP[4]           ; [CPU_FPU] |409| 
    2457 0000006e DA01          ADDB      XAR2,#1               ; [CPU_ALU] |409| 
    2458                      .dwpsn  file "..\device\driverlib\can.h",line 402,column 19,is_stmt,isa 0
    2459 0000006f 0FA7          CMPL      ACC,XAR7              ; [CPU_ALU] |402| 
    2460 00000070 66F0          B         $C$L82,HI             ; [CPU_ALU] |402| 
    2461                      ; branchcc occurs ; [] |402| 
    2462 00000071       $C$L83:    
    2463 00000071 9241          MOV       AL,*-SP[1]            ; [CPU_ALU] 
    2464                      .dwpsn  file "../device/driverlib/can.c",line 568,column 9,is_stmt,isa 0
    2465 00000072 6104          B         $C$L84,EQ             ; [CPU_ALU] |568| 
    2466                      ; branchcc occurs ; [] |568| 
    2467 00000073 8F03          MOVL      XAR4,#196608          ; [CPU_ARAU] |568| 
         00000074 0000 
    2468 00000075 6F02          B         $C$L85,UNC            ; [CPU_ALU] |568| 
TMS320C2000 Assembler PC v22.6.1 Wed May 21 09:51:56 2025

Copyright (c) 1996-2018 Texas Instruments Incorporated
C:\Users\Daniel\AppData\Local\Temp\{3E78D54A-297D-4D45-89F7-B8D766A9F422} PAGE   49

    2469                      ; branch occurs ; [] |568| 
    2470 00000076       $C$L84:    
    2471 00000076 D400          MOVB      XAR4,#0               ; [CPU_ALU] |568| 
    2472 00000077       $C$L85:    
    2473                      .dwpsn  file "../device/driverlib/can.c",line 583,column 5,is_stmt,isa 0
    2474 00000077 A8A9          MOVL      ACC,XAR4              ; [CPU_ALU] |583| 
    2475 00000078 A346          MOVL      P,*-SP[6]             ; [CPU_ALU] |583| 
    2476 00000079 8A48          MOVL      XAR4,*-SP[8]          ; [CPU_ALU] |583| 
    2477 0000007a CBAA          OR        AH,PH                 ; [CPU_ALU] |583| 
    2478 0000007b CAAB          OR        AL,PL                 ; [CPU_ALU] |583| 
    2479 0000007c 5184          OR        AH,#132               ; [CPU_ALU] |583| 
    2480 0000007d FE88          SUBB      SP,#8                 ; [CPU_ARAU] 
    2481                      .dwcfi  cfa_offset, -8
    2482 0000007e 1EC4          MOVL      *+XAR4[0],ACC         ; [CPU_ALU] |583| 
    2483 0000007f 82BE          MOVL      XAR3,*--SP            ; [CPU_ALU] 
    2484                      .dwcfi  cfa_offset, -6
    2485                      .dwcfi  restore_reg, 11
    2486 00000080 86BE          MOVL      XAR2,*--SP            ; [CPU_ALU] 
    2487                      .dwcfi  cfa_offset, -4
    2488                      .dwcfi  restore_reg, 9
    2489 00000081 8BBE          MOVL      XAR1,*--SP            ; [CPU_ALU] 
    2490                      .dwcfi  cfa_offset, -2
    2491                      .dwcfi  restore_reg, 7
    2492              $C$DW$154       .dwtag  DW_TAG_TI_branch
    2493                      .dwattr $C$DW$154, DW_AT_low_pc(0x00)
    2494                      .dwattr $C$DW$154, DW_AT_TI_return
    2495              
    2496 00000082 0006          LRETR     ; [CPU_ALU] 
    2497                      ; return occurs ; [] 
    2498                      .dwattr $C$DW$136, DW_AT_TI_end_file("../device/driverlib/can.c")
    2499                      .dwattr $C$DW$136, DW_AT_TI_end_line(0x24a)
    2500                      .dwattr $C$DW$136, DW_AT_TI_end_column(0x01)
    2501                      .dwendentry
    2502                      .dwendtag $C$DW$136
    2503              
    2504 00000000               .sect   ".text:_CAN_sendMessage"
    2505                      .clink
    2506                      .global _CAN_sendMessage
    2507              
    2508              $C$DW$155       .dwtag  DW_TAG_subprogram
    2509                      .dwattr $C$DW$155, DW_AT_name("CAN_sendMessage")
    2510                      .dwattr $C$DW$155, DW_AT_low_pc(_CAN_sendMessage)
    2511                      .dwattr $C$DW$155, DW_AT_high_pc(0x00)
    2512                      .dwattr $C$DW$155, DW_AT_TI_symbol_name("_CAN_sendMessage")
    2513                      .dwattr $C$DW$155, DW_AT_external
    2514                      .dwattr $C$DW$155, DW_AT_TI_begin_file("../device/driverlib/can.c")
    2515                      .dwattr $C$DW$155, DW_AT_TI_begin_line(0x1bc)
    2516                      .dwattr $C$DW$155, DW_AT_TI_begin_column(0x01)
    2517                      .dwattr $C$DW$155, DW_AT_TI_max_frame_size(-16)
    2518                      .dwpsn  file "../device/driverlib/can.c",line 446,column 1,is_stmt,address _CAN_sendMessage,isa 0
    2519              
    2520                      .dwfde $C$DW$CIE, _CAN_sendMessage
    2521              $C$DW$156       .dwtag  DW_TAG_formal_parameter
    2522                      .dwattr $C$DW$156, DW_AT_name("base")
    2523                      .dwattr $C$DW$156, DW_AT_TI_symbol_name("_base")
TMS320C2000 Assembler PC v22.6.1 Wed May 21 09:51:56 2025

Copyright (c) 1996-2018 Texas Instruments Incorporated
C:\Users\Daniel\AppData\Local\Temp\{3E78D54A-297D-4D45-89F7-B8D766A9F422} PAGE   50

    2524                      .dwattr $C$DW$156, DW_AT_type(*$C$DW$T$33)
    2525                      .dwattr $C$DW$156, DW_AT_location[DW_OP_reg0]
    2526              
    2527              $C$DW$157       .dwtag  DW_TAG_formal_parameter
    2528                      .dwattr $C$DW$157, DW_AT_name("objID")
    2529                      .dwattr $C$DW$157, DW_AT_TI_symbol_name("_objID")
    2530                      .dwattr $C$DW$157, DW_AT_type(*$C$DW$T$33)
    2531                      .dwattr $C$DW$157, DW_AT_location[DW_OP_breg20 -18]
    2532              
    2533              $C$DW$158       .dwtag  DW_TAG_formal_parameter
    2534                      .dwattr $C$DW$158, DW_AT_name("msgLen")
    2535                      .dwattr $C$DW$158, DW_AT_TI_symbol_name("_msgLen")
    2536                      .dwattr $C$DW$158, DW_AT_type(*$C$DW$T$39)
    2537                      .dwattr $C$DW$158, DW_AT_location[DW_OP_reg14]
    2538              
    2539              $C$DW$159       .dwtag  DW_TAG_formal_parameter
    2540                      .dwattr $C$DW$159, DW_AT_name("msgData")
    2541                      .dwattr $C$DW$159, DW_AT_TI_symbol_name("_msgData")
    2542                      .dwattr $C$DW$159, DW_AT_type(*$C$DW$T$41)
    2543                      .dwattr $C$DW$159, DW_AT_location[DW_OP_reg12]
    2544              
    2545              
    2546              ;***************************************************************
    2547              ;* FNAME: _CAN_sendMessage              FR SIZE:  14           *
    2548              ;*                                                             *
    2549              ;* FUNCTION ENVIRONMENT                                        *
    2550              ;*                                                             *
    2551              ;* FUNCTION PROPERTIES                                         *
    2552              ;*                            0 Parameter,  8 Auto,  6 SOE     *
    2553              ;***************************************************************
    2554              
    2555              _CAN_sendMessage:
    2556              ;* AR4   assigned to _msgCtrl
    2557              $C$DW$160       .dwtag  DW_TAG_variable
    2558                      .dwattr $C$DW$160, DW_AT_name("msgCtrl")
    2559                      .dwattr $C$DW$160, DW_AT_TI_symbol_name("_msgCtrl")
    2560                      .dwattr $C$DW$160, DW_AT_type(*$C$DW$T$33)
    2561                      .dwattr $C$DW$160, DW_AT_location[DW_OP_reg12]
    2562              
    2563              ;* AR4   assigned to $O$U52
    2564              ;* AR3   assigned to $O$K27
    2565              ;* AR5   assigned to _idx
    2566              $C$DW$161       .dwtag  DW_TAG_variable
    2567                      .dwattr $C$DW$161, DW_AT_name("idx")
    2568                      .dwattr $C$DW$161, DW_AT_TI_symbol_name("_idx")
    2569                      .dwattr $C$DW$161, DW_AT_type(*$C$DW$T$11)
    2570                      .dwattr $C$DW$161, DW_AT_location[DW_OP_reg14]
    2571              
    2572              ;* AR1   assigned to _base
    2573              $C$DW$162       .dwtag  DW_TAG_variable
    2574                      .dwattr $C$DW$162, DW_AT_name("base")
    2575                      .dwattr $C$DW$162, DW_AT_TI_symbol_name("_base")
    2576                      .dwattr $C$DW$162, DW_AT_type(*$C$DW$T$44)
    2577                      .dwattr $C$DW$162, DW_AT_location[DW_OP_reg6]
    2578              
TMS320C2000 Assembler PC v22.6.1 Wed May 21 09:51:56 2025

Copyright (c) 1996-2018 Texas Instruments Incorporated
C:\Users\Daniel\AppData\Local\Temp\{3E78D54A-297D-4D45-89F7-B8D766A9F422} PAGE   51

    2579              ;* AR2   assigned to _objID
    2580              $C$DW$163       .dwtag  DW_TAG_variable
    2581                      .dwattr $C$DW$163, DW_AT_name("objID")
    2582                      .dwattr $C$DW$163, DW_AT_TI_symbol_name("_objID")
    2583                      .dwattr $C$DW$163, DW_AT_type(*$C$DW$T$44)
    2584                      .dwattr $C$DW$163, DW_AT_location[DW_OP_reg8]
    2585              
    2586              $C$DW$164       .dwtag  DW_TAG_variable
    2587                      .dwattr $C$DW$164, DW_AT_name("msgLen")
    2588                      .dwattr $C$DW$164, DW_AT_TI_symbol_name("_msgLen")
    2589                      .dwattr $C$DW$164, DW_AT_type(*$C$DW$T$40)
    2590                      .dwattr $C$DW$164, DW_AT_location[DW_OP_breg20 -1]
    2591              
    2592              $C$DW$165       .dwtag  DW_TAG_variable
    2593                      .dwattr $C$DW$165, DW_AT_name("msgData")
    2594                      .dwattr $C$DW$165, DW_AT_TI_symbol_name("_msgData")
    2595                      .dwattr $C$DW$165, DW_AT_type(*$C$DW$T$42)
    2596                      .dwattr $C$DW$165, DW_AT_location[DW_OP_breg20 -8]
    2597              
    2598              $C$DW$166       .dwtag  DW_TAG_variable
    2599                      .dwattr $C$DW$166, DW_AT_name("size")
    2600                      .dwattr $C$DW$166, DW_AT_TI_symbol_name("_size")
    2601                      .dwattr $C$DW$166, DW_AT_type(*$C$DW$T$33)
    2602                      .dwattr $C$DW$166, DW_AT_location[DW_OP_breg20 -4]
    2603              
    2604              ;* AR2   assigned to _dataReg
    2605              $C$DW$167       .dwtag  DW_TAG_variable
    2606                      .dwattr $C$DW$167, DW_AT_name("dataReg")
    2607                      .dwattr $C$DW$167, DW_AT_TI_symbol_name("_dataReg")
    2608                      .dwattr $C$DW$167, DW_AT_type(*$C$DW$T$33)
    2609                      .dwattr $C$DW$167, DW_AT_location[DW_OP_reg8]
    2610              
    2611                      .dwcfi  cfa_offset, -2
    2612                      .dwcfi  save_reg_to_mem, 26, 0
    2613 00000000 B2BD          MOVL      *SP++,XAR1            ; [CPU_ALU] 
    2614                      .dwcfi  save_reg_to_mem, 7, 2
    2615                      .dwcfi  cfa_offset, -4
    2616 00000001 AABD          MOVL      *SP++,XAR2            ; [CPU_ALU] 
    2617                      .dwcfi  save_reg_to_mem, 9, 4
    2618                      .dwcfi  cfa_offset, -6
    2619 00000002 A2BD          MOVL      *SP++,XAR3            ; [CPU_ALU] 
    2620                      .dwcfi  save_reg_to_mem, 11, 6
    2621                      .dwcfi  cfa_offset, -8
    2622 00000003 FE08          ADDB      SP,#8                 ; [CPU_ARAU] 
    2623                      .dwcfi  cfa_offset, -16
    2624 00000004 8BA9          MOVL      XAR1,ACC              ; [CPU_ALU] |446| 
    2625 00000005 A848          MOVL      *-SP[8],XAR4          ; [CPU_ALU] |446| 
    2626                      .dwpsn  file "../device/driverlib/can.c",line 452,column 5,is_stmt,isa 0
    2627 00000006 8F04          MOVL      XAR4,#294912          ; [CPU_ARAU] |452| 
         00000007 8000 
    2628                      .dwpsn  file "../device/driverlib/can.c",line 446,column 1,is_stmt,isa 0
    2629 00000008 7D41          MOV       *-SP[1],AR5           ; [CPU_ALU] |446| 
    2630 00000009 8652          MOVL      XAR2,*-SP[18]         ; [CPU_ALU] |446| 
    2631                      .dwpsn  file "../device/driverlib/can.c",line 452,column 5,is_stmt,isa 0
    2632 0000000a A8A9          MOVL      ACC,XAR4              ; [CPU_ALU] |452| 
TMS320C2000 Assembler PC v22.6.1 Wed May 21 09:51:56 2025

Copyright (c) 1996-2018 Texas Instruments Incorporated
C:\Users\Daniel\AppData\Local\Temp\{3E78D54A-297D-4D45-89F7-B8D766A9F422} PAGE   52

    2633 0000000b 0FA1          CMPL      ACC,XAR1              ; [CPU_ALU] |452| 
    2634 0000000c 6107          B         $C$L86,EQ             ; [CPU_ALU] |452| 
    2635                      ; branchcc occurs ; [] |452| 
    2636 0000000d FF20          MOV       ACC,#452              ; [CPU_ALU] |452| 
         0000000e 01C4 
    2637 0000000f 8F00+         MOVL      XAR4,#$C$FSL1         ; [CPU_ARAU] |452| 
         00000010 0000 
    2638              $C$DW$168       .dwtag  DW_TAG_TI_branch
    2639                      .dwattr $C$DW$168, DW_AT_low_pc(0x00)
    2640                      .dwattr $C$DW$168, DW_AT_name("___error__")
    2641                      .dwattr $C$DW$168, DW_AT_TI_call
    2642              
    2643 00000011 7640!         LCR       #___error__           ; [CPU_ALU] |452| 
         00000012 0000 
    2644                      ; call occurs [#___error__] ; [] |452| 
    2645 00000013       $C$L86:    
    2646                      .dwpsn  file "../device/driverlib/can.c",line 453,column 5,is_stmt,isa 0
    2647 00000013 0220          MOVB      ACC,#32               ; [CPU_ALU] |453| 
    2648 00000014 0FA2          CMPL      ACC,XAR2              ; [CPU_ALU] |453| 
    2649 00000015 6803          B         $C$L87,LO             ; [CPU_ALU] |453| 
    2650                      ; branchcc occurs ; [] |453| 
    2651 00000016 AAA9          MOVL      ACC,XAR2              ; [CPU_ALU] 
    2652 00000017 6007          B         $C$L88,NEQ            ; [CPU_ALU] |453| 
    2653                      ; branchcc occurs ; [] |453| 
    2654 00000018       $C$L87:    
    2655 00000018 FF20          MOV       ACC,#453              ; [CPU_ALU] |453| 
         00000019 01C5 
    2656 0000001a 8F00+         MOVL      XAR4,#$C$FSL1         ; [CPU_ARAU] |453| 
         0000001b 0000 
    2657              $C$DW$169       .dwtag  DW_TAG_TI_branch
    2658                      .dwattr $C$DW$169, DW_AT_low_pc(0x00)
    2659                      .dwattr $C$DW$169, DW_AT_name("___error__")
    2660                      .dwattr $C$DW$169, DW_AT_TI_call
    2661              
    2662 0000001c 7640!         LCR       #___error__           ; [CPU_ALU] |453| 
         0000001d 0000 
    2663                      ; call occurs [#___error__] ; [] |453| 
    2664 0000001e       $C$L88:    
    2665 0000001e 9241          MOV       AL,*-SP[1]            ; [CPU_ALU] 
    2666                      .dwpsn  file "../device/driverlib/can.c",line 454,column 5,is_stmt,isa 0
    2667 0000001f 5208          CMPB      AL,#8                 ; [CPU_ALU] |454| 
    2668 00000020 6907          B         $C$L89,LOS            ; [CPU_ALU] |454| 
    2669                      ; branchcc occurs ; [] |454| 
    2670 00000021 FF20          MOV       ACC,#454              ; [CPU_ALU] |454| 
         00000022 01C6 
    2671 00000023 8F00+         MOVL      XAR4,#$C$FSL1         ; [CPU_ARAU] |454| 
         00000024 0000 
    2672              $C$DW$170       .dwtag  DW_TAG_TI_branch
    2673                      .dwattr $C$DW$170, DW_AT_low_pc(0x00)
    2674                      .dwattr $C$DW$170, DW_AT_name("___error__")
    2675                      .dwattr $C$DW$170, DW_AT_TI_call
    2676              
    2677 00000025 7640!         LCR       #___error__           ; [CPU_ALU] |454| 
         00000026 0000 
    2678                      ; call occurs [#___error__] ; [] |454| 
TMS320C2000 Assembler PC v22.6.1 Wed May 21 09:51:56 2025

Copyright (c) 1996-2018 Texas Instruments Incorporated
C:\Users\Daniel\AppData\Local\Temp\{3E78D54A-297D-4D45-89F7-B8D766A9F422} PAGE   53

    2679 00000027       $C$L89:    
    2680 00000027 AAA9          MOVL      ACC,XAR2              ; [CPU_ALU] 
    2681                      .dwpsn  file "../device/driverlib/can.c",line 462,column 5,is_stmt,isa 0
    2682 00000028 9B00          MOVB      AH,#0                 ; [CPU_ALU] |462| 
    2683 00000029 90FF          ANDB      AL,#0xff              ; [CPU_ALU] |462| 
    2684 0000002a 1E46          MOVL      *-SP[6],ACC           ; [CPU_ALU] |462| 
    2685 0000002b FF5A          MOVL      P,ACC                 ; [CPU_ALU] |462| 
    2686 0000002c B2A9          MOVL      ACC,XAR1              ; [CPU_ALU] |462| 
    2687 0000002d FF18          ADD       ACC,#1 << 8           ; [CPU_ALU] |462| 
         0000002e 0001 
    2688 0000002f 8AA9          MOVL      XAR4,ACC              ; [CPU_ALU] |462| 
    2689 00000030 1AAA          OR        PH,#16                ; [CPU_ALU] |462| 
         00000031 0010 
    2690                      .dwpsn  file "../device/driverlib/can.c",line 468,column 11,is_stmt,isa 0
    2691 00000032 8D00          MOVL      XAR0,#256             ; [CPU_FPU] |468| 
         00000033 0100 
    2692                      .dwpsn  file "../device/driverlib/can.c",line 462,column 5,is_stmt,isa 0
    2693 00000034 A9C4          MOVL      *+XAR4[0],P           ; [CPU_ALU] |462| 
    2694 00000035       $C$L90:    
    2695                      .dwpsn  file "../device/driverlib/can.c",line 468,column 11,is_stmt,isa 0
    2696 00000035 B2A9          MOVL      ACC,XAR1              ; [CPU_ALU] |468| 
    2697 00000036 FF18          ADD       ACC,#1 << 8           ; [CPU_ALU] |468| 
         00000037 0001 
    2698 00000038 4F91          TBIT      *+XAR1[AR0],#15       ; [CPU_ALU] |468| 
    2699 00000039 82A9          MOVL      XAR3,ACC              ; [CPU_FPU] |468| 
    2700 0000003a 6DFB          B         $C$L90,TC             ; [CPU_ALU] |468| 
    2701                      ; branchcc occurs ; [] |468| 
    2702                      .dwpsn  file "../device/driverlib/can.c",line 475,column 5,is_stmt,isa 0
    2703 0000003b 8D00          MOVL      XAR0,#268             ; [CPU_ALU] |475| 
         0000003c 010C 
    2704 0000003d 0E91          MOVU      ACC,*+XAR1[AR0]       ; [CPU_ALU] |475| 
    2705                      .dwpsn  file "../device/driverlib/can.c",line 480,column 5,is_stmt,isa 0
    2706 0000003e 8841          MOVZ      AR6,*-SP[1]           ; [CPU_ALU] |480| 
    2707 0000003f 9B00          MOVB      AH,#0                 ; [CPU_ALU] |480| 
    2708 00000040 900F          ANDB      AL,#0x0f              ; [CPU_ALU] |480| 
    2709 00000041 1EA7          MOVL      XAR7,ACC              ; [CPU_ALU] |480| 
    2710 00000042 1E44          MOVL      *-SP[4],ACC           ; [CPU_ALU] |480| 
    2711 00000043 0EA6          MOVU      ACC,AR6               ; [CPU_ALU] |480| 
    2712 00000044 0FA7          CMPL      ACC,XAR7              ; [CPU_ALU] |480| 
    2713 00000045 6107          B         $C$L91,EQ             ; [CPU_ALU] |480| 
    2714                      ; branchcc occurs ; [] |480| 
    2715 00000046 FF20          MOV       ACC,#480              ; [CPU_ALU] |480| 
         00000047 01E0 
    2716 00000048 8F00+         MOVL      XAR4,#$C$FSL1         ; [CPU_ARAU] |480| 
         00000049 0000 
    2717              $C$DW$171       .dwtag  DW_TAG_TI_branch
    2718                      .dwattr $C$DW$171, DW_AT_low_pc(0x00)
    2719                      .dwattr $C$DW$171, DW_AT_name("___error__")
    2720                      .dwattr $C$DW$171, DW_AT_TI_call
    2721              
    2722 0000004a 7640!         LCR       #___error__           ; [CPU_ALU] |480| 
         0000004b 0000 
    2723                      ; call occurs [#___error__] ; [] |480| 
    2724 0000004c       $C$L91:    
    2725                      .dwpsn  file "..\device\driverlib\can.h",line 344,column 22,is_stmt,isa 0
TMS320C2000 Assembler PC v22.6.1 Wed May 21 09:51:56 2025

Copyright (c) 1996-2018 Texas Instruments Incorporated
C:\Users\Daniel\AppData\Local\Temp\{3E78D54A-297D-4D45-89F7-B8D766A9F422} PAGE   54

    2726 0000004c B2A9          MOVL      ACC,XAR1              ; [CPU_ALU] |344| 
    2727 0000004d 3B01          SETC      SXM                   ; [CPU_ALU] 
    2728 0000004e FF14          ADD       ACC,#17 << 4          ; [CPU_ALU] |344| 
         0000004f 0011 
    2729 00000050 86A9          MOVL      XAR2,ACC              ; [CPU_ALU] |344| 
    2730                      .dwpsn  file "..\device\driverlib\can.h",line 349,column 5,is_stmt,isa 0
    2731 00000051 FF24          MOV       ACC,#-17 << 4         ; [CPU_ALU] |349| 
         00000052 FFEF 
    2732 00000053 0FA1          CMPL      ACC,XAR1              ; [CPU_ALU] |349| 
    2733 00000054 6007          B         $C$L92,NEQ            ; [CPU_ALU] |349| 
    2734                      ; branchcc occurs ; [] |349| 
    2735 00000055 FF20          MOV       ACC,#349              ; [CPU_ALU] |349| 
         00000056 015D 
    2736 00000057 8F00+         MOVL      XAR4,#$C$FSL2         ; [CPU_ARAU] |349| 
         00000058 001A 
    2737              $C$DW$172       .dwtag  DW_TAG_TI_branch
    2738                      .dwattr $C$DW$172, DW_AT_low_pc(0x00)
    2739                      .dwattr $C$DW$172, DW_AT_name("___error__")
    2740                      .dwattr $C$DW$172, DW_AT_TI_call
    2741              
    2742 00000059 7640!         LCR       #___error__           ; [CPU_ALU] |349| 
         0000005a 0000 
    2743                      ; call occurs [#___error__] ; [] |349| 
    2744 0000005b       $C$L92:    
    2745 0000005b 0644          MOVL      ACC,*-SP[4]           ; [CPU_ALU] 
    2746                      .dwpsn  file "..\device\driverlib\can.h",line 354,column 19,is_stmt,isa 0
    2747 0000005c 610B          B         $C$L94,EQ             ; [CPU_ALU] |354| 
    2748                      ; branchcc occurs ; [] |354| 
    2749 0000005d 8A48          MOVL      XAR4,*-SP[8]          ; [CPU_ALU] 
    2750 0000005e D500          MOVB      XAR5,#0               ; [CPU_ALU] 
    2751 0000005f       $C$L93:    
    2752 0000005f DD01          ADDB      XAR5,#1               ; [CPU_ALU] |354| 
    2753                      .dwpsn  file "..\device\driverlib\can.h",line 359,column 9,is_stmt,isa 0
    2754 00000060 9284          MOV       AL,*XAR4++            ; [CPU_FPU] |359| 
    2755                      .dwpsn  file "..\device\driverlib\can.h",line 354,column 19,is_stmt,isa 0
    2756 00000061 88A5          MOVZ      AR6,AR5               ; [CPU_ALU] |354| 
    2757                      .dwpsn  file "..\device\driverlib\can.h",line 359,column 9,is_stmt,isa 0
    2758 00000062 3CC2          MOVB      *+XAR2[0],AL.LSB      ; [CPU_ALU] |359| 
    2759                      .dwpsn  file "..\device\driverlib\can.h",line 361,column 9,is_stmt,isa 0
    2760 00000063 0644          MOVL      ACC,*-SP[4]           ; [CPU_ALU] |361| 
    2761 00000064 DA01          ADDB      XAR2,#1               ; [CPU_ALU] |361| 
    2762                      .dwpsn  file "..\device\driverlib\can.h",line 354,column 19,is_stmt,isa 0
    2763 00000065 0FA6          CMPL      ACC,XAR6              ; [CPU_ALU] |354| 
    2764 00000066 66F9          B         $C$L93,HI             ; [CPU_ALU] |354| 
    2765                      ; branchcc occurs ; [] |354| 
    2766 00000067       $C$L94:    
    2767 00000067 9241          MOV       AL,*-SP[1]            ; [CPU_ALU] 
    2768                      .dwpsn  file "../device/driverlib/can.c",line 493,column 9,is_stmt,isa 0
    2769 00000068 6104          B         $C$L95,EQ             ; [CPU_ALU] |493| 
    2770                      ; branchcc occurs ; [] |493| 
    2771 00000069 8F03          MOVL      XAR4,#196608          ; [CPU_ARAU] |493| 
         0000006a 0000 
    2772 0000006b 6F02          B         $C$L96,UNC            ; [CPU_ALU] |493| 
    2773                      ; branch occurs ; [] |493| 
    2774 0000006c       $C$L95:    
TMS320C2000 Assembler PC v22.6.1 Wed May 21 09:51:56 2025

Copyright (c) 1996-2018 Texas Instruments Incorporated
C:\Users\Daniel\AppData\Local\Temp\{3E78D54A-297D-4D45-89F7-B8D766A9F422} PAGE   55

    2775 0000006c D400          MOVB      XAR4,#0               ; [CPU_ALU] |493| 
    2776 0000006d       $C$L96:    
    2777                      .dwpsn  file "../device/driverlib/can.c",line 508,column 5,is_stmt,isa 0
    2778 0000006d A8A9          MOVL      ACC,XAR4              ; [CPU_ALU] |508| 
    2779 0000006e A346          MOVL      P,*-SP[6]             ; [CPU_ALU] |508| 
    2780 0000006f CBAA          OR        AH,PH                 ; [CPU_ALU] |508| 
    2781 00000070 CAAB          OR        AL,PL                 ; [CPU_ALU] |508| 
    2782 00000071 FE88          SUBB      SP,#8                 ; [CPU_ARAU] 
    2783                      .dwcfi  cfa_offset, -8
    2784 00000072 5184          OR        AH,#132               ; [CPU_ALU] |508| 
    2785 00000073 1EC3          MOVL      *+XAR3[0],ACC         ; [CPU_ALU] |508| 
    2786 00000074 82BE          MOVL      XAR3,*--SP            ; [CPU_ALU] 
    2787                      .dwcfi  cfa_offset, -6
    2788                      .dwcfi  restore_reg, 11
    2789 00000075 86BE          MOVL      XAR2,*--SP            ; [CPU_ALU] 
    2790                      .dwcfi  cfa_offset, -4
    2791                      .dwcfi  restore_reg, 9
    2792 00000076 8BBE          MOVL      XAR1,*--SP            ; [CPU_ALU] 
    2793                      .dwcfi  cfa_offset, -2
    2794                      .dwcfi  restore_reg, 7
    2795              $C$DW$173       .dwtag  DW_TAG_TI_branch
    2796                      .dwattr $C$DW$173, DW_AT_low_pc(0x00)
    2797                      .dwattr $C$DW$173, DW_AT_TI_return
    2798              
    2799 00000077 0006          LRETR     ; [CPU_ALU] 
    2800                      ; return occurs ; [] 
    2801                      .dwattr $C$DW$155, DW_AT_TI_end_file("../device/driverlib/can.c")
    2802                      .dwattr $C$DW$155, DW_AT_TI_end_line(0x1ff)
    2803                      .dwattr $C$DW$155, DW_AT_TI_end_column(0x01)
    2804                      .dwendentry
    2805                      .dwendtag $C$DW$155
    2806              
    2807 00000000               .sect   ".text:_CAN_readMessage"
    2808                      .clink
    2809                      .global _CAN_readMessage
    2810              
    2811              $C$DW$174       .dwtag  DW_TAG_subprogram
    2812                      .dwattr $C$DW$174, DW_AT_name("CAN_readMessage")
    2813                      .dwattr $C$DW$174, DW_AT_low_pc(_CAN_readMessage)
    2814                      .dwattr $C$DW$174, DW_AT_high_pc(0x00)
    2815                      .dwattr $C$DW$174, DW_AT_TI_symbol_name("_CAN_readMessage")
    2816                      .dwattr $C$DW$174, DW_AT_external
    2817                      .dwattr $C$DW$174, DW_AT_type(*$C$DW$T$57)
    2818                      .dwattr $C$DW$174, DW_AT_TI_begin_file("../device/driverlib/can.c")
    2819                      .dwattr $C$DW$174, DW_AT_TI_begin_line(0x34c)
    2820                      .dwattr $C$DW$174, DW_AT_TI_begin_column(0x01)
    2821                      .dwattr $C$DW$174, DW_AT_TI_max_frame_size(-8)
    2822                      .dwpsn  file "../device/driverlib/can.c",line 846,column 1,is_stmt,address _CAN_readMessage,isa 0
    2823              
    2824                      .dwfde $C$DW$CIE, _CAN_readMessage
    2825              $C$DW$175       .dwtag  DW_TAG_formal_parameter
    2826                      .dwattr $C$DW$175, DW_AT_name("base")
    2827                      .dwattr $C$DW$175, DW_AT_TI_symbol_name("_base")
    2828                      .dwattr $C$DW$175, DW_AT_type(*$C$DW$T$33)
    2829                      .dwattr $C$DW$175, DW_AT_location[DW_OP_reg0]
TMS320C2000 Assembler PC v22.6.1 Wed May 21 09:51:56 2025

Copyright (c) 1996-2018 Texas Instruments Incorporated
C:\Users\Daniel\AppData\Local\Temp\{3E78D54A-297D-4D45-89F7-B8D766A9F422} PAGE   56

    2830              
    2831              $C$DW$176       .dwtag  DW_TAG_formal_parameter
    2832                      .dwattr $C$DW$176, DW_AT_name("objID")
    2833                      .dwattr $C$DW$176, DW_AT_TI_symbol_name("_objID")
    2834                      .dwattr $C$DW$176, DW_AT_type(*$C$DW$T$33)
    2835                      .dwattr $C$DW$176, DW_AT_location[DW_OP_breg20 -10]
    2836              
    2837              $C$DW$177       .dwtag  DW_TAG_formal_parameter
    2838                      .dwattr $C$DW$177, DW_AT_name("msgData")
    2839                      .dwattr $C$DW$177, DW_AT_TI_symbol_name("_msgData")
    2840                      .dwattr $C$DW$177, DW_AT_type(*$C$DW$T$48)
    2841                      .dwattr $C$DW$177, DW_AT_location[DW_OP_reg12]
    2842              
    2843              
    2844              ;***************************************************************
    2845              ;* FNAME: _CAN_readMessage              FR SIZE:   6           *
    2846              ;*                                                             *
    2847              ;* FUNCTION ENVIRONMENT                                        *
    2848              ;*                                                             *
    2849              ;* FUNCTION PROPERTIES                                         *
    2850              ;*                            0 Parameter,  0 Auto,  6 SOE     *
    2851              ;***************************************************************
    2852              
    2853              _CAN_readMessage:
    2854              ;* AR6   assigned to $O$C2
    2855              ;* AR3   assigned to $O$U39
    2856              ;* AR2   assigned to $O$K17
    2857              ;* AR4   assigned to $O$K22
    2858              ;* AR5   assigned to _idx
    2859              $C$DW$178       .dwtag  DW_TAG_variable
    2860                      .dwattr $C$DW$178, DW_AT_name("idx")
    2861                      .dwattr $C$DW$178, DW_AT_TI_symbol_name("_idx")
    2862                      .dwattr $C$DW$178, DW_AT_type(*$C$DW$T$11)
    2863                      .dwattr $C$DW$178, DW_AT_location[DW_OP_reg14]
    2864              
    2865              ;* AR1   assigned to _base
    2866              $C$DW$179       .dwtag  DW_TAG_variable
    2867                      .dwattr $C$DW$179, DW_AT_name("base")
    2868                      .dwattr $C$DW$179, DW_AT_TI_symbol_name("_base")
    2869                      .dwattr $C$DW$179, DW_AT_type(*$C$DW$T$44)
    2870                      .dwattr $C$DW$179, DW_AT_location[DW_OP_reg6]
    2871              
    2872              ;* AR2   assigned to _objID
    2873              $C$DW$180       .dwtag  DW_TAG_variable
    2874                      .dwattr $C$DW$180, DW_AT_name("objID")
    2875                      .dwattr $C$DW$180, DW_AT_TI_symbol_name("_objID")
    2876                      .dwattr $C$DW$180, DW_AT_type(*$C$DW$T$44)
    2877                      .dwattr $C$DW$180, DW_AT_location[DW_OP_reg8]
    2878              
    2879              ;* AL    assigned to _status
    2880              $C$DW$181       .dwtag  DW_TAG_variable
    2881                      .dwattr $C$DW$181, DW_AT_name("status")
    2882                      .dwattr $C$DW$181, DW_AT_TI_symbol_name("_status")
    2883                      .dwattr $C$DW$181, DW_AT_type(*$C$DW$T$57)
    2884                      .dwattr $C$DW$181, DW_AT_location[DW_OP_reg0]
TMS320C2000 Assembler PC v22.6.1 Wed May 21 09:51:56 2025

Copyright (c) 1996-2018 Texas Instruments Incorporated
C:\Users\Daniel\AppData\Local\Temp\{3E78D54A-297D-4D45-89F7-B8D766A9F422} PAGE   57

    2885              
    2886              ;* AL    assigned to _msgCtrl
    2887              $C$DW$182       .dwtag  DW_TAG_variable
    2888                      .dwattr $C$DW$182, DW_AT_name("msgCtrl")
    2889                      .dwattr $C$DW$182, DW_AT_TI_symbol_name("_msgCtrl")
    2890                      .dwattr $C$DW$182, DW_AT_type(*$C$DW$T$39)
    2891                      .dwattr $C$DW$182, DW_AT_location[DW_OP_reg0]
    2892              
    2893              ;* AR7   assigned to _size
    2894              $C$DW$183       .dwtag  DW_TAG_variable
    2895                      .dwattr $C$DW$183, DW_AT_name("size")
    2896                      .dwattr $C$DW$183, DW_AT_TI_symbol_name("_size")
    2897                      .dwattr $C$DW$183, DW_AT_type(*$C$DW$T$33)
    2898                      .dwattr $C$DW$183, DW_AT_location[DW_OP_reg18]
    2899              
    2900              ;* AR1   assigned to _dataReg
    2901              $C$DW$184       .dwtag  DW_TAG_variable
    2902                      .dwattr $C$DW$184, DW_AT_name("dataReg")
    2903                      .dwattr $C$DW$184, DW_AT_TI_symbol_name("_dataReg")
    2904                      .dwattr $C$DW$184, DW_AT_type(*$C$DW$T$33)
    2905                      .dwattr $C$DW$184, DW_AT_location[DW_OP_reg6]
    2906              
    2907                      .dwcfi  cfa_offset, -2
    2908                      .dwcfi  save_reg_to_mem, 26, 0
    2909 00000000 B2BD          MOVL      *SP++,XAR1            ; [CPU_ALU] 
    2910                      .dwcfi  save_reg_to_mem, 7, 2
    2911                      .dwcfi  cfa_offset, -4
    2912 00000001 8BA9          MOVL      XAR1,ACC              ; [CPU_ALU] |846| 
    2913 00000002 AABD          MOVL      *SP++,XAR2            ; [CPU_ALU] 
    2914                      .dwcfi  save_reg_to_mem, 9, 4
    2915                      .dwcfi  cfa_offset, -6
    2916 00000003 A2BD          MOVL      *SP++,XAR3            ; [CPU_ALU] 
    2917                      .dwcfi  save_reg_to_mem, 11, 6
    2918                      .dwcfi  cfa_offset, -8
    2919 00000004 82A4          MOVL      XAR3,XAR4             ; [CPU_ALU] |846| 
    2920                      .dwpsn  file "../device/driverlib/can.c",line 853,column 5,is_stmt,isa 0
    2921 00000005 8F04          MOVL      XAR4,#294912          ; [CPU_ARAU] |853| 
         00000006 8000 
    2922 00000007 A8A9          MOVL      ACC,XAR4              ; [CPU_ALU] |853| 
    2923                      .dwpsn  file "../device/driverlib/can.c",line 846,column 1,is_stmt,isa 0
    2924 00000008 864A          MOVL      XAR2,*-SP[10]         ; [CPU_ALU] |846| 
    2925                      .dwpsn  file "../device/driverlib/can.c",line 853,column 5,is_stmt,isa 0
    2926 00000009 0FA1          CMPL      ACC,XAR1              ; [CPU_ALU] |853| 
    2927 0000000a 6107          B         $C$L97,EQ             ; [CPU_ALU] |853| 
    2928                      ; branchcc occurs ; [] |853| 
    2929 0000000b FF20          MOV       ACC,#853              ; [CPU_ALU] |853| 
         0000000c 0355 
    2930 0000000d 8F00+         MOVL      XAR4,#$C$FSL1         ; [CPU_ARAU] |853| 
         0000000e 0000 
    2931              $C$DW$185       .dwtag  DW_TAG_TI_branch
    2932                      .dwattr $C$DW$185, DW_AT_low_pc(0x00)
    2933                      .dwattr $C$DW$185, DW_AT_name("___error__")
    2934                      .dwattr $C$DW$185, DW_AT_TI_call
    2935              
    2936 0000000f 7640!         LCR       #___error__           ; [CPU_ALU] |853| 
TMS320C2000 Assembler PC v22.6.1 Wed May 21 09:51:56 2025

Copyright (c) 1996-2018 Texas Instruments Incorporated
C:\Users\Daniel\AppData\Local\Temp\{3E78D54A-297D-4D45-89F7-B8D766A9F422} PAGE   58

         00000010 0000 
    2937                      ; call occurs [#___error__] ; [] |853| 
    2938 00000011       $C$L97:    
    2939                      .dwpsn  file "../device/driverlib/can.c",line 854,column 5,is_stmt,isa 0
    2940 00000011 0220          MOVB      ACC,#32               ; [CPU_ALU] |854| 
    2941 00000012 0FA2          CMPL      ACC,XAR2              ; [CPU_ALU] |854| 
    2942 00000013 6803          B         $C$L98,LO             ; [CPU_ALU] |854| 
    2943                      ; branchcc occurs ; [] |854| 
    2944 00000014 AAA9          MOVL      ACC,XAR2              ; [CPU_ALU] 
    2945 00000015 6007          B         $C$L99,NEQ            ; [CPU_ALU] |854| 
    2946                      ; branchcc occurs ; [] |854| 
    2947 00000016       $C$L98:    
    2948 00000016 FF20          MOV       ACC,#854              ; [CPU_ALU] |854| 
         00000017 0356 
    2949 00000018 8F00+         MOVL      XAR4,#$C$FSL1         ; [CPU_ARAU] |854| 
         00000019 0000 
    2950              $C$DW$186       .dwtag  DW_TAG_TI_branch
    2951                      .dwattr $C$DW$186, DW_AT_low_pc(0x00)
    2952                      .dwattr $C$DW$186, DW_AT_name("___error__")
    2953                      .dwattr $C$DW$186, DW_AT_TI_call
    2954              
    2955 0000001a 7640!         LCR       #___error__           ; [CPU_ALU] |854| 
         0000001b 0000 
    2956                      ; call occurs [#___error__] ; [] |854| 
    2957 0000001c       $C$L99:    
    2958 0000001c AAA9          MOVL      ACC,XAR2              ; [CPU_ALU] 
    2959                      .dwpsn  file "../device/driverlib/can.c",line 862,column 5,is_stmt,isa 0
    2960 0000001d 9B00          MOVB      AH,#0                 ; [CPU_ALU] |862| 
    2961 0000001e 90FF          ANDB      AL,#0xff              ; [CPU_ALU] |862| 
    2962 0000001f FF5A          MOVL      P,ACC                 ; [CPU_ALU] |862| 
    2963 00000020 86A9          MOVL      XAR2,ACC              ; [CPU_ALU] |862| 
    2964 00000021 B2A9          MOVL      ACC,XAR1              ; [CPU_ALU] |862| 
    2965 00000022 FF15          ADD       ACC,#9 << 5           ; [CPU_ALU] |862| 
         00000023 0009 
    2966 00000024 8AA9          MOVL      XAR4,ACC              ; [CPU_ALU] |862| 
    2967 00000025 1AAA          OR        PH,#51                ; [CPU_ALU] |862| 
         00000026 0033 
    2968                      .dwpsn  file "../device/driverlib/can.c",line 870,column 11,is_stmt,isa 0
    2969 00000027 8D00          MOVL      XAR0,#288             ; [CPU_FPU] |870| 
         00000028 0120 
    2970                      .dwpsn  file "../device/driverlib/can.c",line 862,column 5,is_stmt,isa 0
    2971 00000029 A9C4          MOVL      *+XAR4[0],P           ; [CPU_ALU] |862| 
    2972 0000002a       $C$L100:    
    2973                      .dwpsn  file "../device/driverlib/can.c",line 870,column 11,is_stmt,isa 0
    2974 0000002a B2A9          MOVL      ACC,XAR1              ; [CPU_ALU] |870| 
    2975 0000002b FF15          ADD       ACC,#9 << 5           ; [CPU_ALU] |870| 
         0000002c 0009 
    2976 0000002d 4F91          TBIT      *+XAR1[AR0],#15       ; [CPU_ALU] |870| 
    2977 0000002e 8AA9          MOVL      XAR4,ACC              ; [CPU_FPU] |870| 
    2978 0000002f 6DFB          B         $C$L100,TC            ; [CPU_ALU] |870| 
    2979                      ; branchcc occurs ; [] |870| 
    2980                      .dwpsn  file "../device/driverlib/can.c",line 877,column 5,is_stmt,isa 0
    2981 00000030 8D00          MOVL      XAR0,#300             ; [CPU_ALU] |877| 
         00000031 012C 
    2982 00000032 9291          MOV       AL,*+XAR1[AR0]        ; [CPU_ALU] |877| 
TMS320C2000 Assembler PC v22.6.1 Wed May 21 09:51:56 2025

Copyright (c) 1996-2018 Texas Instruments Incorporated
C:\Users\Daniel\AppData\Local\Temp\{3E78D54A-297D-4D45-89F7-B8D766A9F422} PAGE   59

    2983                      .dwpsn  file "../device/driverlib/can.c",line 882,column 5,is_stmt,isa 0
    2984 00000033 4FA9          TBIT      AL,#15                ; [CPU_ALU] |882| 
    2985 00000034 6C1B          B         $C$L104,NTC           ; [CPU_ALU] |882| 
    2986                      ; branchcc occurs ; [] |882| 
    2987                      .dwpsn  file "..\device\driverlib\can.h",line 485,column 1,is_stmt,isa 0
    2988 00000035 900F          ANDB      AL,#15                ; [CPU_ALU] |485| 
    2989 00000036 88A9          MOVZ      AR6,AL                ; [CPU_ALU] |485| 
    2990 00000037 80A9          MOVZ      AR7,AL                ; [CPU_ALU] |485| 
    2991                      .dwpsn  file "..\device\driverlib\can.h",line 487,column 22,is_stmt,isa 0
    2992 00000038 B2A9          MOVL      ACC,XAR1              ; [CPU_ALU] |487| 
    2993 00000039 FF14          ADD       ACC,#19 << 4          ; [CPU_ALU] |487| 
         0000003a 0013 
    2994 0000003b 8BA9          MOVL      XAR1,ACC              ; [CPU_ALU] |487| 
    2995 0000003c 92A6          MOV       AL,AR6                ; [CPU_ALU] |487| 
    2996                      .dwpsn  file "..\device\driverlib\can.h",line 492,column 19,is_stmt,isa 0
    2997 0000003d 610A          B         $C$L102,EQ            ; [CPU_ALU] |492| 
    2998                      ; branchcc occurs ; [] |492| 
    2999 0000003e D500          MOVB      XAR5,#0               ; [CPU_ALU] 
    3000 0000003f       $C$L101:    
    3001 0000003f DD01          ADDB      XAR5,#1               ; [CPU_ALU] |492| 
    3002                      .dwpsn  file "..\device\driverlib\can.h",line 497,column 9,is_stmt,isa 0
    3003 00000040 C6C1          MOVB      AL.LSB,*+XAR1[0]      ; [CPU_FPU] |497| 
    3004                      .dwpsn  file "..\device\driverlib\can.h",line 492,column 19,is_stmt,isa 0
    3005 00000041 88A5          MOVZ      AR6,AR5               ; [CPU_ALU] |492| 
    3006                      .dwpsn  file "..\device\driverlib\can.h",line 497,column 9,is_stmt,isa 0
    3007 00000042 9683          MOV       *XAR3++,AL            ; [CPU_ALU] |497| 
    3008 00000043 06A7          MOVL      ACC,XAR7              ; [CPU_ALU] |497| 
    3009                      .dwpsn  file "..\device\driverlib\can.h",line 499,column 9,is_stmt,isa 0
    3010 00000044 D901          ADDB      XAR1,#1               ; [CPU_ALU] |499| 
    3011                      .dwpsn  file "..\device\driverlib\can.h",line 492,column 19,is_stmt,isa 0
    3012 00000045 0FA6          CMPL      ACC,XAR6              ; [CPU_ALU] |492| 
    3013 00000046 66F9          B         $C$L101,HI            ; [CPU_ALU] |492| 
    3014                      ; branchcc occurs ; [] |492| 
    3015 00000047       $C$L102:    
    3016                      .dwpsn  file "../device/driverlib/can.c",line 895,column 9,is_stmt,isa 0
    3017 00000047 AAAB          MOVL      P,XAR2                ; [CPU_ALU] |895| 
    3018                      .dwpsn  file "../device/driverlib/can.c",line 890,column 9,is_stmt,isa 0
    3019 00000048 9A01          MOVB      AL,#1                 ; [CPU_ALU] |890| 
    3020                      .dwpsn  file "../device/driverlib/can.c",line 895,column 9,is_stmt,isa 0
    3021 00000049 1AAA          OR        PH,#4                 ; [CPU_ALU] |895| 
         0000004a 0004 
    3022 0000004b A9C4          MOVL      *+XAR4[0],P           ; [CPU_ALU] |895| 
    3023 0000004c       $C$L103:    
    3024 0000004c 4FC4          TBIT      *+XAR4[0],#15         ; [CPU_ALU] 
    3025 0000004d 6DFF          B         $C$L103,TC            ; [CPU_ALU] 
    3026                      ; branchcc occurs ; [] 
    3027 0000004e 6F02          B         $C$L105,UNC           ; [CPU_ALU] 
    3028                      ; branch occurs ; [] 
    3029 0000004f       $C$L104:    
    3030                      .dwpsn  file "../device/driverlib/can.c",line 908,column 9,is_stmt,isa 0
    3031 0000004f 9A00          MOVB      AL,#0                 ; [CPU_ALU] |908| 
    3032 00000050       $C$L105:    
    3033 00000050 82BE          MOVL      XAR3,*--SP            ; [CPU_ALU] 
    3034                      .dwcfi  cfa_offset, -6
    3035                      .dwcfi  restore_reg, 11
TMS320C2000 Assembler PC v22.6.1 Wed May 21 09:51:56 2025

Copyright (c) 1996-2018 Texas Instruments Incorporated
C:\Users\Daniel\AppData\Local\Temp\{3E78D54A-297D-4D45-89F7-B8D766A9F422} PAGE   60

    3036 00000051 86BE          MOVL      XAR2,*--SP            ; [CPU_ALU] 
    3037                      .dwcfi  cfa_offset, -4
    3038                      .dwcfi  restore_reg, 9
    3039 00000052 8BBE          MOVL      XAR1,*--SP            ; [CPU_ALU] 
    3040                      .dwcfi  cfa_offset, -2
    3041                      .dwcfi  restore_reg, 7
    3042              $C$DW$187       .dwtag  DW_TAG_TI_branch
    3043                      .dwattr $C$DW$187, DW_AT_low_pc(0x00)
    3044                      .dwattr $C$DW$187, DW_AT_TI_return
    3045              
    3046 00000053 0006          LRETR     ; [CPU_ALU] 
    3047                      ; return occurs ; [] 
    3048                      .dwattr $C$DW$174, DW_AT_TI_end_file("../device/driverlib/can.c")
    3049                      .dwattr $C$DW$174, DW_AT_TI_end_line(0x390)
    3050                      .dwattr $C$DW$174, DW_AT_TI_end_column(0x01)
    3051                      .dwendentry
    3052                      .dwendtag $C$DW$174
    3053              
    3054 00000000               .sect   ".text:_CAN_readMessageWithID"
    3055                      .clink
    3056                      .global _CAN_readMessageWithID
    3057              
    3058              $C$DW$188       .dwtag  DW_TAG_subprogram
    3059                      .dwattr $C$DW$188, DW_AT_name("CAN_readMessageWithID")
    3060                      .dwattr $C$DW$188, DW_AT_low_pc(_CAN_readMessageWithID)
    3061                      .dwattr $C$DW$188, DW_AT_high_pc(0x00)
    3062                      .dwattr $C$DW$188, DW_AT_TI_symbol_name("_CAN_readMessageWithID")
    3063                      .dwattr $C$DW$188, DW_AT_external
    3064                      .dwattr $C$DW$188, DW_AT_type(*$C$DW$T$57)
    3065                      .dwattr $C$DW$188, DW_AT_TI_begin_file("../device/driverlib/can.c")
    3066                      .dwattr $C$DW$188, DW_AT_TI_begin_line(0x397)
    3067                      .dwattr $C$DW$188, DW_AT_TI_begin_column(0x06)
    3068                      .dwattr $C$DW$188, DW_AT_TI_max_frame_size(-14)
    3069                      .dwpsn  file "../device/driverlib/can.c",line 924,column 1,is_stmt,address _CAN_readMessageWithID,isa
    3070              
    3071                      .dwfde $C$DW$CIE, _CAN_readMessageWithID
    3072              $C$DW$189       .dwtag  DW_TAG_formal_parameter
    3073                      .dwattr $C$DW$189, DW_AT_name("base")
    3074                      .dwattr $C$DW$189, DW_AT_TI_symbol_name("_base")
    3075                      .dwattr $C$DW$189, DW_AT_type(*$C$DW$T$33)
    3076                      .dwattr $C$DW$189, DW_AT_location[DW_OP_reg0]
    3077              
    3078              $C$DW$190       .dwtag  DW_TAG_formal_parameter
    3079                      .dwattr $C$DW$190, DW_AT_name("objID")
    3080                      .dwattr $C$DW$190, DW_AT_TI_symbol_name("_objID")
    3081                      .dwattr $C$DW$190, DW_AT_type(*$C$DW$T$33)
    3082                      .dwattr $C$DW$190, DW_AT_location[DW_OP_breg20 -16]
    3083              
    3084              $C$DW$191       .dwtag  DW_TAG_formal_parameter
    3085                      .dwattr $C$DW$191, DW_AT_name("frameType")
    3086                      .dwattr $C$DW$191, DW_AT_TI_symbol_name("_frameType")
    3087                      .dwattr $C$DW$191, DW_AT_type(*$C$DW$T$22)
    3088                      .dwattr $C$DW$191, DW_AT_location[DW_OP_reg12]
    3089              
    3090              $C$DW$192       .dwtag  DW_TAG_formal_parameter
TMS320C2000 Assembler PC v22.6.1 Wed May 21 09:51:56 2025

Copyright (c) 1996-2018 Texas Instruments Incorporated
C:\Users\Daniel\AppData\Local\Temp\{3E78D54A-297D-4D45-89F7-B8D766A9F422} PAGE   61

    3091                      .dwattr $C$DW$192, DW_AT_name("msgID")
    3092                      .dwattr $C$DW$192, DW_AT_TI_symbol_name("_msgID")
    3093                      .dwattr $C$DW$192, DW_AT_type(*$C$DW$T$70)
    3094                      .dwattr $C$DW$192, DW_AT_location[DW_OP_reg14]
    3095              
    3096              $C$DW$193       .dwtag  DW_TAG_formal_parameter
    3097                      .dwattr $C$DW$193, DW_AT_name("msgData")
    3098                      .dwattr $C$DW$193, DW_AT_TI_symbol_name("_msgData")
    3099                      .dwattr $C$DW$193, DW_AT_type(*$C$DW$T$48)
    3100                      .dwattr $C$DW$193, DW_AT_location[DW_OP_breg20 -18]
    3101              
    3102              
    3103              ;***************************************************************
    3104              ;* FNAME: _CAN_readMessageWithID        FR SIZE:  12           *
    3105              ;*                                                             *
    3106              ;* FUNCTION ENVIRONMENT                                        *
    3107              ;*                                                             *
    3108              ;* FUNCTION PROPERTIES                                         *
    3109              ;*                            2 Parameter,  4 Auto,  6 SOE     *
    3110              ;***************************************************************
    3111              
    3112              _CAN_readMessageWithID:
    3113              ;* AR1   assigned to $O$K18
    3114              ;* AR1   assigned to _base
    3115              $C$DW$194       .dwtag  DW_TAG_variable
    3116                      .dwattr $C$DW$194, DW_AT_name("base")
    3117                      .dwattr $C$DW$194, DW_AT_TI_symbol_name("_base")
    3118                      .dwattr $C$DW$194, DW_AT_type(*$C$DW$T$44)
    3119                      .dwattr $C$DW$194, DW_AT_location[DW_OP_reg6]
    3120              
    3121              ;* AR2   assigned to _objID
    3122              $C$DW$195       .dwtag  DW_TAG_variable
    3123                      .dwattr $C$DW$195, DW_AT_name("objID")
    3124                      .dwattr $C$DW$195, DW_AT_TI_symbol_name("_objID")
    3125                      .dwattr $C$DW$195, DW_AT_type(*$C$DW$T$44)
    3126                      .dwattr $C$DW$195, DW_AT_location[DW_OP_reg8]
    3127              
    3128              $C$DW$196       .dwtag  DW_TAG_variable
    3129                      .dwattr $C$DW$196, DW_AT_name("frameType")
    3130                      .dwattr $C$DW$196, DW_AT_TI_symbol_name("_frameType")
    3131                      .dwattr $C$DW$196, DW_AT_type(*$C$DW$T$23)
    3132                      .dwattr $C$DW$196, DW_AT_location[DW_OP_breg20 -4]
    3133              
    3134              $C$DW$197       .dwtag  DW_TAG_variable
    3135                      .dwattr $C$DW$197, DW_AT_name("msgID")
    3136                      .dwattr $C$DW$197, DW_AT_TI_symbol_name("_msgID")
    3137                      .dwattr $C$DW$197, DW_AT_type(*$C$DW$T$85)
    3138                      .dwattr $C$DW$197, DW_AT_location[DW_OP_breg20 -6]
    3139              
    3140              ;* AR3   assigned to _msgData
    3141              $C$DW$198       .dwtag  DW_TAG_variable
    3142                      .dwattr $C$DW$198, DW_AT_name("msgData")
    3143                      .dwattr $C$DW$198, DW_AT_TI_symbol_name("_msgData")
    3144                      .dwattr $C$DW$198, DW_AT_type(*$C$DW$T$77)
    3145                      .dwattr $C$DW$198, DW_AT_location[DW_OP_reg10]
TMS320C2000 Assembler PC v22.6.1 Wed May 21 09:51:56 2025

Copyright (c) 1996-2018 Texas Instruments Incorporated
C:\Users\Daniel\AppData\Local\Temp\{3E78D54A-297D-4D45-89F7-B8D766A9F422} PAGE   62

    3146              
    3147              ;* AR6   assigned to _status
    3148              $C$DW$199       .dwtag  DW_TAG_variable
    3149                      .dwattr $C$DW$199, DW_AT_name("status")
    3150                      .dwattr $C$DW$199, DW_AT_TI_symbol_name("_status")
    3151                      .dwattr $C$DW$199, DW_AT_type(*$C$DW$T$57)
    3152                      .dwattr $C$DW$199, DW_AT_location[DW_OP_reg16]
    3153              
    3154                      .dwcfi  cfa_offset, -2
    3155                      .dwcfi  save_reg_to_mem, 26, 0
    3156 00000000 B2BD          MOVL      *SP++,XAR1            ; [CPU_ALU] 
    3157                      .dwcfi  save_reg_to_mem, 7, 2
    3158                      .dwcfi  cfa_offset, -4
    3159 00000001 AABD          MOVL      *SP++,XAR2            ; [CPU_ALU] 
    3160                      .dwcfi  save_reg_to_mem, 9, 4
    3161                      .dwcfi  cfa_offset, -6
    3162 00000002 A2BD          MOVL      *SP++,XAR3            ; [CPU_ALU] 
    3163                      .dwcfi  save_reg_to_mem, 11, 6
    3164                      .dwcfi  cfa_offset, -8
    3165 00000003 FE06          ADDB      SP,#6                 ; [CPU_ARAU] 
    3166                      .dwcfi  cfa_offset, -14
    3167 00000004 8BA9          MOVL      XAR1,ACC              ; [CPU_ALU] |924| 
    3168 00000005 A046          MOVL      *-SP[6],XAR5          ; [CPU_ALU] |924| 
    3169 00000006 A844          MOVL      *-SP[4],XAR4          ; [CPU_ALU] |924| 
    3170 00000007 8252          MOVL      XAR3,*-SP[18]         ; [CPU_ALU] |924| 
    3171 00000008 8650          MOVL      XAR2,*-SP[16]         ; [CPU_ALU] |924| 
    3172 00000009 0646          MOVL      ACC,*-SP[6]           ; [CPU_ALU] |924| 
    3173                      .dwpsn  file "../device/driverlib/can.c",line 930,column 5,is_stmt,isa 0
    3174 0000000a 6007          B         $C$L106,NEQ           ; [CPU_ALU] |930| 
    3175                      ; branchcc occurs ; [] |930| 
    3176 0000000b FF20          MOV       ACC,#930              ; [CPU_ALU] |930| 
         0000000c 03A2 
    3177 0000000d 8F00+         MOVL      XAR4,#$C$FSL1         ; [CPU_ARAU] |930| 
         0000000e 0000 
    3178              $C$DW$200       .dwtag  DW_TAG_TI_branch
    3179                      .dwattr $C$DW$200, DW_AT_low_pc(0x00)
    3180                      .dwattr $C$DW$200, DW_AT_name("___error__")
    3181                      .dwattr $C$DW$200, DW_AT_TI_call
    3182              
    3183 0000000f 7640!         LCR       #___error__           ; [CPU_ALU] |930| 
         00000010 0000 
    3184                      ; call occurs [#___error__] ; [] |930| 
    3185 00000011       $C$L106:    
    3186 00000011 0644          MOVL      ACC,*-SP[4]           ; [CPU_ALU] 
    3187                      .dwpsn  file "../device/driverlib/can.c",line 931,column 5,is_stmt,isa 0
    3188 00000012 6007          B         $C$L107,NEQ           ; [CPU_ALU] |931| 
    3189                      ; branchcc occurs ; [] |931| 
    3190 00000013 FF20          MOV       ACC,#931              ; [CPU_ALU] |931| 
         00000014 03A3 
    3191 00000015 8F00+         MOVL      XAR4,#$C$FSL1         ; [CPU_ARAU] |931| 
         00000016 0000 
    3192              $C$DW$201       .dwtag  DW_TAG_TI_branch
    3193                      .dwattr $C$DW$201, DW_AT_low_pc(0x00)
    3194                      .dwattr $C$DW$201, DW_AT_name("___error__")
    3195                      .dwattr $C$DW$201, DW_AT_TI_call
TMS320C2000 Assembler PC v22.6.1 Wed May 21 09:51:56 2025

Copyright (c) 1996-2018 Texas Instruments Incorporated
C:\Users\Daniel\AppData\Local\Temp\{3E78D54A-297D-4D45-89F7-B8D766A9F422} PAGE   63

    3196              
    3197 00000017 7640!         LCR       #___error__           ; [CPU_ALU] |931| 
         00000018 0000 
    3198                      ; call occurs [#___error__] ; [] |931| 
    3199 00000019       $C$L107:    
    3200                      .dwpsn  file "../device/driverlib/can.c",line 937,column 5,is_stmt,isa 0
    3201 00000019 AA42          MOVL      *-SP[2],XAR2          ; [CPU_ALU] |937| 
    3202 0000001a B2A9          MOVL      ACC,XAR1              ; [CPU_ALU] |937| 
    3203 0000001b 8AA3          MOVL      XAR4,XAR3             ; [CPU_ALU] |937| 
    3204              $C$DW$202       .dwtag  DW_TAG_TI_branch
    3205                      .dwattr $C$DW$202, DW_AT_low_pc(0x00)
    3206                      .dwattr $C$DW$202, DW_AT_name("_CAN_readMessage")
    3207                      .dwattr $C$DW$202, DW_AT_TI_call
    3208              
    3209 0000001c 7640+         LCR       #_CAN_readMessage     ; [CPU_ALU] |937| 
         0000001d 0000 
    3210                      ; call occurs [#_CAN_readMessage] ; [] |937| 
    3211 0000001e 5200          CMPB      AL,#0                 ; [CPU_ALU] |937| 
    3212 0000001f 88A9          MOVZ      AR6,AL                ; [CPU_FPU] |937| 
    3213 00000020 611C          B         $C$L109,EQ            ; [CPU_ALU] |937| 
    3214                      ; branchcc occurs ; [] |937| 
    3215                      .dwpsn  file "../device/driverlib/can.c",line 943,column 9,is_stmt,isa 0
    3216 00000021 B2A9          MOVL      ACC,XAR1              ; [CPU_ALU] |943| 
    3217 00000022 FF13          ADD       ACC,#37 << 3          ; [CPU_ALU] |943| 
         00000023 0025 
    3218 00000024 8BA9          MOVL      XAR1,ACC              ; [CPU_ALU] |943| 
    3219 00000025 06C1          MOVL      ACC,*+XAR1[0]         ; [CPU_ALU] |943| 
    3220 00000026 4EA8          TBIT      AH,#14                ; [CPU_ALU] |943| 
    3221 00000027 6D0D          B         $C$L108,TC            ; [CPU_ALU] |943| 
    3222                      ; branchcc occurs ; [] |943| 
