TMS320C2000 Assembler PC v22.6.1 Wed May 21 09:51:56 2025

Copyright (c) 1996-2018 Texas Instruments Incorporated
C:\Users\Daniel\AppData\Local\Temp\{272745BC-BD99-44CF-8E82-6767BE003200} PAGE    1

       1              ;***************************************************************
       2              ;* TMS320C2000 G3 C/C++ Codegen                               PC v22.6.1.LTS *
       3              ;* Date/Time created: Wed May 21 09:51:56 2025                 *
       4              ;***************************************************************
       5                      .compiler_opts --abi=coffabi --cla_support=cla2 --diag_wrap=off --float_support=fpu32 --hll_source=on
       6                      .asg    XAR2, FP
       7              
       8              $C$DW$CU        .dwtag  DW_TAG_compile_unit
       9                      .dwattr $C$DW$CU, DW_AT_name("../device/driverlib/cmpss.c")
      10                      .dwattr $C$DW$CU, DW_AT_producer("TI TMS320C2000 G3 C/C++ Codegen PC v22.6.1.LTS Copyright (c) 1996-2
      11                      .dwattr $C$DW$CU, DW_AT_TI_version(0x01)
      12                      .dwattr $C$DW$CU, DW_AT_comp_dir("C:\Users\Daniel\CodeComposer\UPS_MUCI\CPU1_FLASH")
      13              
      14              $C$DW$1 .dwtag  DW_TAG_subprogram
      15                      .dwattr $C$DW$1, DW_AT_name("__error__")
      16                      .dwattr $C$DW$1, DW_AT_TI_symbol_name("___error__")
      17                      .dwattr $C$DW$1, DW_AT_declaration
      18                      .dwattr $C$DW$1, DW_AT_external
      19              $C$DW$2 .dwtag  DW_TAG_formal_parameter
      20                      .dwattr $C$DW$2, DW_AT_type(*$C$DW$T$21)
      21              
      22              $C$DW$3 .dwtag  DW_TAG_formal_parameter
      23                      .dwattr $C$DW$3, DW_AT_type(*$C$DW$T$23)
      24              
      25                      .dwendtag $C$DW$1
      26              
      27              
      28              $C$DW$4 .dwtag  DW_TAG_subprogram
      29                      .dwattr $C$DW$4, DW_AT_name("__eallow")
      30                      .dwattr $C$DW$4, DW_AT_TI_symbol_name("___eallow")
      31                      .dwattr $C$DW$4, DW_AT_declaration
      32                      .dwattr $C$DW$4, DW_AT_external
      33                      .dwendtag $C$DW$4
      34              
      35              
      36              $C$DW$5 .dwtag  DW_TAG_subprogram
      37                      .dwattr $C$DW$5, DW_AT_name("__edis")
      38                      .dwattr $C$DW$5, DW_AT_TI_symbol_name("___edis")
      39                      .dwattr $C$DW$5, DW_AT_declaration
      40                      .dwattr $C$DW$5, DW_AT_external
      41                      .dwendtag $C$DW$5
      42              
      43              ;       D:\Programs\TI\ccs1281\ccs\tools\compiler\ti-cgt-c2000_22.6.1.LTS\bin\opt2000.exe C:\\Users\\Daniel\\
      44              ;       D:\Programs\TI\ccs1281\ccs\tools\compiler\ti-cgt-c2000_22.6.1.LTS\bin\ac2000.exe -@C:\\Users\\Daniel\
      45 00000000               .sect   ".text:_CMPSS_configRamp"
      46                      .clink
      47                      .global _CMPSS_configRamp
      48              
      49              $C$DW$6 .dwtag  DW_TAG_subprogram
      50                      .dwattr $C$DW$6, DW_AT_name("CMPSS_configRamp")
      51                      .dwattr $C$DW$6, DW_AT_low_pc(_CMPSS_configRamp)
      52                      .dwattr $C$DW$6, DW_AT_high_pc(0x00)
      53                      .dwattr $C$DW$6, DW_AT_TI_symbol_name("_CMPSS_configRamp")
      54                      .dwattr $C$DW$6, DW_AT_external
      55                      .dwattr $C$DW$6, DW_AT_TI_begin_file("../device/driverlib/cmpss.c")
TMS320C2000 Assembler PC v22.6.1 Wed May 21 09:51:56 2025

Copyright (c) 1996-2018 Texas Instruments Incorporated
C:\Users\Daniel\AppData\Local\Temp\{272745BC-BD99-44CF-8E82-6767BE003200} PAGE    2

      56                      .dwattr $C$DW$6, DW_AT_TI_begin_line(0xaf)
      57                      .dwattr $C$DW$6, DW_AT_TI_begin_column(0x01)
      58                      .dwattr $C$DW$6, DW_AT_TI_max_frame_size(-12)
      59                      .dwpsn  file "../device/driverlib/cmpss.c",line 177,column 1,is_stmt,address _CMPSS_configRamp,isa 0
      60              
      61                      .dwfde $C$DW$CIE, _CMPSS_configRamp
      62              $C$DW$7 .dwtag  DW_TAG_formal_parameter
      63                      .dwattr $C$DW$7, DW_AT_name("base")
      64                      .dwattr $C$DW$7, DW_AT_TI_symbol_name("_base")
      65                      .dwattr $C$DW$7, DW_AT_type(*$C$DW$T$23)
      66                      .dwattr $C$DW$7, DW_AT_location[DW_OP_reg0]
      67              
      68              $C$DW$8 .dwtag  DW_TAG_formal_parameter
      69                      .dwattr $C$DW$8, DW_AT_name("maxRampVal")
      70                      .dwattr $C$DW$8, DW_AT_TI_symbol_name("_maxRampVal")
      71                      .dwattr $C$DW$8, DW_AT_type(*$C$DW$T$27)
      72                      .dwattr $C$DW$8, DW_AT_location[DW_OP_reg12]
      73              
      74              $C$DW$9 .dwtag  DW_TAG_formal_parameter
      75                      .dwattr $C$DW$9, DW_AT_name("decrementVal")
      76                      .dwattr $C$DW$9, DW_AT_TI_symbol_name("_decrementVal")
      77                      .dwattr $C$DW$9, DW_AT_type(*$C$DW$T$27)
      78                      .dwattr $C$DW$9, DW_AT_location[DW_OP_reg14]
      79              
      80              $C$DW$10        .dwtag  DW_TAG_formal_parameter
      81                      .dwattr $C$DW$10, DW_AT_name("delayVal")
      82                      .dwattr $C$DW$10, DW_AT_TI_symbol_name("_delayVal")
      83                      .dwattr $C$DW$10, DW_AT_type(*$C$DW$T$27)
      84                      .dwattr $C$DW$10, DW_AT_location[DW_OP_breg20 -13]
      85              
      86              $C$DW$11        .dwtag  DW_TAG_formal_parameter
      87                      .dwattr $C$DW$11, DW_AT_name("pwmSyncSrc")
      88                      .dwattr $C$DW$11, DW_AT_TI_symbol_name("_pwmSyncSrc")
      89                      .dwattr $C$DW$11, DW_AT_type(*$C$DW$T$27)
      90                      .dwattr $C$DW$11, DW_AT_location[DW_OP_breg20 -14]
      91              
      92              $C$DW$12        .dwtag  DW_TAG_formal_parameter
      93                      .dwattr $C$DW$12, DW_AT_name("useRampValShdw")
      94                      .dwattr $C$DW$12, DW_AT_TI_symbol_name("_useRampValShdw")
      95                      .dwattr $C$DW$12, DW_AT_type(*$C$DW$T$29)
      96                      .dwattr $C$DW$12, DW_AT_location[DW_OP_breg20 -15]
      97              
      98              
      99              ;***************************************************************
     100              ;* FNAME: _CMPSS_configRamp             FR SIZE:  10           *
     101              ;*                                                             *
     102              ;* FUNCTION ENVIRONMENT                                        *
     103              ;*                                                             *
     104              ;* FUNCTION PROPERTIES                                         *
     105              ;*                            0 Parameter,  3 Auto,  6 SOE     *
     106              ;***************************************************************
     107              
     108              _CMPSS_configRamp:
     109              ;* AR1   assigned to $O$K31
     110              ;* AR3   assigned to _base
TMS320C2000 Assembler PC v22.6.1 Wed May 21 09:51:56 2025

Copyright (c) 1996-2018 Texas Instruments Incorporated
C:\Users\Daniel\AppData\Local\Temp\{272745BC-BD99-44CF-8E82-6767BE003200} PAGE    3

     111              $C$DW$13        .dwtag  DW_TAG_variable
     112                      .dwattr $C$DW$13, DW_AT_name("base")
     113                      .dwattr $C$DW$13, DW_AT_TI_symbol_name("_base")
     114                      .dwattr $C$DW$13, DW_AT_type(*$C$DW$T$42)
     115                      .dwattr $C$DW$13, DW_AT_location[DW_OP_reg10]
     116              
     117              $C$DW$14        .dwtag  DW_TAG_variable
     118                      .dwattr $C$DW$14, DW_AT_name("maxRampVal")
     119                      .dwattr $C$DW$14, DW_AT_TI_symbol_name("_maxRampVal")
     120                      .dwattr $C$DW$14, DW_AT_type(*$C$DW$T$40)
     121                      .dwattr $C$DW$14, DW_AT_location[DW_OP_breg20 -1]
     122              
     123              $C$DW$15        .dwtag  DW_TAG_variable
     124                      .dwattr $C$DW$15, DW_AT_name("decrementVal")
     125                      .dwattr $C$DW$15, DW_AT_TI_symbol_name("_decrementVal")
     126                      .dwattr $C$DW$15, DW_AT_type(*$C$DW$T$40)
     127                      .dwattr $C$DW$15, DW_AT_location[DW_OP_breg20 -2]
     128              
     129              ;* AR2   assigned to _delayVal
     130              $C$DW$16        .dwtag  DW_TAG_variable
     131                      .dwattr $C$DW$16, DW_AT_name("delayVal")
     132                      .dwattr $C$DW$16, DW_AT_TI_symbol_name("_delayVal")
     133                      .dwattr $C$DW$16, DW_AT_type(*$C$DW$T$40)
     134                      .dwattr $C$DW$16, DW_AT_location[DW_OP_reg8]
     135              
     136              ;* AR1   assigned to _pwmSyncSrc
     137              $C$DW$17        .dwtag  DW_TAG_variable
     138                      .dwattr $C$DW$17, DW_AT_name("pwmSyncSrc")
     139                      .dwattr $C$DW$17, DW_AT_TI_symbol_name("_pwmSyncSrc")
     140                      .dwattr $C$DW$17, DW_AT_type(*$C$DW$T$40)
     141                      .dwattr $C$DW$17, DW_AT_location[DW_OP_reg6]
     142              
     143              $C$DW$18        .dwtag  DW_TAG_variable
     144                      .dwattr $C$DW$18, DW_AT_name("useRampValShdw")
     145                      .dwattr $C$DW$18, DW_AT_TI_symbol_name("_useRampValShdw")
     146                      .dwattr $C$DW$18, DW_AT_type(*$C$DW$T$44)
     147                      .dwattr $C$DW$18, DW_AT_location[DW_OP_breg20 -3]
     148              
     149                      .dwcfi  cfa_offset, -2
     150                      .dwcfi  save_reg_to_mem, 26, 0
     151 00000000 B2BD          MOVL      *SP++,XAR1            ; [CPU_ALU] 
     152                      .dwcfi  save_reg_to_mem, 7, 2
     153                      .dwcfi  cfa_offset, -4
     154 00000001 AABD          MOVL      *SP++,XAR2            ; [CPU_ALU] 
     155                      .dwcfi  save_reg_to_mem, 9, 4
     156                      .dwcfi  cfa_offset, -6
     157 00000002 A2BD          MOVL      *SP++,XAR3            ; [CPU_ALU] 
     158                      .dwcfi  save_reg_to_mem, 11, 6
     159                      .dwcfi  cfa_offset, -8
     160 00000003 FE04          ADDB      SP,#4                 ; [CPU_ARAU] 
     161                      .dwcfi  cfa_offset, -12
     162 00000004 82A9          MOVL      XAR3,ACC              ; [CPU_ALU] |177| 
     163                      .dwpsn  file "..\device\driverlib\cmpss.h",line 222,column 5,is_stmt,isa 0
     164 00000005 FF20          MOV       ACC,#23680            ; [CPU_ALU] |222| 
         00000006 5C80 
TMS320C2000 Assembler PC v22.6.1 Wed May 21 09:51:56 2025

Copyright (c) 1996-2018 Texas Instruments Incorporated
C:\Users\Daniel\AppData\Local\Temp\{272745BC-BD99-44CF-8E82-6767BE003200} PAGE    4

     165                      .dwpsn  file "../device/driverlib/cmpss.c",line 177,column 1,is_stmt,isa 0
     166 00000007 884F          MOVZ      AR6,*-SP[15]          ; [CPU_ALU] |177| 
     167 00000008 594E          MOVZ      AR1,*-SP[14]          ; [CPU_ALU] |177| 
     168 00000009 5A4D          MOVZ      AR2,*-SP[13]          ; [CPU_ALU] |177| 
     169 0000000a 7D42          MOV       *-SP[2],AR5           ; [CPU_ALU] |177| 
     170 0000000b 7C41          MOV       *-SP[1],AR4           ; [CPU_ALU] |177| 
     171                      .dwpsn  file "..\device\driverlib\cmpss.h",line 222,column 5,is_stmt,isa 0
     172 0000000c 0FA3          CMPL      ACC,XAR3              ; [CPU_ALU] |222| 
     173                      .dwpsn  file "../device/driverlib/cmpss.c",line 177,column 1,is_stmt,isa 0
     174 0000000d 7E43          MOV       *-SP[3],AR6           ; [CPU_ALU] |177| 
     175                      .dwpsn  file "..\device\driverlib\cmpss.h",line 222,column 5,is_stmt,isa 0
     176 0000000e 610D          B         $C$L1,EQ              ; [CPU_ALU] |222| 
     177                      ; branchcc occurs ; [] |222| 
     178 0000000f FF20          MOV       ACC,#23712            ; [CPU_ALU] |222| 
         00000010 5CA0 
     179 00000011 0FA3          CMPL      ACC,XAR3              ; [CPU_ALU] |222| 
     180 00000012 6109          B         $C$L1,EQ              ; [CPU_ALU] |222| 
     181                      ; branchcc occurs ; [] |222| 
     182 00000013 FF20          MOV       ACC,#23744            ; [CPU_ALU] |222| 
         00000014 5CC0 
     183 00000015 0FA3          CMPL      ACC,XAR3              ; [CPU_ALU] |222| 
     184 00000016 6105          B         $C$L1,EQ              ; [CPU_ALU] |222| 
     185                      ; branchcc occurs ; [] |222| 
     186 00000017 FF20          MOV       ACC,#23776            ; [CPU_ALU] |222| 
         00000018 5CE0 
     187 00000019 0FA3          CMPL      ACC,XAR3              ; [CPU_ALU] |222| 
     188 0000001a 6003          B         $C$L2,NEQ             ; [CPU_ALU] |222| 
     189                      ; branchcc occurs ; [] |222| 
     190 0000001b       $C$L1:    
     191 0000001b 9A01          MOVB      AL,#1                 ; [CPU_ALU] |222| 
     192 0000001c 6006          B         $C$L3,NEQ             ; [CPU_ALU] |222| 
     193                      ; branchcc occurs ; [] |222| 
     194 0000001d       $C$L2:    
     195                      .dwpsn  file "../device/driverlib/cmpss.c",line 181,column 5,is_stmt,isa 0
     196 0000001d 8F00+         MOVL      XAR4,#$C$FSL1         ; [CPU_ARAU] |181| 
         0000001e 0000 
     197 0000001f 02B5          MOVB      ACC,#181              ; [CPU_ALU] |181| 
     198              $C$DW$19        .dwtag  DW_TAG_TI_branch
     199                      .dwattr $C$DW$19, DW_AT_low_pc(0x00)
     200                      .dwattr $C$DW$19, DW_AT_name("___error__")
     201                      .dwattr $C$DW$19, DW_AT_TI_call
     202              
     203 00000020 7640!         LCR       #___error__           ; [CPU_ALU] |181| 
         00000021 0000 
     204                      ; call occurs [#___error__] ; [] |181| 
     205 00000022       $C$L3:    
     206                      .dwpsn  file "../device/driverlib/cmpss.c",line 182,column 5,is_stmt,isa 0
     207 00000022 1BA2          CMP       AR2,#8191             ; [CPU_ALU] |182| 
         00000023 1FFF 
     208 00000024 6906          B         $C$L4,LOS             ; [CPU_ALU] |182| 
     209                      ; branchcc occurs ; [] |182| 
     210 00000025 8F00+         MOVL      XAR4,#$C$FSL1         ; [CPU_ARAU] |182| 
         00000026 0000 
     211 00000027 02B6          MOVB      ACC,#182              ; [CPU_ALU] |182| 
     212              $C$DW$20        .dwtag  DW_TAG_TI_branch
TMS320C2000 Assembler PC v22.6.1 Wed May 21 09:51:56 2025

Copyright (c) 1996-2018 Texas Instruments Incorporated
C:\Users\Daniel\AppData\Local\Temp\{272745BC-BD99-44CF-8E82-6767BE003200} PAGE    5

     213                      .dwattr $C$DW$20, DW_AT_low_pc(0x00)
     214                      .dwattr $C$DW$20, DW_AT_name("___error__")
     215                      .dwattr $C$DW$20, DW_AT_TI_call
     216              
     217 00000028 7640!         LCR       #___error__           ; [CPU_ALU] |182| 
         00000029 0000 
     218                      ; call occurs [#___error__] ; [] |182| 
     219 0000002a       $C$L4:    
     220                      .dwpsn  file "../device/driverlib/cmpss.c",line 183,column 5,is_stmt,isa 0
     221 0000002a D981          SUBB      XAR1,#1               ; [CPU_ARAU] |183| 
     222 0000002b 92A1          MOV       AL,AR1                ; [CPU_ALU] |183| 
     223 0000002c 5208          CMPB      AL,#8                 ; [CPU_ALU] |183| 
     224 0000002d 6806          B         $C$L5,LO              ; [CPU_ALU] |183| 
     225                      ; branchcc occurs ; [] |183| 
     226 0000002e 8F00+         MOVL      XAR4,#$C$FSL1         ; [CPU_ARAU] |183| 
         0000002f 0000 
     227 00000030 02B7          MOVB      ACC,#183              ; [CPU_ALU] |183| 
     228              $C$DW$21        .dwtag  DW_TAG_TI_branch
     229                      .dwattr $C$DW$21, DW_AT_low_pc(0x00)
     230                      .dwattr $C$DW$21, DW_AT_name("___error__")
     231                      .dwattr $C$DW$21, DW_AT_TI_call
     232              
     233 00000031 7640!         LCR       #___error__           ; [CPU_ALU] |183| 
         00000032 0000 
     234                      ; call occurs [#___error__] ; [] |183| 
     235 00000033       $C$L5:    
     236                      .dwpsn  file "../device/driverlib/cmpss.c",line 185,column 5,is_stmt,isa 0
     237 00000033 7622          EALLOW    ; [CPU_ALU] |185| 
     238                      .dwpsn  file "../device/driverlib/cmpss.c",line 190,column 5,is_stmt,isa 0
     239 00000034 CCE3          AND       AL,*+XAR3[4],#0xffe1  ; [CPU_ALU] |190| 
         00000035 FFE1 
     240 00000036 88A9          MOVZ      AR6,AL                ; [CPU_ALU] |190| 
     241 00000037 5603          MOV       ACC,AR1 << #1         ; [CPU_ALU] |190| 
         00000038 01A1 
     242 00000039 CAA6          OR        AL,AR6                ; [CPU_ALU] |190| 
     243 0000003a 96E3          MOV       *+XAR3[4],AL          ; [CPU_ALU] |190| 
     244 0000003b 9243          MOV       AL,*-SP[3]            ; [CPU_ALU] |190| 
     245                      .dwpsn  file "../device/driverlib/cmpss.c",line 199,column 5,is_stmt,isa 0
     246 0000003c 5201          CMPB      AL,#1                 ; [CPU_ALU] |199| 
     247 0000003d 6104          B         $C$L6,EQ              ; [CPU_ALU] |199| 
     248                      ; branchcc occurs ; [] |199| 
     249                      .dwpsn  file "../device/driverlib/cmpss.c",line 205,column 9,is_stmt,isa 0
     250 0000003e 18E3          AND       *+XAR3[4],#0xffbf     ; [CPU_ALU] |205| 
         0000003f FFBF 
     251 00000040 6F03          B         $C$L7,UNC             ; [CPU_ALU] |205| 
     252                      ; branch occurs ; [] |205| 
     253 00000041       $C$L6:    
     254                      .dwpsn  file "../device/driverlib/cmpss.c",line 201,column 9,is_stmt,isa 0
     255 00000041 1AE3          OR        *+XAR3[4],#0x0040     ; [CPU_ALU] |201| 
         00000042 0040 
     256 00000043       $C$L7:    
     257                      .dwpsn  file "../device/driverlib/cmpss.c",line 208,column 5,is_stmt,isa 0
     258 00000043 761A          EDIS      ; [CPU_ALU] |208| 
     259                      .dwpsn  file "../device/driverlib/cmpss.c",line 213,column 5,is_stmt,isa 0
     260 00000044 D00A          MOVB      XAR0,#10              ; [CPU_ALU] |213| 
TMS320C2000 Assembler PC v22.6.1 Wed May 21 09:51:56 2025

Copyright (c) 1996-2018 Texas Instruments Incorporated
C:\Users\Daniel\AppData\Local\Temp\{272745BC-BD99-44CF-8E82-6767BE003200} PAGE    6

     261 00000045 9241          MOV       AL,*-SP[1]            ; [CPU_ALU] |213| 
     262                      .dwpsn  file "../device/driverlib/cmpss.c",line 218,column 5,is_stmt,isa 0
     263 00000046 D10E          MOVB      XAR1,#14              ; [CPU_ALU] |218| 
     264                      .dwpsn  file "../device/driverlib/cmpss.c",line 213,column 5,is_stmt,isa 0
     265 00000047 9693          MOV       *+XAR3[AR0],AL        ; [CPU_ALU] |213| 
     266                      .dwpsn  file "../device/driverlib/cmpss.c",line 223,column 5,is_stmt,isa 0
     267 00000048 9242          MOV       AL,*-SP[2]            ; [CPU_ALU] |223| 
     268 00000049 D015          MOVB      XAR0,#21              ; [CPU_ALU] |223| 
     269                      .dwpsn  file "../device/driverlib/cmpss.c",line 218,column 5,is_stmt,isa 0
     270 0000004a 969B          MOV       *+XAR3[AR1],AL        ; [CPU_ALU] |218| 
     271 0000004b FE84          SUBB      SP,#4                 ; [CPU_ARAU] 
     272                      .dwcfi  cfa_offset, -8
     273                      .dwpsn  file "../device/driverlib/cmpss.c",line 223,column 5,is_stmt,isa 0
     274 0000004c 7A93          MOV       *+XAR3[AR0],AR2       ; [CPU_ALU] |223| 
     275 0000004d 82BE          MOVL      XAR3,*--SP            ; [CPU_ALU] 
     276                      .dwcfi  cfa_offset, -6
     277                      .dwcfi  restore_reg, 11
     278 0000004e 86BE          MOVL      XAR2,*--SP            ; [CPU_ALU] 
     279                      .dwcfi  cfa_offset, -4
     280                      .dwcfi  restore_reg, 9
     281 0000004f 8BBE          MOVL      XAR1,*--SP            ; [CPU_ALU] 
     282                      .dwcfi  cfa_offset, -2
     283                      .dwcfi  restore_reg, 7
     284              $C$DW$22        .dwtag  DW_TAG_TI_branch
     285                      .dwattr $C$DW$22, DW_AT_low_pc(0x00)
     286                      .dwattr $C$DW$22, DW_AT_TI_return
     287              
     288 00000050 0006          LRETR     ; [CPU_ALU] 
     289                      ; return occurs ; [] 
     290                      .dwattr $C$DW$6, DW_AT_TI_end_file("../device/driverlib/cmpss.c")
     291                      .dwattr $C$DW$6, DW_AT_TI_end_line(0xe0)
     292                      .dwattr $C$DW$6, DW_AT_TI_end_column(0x01)
     293                      .dwendentry
     294                      .dwendtag $C$DW$6
     295              
     296 00000000               .sect   ".text:_CMPSS_configLatchOnPWMSYNC"
     297                      .clink
     298                      .global _CMPSS_configLatchOnPWMSYNC
     299              
     300              $C$DW$23        .dwtag  DW_TAG_subprogram
     301                      .dwattr $C$DW$23, DW_AT_name("CMPSS_configLatchOnPWMSYNC")
     302                      .dwattr $C$DW$23, DW_AT_low_pc(_CMPSS_configLatchOnPWMSYNC)
     303                      .dwattr $C$DW$23, DW_AT_high_pc(0x00)
     304                      .dwattr $C$DW$23, DW_AT_TI_symbol_name("_CMPSS_configLatchOnPWMSYNC")
     305                      .dwattr $C$DW$23, DW_AT_external
     306                      .dwattr $C$DW$23, DW_AT_TI_begin_file("../device/driverlib/cmpss.c")
     307                      .dwattr $C$DW$23, DW_AT_TI_begin_line(0x83)
     308                      .dwattr $C$DW$23, DW_AT_TI_begin_column(0x01)
     309                      .dwattr $C$DW$23, DW_AT_TI_max_frame_size(-8)
     310                      .dwpsn  file "../device/driverlib/cmpss.c",line 132,column 1,is_stmt,address _CMPSS_configLatchOnPWMS
     311              
     312                      .dwfde $C$DW$CIE, _CMPSS_configLatchOnPWMSYNC
     313              $C$DW$24        .dwtag  DW_TAG_formal_parameter
     314                      .dwattr $C$DW$24, DW_AT_name("base")
     315                      .dwattr $C$DW$24, DW_AT_TI_symbol_name("_base")
TMS320C2000 Assembler PC v22.6.1 Wed May 21 09:51:56 2025

Copyright (c) 1996-2018 Texas Instruments Incorporated
C:\Users\Daniel\AppData\Local\Temp\{272745BC-BD99-44CF-8E82-6767BE003200} PAGE    7

     316                      .dwattr $C$DW$24, DW_AT_type(*$C$DW$T$23)
     317                      .dwattr $C$DW$24, DW_AT_location[DW_OP_reg0]
     318              
     319              $C$DW$25        .dwtag  DW_TAG_formal_parameter
     320                      .dwattr $C$DW$25, DW_AT_name("highEnable")
     321                      .dwattr $C$DW$25, DW_AT_TI_symbol_name("_highEnable")
     322                      .dwattr $C$DW$25, DW_AT_type(*$C$DW$T$29)
     323                      .dwattr $C$DW$25, DW_AT_location[DW_OP_reg12]
     324              
     325              $C$DW$26        .dwtag  DW_TAG_formal_parameter
     326                      .dwattr $C$DW$26, DW_AT_name("lowEnable")
     327                      .dwattr $C$DW$26, DW_AT_TI_symbol_name("_lowEnable")
     328                      .dwattr $C$DW$26, DW_AT_type(*$C$DW$T$29)
     329                      .dwattr $C$DW$26, DW_AT_location[DW_OP_reg14]
     330              
     331              
     332              ;***************************************************************
     333              ;* FNAME: _CMPSS_configLatchOnPWMSYNC   FR SIZE:   6           *
     334              ;*                                                             *
     335              ;* FUNCTION ENVIRONMENT                                        *
     336              ;*                                                             *
     337              ;* FUNCTION PROPERTIES                                         *
     338              ;*                            0 Parameter,  0 Auto,  6 SOE     *
     339              ;***************************************************************
     340              
     341              _CMPSS_configLatchOnPWMSYNC:
     342              ;* AR2   assigned to _base
     343              $C$DW$27        .dwtag  DW_TAG_variable
     344                      .dwattr $C$DW$27, DW_AT_name("base")
     345                      .dwattr $C$DW$27, DW_AT_TI_symbol_name("_base")
     346                      .dwattr $C$DW$27, DW_AT_type(*$C$DW$T$42)
     347                      .dwattr $C$DW$27, DW_AT_location[DW_OP_reg8]
     348              
     349              ;* AR3   assigned to _highEnable
     350              $C$DW$28        .dwtag  DW_TAG_variable
     351                      .dwattr $C$DW$28, DW_AT_name("highEnable")
     352                      .dwattr $C$DW$28, DW_AT_TI_symbol_name("_highEnable")
     353                      .dwattr $C$DW$28, DW_AT_type(*$C$DW$T$44)
     354                      .dwattr $C$DW$28, DW_AT_location[DW_OP_reg10]
     355              
     356              ;* AR1   assigned to _lowEnable
     357              $C$DW$29        .dwtag  DW_TAG_variable
     358                      .dwattr $C$DW$29, DW_AT_name("lowEnable")
     359                      .dwattr $C$DW$29, DW_AT_TI_symbol_name("_lowEnable")
     360                      .dwattr $C$DW$29, DW_AT_type(*$C$DW$T$44)
     361                      .dwattr $C$DW$29, DW_AT_location[DW_OP_reg6]
     362              
     363                      .dwcfi  cfa_offset, -2
     364                      .dwcfi  save_reg_to_mem, 26, 0
     365 00000000 B2BD          MOVL      *SP++,XAR1            ; [CPU_ALU] 
     366                      .dwcfi  save_reg_to_mem, 7, 2
     367                      .dwcfi  cfa_offset, -4
     368 00000001 AABD          MOVL      *SP++,XAR2            ; [CPU_ALU] 
     369                      .dwcfi  save_reg_to_mem, 9, 4
     370                      .dwcfi  cfa_offset, -6
TMS320C2000 Assembler PC v22.6.1 Wed May 21 09:51:56 2025

Copyright (c) 1996-2018 Texas Instruments Incorporated
C:\Users\Daniel\AppData\Local\Temp\{272745BC-BD99-44CF-8E82-6767BE003200} PAGE    8

     371 00000002 86A9          MOVL      XAR2,ACC              ; [CPU_ALU] |132| 
     372 00000003 59A5          MOVZ      AR1,AR5               ; [CPU_ALU] |132| 
     373                      .dwpsn  file "..\device\driverlib\cmpss.h",line 222,column 5,is_stmt,isa 0
     374 00000004 FF20          MOV       ACC,#23680            ; [CPU_ALU] |222| 
         00000005 5C80 
     375 00000006 A2BD          MOVL      *SP++,XAR3            ; [CPU_ALU] 
     376                      .dwcfi  save_reg_to_mem, 11, 6
     377                      .dwcfi  cfa_offset, -8
     378                      .dwpsn  file "../device/driverlib/cmpss.c",line 132,column 1,is_stmt,isa 0
     379 00000007 5BA4          MOVZ      AR3,AR4               ; [CPU_ALU] |132| 
     380                      .dwpsn  file "..\device\driverlib\cmpss.h",line 222,column 5,is_stmt,isa 0
     381 00000008 0FA2          CMPL      ACC,XAR2              ; [CPU_ALU] |222| 
     382 00000009 610D          B         $C$L8,EQ              ; [CPU_ALU] |222| 
     383                      ; branchcc occurs ; [] |222| 
     384 0000000a FF20          MOV       ACC,#23712            ; [CPU_ALU] |222| 
         0000000b 5CA0 
     385 0000000c 0FA2          CMPL      ACC,XAR2              ; [CPU_ALU] |222| 
     386 0000000d 6109          B         $C$L8,EQ              ; [CPU_ALU] |222| 
     387                      ; branchcc occurs ; [] |222| 
     388 0000000e FF20          MOV       ACC,#23744            ; [CPU_ALU] |222| 
         0000000f 5CC0 
     389 00000010 0FA2          CMPL      ACC,XAR2              ; [CPU_ALU] |222| 
     390 00000011 6105          B         $C$L8,EQ              ; [CPU_ALU] |222| 
     391                      ; branchcc occurs ; [] |222| 
     392 00000012 FF20          MOV       ACC,#23776            ; [CPU_ALU] |222| 
         00000013 5CE0 
     393 00000014 0FA2          CMPL      ACC,XAR2              ; [CPU_ALU] |222| 
     394 00000015 6003          B         $C$L9,NEQ             ; [CPU_ALU] |222| 
     395                      ; branchcc occurs ; [] |222| 
     396 00000016       $C$L8:    
     397 00000016 9A01          MOVB      AL,#1                 ; [CPU_ALU] |222| 
     398 00000017 6006          B         $C$L10,NEQ            ; [CPU_ALU] |222| 
     399                      ; branchcc occurs ; [] |222| 
     400 00000018       $C$L9:    
     401                      .dwpsn  file "../device/driverlib/cmpss.c",line 136,column 5,is_stmt,isa 0
     402 00000018 8F00+         MOVL      XAR4,#$C$FSL1         ; [CPU_ARAU] |136| 
         00000019 0000 
     403 0000001a 0288          MOVB      ACC,#136              ; [CPU_ALU] |136| 
     404              $C$DW$30        .dwtag  DW_TAG_TI_branch
     405                      .dwattr $C$DW$30, DW_AT_low_pc(0x00)
     406                      .dwattr $C$DW$30, DW_AT_name("___error__")
     407                      .dwattr $C$DW$30, DW_AT_TI_call
     408              
     409 0000001b 7640!         LCR       #___error__           ; [CPU_ALU] |136| 
         0000001c 0000 
     410                      ; call occurs [#___error__] ; [] |136| 
     411 0000001d       $C$L10:    
     412                      .dwpsn  file "../device/driverlib/cmpss.c",line 142,column 5,is_stmt,isa 0
     413 0000001d 7622          EALLOW    ; [CPU_ALU] |142| 
     414 0000001e 92A3          MOV       AL,AR3                ; [CPU_ALU] |142| 
     415                      .dwpsn  file "../device/driverlib/cmpss.c",line 144,column 5,is_stmt,isa 0
     416 0000001f 5201          CMPB      AL,#1                 ; [CPU_ALU] |144| 
     417 00000020 6104          B         $C$L11,EQ             ; [CPU_ALU] |144| 
     418                      ; branchcc occurs ; [] |144| 
     419                      .dwpsn  file "../device/driverlib/cmpss.c",line 150,column 9,is_stmt,isa 0
TMS320C2000 Assembler PC v22.6.1 Wed May 21 09:51:56 2025

Copyright (c) 1996-2018 Texas Instruments Incorporated
C:\Users\Daniel\AppData\Local\Temp\{272745BC-BD99-44CF-8E82-6767BE003200} PAGE    9

     420 00000021 18DA          AND       *+XAR2[3],#0xfffb     ; [CPU_ALU] |150| 
         00000022 FFFB 
     421 00000023 6F03          B         $C$L12,UNC            ; [CPU_ALU] |150| 
     422                      ; branch occurs ; [] |150| 
     423 00000024       $C$L11:    
     424                      .dwpsn  file "../device/driverlib/cmpss.c",line 146,column 9,is_stmt,isa 0
     425 00000024 1ADA          OR        *+XAR2[3],#0x0004     ; [CPU_ALU] |146| 
         00000025 0004 
     426 00000026       $C$L12:    
     427 00000026 92A1          MOV       AL,AR1                ; [CPU_ALU] 
     428                      .dwpsn  file "../device/driverlib/cmpss.c",line 157,column 5,is_stmt,isa 0
     429 00000027 5201          CMPB      AL,#1                 ; [CPU_ALU] |157| 
     430 00000028 6104          B         $C$L13,EQ             ; [CPU_ALU] |157| 
     431                      ; branchcc occurs ; [] |157| 
     432                      .dwpsn  file "../device/driverlib/cmpss.c",line 163,column 9,is_stmt,isa 0
     433 00000029 18DA          AND       *+XAR2[3],#0xfbff     ; [CPU_ALU] |163| 
         0000002a FBFF 
     434 0000002b 6F03          B         $C$L14,UNC            ; [CPU_ALU] |163| 
     435                      ; branch occurs ; [] |163| 
     436 0000002c       $C$L13:    
     437                      .dwpsn  file "../device/driverlib/cmpss.c",line 159,column 9,is_stmt,isa 0
     438 0000002c 1ADA          OR        *+XAR2[3],#0x0400     ; [CPU_ALU] |159| 
         0000002d 0400 
     439 0000002e       $C$L14:    
     440                      .dwpsn  file "../device/driverlib/cmpss.c",line 166,column 5,is_stmt,isa 0
     441 0000002e 761A          EDIS      ; [CPU_ALU] |166| 
     442 0000002f 82BE          MOVL      XAR3,*--SP            ; [CPU_ALU] 
     443                      .dwcfi  cfa_offset, -6
     444                      .dwcfi  restore_reg, 11
     445 00000030 86BE          MOVL      XAR2,*--SP            ; [CPU_ALU] 
     446                      .dwcfi  cfa_offset, -4
     447                      .dwcfi  restore_reg, 9
     448 00000031 8BBE          MOVL      XAR1,*--SP            ; [CPU_ALU] 
     449                      .dwcfi  cfa_offset, -2
     450                      .dwcfi  restore_reg, 7
     451              $C$DW$31        .dwtag  DW_TAG_TI_branch
     452                      .dwattr $C$DW$31, DW_AT_low_pc(0x00)
     453                      .dwattr $C$DW$31, DW_AT_TI_return
     454              
     455 00000032 0006          LRETR     ; [CPU_ALU] 
     456                      ; return occurs ; [] 
     457                      .dwattr $C$DW$23, DW_AT_TI_end_file("../device/driverlib/cmpss.c")
     458                      .dwattr $C$DW$23, DW_AT_TI_end_line(0xa7)
     459                      .dwattr $C$DW$23, DW_AT_TI_end_column(0x01)
     460                      .dwendentry
     461                      .dwendtag $C$DW$23
     462              
     463 00000000               .sect   ".text:_CMPSS_configFilterLow"
     464                      .clink
     465                      .global _CMPSS_configFilterLow
     466              
     467              $C$DW$32        .dwtag  DW_TAG_subprogram
     468                      .dwattr $C$DW$32, DW_AT_name("CMPSS_configFilterLow")
     469                      .dwattr $C$DW$32, DW_AT_low_pc(_CMPSS_configFilterLow)
     470                      .dwattr $C$DW$32, DW_AT_high_pc(0x00)
TMS320C2000 Assembler PC v22.6.1 Wed May 21 09:51:56 2025

Copyright (c) 1996-2018 Texas Instruments Incorporated
C:\Users\Daniel\AppData\Local\Temp\{272745BC-BD99-44CF-8E82-6767BE003200} PAGE   10

     471                      .dwattr $C$DW$32, DW_AT_TI_symbol_name("_CMPSS_configFilterLow")
     472                      .dwattr $C$DW$32, DW_AT_external
     473                      .dwattr $C$DW$32, DW_AT_TI_begin_file("../device/driverlib/cmpss.c")
     474                      .dwattr $C$DW$32, DW_AT_TI_begin_line(0x5a)
     475                      .dwattr $C$DW$32, DW_AT_TI_begin_column(0x01)
     476                      .dwattr $C$DW$32, DW_AT_TI_max_frame_size(-10)
     477                      .dwpsn  file "../device/driverlib/cmpss.c",line 92,column 1,is_stmt,address _CMPSS_configFilterLow,is
     478              
     479                      .dwfde $C$DW$CIE, _CMPSS_configFilterLow
     480              $C$DW$33        .dwtag  DW_TAG_formal_parameter
     481                      .dwattr $C$DW$33, DW_AT_name("base")
     482                      .dwattr $C$DW$33, DW_AT_TI_symbol_name("_base")
     483                      .dwattr $C$DW$33, DW_AT_type(*$C$DW$T$23)
     484                      .dwattr $C$DW$33, DW_AT_location[DW_OP_reg0]
     485              
     486              $C$DW$34        .dwtag  DW_TAG_formal_parameter
     487                      .dwattr $C$DW$34, DW_AT_name("samplePrescale")
     488                      .dwattr $C$DW$34, DW_AT_TI_symbol_name("_samplePrescale")
     489                      .dwattr $C$DW$34, DW_AT_type(*$C$DW$T$27)
     490                      .dwattr $C$DW$34, DW_AT_location[DW_OP_reg12]
     491              
     492              $C$DW$35        .dwtag  DW_TAG_formal_parameter
     493                      .dwattr $C$DW$35, DW_AT_name("sampleWindow")
     494                      .dwattr $C$DW$35, DW_AT_TI_symbol_name("_sampleWindow")
     495                      .dwattr $C$DW$35, DW_AT_type(*$C$DW$T$27)
     496                      .dwattr $C$DW$35, DW_AT_location[DW_OP_reg14]
     497              
     498              $C$DW$36        .dwtag  DW_TAG_formal_parameter
     499                      .dwattr $C$DW$36, DW_AT_name("threshold")
     500                      .dwattr $C$DW$36, DW_AT_TI_symbol_name("_threshold")
     501                      .dwattr $C$DW$36, DW_AT_type(*$C$DW$T$27)
     502                      .dwattr $C$DW$36, DW_AT_location[DW_OP_breg20 -11]
     503              
     504              
     505              ;***************************************************************
     506              ;* FNAME: _CMPSS_configFilterLow        FR SIZE:   8           *
     507              ;*                                                             *
     508              ;* FUNCTION ENVIRONMENT                                        *
     509              ;*                                                             *
     510              ;* FUNCTION PROPERTIES                                         *
     511              ;*                            0 Parameter,  1 Auto,  6 SOE     *
     512              ;***************************************************************
     513              
     514              _CMPSS_configFilterLow:
     515              ;* AR1   assigned to $O$K25
     516              ;* AR2   assigned to $O$K30
     517              ;* AR3   assigned to _base
     518              $C$DW$37        .dwtag  DW_TAG_variable
     519                      .dwattr $C$DW$37, DW_AT_name("base")
     520                      .dwattr $C$DW$37, DW_AT_TI_symbol_name("_base")
     521                      .dwattr $C$DW$37, DW_AT_type(*$C$DW$T$42)
     522                      .dwattr $C$DW$37, DW_AT_location[DW_OP_reg10]
     523              
     524              $C$DW$38        .dwtag  DW_TAG_variable
     525                      .dwattr $C$DW$38, DW_AT_name("samplePrescale")
TMS320C2000 Assembler PC v22.6.1 Wed May 21 09:51:56 2025

Copyright (c) 1996-2018 Texas Instruments Incorporated
C:\Users\Daniel\AppData\Local\Temp\{272745BC-BD99-44CF-8E82-6767BE003200} PAGE   11

     526                      .dwattr $C$DW$38, DW_AT_TI_symbol_name("_samplePrescale")
     527                      .dwattr $C$DW$38, DW_AT_type(*$C$DW$T$40)
     528                      .dwattr $C$DW$38, DW_AT_location[DW_OP_breg20 -1]
     529              
     530              ;* AR1   assigned to _sampleWindow
     531              $C$DW$39        .dwtag  DW_TAG_variable
     532                      .dwattr $C$DW$39, DW_AT_name("sampleWindow")
     533                      .dwattr $C$DW$39, DW_AT_TI_symbol_name("_sampleWindow")
     534                      .dwattr $C$DW$39, DW_AT_type(*$C$DW$T$40)
     535                      .dwattr $C$DW$39, DW_AT_location[DW_OP_reg6]
     536              
     537              ;* AR2   assigned to _threshold
     538              $C$DW$40        .dwtag  DW_TAG_variable
     539                      .dwattr $C$DW$40, DW_AT_name("threshold")
     540                      .dwattr $C$DW$40, DW_AT_TI_symbol_name("_threshold")
     541                      .dwattr $C$DW$40, DW_AT_type(*$C$DW$T$40)
     542                      .dwattr $C$DW$40, DW_AT_location[DW_OP_reg8]
     543              
     544                      .dwcfi  cfa_offset, -2
     545                      .dwcfi  save_reg_to_mem, 26, 0
     546 00000000 B2BD          MOVL      *SP++,XAR1            ; [CPU_ALU] 
     547                      .dwcfi  save_reg_to_mem, 7, 2
     548                      .dwcfi  cfa_offset, -4
     549 00000001 AABD          MOVL      *SP++,XAR2            ; [CPU_ALU] 
     550                      .dwcfi  save_reg_to_mem, 9, 4
     551                      .dwcfi  cfa_offset, -6
     552 00000002 A2BD          MOVL      *SP++,XAR3            ; [CPU_ALU] 
     553                      .dwcfi  save_reg_to_mem, 11, 6
     554                      .dwcfi  cfa_offset, -8
     555 00000003 FE02          ADDB      SP,#2                 ; [CPU_ARAU] 
     556                      .dwcfi  cfa_offset, -10
     557 00000004 82A9          MOVL      XAR3,ACC              ; [CPU_ALU] |92| 
     558 00000005 59A5          MOVZ      AR1,AR5               ; [CPU_ALU] |92| 
     559                      .dwpsn  file "..\device\driverlib\cmpss.h",line 222,column 5,is_stmt,isa 0
     560 00000006 FF20          MOV       ACC,#23680            ; [CPU_ALU] |222| 
         00000007 5C80 
     561                      .dwpsn  file "../device/driverlib/cmpss.c",line 92,column 1,is_stmt,isa 0
     562 00000008 5A4B          MOVZ      AR2,*-SP[11]          ; [CPU_ALU] |92| 
     563 00000009 7C41          MOV       *-SP[1],AR4           ; [CPU_ALU] |92| 
     564                      .dwpsn  file "..\device\driverlib\cmpss.h",line 222,column 5,is_stmt,isa 0
     565 0000000a 0FA3          CMPL      ACC,XAR3              ; [CPU_ALU] |222| 
     566 0000000b 610D          B         $C$L15,EQ             ; [CPU_ALU] |222| 
     567                      ; branchcc occurs ; [] |222| 
     568 0000000c FF20          MOV       ACC,#23712            ; [CPU_ALU] |222| 
         0000000d 5CA0 
     569 0000000e 0FA3          CMPL      ACC,XAR3              ; [CPU_ALU] |222| 
     570 0000000f 6109          B         $C$L15,EQ             ; [CPU_ALU] |222| 
     571                      ; branchcc occurs ; [] |222| 
     572 00000010 FF20          MOV       ACC,#23744            ; [CPU_ALU] |222| 
         00000011 5CC0 
     573 00000012 0FA3          CMPL      ACC,XAR3              ; [CPU_ALU] |222| 
     574 00000013 6105          B         $C$L15,EQ             ; [CPU_ALU] |222| 
     575                      ; branchcc occurs ; [] |222| 
     576 00000014 FF20          MOV       ACC,#23776            ; [CPU_ALU] |222| 
         00000015 5CE0 
TMS320C2000 Assembler PC v22.6.1 Wed May 21 09:51:56 2025

Copyright (c) 1996-2018 Texas Instruments Incorporated
C:\Users\Daniel\AppData\Local\Temp\{272745BC-BD99-44CF-8E82-6767BE003200} PAGE   12

     577 00000016 0FA3          CMPL      ACC,XAR3              ; [CPU_ALU] |222| 
     578 00000017 6003          B         $C$L16,NEQ            ; [CPU_ALU] |222| 
     579                      ; branchcc occurs ; [] |222| 
     580 00000018       $C$L15:    
     581 00000018 9A01          MOVB      AL,#1                 ; [CPU_ALU] |222| 
     582 00000019 6006          B         $C$L17,NEQ            ; [CPU_ALU] |222| 
     583                      ; branchcc occurs ; [] |222| 
     584 0000001a       $C$L16:    
     585                      .dwpsn  file "../device/driverlib/cmpss.c",line 98,column 5,is_stmt,isa 0
     586 0000001a 8F00+         MOVL      XAR4,#$C$FSL1         ; [CPU_ARAU] |98| 
         0000001b 0000 
     587 0000001c 0262          MOVB      ACC,#98               ; [CPU_ALU] |98| 
     588              $C$DW$41        .dwtag  DW_TAG_TI_branch
     589                      .dwattr $C$DW$41, DW_AT_low_pc(0x00)
     590                      .dwattr $C$DW$41, DW_AT_name("___error__")
     591                      .dwattr $C$DW$41, DW_AT_TI_call
     592              
     593 0000001d 7640!         LCR       #___error__           ; [CPU_ALU] |98| 
         0000001e 0000 
     594                      ; call occurs [#___error__] ; [] |98| 
     595 0000001f       $C$L17:    
     596                      .dwpsn  file "../device/driverlib/cmpss.c",line 100,column 5,is_stmt,isa 0
     597 0000001f D981          SUBB      XAR1,#1               ; [CPU_ARAU] |100| 
     598 00000020 92A1          MOV       AL,AR1                ; [CPU_ALU] |100| 
     599 00000021 5220          CMPB      AL,#32                ; [CPU_ALU] |100| 
     600 00000022 6806          B         $C$L18,LO             ; [CPU_ALU] |100| 
     601                      ; branchcc occurs ; [] |100| 
     602 00000023 8F00+         MOVL      XAR4,#$C$FSL1         ; [CPU_ARAU] |100| 
         00000024 0000 
     603 00000025 0264          MOVB      ACC,#100              ; [CPU_ALU] |100| 
     604              $C$DW$42        .dwtag  DW_TAG_TI_branch
     605                      .dwattr $C$DW$42, DW_AT_low_pc(0x00)
     606                      .dwattr $C$DW$42, DW_AT_name("___error__")
     607                      .dwattr $C$DW$42, DW_AT_TI_call
     608              
     609 00000026 7640!         LCR       #___error__           ; [CPU_ALU] |100| 
         00000027 0000 
     610                      ; call occurs [#___error__] ; [] |100| 
     611 00000028       $C$L18:    
     612 00000028 92A1          MOV       AL,AR1                ; [CPU_ALU] 
     613                      .dwpsn  file "../device/driverlib/cmpss.c",line 101,column 5,is_stmt,isa 0
     614 00000029 DA81          SUBB      XAR2,#1               ; [CPU_ARAU] |101| 
     615 0000002a FFC0          LSR       AL,1                  ; [CPU_ALU] |101| 
     616 0000002b 54A2          CMP       AL,AR2                ; [CPU_ALU] |101| 
     617 0000002c 6906          B         $C$L19,LOS            ; [CPU_ALU] |101| 
     618                      ; branchcc occurs ; [] |101| 
     619 0000002d 8F00+         MOVL      XAR4,#$C$FSL1         ; [CPU_ARAU] |101| 
         0000002e 0000 
     620 0000002f 0265          MOVB      ACC,#101              ; [CPU_ALU] |101| 
     621              $C$DW$43        .dwtag  DW_TAG_TI_branch
     622                      .dwattr $C$DW$43, DW_AT_low_pc(0x00)
     623                      .dwattr $C$DW$43, DW_AT_name("___error__")
     624                      .dwattr $C$DW$43, DW_AT_TI_call
     625              
     626 00000030 7640!         LCR       #___error__           ; [CPU_ALU] |101| 
TMS320C2000 Assembler PC v22.6.1 Wed May 21 09:51:56 2025

Copyright (c) 1996-2018 Texas Instruments Incorporated
C:\Users\Daniel\AppData\Local\Temp\{272745BC-BD99-44CF-8E82-6767BE003200} PAGE   13

         00000031 0000 
     627                      ; call occurs [#___error__] ; [] |101| 
     628 00000032       $C$L19:    
     629                      .dwpsn  file "../device/driverlib/cmpss.c",line 110,column 5,is_stmt,isa 0
     630 00000032 7622          EALLOW    ; [CPU_ALU] |110| 
     631                      .dwpsn  file "../device/driverlib/cmpss.c",line 112,column 5,is_stmt,isa 0
     632 00000033 D016          MOVB      XAR0,#22              ; [CPU_ALU] |112| 
     633 00000034 CC93          AND       AL,*+XAR3[AR0],#0xc00f ; [CPU_ALU] |112| 
         00000035 C00F 
     634 00000036 88A9          MOVZ      AR6,AL                ; [CPU_ALU] |112| 
     635 00000037 5603          MOV       ACC,AR2 << #5         ; [CPU_ALU] |112| 
         00000038 05A2 
     636                      .dwpsn  file "../device/driverlib/cmpss.c",line 120,column 5,is_stmt,isa 0
     637 00000039 D017          MOVB      XAR0,#23              ; [CPU_ALU] |120| 
     638                      .dwpsn  file "../device/driverlib/cmpss.c",line 112,column 5,is_stmt,isa 0
     639 0000003a CAA1          OR        AL,AR1                ; [CPU_ALU] |112| 
     640 0000003b D116          MOVB      XAR1,#22              ; [CPU_ALU] |112| 
     641 0000003c 5603          MOV       ACC,AL << #4          ; [CPU_ALU] |112| 
         0000003d 04A9 
     642 0000003e CAA6          OR        AL,AR6                ; [CPU_ALU] |112| 
     643 0000003f 969B          MOV       *+XAR3[AR1],AL        ; [CPU_ALU] |112| 
     644 00000040 9241          MOV       AL,*-SP[1]            ; [CPU_ALU] |112| 
     645                      .dwpsn  file "../device/driverlib/cmpss.c",line 120,column 5,is_stmt,isa 0
     646 00000041 9693          MOV       *+XAR3[AR0],AL        ; [CPU_ALU] |120| 
     647                      .dwpsn  file "../device/driverlib/cmpss.c",line 122,column 5,is_stmt,isa 0
     648 00000042 761A          EDIS      ; [CPU_ALU] |122| 
     649 00000043 FE82          SUBB      SP,#2                 ; [CPU_ARAU] 
     650                      .dwcfi  cfa_offset, -8
     651 00000044 82BE          MOVL      XAR3,*--SP            ; [CPU_ALU] 
     652                      .dwcfi  cfa_offset, -6
     653                      .dwcfi  restore_reg, 11
     654 00000045 86BE          MOVL      XAR2,*--SP            ; [CPU_ALU] 
     655                      .dwcfi  cfa_offset, -4
     656                      .dwcfi  restore_reg, 9
     657 00000046 8BBE          MOVL      XAR1,*--SP            ; [CPU_ALU] 
     658                      .dwcfi  cfa_offset, -2
     659                      .dwcfi  restore_reg, 7
     660              $C$DW$44        .dwtag  DW_TAG_TI_branch
     661                      .dwattr $C$DW$44, DW_AT_low_pc(0x00)
     662                      .dwattr $C$DW$44, DW_AT_TI_return
     663              
     664 00000047 0006          LRETR     ; [CPU_ALU] 
     665                      ; return occurs ; [] 
     666                      .dwattr $C$DW$32, DW_AT_TI_end_file("../device/driverlib/cmpss.c")
     667                      .dwattr $C$DW$32, DW_AT_TI_end_line(0x7b)
     668                      .dwattr $C$DW$32, DW_AT_TI_end_column(0x01)
     669                      .dwendentry
     670                      .dwendtag $C$DW$32
     671              
     672 00000000               .sect   ".text:_CMPSS_configFilterHigh"
     673                      .clink
     674                      .global _CMPSS_configFilterHigh
     675              
     676              $C$DW$45        .dwtag  DW_TAG_subprogram
     677                      .dwattr $C$DW$45, DW_AT_name("CMPSS_configFilterHigh")
TMS320C2000 Assembler PC v22.6.1 Wed May 21 09:51:56 2025

Copyright (c) 1996-2018 Texas Instruments Incorporated
C:\Users\Daniel\AppData\Local\Temp\{272745BC-BD99-44CF-8E82-6767BE003200} PAGE   14

     678                      .dwattr $C$DW$45, DW_AT_low_pc(_CMPSS_configFilterHigh)
     679                      .dwattr $C$DW$45, DW_AT_high_pc(0x00)
     680                      .dwattr $C$DW$45, DW_AT_TI_symbol_name("_CMPSS_configFilterHigh")
     681                      .dwattr $C$DW$45, DW_AT_external
     682                      .dwattr $C$DW$45, DW_AT_TI_begin_file("../device/driverlib/cmpss.c")
     683                      .dwattr $C$DW$45, DW_AT_TI_begin_line(0x31)
     684                      .dwattr $C$DW$45, DW_AT_TI_begin_column(0x01)
     685                      .dwattr $C$DW$45, DW_AT_TI_max_frame_size(-10)
     686                      .dwpsn  file "../device/driverlib/cmpss.c",line 51,column 1,is_stmt,address _CMPSS_configFilterHigh,i
     687              
     688                      .dwfde $C$DW$CIE, _CMPSS_configFilterHigh
     689              $C$DW$46        .dwtag  DW_TAG_formal_parameter
     690                      .dwattr $C$DW$46, DW_AT_name("base")
     691                      .dwattr $C$DW$46, DW_AT_TI_symbol_name("_base")
     692                      .dwattr $C$DW$46, DW_AT_type(*$C$DW$T$23)
     693                      .dwattr $C$DW$46, DW_AT_location[DW_OP_reg0]
     694              
     695              $C$DW$47        .dwtag  DW_TAG_formal_parameter
     696                      .dwattr $C$DW$47, DW_AT_name("samplePrescale")
     697                      .dwattr $C$DW$47, DW_AT_TI_symbol_name("_samplePrescale")
     698                      .dwattr $C$DW$47, DW_AT_type(*$C$DW$T$27)
     699                      .dwattr $C$DW$47, DW_AT_location[DW_OP_reg12]
     700              
     701              $C$DW$48        .dwtag  DW_TAG_formal_parameter
     702                      .dwattr $C$DW$48, DW_AT_name("sampleWindow")
     703                      .dwattr $C$DW$48, DW_AT_TI_symbol_name("_sampleWindow")
     704                      .dwattr $C$DW$48, DW_AT_type(*$C$DW$T$27)
     705                      .dwattr $C$DW$48, DW_AT_location[DW_OP_reg14]
     706              
     707              $C$DW$49        .dwtag  DW_TAG_formal_parameter
     708                      .dwattr $C$DW$49, DW_AT_name("threshold")
     709                      .dwattr $C$DW$49, DW_AT_TI_symbol_name("_threshold")
     710                      .dwattr $C$DW$49, DW_AT_type(*$C$DW$T$27)
     711                      .dwattr $C$DW$49, DW_AT_location[DW_OP_breg20 -11]
     712              
     713              
     714              ;***************************************************************
     715              ;* FNAME: _CMPSS_configFilterHigh       FR SIZE:   8           *
     716              ;*                                                             *
     717              ;* FUNCTION ENVIRONMENT                                        *
     718              ;*                                                             *
     719              ;* FUNCTION PROPERTIES                                         *
     720              ;*                            0 Parameter,  1 Auto,  6 SOE     *
     721              ;***************************************************************
     722              
     723              _CMPSS_configFilterHigh:
     724              ;* AR1   assigned to $O$K25
     725              ;* AR2   assigned to $O$K30
     726              ;* AR3   assigned to _base
     727              $C$DW$50        .dwtag  DW_TAG_variable
     728                      .dwattr $C$DW$50, DW_AT_name("base")
     729                      .dwattr $C$DW$50, DW_AT_TI_symbol_name("_base")
     730                      .dwattr $C$DW$50, DW_AT_type(*$C$DW$T$42)
     731                      .dwattr $C$DW$50, DW_AT_location[DW_OP_reg10]
     732              
TMS320C2000 Assembler PC v22.6.1 Wed May 21 09:51:56 2025

Copyright (c) 1996-2018 Texas Instruments Incorporated
C:\Users\Daniel\AppData\Local\Temp\{272745BC-BD99-44CF-8E82-6767BE003200} PAGE   15

     733              $C$DW$51        .dwtag  DW_TAG_variable
     734                      .dwattr $C$DW$51, DW_AT_name("samplePrescale")
     735                      .dwattr $C$DW$51, DW_AT_TI_symbol_name("_samplePrescale")
     736                      .dwattr $C$DW$51, DW_AT_type(*$C$DW$T$40)
     737                      .dwattr $C$DW$51, DW_AT_location[DW_OP_breg20 -1]
     738              
     739              ;* AR1   assigned to _sampleWindow
     740              $C$DW$52        .dwtag  DW_TAG_variable
     741                      .dwattr $C$DW$52, DW_AT_name("sampleWindow")
     742                      .dwattr $C$DW$52, DW_AT_TI_symbol_name("_sampleWindow")
     743                      .dwattr $C$DW$52, DW_AT_type(*$C$DW$T$40)
     744                      .dwattr $C$DW$52, DW_AT_location[DW_OP_reg6]
     745              
     746              ;* AR2   assigned to _threshold
     747              $C$DW$53        .dwtag  DW_TAG_variable
     748                      .dwattr $C$DW$53, DW_AT_name("threshold")
     749                      .dwattr $C$DW$53, DW_AT_TI_symbol_name("_threshold")
     750                      .dwattr $C$DW$53, DW_AT_type(*$C$DW$T$40)
     751                      .dwattr $C$DW$53, DW_AT_location[DW_OP_reg8]
     752              
     753                      .dwcfi  cfa_offset, -2
     754                      .dwcfi  save_reg_to_mem, 26, 0
     755 00000000 B2BD          MOVL      *SP++,XAR1            ; [CPU_ALU] 
     756                      .dwcfi  save_reg_to_mem, 7, 2
     757                      .dwcfi  cfa_offset, -4
     758 00000001 AABD          MOVL      *SP++,XAR2            ; [CPU_ALU] 
     759                      .dwcfi  save_reg_to_mem, 9, 4
     760                      .dwcfi  cfa_offset, -6
     761 00000002 A2BD          MOVL      *SP++,XAR3            ; [CPU_ALU] 
     762                      .dwcfi  save_reg_to_mem, 11, 6
     763                      .dwcfi  cfa_offset, -8
     764 00000003 FE02          ADDB      SP,#2                 ; [CPU_ARAU] 
     765                      .dwcfi  cfa_offset, -10
     766 00000004 82A9          MOVL      XAR3,ACC              ; [CPU_ALU] |51| 
     767 00000005 59A5          MOVZ      AR1,AR5               ; [CPU_ALU] |51| 
     768                      .dwpsn  file "..\device\driverlib\cmpss.h",line 222,column 5,is_stmt,isa 0
     769 00000006 FF20          MOV       ACC,#23680            ; [CPU_ALU] |222| 
         00000007 5C80 
     770                      .dwpsn  file "../device/driverlib/cmpss.c",line 51,column 1,is_stmt,isa 0
     771 00000008 5A4B          MOVZ      AR2,*-SP[11]          ; [CPU_ALU] |51| 
     772 00000009 7C41          MOV       *-SP[1],AR4           ; [CPU_ALU] |51| 
     773                      .dwpsn  file "..\device\driverlib\cmpss.h",line 222,column 5,is_stmt,isa 0
     774 0000000a 0FA3          CMPL      ACC,XAR3              ; [CPU_ALU] |222| 
     775 0000000b 610D          B         $C$L20,EQ             ; [CPU_ALU] |222| 
     776                      ; branchcc occurs ; [] |222| 
     777 0000000c FF20          MOV       ACC,#23712            ; [CPU_ALU] |222| 
         0000000d 5CA0 
     778 0000000e 0FA3          CMPL      ACC,XAR3              ; [CPU_ALU] |222| 
     779 0000000f 6109          B         $C$L20,EQ             ; [CPU_ALU] |222| 
     780                      ; branchcc occurs ; [] |222| 
     781 00000010 FF20          MOV       ACC,#23744            ; [CPU_ALU] |222| 
         00000011 5CC0 
     782 00000012 0FA3          CMPL      ACC,XAR3              ; [CPU_ALU] |222| 
     783 00000013 6105          B         $C$L20,EQ             ; [CPU_ALU] |222| 
     784                      ; branchcc occurs ; [] |222| 
TMS320C2000 Assembler PC v22.6.1 Wed May 21 09:51:56 2025

Copyright (c) 1996-2018 Texas Instruments Incorporated
C:\Users\Daniel\AppData\Local\Temp\{272745BC-BD99-44CF-8E82-6767BE003200} PAGE   16

     785 00000014 FF20          MOV       ACC,#23776            ; [CPU_ALU] |222| 
         00000015 5CE0 
     786 00000016 0FA3          CMPL      ACC,XAR3              ; [CPU_ALU] |222| 
     787 00000017 6003          B         $C$L21,NEQ            ; [CPU_ALU] |222| 
     788                      ; branchcc occurs ; [] |222| 
     789 00000018       $C$L20:    
     790 00000018 9A01          MOVB      AL,#1                 ; [CPU_ALU] |222| 
     791 00000019 6006          B         $C$L22,NEQ            ; [CPU_ALU] |222| 
     792                      ; branchcc occurs ; [] |222| 
     793 0000001a       $C$L21:    
     794                      .dwpsn  file "../device/driverlib/cmpss.c",line 57,column 5,is_stmt,isa 0
     795 0000001a 8F00+         MOVL      XAR4,#$C$FSL1         ; [CPU_ARAU] |57| 
         0000001b 0000 
     796 0000001c 0239          MOVB      ACC,#57               ; [CPU_ALU] |57| 
     797              $C$DW$54        .dwtag  DW_TAG_TI_branch
     798                      .dwattr $C$DW$54, DW_AT_low_pc(0x00)
     799                      .dwattr $C$DW$54, DW_AT_name("___error__")
     800                      .dwattr $C$DW$54, DW_AT_TI_call
     801              
     802 0000001d 7640!         LCR       #___error__           ; [CPU_ALU] |57| 
         0000001e 0000 
     803                      ; call occurs [#___error__] ; [] |57| 
     804 0000001f       $C$L22:    
     805                      .dwpsn  file "../device/driverlib/cmpss.c",line 59,column 5,is_stmt,isa 0
     806 0000001f D981          SUBB      XAR1,#1               ; [CPU_ARAU] |59| 
     807 00000020 92A1          MOV       AL,AR1                ; [CPU_ALU] |59| 
     808 00000021 5220          CMPB      AL,#32                ; [CPU_ALU] |59| 
     809 00000022 6806          B         $C$L23,LO             ; [CPU_ALU] |59| 
     810                      ; branchcc occurs ; [] |59| 
     811 00000023 8F00+         MOVL      XAR4,#$C$FSL1         ; [CPU_ARAU] |59| 
         00000024 0000 
     812 00000025 023B          MOVB      ACC,#59               ; [CPU_ALU] |59| 
     813              $C$DW$55        .dwtag  DW_TAG_TI_branch
     814                      .dwattr $C$DW$55, DW_AT_low_pc(0x00)
     815                      .dwattr $C$DW$55, DW_AT_name("___error__")
     816                      .dwattr $C$DW$55, DW_AT_TI_call
     817              
     818 00000026 7640!         LCR       #___error__           ; [CPU_ALU] |59| 
         00000027 0000 
     819                      ; call occurs [#___error__] ; [] |59| 
     820 00000028       $C$L23:    
     821 00000028 92A1          MOV       AL,AR1                ; [CPU_ALU] 
     822                      .dwpsn  file "../device/driverlib/cmpss.c",line 60,column 5,is_stmt,isa 0
     823 00000029 DA81          SUBB      XAR2,#1               ; [CPU_ARAU] |60| 
     824 0000002a FFC0          LSR       AL,1                  ; [CPU_ALU] |60| 
     825 0000002b 54A2          CMP       AL,AR2                ; [CPU_ALU] |60| 
     826 0000002c 6906          B         $C$L24,LOS            ; [CPU_ALU] |60| 
     827                      ; branchcc occurs ; [] |60| 
     828 0000002d 8F00+         MOVL      XAR4,#$C$FSL1         ; [CPU_ARAU] |60| 
         0000002e 0000 
     829 0000002f 023C          MOVB      ACC,#60               ; [CPU_ALU] |60| 
     830              $C$DW$56        .dwtag  DW_TAG_TI_branch
     831                      .dwattr $C$DW$56, DW_AT_low_pc(0x00)
     832                      .dwattr $C$DW$56, DW_AT_name("___error__")
     833                      .dwattr $C$DW$56, DW_AT_TI_call
TMS320C2000 Assembler PC v22.6.1 Wed May 21 09:51:56 2025

Copyright (c) 1996-2018 Texas Instruments Incorporated
C:\Users\Daniel\AppData\Local\Temp\{272745BC-BD99-44CF-8E82-6767BE003200} PAGE   17

     834              
     835 00000030 7640!         LCR       #___error__           ; [CPU_ALU] |60| 
         00000031 0000 
     836                      ; call occurs [#___error__] ; [] |60| 
     837 00000032       $C$L24:    
     838                      .dwpsn  file "../device/driverlib/cmpss.c",line 69,column 5,is_stmt,isa 0
     839 00000032 7622          EALLOW    ; [CPU_ALU] |69| 
     840                      .dwpsn  file "../device/driverlib/cmpss.c",line 71,column 5,is_stmt,isa 0
     841 00000033 D018          MOVB      XAR0,#24              ; [CPU_ALU] |71| 
     842 00000034 CC93          AND       AL,*+XAR3[AR0],#0xc00f ; [CPU_ALU] |71| 
         00000035 C00F 
     843 00000036 88A9          MOVZ      AR6,AL                ; [CPU_ALU] |71| 
     844 00000037 5603          MOV       ACC,AR2 << #5         ; [CPU_ALU] |71| 
         00000038 05A2 
     845                      .dwpsn  file "../device/driverlib/cmpss.c",line 79,column 5,is_stmt,isa 0
     846 00000039 D019          MOVB      XAR0,#25              ; [CPU_ALU] |79| 
     847                      .dwpsn  file "../device/driverlib/cmpss.c",line 71,column 5,is_stmt,isa 0
     848 0000003a CAA1          OR        AL,AR1                ; [CPU_ALU] |71| 
     849 0000003b D118          MOVB      XAR1,#24              ; [CPU_ALU] |71| 
     850 0000003c 5603          MOV       ACC,AL << #4          ; [CPU_ALU] |71| 
         0000003d 04A9 
     851 0000003e CAA6          OR        AL,AR6                ; [CPU_ALU] |71| 
     852 0000003f 969B          MOV       *+XAR3[AR1],AL        ; [CPU_ALU] |71| 
     853 00000040 9241          MOV       AL,*-SP[1]            ; [CPU_ALU] |71| 
     854                      .dwpsn  file "../device/driverlib/cmpss.c",line 79,column 5,is_stmt,isa 0
     855 00000041 9693          MOV       *+XAR3[AR0],AL        ; [CPU_ALU] |79| 
     856                      .dwpsn  file "../device/driverlib/cmpss.c",line 81,column 5,is_stmt,isa 0
     857 00000042 761A          EDIS      ; [CPU_ALU] |81| 
     858 00000043 FE82          SUBB      SP,#2                 ; [CPU_ARAU] 
     859                      .dwcfi  cfa_offset, -8
     860 00000044 82BE          MOVL      XAR3,*--SP            ; [CPU_ALU] 
     861                      .dwcfi  cfa_offset, -6
     862                      .dwcfi  restore_reg, 11
     863 00000045 86BE          MOVL      XAR2,*--SP            ; [CPU_ALU] 
     864                      .dwcfi  cfa_offset, -4
     865                      .dwcfi  restore_reg, 9
     866 00000046 8BBE          MOVL      XAR1,*--SP            ; [CPU_ALU] 
     867                      .dwcfi  cfa_offset, -2
     868                      .dwcfi  restore_reg, 7
     869              $C$DW$57        .dwtag  DW_TAG_TI_branch
     870                      .dwattr $C$DW$57, DW_AT_low_pc(0x00)
     871                      .dwattr $C$DW$57, DW_AT_TI_return
     872              
     873 00000047 0006          LRETR     ; [CPU_ALU] 
     874                      ; return occurs ; [] 
     875                      .dwattr $C$DW$45, DW_AT_TI_end_file("../device/driverlib/cmpss.c")
     876                      .dwattr $C$DW$45, DW_AT_TI_end_line(0x52)
     877                      .dwattr $C$DW$45, DW_AT_TI_end_column(0x01)
     878                      .dwendentry
     879                      .dwendtag $C$DW$45
     880              
     881              ;***************************************************************
     882              ;* FAR STRINGS                                                 *
     883              ;***************************************************************
     884 00000000               .sect   ".econst:.string"
TMS320C2000 Assembler PC v22.6.1 Wed May 21 09:51:56 2025

Copyright (c) 1996-2018 Texas Instruments Incorporated
C:\Users\Daniel\AppData\Local\Temp\{272745BC-BD99-44CF-8E82-6767BE003200} PAGE   18

     885                      .align  2
     886 00000000 002E  $C$FSL1:        .string "../device/driverlib/cmpss.c",0
         00000001 002E 
         00000002 002F 
         00000003 0064 
         00000004 0065 
         00000005 0076 
         00000006 0069 
         00000007 0063 
         00000008 0065 
         00000009 002F 
         0000000a 0064 
         0000000b 0072 
         0000000c 0069 
         0000000d 0076 
         0000000e 0065 
         0000000f 0072 
         00000010 006C 
         00000011 0069 
         00000012 0062 
         00000013 002F 
         00000014 0063 
         00000015 006D 
         00000016 0070 
         00000017 0073 
         00000018 0073 
         00000019 002E 
         0000001a 0063 
         0000001b 0000 
     887              ;**************************************************************
     888              ;* UNDEFINED EXTERNAL REFERENCES                              *
     889              ;**************************************************************
     890                      .global ___error__
     891              
     892              ;***************************************************************
     893              ;* TYPE INFORMATION                                            *
     894              ;***************************************************************
     895              $C$DW$T$2       .dwtag  DW_TAG_unspecified_type
     896                      .dwattr $C$DW$T$2, DW_AT_name("void")
     897              
     898              $C$DW$T$4       .dwtag  DW_TAG_base_type
     899                      .dwattr $C$DW$T$4, DW_AT_encoding(DW_ATE_boolean)
     900                      .dwattr $C$DW$T$4, DW_AT_name("bool")
     901                      .dwattr $C$DW$T$4, DW_AT_byte_size(0x01)
     902              
     903              $C$DW$T$5       .dwtag  DW_TAG_base_type
     904                      .dwattr $C$DW$T$5, DW_AT_encoding(DW_ATE_signed_char)
     905                      .dwattr $C$DW$T$5, DW_AT_name("signed char")
     906                      .dwattr $C$DW$T$5, DW_AT_byte_size(0x01)
     907              
     908              $C$DW$T$6       .dwtag  DW_TAG_base_type
     909                      .dwattr $C$DW$T$6, DW_AT_encoding(DW_ATE_unsigned_char)
     910                      .dwattr $C$DW$T$6, DW_AT_name("unsigned char")
     911                      .dwattr $C$DW$T$6, DW_AT_byte_size(0x01)
     912              
TMS320C2000 Assembler PC v22.6.1 Wed May 21 09:51:56 2025

Copyright (c) 1996-2018 Texas Instruments Incorporated
C:\Users\Daniel\AppData\Local\Temp\{272745BC-BD99-44CF-8E82-6767BE003200} PAGE   19

     913              $C$DW$T$7       .dwtag  DW_TAG_base_type
     914                      .dwattr $C$DW$T$7, DW_AT_encoding(DW_ATE_signed_char)
     915                      .dwattr $C$DW$T$7, DW_AT_name("wchar_t")
     916                      .dwattr $C$DW$T$7, DW_AT_byte_size(0x01)
     917              
     918              $C$DW$T$8       .dwtag  DW_TAG_base_type
     919                      .dwattr $C$DW$T$8, DW_AT_encoding(DW_ATE_signed)
     920                      .dwattr $C$DW$T$8, DW_AT_name("short")
     921                      .dwattr $C$DW$T$8, DW_AT_byte_size(0x01)
     922              
     923              $C$DW$T$9       .dwtag  DW_TAG_base_type
     924                      .dwattr $C$DW$T$9, DW_AT_encoding(DW_ATE_unsigned)
     925                      .dwattr $C$DW$T$9, DW_AT_name("unsigned short")
     926                      .dwattr $C$DW$T$9, DW_AT_byte_size(0x01)
     927              
     928              $C$DW$T$10      .dwtag  DW_TAG_base_type
     929                      .dwattr $C$DW$T$10, DW_AT_encoding(DW_ATE_signed)
     930                      .dwattr $C$DW$T$10, DW_AT_name("int")
     931                      .dwattr $C$DW$T$10, DW_AT_byte_size(0x01)
     932              
     933              $C$DW$T$11      .dwtag  DW_TAG_base_type
     934                      .dwattr $C$DW$T$11, DW_AT_encoding(DW_ATE_unsigned)
     935                      .dwattr $C$DW$T$11, DW_AT_name("unsigned int")
     936                      .dwattr $C$DW$T$11, DW_AT_byte_size(0x01)
     937              
     938              $C$DW$T$26      .dwtag  DW_TAG_typedef
     939                      .dwattr $C$DW$T$26, DW_AT_name("__uint16_t")
     940                      .dwattr $C$DW$T$26, DW_AT_type(*$C$DW$T$11)
     941                      .dwattr $C$DW$T$26, DW_AT_language(DW_LANG_C)
     942              
     943              $C$DW$T$27      .dwtag  DW_TAG_typedef
     944                      .dwattr $C$DW$T$27, DW_AT_name("uint16_t")
     945                      .dwattr $C$DW$T$27, DW_AT_type(*$C$DW$T$26)
     946                      .dwattr $C$DW$T$27, DW_AT_language(DW_LANG_C)
     947              
     948              $C$DW$58        .dwtag  DW_TAG_TI_far_type
     949                      .dwattr $C$DW$58, DW_AT_type(*$C$DW$T$27)
     950              
     951              $C$DW$T$40      .dwtag  DW_TAG_const_type
     952                      .dwattr $C$DW$T$40, DW_AT_type(*$C$DW$58)
     953              
     954              $C$DW$T$12      .dwtag  DW_TAG_base_type
     955                      .dwattr $C$DW$T$12, DW_AT_encoding(DW_ATE_signed)
     956                      .dwattr $C$DW$T$12, DW_AT_name("long")
     957                      .dwattr $C$DW$T$12, DW_AT_byte_size(0x02)
     958              
     959              $C$DW$T$13      .dwtag  DW_TAG_base_type
     960                      .dwattr $C$DW$T$13, DW_AT_encoding(DW_ATE_unsigned)
     961                      .dwattr $C$DW$T$13, DW_AT_name("unsigned long")
     962                      .dwattr $C$DW$T$13, DW_AT_byte_size(0x02)
     963              
     964              $C$DW$T$22      .dwtag  DW_TAG_typedef
     965                      .dwattr $C$DW$T$22, DW_AT_name("__uint32_t")
     966                      .dwattr $C$DW$T$22, DW_AT_type(*$C$DW$T$13)
     967                      .dwattr $C$DW$T$22, DW_AT_language(DW_LANG_C)
TMS320C2000 Assembler PC v22.6.1 Wed May 21 09:51:56 2025

Copyright (c) 1996-2018 Texas Instruments Incorporated
C:\Users\Daniel\AppData\Local\Temp\{272745BC-BD99-44CF-8E82-6767BE003200} PAGE   20

     968              
     969              $C$DW$T$23      .dwtag  DW_TAG_typedef
     970                      .dwattr $C$DW$T$23, DW_AT_name("uint32_t")
     971                      .dwattr $C$DW$T$23, DW_AT_type(*$C$DW$T$22)
     972                      .dwattr $C$DW$T$23, DW_AT_language(DW_LANG_C)
     973              
     974              $C$DW$59        .dwtag  DW_TAG_TI_far_type
     975                      .dwattr $C$DW$59, DW_AT_type(*$C$DW$T$23)
     976              
     977              $C$DW$T$42      .dwtag  DW_TAG_const_type
     978                      .dwattr $C$DW$T$42, DW_AT_type(*$C$DW$59)
     979              
     980              $C$DW$T$14      .dwtag  DW_TAG_base_type
     981                      .dwattr $C$DW$T$14, DW_AT_encoding(DW_ATE_signed)
     982                      .dwattr $C$DW$T$14, DW_AT_name("long long")
     983                      .dwattr $C$DW$T$14, DW_AT_byte_size(0x04)
     984              
     985              $C$DW$T$15      .dwtag  DW_TAG_base_type
     986                      .dwattr $C$DW$T$15, DW_AT_encoding(DW_ATE_unsigned)
     987                      .dwattr $C$DW$T$15, DW_AT_name("unsigned long long")
     988                      .dwattr $C$DW$T$15, DW_AT_byte_size(0x04)
     989              
     990              $C$DW$T$16      .dwtag  DW_TAG_base_type
     991                      .dwattr $C$DW$T$16, DW_AT_encoding(DW_ATE_float)
     992                      .dwattr $C$DW$T$16, DW_AT_name("float")
     993                      .dwattr $C$DW$T$16, DW_AT_byte_size(0x02)
     994              
     995              $C$DW$T$17      .dwtag  DW_TAG_base_type
     996                      .dwattr $C$DW$T$17, DW_AT_encoding(DW_ATE_float)
     997                      .dwattr $C$DW$T$17, DW_AT_name("double")
     998                      .dwattr $C$DW$T$17, DW_AT_byte_size(0x02)
     999              
    1000              $C$DW$T$18      .dwtag  DW_TAG_base_type
    1001                      .dwattr $C$DW$T$18, DW_AT_encoding(DW_ATE_float)
    1002                      .dwattr $C$DW$T$18, DW_AT_name("long double")
    1003                      .dwattr $C$DW$T$18, DW_AT_byte_size(0x04)
    1004              
    1005              $C$DW$60        .dwtag  DW_TAG_TI_far_type
    1006                      .dwattr $C$DW$60, DW_AT_type(*$C$DW$T$5)
    1007              
    1008              $C$DW$T$20      .dwtag  DW_TAG_const_type
    1009                      .dwattr $C$DW$T$20, DW_AT_type(*$C$DW$60)
    1010              
    1011              $C$DW$T$21      .dwtag  DW_TAG_pointer_type
    1012                      .dwattr $C$DW$T$21, DW_AT_type(*$C$DW$T$20)
    1013                      .dwattr $C$DW$T$21, DW_AT_address_class(0x20)
    1014              
    1015              $C$DW$T$29      .dwtag  DW_TAG_base_type
    1016                      .dwattr $C$DW$T$29, DW_AT_encoding(DW_ATE_unsigned_char)
    1017                      .dwattr $C$DW$T$29, DW_AT_name("unsigned char")
    1018                      .dwattr $C$DW$T$29, DW_AT_byte_size(0x01)
    1019              
    1020              $C$DW$61        .dwtag  DW_TAG_TI_far_type
    1021                      .dwattr $C$DW$61, DW_AT_type(*$C$DW$T$29)
    1022              
TMS320C2000 Assembler PC v22.6.1 Wed May 21 09:51:56 2025

Copyright (c) 1996-2018 Texas Instruments Incorporated
C:\Users\Daniel\AppData\Local\Temp\{272745BC-BD99-44CF-8E82-6767BE003200} PAGE   21

    1023              $C$DW$T$44      .dwtag  DW_TAG_const_type
    1024                      .dwattr $C$DW$T$44, DW_AT_type(*$C$DW$61)
    1025              
    1026                      .dwattr $C$DW$CU, DW_AT_language(DW_LANG_C)
    1027              
    1028              ;***************************************************************
    1029              ;* DWARF CIE ENTRIES                                           *
    1030              ;***************************************************************
    1031              
    1032              $C$DW$CIE       .dwcie 26
    1033                      .dwcfi  cfa_register, 20
    1034                      .dwcfi  cfa_offset, 0
    1035                      .dwcfi  same_value, 28
    1036                      .dwcfi  same_value, 6
    1037                      .dwcfi  same_value, 7
    1038                      .dwcfi  same_value, 8
    1039                      .dwcfi  same_value, 9
    1040                      .dwcfi  same_value, 10
    1041                      .dwcfi  same_value, 11
    1042                      .dwcfi  same_value, 59
    1043                      .dwcfi  same_value, 63
    1044                      .dwcfi  same_value, 67
    1045                      .dwcfi  same_value, 71
    1046                      .dwendentry
    1047              
    1048              ;***************************************************************
    1049              ;* DWARF REGISTER MAP                                          *
    1050              ;***************************************************************
    1051              
    1052              $C$DW$62        .dwtag  DW_TAG_TI_assign_register
    1053                      .dwattr $C$DW$62, DW_AT_name("AL")
    1054                      .dwattr $C$DW$62, DW_AT_location[DW_OP_reg0]
    1055              
    1056              $C$DW$63        .dwtag  DW_TAG_TI_assign_register
    1057                      .dwattr $C$DW$63, DW_AT_name("AH")
    1058                      .dwattr $C$DW$63, DW_AT_location[DW_OP_reg1]
    1059              
    1060              $C$DW$64        .dwtag  DW_TAG_TI_assign_register
    1061                      .dwattr $C$DW$64, DW_AT_name("PL")
    1062                      .dwattr $C$DW$64, DW_AT_location[DW_OP_reg2]
    1063              
    1064              $C$DW$65        .dwtag  DW_TAG_TI_assign_register
    1065                      .dwattr $C$DW$65, DW_AT_name("PH")
    1066                      .dwattr $C$DW$65, DW_AT_location[DW_OP_reg3]
    1067              
    1068              $C$DW$66        .dwtag  DW_TAG_TI_assign_register
    1069                      .dwattr $C$DW$66, DW_AT_name("SP")
    1070                      .dwattr $C$DW$66, DW_AT_location[DW_OP_reg20]
    1071              
    1072              $C$DW$67        .dwtag  DW_TAG_TI_assign_register
    1073                      .dwattr $C$DW$67, DW_AT_name("XT")
    1074                      .dwattr $C$DW$67, DW_AT_location[DW_OP_reg21]
    1075              
    1076              $C$DW$68        .dwtag  DW_TAG_TI_assign_register
    1077                      .dwattr $C$DW$68, DW_AT_name("T")
TMS320C2000 Assembler PC v22.6.1 Wed May 21 09:51:56 2025

Copyright (c) 1996-2018 Texas Instruments Incorporated
C:\Users\Daniel\AppData\Local\Temp\{272745BC-BD99-44CF-8E82-6767BE003200} PAGE   22

    1078                      .dwattr $C$DW$68, DW_AT_location[DW_OP_reg22]
    1079              
    1080              $C$DW$69        .dwtag  DW_TAG_TI_assign_register
    1081                      .dwattr $C$DW$69, DW_AT_name("ST0")
    1082                      .dwattr $C$DW$69, DW_AT_location[DW_OP_reg23]
    1083              
    1084              $C$DW$70        .dwtag  DW_TAG_TI_assign_register
    1085                      .dwattr $C$DW$70, DW_AT_name("ST1")
    1086                      .dwattr $C$DW$70, DW_AT_location[DW_OP_reg24]
    1087              
    1088              $C$DW$71        .dwtag  DW_TAG_TI_assign_register
    1089                      .dwattr $C$DW$71, DW_AT_name("PC")
    1090                      .dwattr $C$DW$71, DW_AT_location[DW_OP_reg25]
    1091              
    1092              $C$DW$72        .dwtag  DW_TAG_TI_assign_register
    1093                      .dwattr $C$DW$72, DW_AT_name("RPC")
    1094                      .dwattr $C$DW$72, DW_AT_location[DW_OP_reg26]
    1095              
    1096              $C$DW$73        .dwtag  DW_TAG_TI_assign_register
    1097                      .dwattr $C$DW$73, DW_AT_name("FP")
    1098                      .dwattr $C$DW$73, DW_AT_location[DW_OP_reg28]
    1099              
    1100              $C$DW$74        .dwtag  DW_TAG_TI_assign_register
    1101                      .dwattr $C$DW$74, DW_AT_name("DP")
    1102                      .dwattr $C$DW$74, DW_AT_location[DW_OP_reg29]
    1103              
    1104              $C$DW$75        .dwtag  DW_TAG_TI_assign_register
    1105                      .dwattr $C$DW$75, DW_AT_name("SXM")
    1106                      .dwattr $C$DW$75, DW_AT_location[DW_OP_reg30]
    1107              
    1108              $C$DW$76        .dwtag  DW_TAG_TI_assign_register
    1109                      .dwattr $C$DW$76, DW_AT_name("PM")
    1110                      .dwattr $C$DW$76, DW_AT_location[DW_OP_reg31]
    1111              
    1112              $C$DW$77        .dwtag  DW_TAG_TI_assign_register
    1113                      .dwattr $C$DW$77, DW_AT_name("OVM")
    1114                      .dwattr $C$DW$77, DW_AT_location[DW_OP_regx 0x20]
    1115              
    1116              $C$DW$78        .dwtag  DW_TAG_TI_assign_register
    1117                      .dwattr $C$DW$78, DW_AT_name("PAGE0")
    1118                      .dwattr $C$DW$78, DW_AT_location[DW_OP_regx 0x21]
    1119              
    1120              $C$DW$79        .dwtag  DW_TAG_TI_assign_register
    1121                      .dwattr $C$DW$79, DW_AT_name("AMODE")
    1122                      .dwattr $C$DW$79, DW_AT_location[DW_OP_regx 0x22]
    1123              
    1124              $C$DW$80        .dwtag  DW_TAG_TI_assign_register
    1125                      .dwattr $C$DW$80, DW_AT_name("EALLOW")
    1126                      .dwattr $C$DW$80, DW_AT_location[DW_OP_regx 0x4e]
    1127              
    1128              $C$DW$81        .dwtag  DW_TAG_TI_assign_register
    1129                      .dwattr $C$DW$81, DW_AT_name("INTM")
    1130                      .dwattr $C$DW$81, DW_AT_location[DW_OP_regx 0x23]
    1131              
    1132              $C$DW$82        .dwtag  DW_TAG_TI_assign_register
TMS320C2000 Assembler PC v22.6.1 Wed May 21 09:51:56 2025

Copyright (c) 1996-2018 Texas Instruments Incorporated
C:\Users\Daniel\AppData\Local\Temp\{272745BC-BD99-44CF-8E82-6767BE003200} PAGE   23

    1133                      .dwattr $C$DW$82, DW_AT_name("IFR")
    1134                      .dwattr $C$DW$82, DW_AT_location[DW_OP_regx 0x24]
    1135              
    1136              $C$DW$83        .dwtag  DW_TAG_TI_assign_register
    1137                      .dwattr $C$DW$83, DW_AT_name("IER")
    1138                      .dwattr $C$DW$83, DW_AT_location[DW_OP_regx 0x25]
    1139              
    1140              $C$DW$84        .dwtag  DW_TAG_TI_assign_register
    1141                      .dwattr $C$DW$84, DW_AT_name("V")
    1142                      .dwattr $C$DW$84, DW_AT_location[DW_OP_regx 0x26]
    1143              
    1144              $C$DW$85        .dwtag  DW_TAG_TI_assign_register
    1145                      .dwattr $C$DW$85, DW_AT_name("PSEUDOH")
    1146                      .dwattr $C$DW$85, DW_AT_location[DW_OP_regx 0x4c]
    1147              
    1148              $C$DW$86        .dwtag  DW_TAG_TI_assign_register
    1149                      .dwattr $C$DW$86, DW_AT_name("VOL")
    1150                      .dwattr $C$DW$86, DW_AT_location[DW_OP_regx 0x4d]
    1151              
    1152              $C$DW$87        .dwtag  DW_TAG_TI_assign_register
    1153                      .dwattr $C$DW$87, DW_AT_name("AR0")
    1154                      .dwattr $C$DW$87, DW_AT_location[DW_OP_reg4]
    1155              
    1156              $C$DW$88        .dwtag  DW_TAG_TI_assign_register
    1157                      .dwattr $C$DW$88, DW_AT_name("XAR0")
    1158                      .dwattr $C$DW$88, DW_AT_location[DW_OP_reg5]
    1159              
    1160              $C$DW$89        .dwtag  DW_TAG_TI_assign_register
    1161                      .dwattr $C$DW$89, DW_AT_name("AR1")
    1162                      .dwattr $C$DW$89, DW_AT_location[DW_OP_reg6]
    1163              
    1164              $C$DW$90        .dwtag  DW_TAG_TI_assign_register
    1165                      .dwattr $C$DW$90, DW_AT_name("XAR1")
    1166                      .dwattr $C$DW$90, DW_AT_location[DW_OP_reg7]
    1167              
    1168              $C$DW$91        .dwtag  DW_TAG_TI_assign_register
    1169                      .dwattr $C$DW$91, DW_AT_name("AR2")
    1170                      .dwattr $C$DW$91, DW_AT_location[DW_OP_reg8]
    1171              
    1172              $C$DW$92        .dwtag  DW_TAG_TI_assign_register
    1173                      .dwattr $C$DW$92, DW_AT_name("XAR2")
    1174                      .dwattr $C$DW$92, DW_AT_location[DW_OP_reg9]
    1175              
    1176              $C$DW$93        .dwtag  DW_TAG_TI_assign_register
    1177                      .dwattr $C$DW$93, DW_AT_name("AR3")
    1178                      .dwattr $C$DW$93, DW_AT_location[DW_OP_reg10]
    1179              
    1180              $C$DW$94        .dwtag  DW_TAG_TI_assign_register
    1181                      .dwattr $C$DW$94, DW_AT_name("XAR3")
    1182                      .dwattr $C$DW$94, DW_AT_location[DW_OP_reg11]
    1183              
    1184              $C$DW$95        .dwtag  DW_TAG_TI_assign_register
    1185                      .dwattr $C$DW$95, DW_AT_name("AR4")
    1186                      .dwattr $C$DW$95, DW_AT_location[DW_OP_reg12]
    1187              
TMS320C2000 Assembler PC v22.6.1 Wed May 21 09:51:56 2025

Copyright (c) 1996-2018 Texas Instruments Incorporated
C:\Users\Daniel\AppData\Local\Temp\{272745BC-BD99-44CF-8E82-6767BE003200} PAGE   24

    1188              $C$DW$96        .dwtag  DW_TAG_TI_assign_register
    1189                      .dwattr $C$DW$96, DW_AT_name("XAR4")
    1190                      .dwattr $C$DW$96, DW_AT_location[DW_OP_reg13]
    1191              
    1192              $C$DW$97        .dwtag  DW_TAG_TI_assign_register
    1193                      .dwattr $C$DW$97, DW_AT_name("AR5")
    1194                      .dwattr $C$DW$97, DW_AT_location[DW_OP_reg14]
    1195              
    1196              $C$DW$98        .dwtag  DW_TAG_TI_assign_register
    1197                      .dwattr $C$DW$98, DW_AT_name("XAR5")
    1198                      .dwattr $C$DW$98, DW_AT_location[DW_OP_reg15]
    1199              
    1200              $C$DW$99        .dwtag  DW_TAG_TI_assign_register
    1201                      .dwattr $C$DW$99, DW_AT_name("AR6")
    1202                      .dwattr $C$DW$99, DW_AT_location[DW_OP_reg16]
    1203              
    1204              $C$DW$100       .dwtag  DW_TAG_TI_assign_register
    1205                      .dwattr $C$DW$100, DW_AT_name("XAR6")
    1206                      .dwattr $C$DW$100, DW_AT_location[DW_OP_reg17]
    1207              
    1208              $C$DW$101       .dwtag  DW_TAG_TI_assign_register
    1209                      .dwattr $C$DW$101, DW_AT_name("AR7")
    1210                      .dwattr $C$DW$101, DW_AT_location[DW_OP_reg18]
    1211              
    1212              $C$DW$102       .dwtag  DW_TAG_TI_assign_register
    1213                      .dwattr $C$DW$102, DW_AT_name("XAR7")
    1214                      .dwattr $C$DW$102, DW_AT_location[DW_OP_reg19]
    1215              
    1216              $C$DW$103       .dwtag  DW_TAG_TI_assign_register
    1217                      .dwattr $C$DW$103, DW_AT_name("R0H")
    1218                      .dwattr $C$DW$103, DW_AT_location[DW_OP_regx 0x2b]
    1219              
    1220              $C$DW$104       .dwtag  DW_TAG_TI_assign_register
    1221                      .dwattr $C$DW$104, DW_AT_name("R1H")
    1222                      .dwattr $C$DW$104, DW_AT_location[DW_OP_regx 0x2f]
    1223              
    1224              $C$DW$105       .dwtag  DW_TAG_TI_assign_register
    1225                      .dwattr $C$DW$105, DW_AT_name("R2H")
    1226                      .dwattr $C$DW$105, DW_AT_location[DW_OP_regx 0x33]
    1227              
    1228              $C$DW$106       .dwtag  DW_TAG_TI_assign_register
    1229                      .dwattr $C$DW$106, DW_AT_name("R3H")
    1230                      .dwattr $C$DW$106, DW_AT_location[DW_OP_regx 0x37]
    1231              
    1232              $C$DW$107       .dwtag  DW_TAG_TI_assign_register
    1233                      .dwattr $C$DW$107, DW_AT_name("R4H")
    1234                      .dwattr $C$DW$107, DW_AT_location[DW_OP_regx 0x3b]
    1235              
    1236              $C$DW$108       .dwtag  DW_TAG_TI_assign_register
    1237                      .dwattr $C$DW$108, DW_AT_name("R5H")
    1238                      .dwattr $C$DW$108, DW_AT_location[DW_OP_regx 0x3f]
    1239              
    1240              $C$DW$109       .dwtag  DW_TAG_TI_assign_register
    1241                      .dwattr $C$DW$109, DW_AT_name("R6H")
    1242                      .dwattr $C$DW$109, DW_AT_location[DW_OP_regx 0x43]
TMS320C2000 Assembler PC v22.6.1 Wed May 21 09:51:56 2025

Copyright (c) 1996-2018 Texas Instruments Incorporated
C:\Users\Daniel\AppData\Local\Temp\{272745BC-BD99-44CF-8E82-6767BE003200} PAGE   25

    1243              
    1244              $C$DW$110       .dwtag  DW_TAG_TI_assign_register
    1245                      .dwattr $C$DW$110, DW_AT_name("R7H")
    1246                      .dwattr $C$DW$110, DW_AT_location[DW_OP_regx 0x47]
    1247              
    1248              $C$DW$111       .dwtag  DW_TAG_TI_assign_register
    1249                      .dwattr $C$DW$111, DW_AT_name("RB")
    1250                      .dwattr $C$DW$111, DW_AT_location[DW_OP_regx 0x4a]
    1251              
    1252              $C$DW$112       .dwtag  DW_TAG_TI_assign_register
    1253                      .dwattr $C$DW$112, DW_AT_name("STF")
    1254                      .dwattr $C$DW$112, DW_AT_location[DW_OP_regx 0x28]
    1255              
    1256              $C$DW$113       .dwtag  DW_TAG_TI_assign_register
    1257                      .dwattr $C$DW$113, DW_AT_name("FPUHAZ")
    1258                      .dwattr $C$DW$113, DW_AT_location[DW_OP_reg27]
    1259              
    1260              $C$DW$114       .dwtag  DW_TAG_TI_assign_register
    1261                      .dwattr $C$DW$114, DW_AT_name("STF_HWDIV")
    1262                      .dwattr $C$DW$114, DW_AT_location[DW_OP_regx 0x4f]
    1263              
    1264              $C$DW$115       .dwtag  DW_TAG_TI_assign_register
    1265                      .dwattr $C$DW$115, DW_AT_name("VCRC")
    1266                      .dwattr $C$DW$115, DW_AT_location[DW_OP_regx 0x50]
    1267              
    1268              $C$DW$116       .dwtag  DW_TAG_TI_assign_register
    1269                      .dwattr $C$DW$116, DW_AT_name("VSTATUS")
    1270                      .dwattr $C$DW$116, DW_AT_location[DW_OP_regx 0x51]
    1271              
    1272              $C$DW$117       .dwtag  DW_TAG_TI_assign_register
    1273                      .dwattr $C$DW$117, DW_AT_name("VCRCPOLY")
    1274                      .dwattr $C$DW$117, DW_AT_location[DW_OP_regx 0x52]
    1275              
    1276              $C$DW$118       .dwtag  DW_TAG_TI_assign_register
    1277                      .dwattr $C$DW$118, DW_AT_name("VCRCSIZE")
    1278                      .dwattr $C$DW$118, DW_AT_location[DW_OP_regx 0x53]
    1279              
    1280                      .dwendtag $C$DW$CU
    1281              

No Assembly Errors, No Assembly Warnings
