TMS320C2000 Assembler PC v22.6.1 Wed May 21 09:51:56 2025

Copyright (c) 1996-2018 Texas Instruments Incorporated
C:\Users\Daniel\AppData\Local\Temp\{A9A05476-C14F-44AF-91F4-641E580AB6D3} PAGE    1

       1              ;***************************************************************
       2              ;* TMS320C2000 G3 C/C++ Codegen                               PC v22.6.1.LTS *
       3              ;* Date/Time created: Wed May 21 09:51:56 2025                 *
       4              ;***************************************************************
       5                      .compiler_opts --abi=coffabi --cla_support=cla2 --diag_wrap=off --float_support=fpu32 --hll_source=on
       6                      .asg    XAR2, FP
       7              
       8              $C$DW$CU        .dwtag  DW_TAG_compile_unit
       9                      .dwattr $C$DW$CU, DW_AT_name("../device/driverlib/ecap.c")
      10                      .dwattr $C$DW$CU, DW_AT_producer("TI TMS320C2000 G3 C/C++ Codegen PC v22.6.1.LTS Copyright (c) 1996-2
      11                      .dwattr $C$DW$CU, DW_AT_TI_version(0x01)
      12                      .dwattr $C$DW$CU, DW_AT_comp_dir("C:\Users\Daniel\CodeComposer\UPS_MUCI\CPU1_FLASH")
      13              
      14              $C$DW$1 .dwtag  DW_TAG_subprogram
      15                      .dwattr $C$DW$1, DW_AT_name("__error__")
      16                      .dwattr $C$DW$1, DW_AT_TI_symbol_name("___error__")
      17                      .dwattr $C$DW$1, DW_AT_declaration
      18                      .dwattr $C$DW$1, DW_AT_external
      19              $C$DW$2 .dwtag  DW_TAG_formal_parameter
      20                      .dwattr $C$DW$2, DW_AT_type(*$C$DW$T$24)
      21              
      22              $C$DW$3 .dwtag  DW_TAG_formal_parameter
      23                      .dwattr $C$DW$3, DW_AT_type(*$C$DW$T$26)
      24              
      25                      .dwendtag $C$DW$1
      26              
      27              
      28              $C$DW$4 .dwtag  DW_TAG_subprogram
      29                      .dwattr $C$DW$4, DW_AT_name("__eallow")
      30                      .dwattr $C$DW$4, DW_AT_TI_symbol_name("___eallow")
      31                      .dwattr $C$DW$4, DW_AT_declaration
      32                      .dwattr $C$DW$4, DW_AT_external
      33                      .dwendtag $C$DW$4
      34              
      35              
      36              $C$DW$5 .dwtag  DW_TAG_subprogram
      37                      .dwattr $C$DW$5, DW_AT_name("__edis")
      38                      .dwattr $C$DW$5, DW_AT_TI_symbol_name("___edis")
      39                      .dwattr $C$DW$5, DW_AT_declaration
      40                      .dwattr $C$DW$5, DW_AT_external
      41                      .dwendtag $C$DW$5
      42              
      43              ;       D:\Programs\TI\ccs1281\ccs\tools\compiler\ti-cgt-c2000_22.6.1.LTS\bin\opt2000.exe C:\\Users\\Daniel\\
      44              ;       D:\Programs\TI\ccs1281\ccs\tools\compiler\ti-cgt-c2000_22.6.1.LTS\bin\ac2000.exe -@C:\\Users\\Daniel\
      45 00000000               .sect   ".text:_ECAP_setEmulationMode"
      46                      .clink
      47                      .global _ECAP_setEmulationMode
      48              
      49              $C$DW$6 .dwtag  DW_TAG_subprogram
      50                      .dwattr $C$DW$6, DW_AT_name("ECAP_setEmulationMode")
      51                      .dwattr $C$DW$6, DW_AT_low_pc(_ECAP_setEmulationMode)
      52                      .dwattr $C$DW$6, DW_AT_high_pc(0x00)
      53                      .dwattr $C$DW$6, DW_AT_TI_symbol_name("_ECAP_setEmulationMode")
      54                      .dwattr $C$DW$6, DW_AT_external
      55                      .dwattr $C$DW$6, DW_AT_TI_begin_file("../device/driverlib/ecap.c")
TMS320C2000 Assembler PC v22.6.1 Wed May 21 09:51:56 2025

Copyright (c) 1996-2018 Texas Instruments Incorporated
C:\Users\Daniel\AppData\Local\Temp\{A9A05476-C14F-44AF-91F4-641E580AB6D3} PAGE    2

      56                      .dwattr $C$DW$6, DW_AT_TI_begin_line(0x30)
      57                      .dwattr $C$DW$6, DW_AT_TI_begin_column(0x06)
      58                      .dwattr $C$DW$6, DW_AT_TI_max_frame_size(-6)
      59                      .dwpsn  file "../device/driverlib/ecap.c",line 49,column 1,is_stmt,address _ECAP_setEmulationMode,isa
      60              
      61                      .dwfde $C$DW$CIE, _ECAP_setEmulationMode
      62              $C$DW$7 .dwtag  DW_TAG_formal_parameter
      63                      .dwattr $C$DW$7, DW_AT_name("base")
      64                      .dwattr $C$DW$7, DW_AT_TI_symbol_name("_base")
      65                      .dwattr $C$DW$7, DW_AT_type(*$C$DW$T$26)
      66                      .dwattr $C$DW$7, DW_AT_location[DW_OP_reg0]
      67              
      68              $C$DW$8 .dwtag  DW_TAG_formal_parameter
      69                      .dwattr $C$DW$8, DW_AT_name("mode")
      70                      .dwattr $C$DW$8, DW_AT_TI_symbol_name("_mode")
      71                      .dwattr $C$DW$8, DW_AT_type(*$C$DW$T$20)
      72                      .dwattr $C$DW$8, DW_AT_location[DW_OP_reg12]
      73              
      74              
      75              ;***************************************************************
      76              ;* FNAME: _ECAP_setEmulationMode        FR SIZE:   4           *
      77              ;*                                                             *
      78              ;* FUNCTION ENVIRONMENT                                        *
      79              ;*                                                             *
      80              ;* FUNCTION PROPERTIES                                         *
      81              ;*                            0 Parameter,  0 Auto,  4 SOE     *
      82              ;***************************************************************
      83              
      84              _ECAP_setEmulationMode:
      85              ;* AR2   assigned to _base
      86              $C$DW$9 .dwtag  DW_TAG_variable
      87                      .dwattr $C$DW$9, DW_AT_name("base")
      88                      .dwattr $C$DW$9, DW_AT_TI_symbol_name("_base")
      89                      .dwattr $C$DW$9, DW_AT_type(*$C$DW$T$41)
      90                      .dwattr $C$DW$9, DW_AT_location[DW_OP_reg8]
      91              
      92              ;* AR1   assigned to _mode
      93              $C$DW$10        .dwtag  DW_TAG_variable
      94                      .dwattr $C$DW$10, DW_AT_name("mode")
      95                      .dwattr $C$DW$10, DW_AT_TI_symbol_name("_mode")
      96                      .dwattr $C$DW$10, DW_AT_type(*$C$DW$T$21)
      97                      .dwattr $C$DW$10, DW_AT_location[DW_OP_reg6]
      98              
      99                      .dwcfi  cfa_offset, -2
     100                      .dwcfi  save_reg_to_mem, 26, 0
     101 00000000 B2BD          MOVL      *SP++,XAR1            ; [CPU_ALU] 
     102                      .dwcfi  save_reg_to_mem, 7, 2
     103                      .dwcfi  cfa_offset, -4
     104 00000001 AABD          MOVL      *SP++,XAR2            ; [CPU_ALU] 
     105                      .dwcfi  save_reg_to_mem, 9, 4
     106                      .dwcfi  cfa_offset, -6
     107 00000002 86A9          MOVL      XAR2,ACC              ; [CPU_ALU] |49| 
     108 00000003 59A4          MOVZ      AR1,AR4               ; [CPU_ALU] |49| 
     109                      .dwpsn  file "..\device\driverlib\ecap.h",line 469,column 5,is_stmt,isa 0
     110 00000004 FF20          MOV       ACC,#20992            ; [CPU_ALU] |469| 
TMS320C2000 Assembler PC v22.6.1 Wed May 21 09:51:56 2025

Copyright (c) 1996-2018 Texas Instruments Incorporated
C:\Users\Daniel\AppData\Local\Temp\{A9A05476-C14F-44AF-91F4-641E580AB6D3} PAGE    3

         00000005 5200 
     111 00000006 0FA2          CMPL      ACC,XAR2              ; [CPU_ALU] |469| 
     112 00000007 6109          B         $C$L1,EQ              ; [CPU_ALU] |469| 
     113                      ; branchcc occurs ; [] |469| 
     114 00000008 FF20          MOV       ACC,#21056            ; [CPU_ALU] |469| 
         00000009 5240 
     115 0000000a 0FA2          CMPL      ACC,XAR2              ; [CPU_ALU] |469| 
     116 0000000b 6105          B         $C$L1,EQ              ; [CPU_ALU] |469| 
     117                      ; branchcc occurs ; [] |469| 
     118 0000000c FF20          MOV       ACC,#21120            ; [CPU_ALU] |469| 
         0000000d 5280 
     119 0000000e 0FA2          CMPL      ACC,XAR2              ; [CPU_ALU] |469| 
     120 0000000f 6003          B         $C$L2,NEQ             ; [CPU_ALU] |469| 
     121                      ; branchcc occurs ; [] |469| 
     122 00000010       $C$L1:    
     123 00000010 9A01          MOVB      AL,#1                 ; [CPU_ALU] |469| 
     124 00000011 6006          B         $C$L3,NEQ             ; [CPU_ALU] |469| 
     125                      ; branchcc occurs ; [] |469| 
     126 00000012       $C$L2:    
     127                      .dwpsn  file "../device/driverlib/ecap.c",line 50,column 5,is_stmt,isa 0
     128 00000012 8F00+         MOVL      XAR4,#$C$FSL1         ; [CPU_ARAU] |50| 
         00000013 0000 
     129 00000014 0232          MOVB      ACC,#50               ; [CPU_ALU] |50| 
     130              $C$DW$11        .dwtag  DW_TAG_TI_branch
     131                      .dwattr $C$DW$11, DW_AT_low_pc(0x00)
     132                      .dwattr $C$DW$11, DW_AT_name("___error__")
     133                      .dwattr $C$DW$11, DW_AT_TI_call
     134              
     135 00000015 7640!         LCR       #___error__           ; [CPU_ALU] |50| 
         00000016 0000 
     136                      ; call occurs [#___error__] ; [] |50| 
     137 00000017       $C$L3:    
     138                      .dwpsn  file "../device/driverlib/ecap.c",line 52,column 5,is_stmt,isa 0
     139 00000017 7622          EALLOW    ; [CPU_ALU] |52| 
     140                      .dwpsn  file "../device/driverlib/ecap.c",line 57,column 5,is_stmt,isa 0
     141 00000018 D014          MOVB      XAR0,#20              ; [CPU_ALU] |57| 
     142 00000019 CC92          AND       AL,*+XAR2[AR0],#0x3fff ; [CPU_ALU] |57| 
         0000001a 3FFF 
     143 0000001b 88A9          MOVZ      AR6,AL                ; [CPU_ALU] |57| 
     144 0000001c D014          MOVB      XAR0,#20              ; [CPU_ALU] |57| 
     145 0000001d 5603          MOV       ACC,AR1 << #14        ; [CPU_ALU] |57| 
         0000001e 0EA1 
     146 0000001f CAA6          OR        AL,AR6                ; [CPU_ALU] |57| 
     147 00000020 9692          MOV       *+XAR2[AR0],AL        ; [CPU_ALU] |57| 
     148                      .dwpsn  file "../device/driverlib/ecap.c",line 60,column 5,is_stmt,isa 0
     149 00000021 761A          EDIS      ; [CPU_ALU] |60| 
     150 00000022 86BE          MOVL      XAR2,*--SP            ; [CPU_ALU] 
     151                      .dwcfi  cfa_offset, -4
     152                      .dwcfi  restore_reg, 9
     153 00000023 8BBE          MOVL      XAR1,*--SP            ; [CPU_ALU] 
     154                      .dwcfi  cfa_offset, -2
     155                      .dwcfi  restore_reg, 7
     156              $C$DW$12        .dwtag  DW_TAG_TI_branch
     157                      .dwattr $C$DW$12, DW_AT_low_pc(0x00)
     158                      .dwattr $C$DW$12, DW_AT_TI_return
TMS320C2000 Assembler PC v22.6.1 Wed May 21 09:51:56 2025

Copyright (c) 1996-2018 Texas Instruments Incorporated
C:\Users\Daniel\AppData\Local\Temp\{A9A05476-C14F-44AF-91F4-641E580AB6D3} PAGE    4

     159              
     160 00000024 0006          LRETR     ; [CPU_ALU] 
     161                      ; return occurs ; [] 
     162                      .dwattr $C$DW$6, DW_AT_TI_end_file("../device/driverlib/ecap.c")
     163                      .dwattr $C$DW$6, DW_AT_TI_end_line(0x3d)
     164                      .dwattr $C$DW$6, DW_AT_TI_end_column(0x01)
     165                      .dwendentry
     166                      .dwendtag $C$DW$6
     167              
     168              ;***************************************************************
     169              ;* FAR STRINGS                                                 *
     170              ;***************************************************************
     171 00000000               .sect   ".econst:.string"
     172                      .align  2
     173 00000000 002E  $C$FSL1:        .string "../device/driverlib/ecap.c",0
         00000001 002E 
         00000002 002F 
         00000003 0064 
         00000004 0065 
         00000005 0076 
         00000006 0069 
         00000007 0063 
         00000008 0065 
         00000009 002F 
         0000000a 0064 
         0000000b 0072 
         0000000c 0069 
         0000000d 0076 
         0000000e 0065 
         0000000f 0072 
         00000010 006C 
         00000011 0069 
         00000012 0062 
         00000013 002F 
         00000014 0065 
         00000015 0063 
         00000016 0061 
         00000017 0070 
         00000018 002E 
         00000019 0063 
         0000001a 0000 
     174              ;**************************************************************
     175              ;* UNDEFINED EXTERNAL REFERENCES                              *
     176              ;**************************************************************
     177                      .global ___error__
     178              
     179              ;***************************************************************
     180              ;* TYPE INFORMATION                                            *
     181              ;***************************************************************
     182              
     183              $C$DW$T$19      .dwtag  DW_TAG_enumeration_type
     184                      .dwattr $C$DW$T$19, DW_AT_byte_size(0x01)
     185              $C$DW$13        .dwtag  DW_TAG_enumerator
     186                      .dwattr $C$DW$13, DW_AT_name("ECAP_EMULATION_STOP")
     187                      .dwattr $C$DW$13, DW_AT_const_value(0x00)
TMS320C2000 Assembler PC v22.6.1 Wed May 21 09:51:56 2025

Copyright (c) 1996-2018 Texas Instruments Incorporated
C:\Users\Daniel\AppData\Local\Temp\{A9A05476-C14F-44AF-91F4-641E580AB6D3} PAGE    5

     188              
     189              $C$DW$14        .dwtag  DW_TAG_enumerator
     190                      .dwattr $C$DW$14, DW_AT_name("ECAP_EMULATION_RUN_TO_ZERO")
     191                      .dwattr $C$DW$14, DW_AT_const_value(0x01)
     192              
     193              $C$DW$15        .dwtag  DW_TAG_enumerator
     194                      .dwattr $C$DW$15, DW_AT_name("ECAP_EMULATION_FREE_RUN")
     195                      .dwattr $C$DW$15, DW_AT_const_value(0x02)
     196              
     197                      .dwendtag $C$DW$T$19
     198              
     199              $C$DW$T$20      .dwtag  DW_TAG_typedef
     200                      .dwattr $C$DW$T$20, DW_AT_name("ECAP_EmulationMode")
     201                      .dwattr $C$DW$T$20, DW_AT_type(*$C$DW$T$19)
     202                      .dwattr $C$DW$T$20, DW_AT_language(DW_LANG_C)
     203              
     204              $C$DW$16        .dwtag  DW_TAG_TI_far_type
     205                      .dwattr $C$DW$16, DW_AT_type(*$C$DW$T$20)
     206              
     207              $C$DW$T$21      .dwtag  DW_TAG_const_type
     208                      .dwattr $C$DW$T$21, DW_AT_type(*$C$DW$16)
     209              
     210              $C$DW$T$2       .dwtag  DW_TAG_unspecified_type
     211                      .dwattr $C$DW$T$2, DW_AT_name("void")
     212              
     213              $C$DW$T$4       .dwtag  DW_TAG_base_type
     214                      .dwattr $C$DW$T$4, DW_AT_encoding(DW_ATE_boolean)
     215                      .dwattr $C$DW$T$4, DW_AT_name("bool")
     216                      .dwattr $C$DW$T$4, DW_AT_byte_size(0x01)
     217              
     218              $C$DW$T$5       .dwtag  DW_TAG_base_type
     219                      .dwattr $C$DW$T$5, DW_AT_encoding(DW_ATE_signed_char)
     220                      .dwattr $C$DW$T$5, DW_AT_name("signed char")
     221                      .dwattr $C$DW$T$5, DW_AT_byte_size(0x01)
     222              
     223              $C$DW$T$6       .dwtag  DW_TAG_base_type
     224                      .dwattr $C$DW$T$6, DW_AT_encoding(DW_ATE_unsigned_char)
     225                      .dwattr $C$DW$T$6, DW_AT_name("unsigned char")
     226                      .dwattr $C$DW$T$6, DW_AT_byte_size(0x01)
     227              
     228              $C$DW$T$7       .dwtag  DW_TAG_base_type
     229                      .dwattr $C$DW$T$7, DW_AT_encoding(DW_ATE_signed_char)
     230                      .dwattr $C$DW$T$7, DW_AT_name("wchar_t")
     231                      .dwattr $C$DW$T$7, DW_AT_byte_size(0x01)
     232              
     233              $C$DW$T$8       .dwtag  DW_TAG_base_type
     234                      .dwattr $C$DW$T$8, DW_AT_encoding(DW_ATE_signed)
     235                      .dwattr $C$DW$T$8, DW_AT_name("short")
     236                      .dwattr $C$DW$T$8, DW_AT_byte_size(0x01)
     237              
     238              $C$DW$T$9       .dwtag  DW_TAG_base_type
     239                      .dwattr $C$DW$T$9, DW_AT_encoding(DW_ATE_unsigned)
     240                      .dwattr $C$DW$T$9, DW_AT_name("unsigned short")
     241                      .dwattr $C$DW$T$9, DW_AT_byte_size(0x01)
     242              
TMS320C2000 Assembler PC v22.6.1 Wed May 21 09:51:56 2025

Copyright (c) 1996-2018 Texas Instruments Incorporated
C:\Users\Daniel\AppData\Local\Temp\{A9A05476-C14F-44AF-91F4-641E580AB6D3} PAGE    6

     243              $C$DW$T$10      .dwtag  DW_TAG_base_type
     244                      .dwattr $C$DW$T$10, DW_AT_encoding(DW_ATE_signed)
     245                      .dwattr $C$DW$T$10, DW_AT_name("int")
     246                      .dwattr $C$DW$T$10, DW_AT_byte_size(0x01)
     247              
     248              $C$DW$T$11      .dwtag  DW_TAG_base_type
     249                      .dwattr $C$DW$T$11, DW_AT_encoding(DW_ATE_unsigned)
     250                      .dwattr $C$DW$T$11, DW_AT_name("unsigned int")
     251                      .dwattr $C$DW$T$11, DW_AT_byte_size(0x01)
     252              
     253              $C$DW$T$38      .dwtag  DW_TAG_typedef
     254                      .dwattr $C$DW$T$38, DW_AT_name("__uint16_t")
     255                      .dwattr $C$DW$T$38, DW_AT_type(*$C$DW$T$11)
     256                      .dwattr $C$DW$T$38, DW_AT_language(DW_LANG_C)
     257              
     258              $C$DW$T$39      .dwtag  DW_TAG_typedef
     259                      .dwattr $C$DW$T$39, DW_AT_name("uint16_t")
     260                      .dwattr $C$DW$T$39, DW_AT_type(*$C$DW$T$38)
     261                      .dwattr $C$DW$T$39, DW_AT_language(DW_LANG_C)
     262              
     263              $C$DW$T$12      .dwtag  DW_TAG_base_type
     264                      .dwattr $C$DW$T$12, DW_AT_encoding(DW_ATE_signed)
     265                      .dwattr $C$DW$T$12, DW_AT_name("long")
     266                      .dwattr $C$DW$T$12, DW_AT_byte_size(0x02)
     267              
     268              $C$DW$T$13      .dwtag  DW_TAG_base_type
     269                      .dwattr $C$DW$T$13, DW_AT_encoding(DW_ATE_unsigned)
     270                      .dwattr $C$DW$T$13, DW_AT_name("unsigned long")
     271                      .dwattr $C$DW$T$13, DW_AT_byte_size(0x02)
     272              
     273              $C$DW$T$25      .dwtag  DW_TAG_typedef
     274                      .dwattr $C$DW$T$25, DW_AT_name("__uint32_t")
     275                      .dwattr $C$DW$T$25, DW_AT_type(*$C$DW$T$13)
     276                      .dwattr $C$DW$T$25, DW_AT_language(DW_LANG_C)
     277              
     278              $C$DW$T$26      .dwtag  DW_TAG_typedef
     279                      .dwattr $C$DW$T$26, DW_AT_name("uint32_t")
     280                      .dwattr $C$DW$T$26, DW_AT_type(*$C$DW$T$25)
     281                      .dwattr $C$DW$T$26, DW_AT_language(DW_LANG_C)
     282              
     283              $C$DW$17        .dwtag  DW_TAG_TI_far_type
     284                      .dwattr $C$DW$17, DW_AT_type(*$C$DW$T$26)
     285              
     286              $C$DW$T$41      .dwtag  DW_TAG_const_type
     287                      .dwattr $C$DW$T$41, DW_AT_type(*$C$DW$17)
     288              
     289              $C$DW$T$14      .dwtag  DW_TAG_base_type
     290                      .dwattr $C$DW$T$14, DW_AT_encoding(DW_ATE_signed)
     291                      .dwattr $C$DW$T$14, DW_AT_name("long long")
     292                      .dwattr $C$DW$T$14, DW_AT_byte_size(0x04)
     293              
     294              $C$DW$T$15      .dwtag  DW_TAG_base_type
     295                      .dwattr $C$DW$T$15, DW_AT_encoding(DW_ATE_unsigned)
     296                      .dwattr $C$DW$T$15, DW_AT_name("unsigned long long")
     297                      .dwattr $C$DW$T$15, DW_AT_byte_size(0x04)
TMS320C2000 Assembler PC v22.6.1 Wed May 21 09:51:56 2025

Copyright (c) 1996-2018 Texas Instruments Incorporated
C:\Users\Daniel\AppData\Local\Temp\{A9A05476-C14F-44AF-91F4-641E580AB6D3} PAGE    7

     298              
     299              $C$DW$T$16      .dwtag  DW_TAG_base_type
     300                      .dwattr $C$DW$T$16, DW_AT_encoding(DW_ATE_float)
     301                      .dwattr $C$DW$T$16, DW_AT_name("float")
     302                      .dwattr $C$DW$T$16, DW_AT_byte_size(0x02)
     303              
     304              $C$DW$T$17      .dwtag  DW_TAG_base_type
     305                      .dwattr $C$DW$T$17, DW_AT_encoding(DW_ATE_float)
     306                      .dwattr $C$DW$T$17, DW_AT_name("double")
     307                      .dwattr $C$DW$T$17, DW_AT_byte_size(0x02)
     308              
     309              $C$DW$T$18      .dwtag  DW_TAG_base_type
     310                      .dwattr $C$DW$T$18, DW_AT_encoding(DW_ATE_float)
     311                      .dwattr $C$DW$T$18, DW_AT_name("long double")
     312                      .dwattr $C$DW$T$18, DW_AT_byte_size(0x04)
     313              
     314              $C$DW$18        .dwtag  DW_TAG_TI_far_type
     315                      .dwattr $C$DW$18, DW_AT_type(*$C$DW$T$5)
     316              
     317              $C$DW$T$23      .dwtag  DW_TAG_const_type
     318                      .dwattr $C$DW$T$23, DW_AT_type(*$C$DW$18)
     319              
     320              $C$DW$T$24      .dwtag  DW_TAG_pointer_type
     321                      .dwattr $C$DW$T$24, DW_AT_type(*$C$DW$T$23)
     322                      .dwattr $C$DW$T$24, DW_AT_address_class(0x20)
     323              
     324              $C$DW$T$42      .dwtag  DW_TAG_base_type
     325                      .dwattr $C$DW$T$42, DW_AT_encoding(DW_ATE_unsigned_char)
     326                      .dwattr $C$DW$T$42, DW_AT_name("unsigned char")
     327                      .dwattr $C$DW$T$42, DW_AT_byte_size(0x01)
     328              
     329                      .dwattr $C$DW$CU, DW_AT_language(DW_LANG_C)
     330              
     331              ;***************************************************************
     332              ;* DWARF CIE ENTRIES                                           *
     333              ;***************************************************************
     334              
     335              $C$DW$CIE       .dwcie 26
     336                      .dwcfi  cfa_register, 20
     337                      .dwcfi  cfa_offset, 0
     338                      .dwcfi  same_value, 28
     339                      .dwcfi  same_value, 6
     340                      .dwcfi  same_value, 7
     341                      .dwcfi  same_value, 8
     342                      .dwcfi  same_value, 9
     343                      .dwcfi  same_value, 10
     344                      .dwcfi  same_value, 11
     345                      .dwcfi  same_value, 59
     346                      .dwcfi  same_value, 63
     347                      .dwcfi  same_value, 67
     348                      .dwcfi  same_value, 71
     349                      .dwendentry
     350              
     351              ;***************************************************************
     352              ;* DWARF REGISTER MAP                                          *
TMS320C2000 Assembler PC v22.6.1 Wed May 21 09:51:56 2025

Copyright (c) 1996-2018 Texas Instruments Incorporated
C:\Users\Daniel\AppData\Local\Temp\{A9A05476-C14F-44AF-91F4-641E580AB6D3} PAGE    8

     353              ;***************************************************************
     354              
     355              $C$DW$19        .dwtag  DW_TAG_TI_assign_register
     356                      .dwattr $C$DW$19, DW_AT_name("AL")
     357                      .dwattr $C$DW$19, DW_AT_location[DW_OP_reg0]
     358              
     359              $C$DW$20        .dwtag  DW_TAG_TI_assign_register
     360                      .dwattr $C$DW$20, DW_AT_name("AH")
     361                      .dwattr $C$DW$20, DW_AT_location[DW_OP_reg1]
     362              
     363              $C$DW$21        .dwtag  DW_TAG_TI_assign_register
     364                      .dwattr $C$DW$21, DW_AT_name("PL")
     365                      .dwattr $C$DW$21, DW_AT_location[DW_OP_reg2]
     366              
     367              $C$DW$22        .dwtag  DW_TAG_TI_assign_register
     368                      .dwattr $C$DW$22, DW_AT_name("PH")
     369                      .dwattr $C$DW$22, DW_AT_location[DW_OP_reg3]
     370              
     371              $C$DW$23        .dwtag  DW_TAG_TI_assign_register
     372                      .dwattr $C$DW$23, DW_AT_name("SP")
     373                      .dwattr $C$DW$23, DW_AT_location[DW_OP_reg20]
     374              
     375              $C$DW$24        .dwtag  DW_TAG_TI_assign_register
     376                      .dwattr $C$DW$24, DW_AT_name("XT")
     377                      .dwattr $C$DW$24, DW_AT_location[DW_OP_reg21]
     378              
     379              $C$DW$25        .dwtag  DW_TAG_TI_assign_register
     380                      .dwattr $C$DW$25, DW_AT_name("T")
     381                      .dwattr $C$DW$25, DW_AT_location[DW_OP_reg22]
     382              
     383              $C$DW$26        .dwtag  DW_TAG_TI_assign_register
     384                      .dwattr $C$DW$26, DW_AT_name("ST0")
     385                      .dwattr $C$DW$26, DW_AT_location[DW_OP_reg23]
     386              
     387              $C$DW$27        .dwtag  DW_TAG_TI_assign_register
     388                      .dwattr $C$DW$27, DW_AT_name("ST1")
     389                      .dwattr $C$DW$27, DW_AT_location[DW_OP_reg24]
     390              
     391              $C$DW$28        .dwtag  DW_TAG_TI_assign_register
     392                      .dwattr $C$DW$28, DW_AT_name("PC")
     393                      .dwattr $C$DW$28, DW_AT_location[DW_OP_reg25]
     394              
     395              $C$DW$29        .dwtag  DW_TAG_TI_assign_register
     396                      .dwattr $C$DW$29, DW_AT_name("RPC")
     397                      .dwattr $C$DW$29, DW_AT_location[DW_OP_reg26]
     398              
     399              $C$DW$30        .dwtag  DW_TAG_TI_assign_register
     400                      .dwattr $C$DW$30, DW_AT_name("FP")
     401                      .dwattr $C$DW$30, DW_AT_location[DW_OP_reg28]
     402              
     403              $C$DW$31        .dwtag  DW_TAG_TI_assign_register
     404                      .dwattr $C$DW$31, DW_AT_name("DP")
     405                      .dwattr $C$DW$31, DW_AT_location[DW_OP_reg29]
     406              
     407              $C$DW$32        .dwtag  DW_TAG_TI_assign_register
TMS320C2000 Assembler PC v22.6.1 Wed May 21 09:51:56 2025

Copyright (c) 1996-2018 Texas Instruments Incorporated
C:\Users\Daniel\AppData\Local\Temp\{A9A05476-C14F-44AF-91F4-641E580AB6D3} PAGE    9

     408                      .dwattr $C$DW$32, DW_AT_name("SXM")
     409                      .dwattr $C$DW$32, DW_AT_location[DW_OP_reg30]
     410              
     411              $C$DW$33        .dwtag  DW_TAG_TI_assign_register
     412                      .dwattr $C$DW$33, DW_AT_name("PM")
     413                      .dwattr $C$DW$33, DW_AT_location[DW_OP_reg31]
     414              
     415              $C$DW$34        .dwtag  DW_TAG_TI_assign_register
     416                      .dwattr $C$DW$34, DW_AT_name("OVM")
     417                      .dwattr $C$DW$34, DW_AT_location[DW_OP_regx 0x20]
     418              
     419              $C$DW$35        .dwtag  DW_TAG_TI_assign_register
     420                      .dwattr $C$DW$35, DW_AT_name("PAGE0")
     421                      .dwattr $C$DW$35, DW_AT_location[DW_OP_regx 0x21]
     422              
     423              $C$DW$36        .dwtag  DW_TAG_TI_assign_register
     424                      .dwattr $C$DW$36, DW_AT_name("AMODE")
     425                      .dwattr $C$DW$36, DW_AT_location[DW_OP_regx 0x22]
     426              
     427              $C$DW$37        .dwtag  DW_TAG_TI_assign_register
     428                      .dwattr $C$DW$37, DW_AT_name("EALLOW")
     429                      .dwattr $C$DW$37, DW_AT_location[DW_OP_regx 0x4e]
     430              
     431              $C$DW$38        .dwtag  DW_TAG_TI_assign_register
     432                      .dwattr $C$DW$38, DW_AT_name("INTM")
     433                      .dwattr $C$DW$38, DW_AT_location[DW_OP_regx 0x23]
     434              
     435              $C$DW$39        .dwtag  DW_TAG_TI_assign_register
     436                      .dwattr $C$DW$39, DW_AT_name("IFR")
     437                      .dwattr $C$DW$39, DW_AT_location[DW_OP_regx 0x24]
     438              
     439              $C$DW$40        .dwtag  DW_TAG_TI_assign_register
     440                      .dwattr $C$DW$40, DW_AT_name("IER")
     441                      .dwattr $C$DW$40, DW_AT_location[DW_OP_regx 0x25]
     442              
     443              $C$DW$41        .dwtag  DW_TAG_TI_assign_register
     444                      .dwattr $C$DW$41, DW_AT_name("V")
     445                      .dwattr $C$DW$41, DW_AT_location[DW_OP_regx 0x26]
     446              
     447              $C$DW$42        .dwtag  DW_TAG_TI_assign_register
     448                      .dwattr $C$DW$42, DW_AT_name("PSEUDOH")
     449                      .dwattr $C$DW$42, DW_AT_location[DW_OP_regx 0x4c]
     450              
     451              $C$DW$43        .dwtag  DW_TAG_TI_assign_register
     452                      .dwattr $C$DW$43, DW_AT_name("VOL")
     453                      .dwattr $C$DW$43, DW_AT_location[DW_OP_regx 0x4d]
     454              
     455              $C$DW$44        .dwtag  DW_TAG_TI_assign_register
     456                      .dwattr $C$DW$44, DW_AT_name("AR0")
     457                      .dwattr $C$DW$44, DW_AT_location[DW_OP_reg4]
     458              
     459              $C$DW$45        .dwtag  DW_TAG_TI_assign_register
     460                      .dwattr $C$DW$45, DW_AT_name("XAR0")
     461                      .dwattr $C$DW$45, DW_AT_location[DW_OP_reg5]
     462              
TMS320C2000 Assembler PC v22.6.1 Wed May 21 09:51:56 2025

Copyright (c) 1996-2018 Texas Instruments Incorporated
C:\Users\Daniel\AppData\Local\Temp\{A9A05476-C14F-44AF-91F4-641E580AB6D3} PAGE   10

     463              $C$DW$46        .dwtag  DW_TAG_TI_assign_register
     464                      .dwattr $C$DW$46, DW_AT_name("AR1")
     465                      .dwattr $C$DW$46, DW_AT_location[DW_OP_reg6]
     466              
     467              $C$DW$47        .dwtag  DW_TAG_TI_assign_register
     468                      .dwattr $C$DW$47, DW_AT_name("XAR1")
     469                      .dwattr $C$DW$47, DW_AT_location[DW_OP_reg7]
     470              
     471              $C$DW$48        .dwtag  DW_TAG_TI_assign_register
     472                      .dwattr $C$DW$48, DW_AT_name("AR2")
     473                      .dwattr $C$DW$48, DW_AT_location[DW_OP_reg8]
     474              
     475              $C$DW$49        .dwtag  DW_TAG_TI_assign_register
     476                      .dwattr $C$DW$49, DW_AT_name("XAR2")
     477                      .dwattr $C$DW$49, DW_AT_location[DW_OP_reg9]
     478              
     479              $C$DW$50        .dwtag  DW_TAG_TI_assign_register
     480                      .dwattr $C$DW$50, DW_AT_name("AR3")
     481                      .dwattr $C$DW$50, DW_AT_location[DW_OP_reg10]
     482              
     483              $C$DW$51        .dwtag  DW_TAG_TI_assign_register
     484                      .dwattr $C$DW$51, DW_AT_name("XAR3")
     485                      .dwattr $C$DW$51, DW_AT_location[DW_OP_reg11]
     486              
     487              $C$DW$52        .dwtag  DW_TAG_TI_assign_register
     488                      .dwattr $C$DW$52, DW_AT_name("AR4")
     489                      .dwattr $C$DW$52, DW_AT_location[DW_OP_reg12]
     490              
     491              $C$DW$53        .dwtag  DW_TAG_TI_assign_register
     492                      .dwattr $C$DW$53, DW_AT_name("XAR4")
     493                      .dwattr $C$DW$53, DW_AT_location[DW_OP_reg13]
     494              
     495              $C$DW$54        .dwtag  DW_TAG_TI_assign_register
     496                      .dwattr $C$DW$54, DW_AT_name("AR5")
     497                      .dwattr $C$DW$54, DW_AT_location[DW_OP_reg14]
     498              
     499              $C$DW$55        .dwtag  DW_TAG_TI_assign_register
     500                      .dwattr $C$DW$55, DW_AT_name("XAR5")
     501                      .dwattr $C$DW$55, DW_AT_location[DW_OP_reg15]
     502              
     503              $C$DW$56        .dwtag  DW_TAG_TI_assign_register
     504                      .dwattr $C$DW$56, DW_AT_name("AR6")
     505                      .dwattr $C$DW$56, DW_AT_location[DW_OP_reg16]
     506              
     507              $C$DW$57        .dwtag  DW_TAG_TI_assign_register
     508                      .dwattr $C$DW$57, DW_AT_name("XAR6")
     509                      .dwattr $C$DW$57, DW_AT_location[DW_OP_reg17]
     510              
     511              $C$DW$58        .dwtag  DW_TAG_TI_assign_register
     512                      .dwattr $C$DW$58, DW_AT_name("AR7")
     513                      .dwattr $C$DW$58, DW_AT_location[DW_OP_reg18]
     514              
     515              $C$DW$59        .dwtag  DW_TAG_TI_assign_register
     516                      .dwattr $C$DW$59, DW_AT_name("XAR7")
     517                      .dwattr $C$DW$59, DW_AT_location[DW_OP_reg19]
TMS320C2000 Assembler PC v22.6.1 Wed May 21 09:51:56 2025

Copyright (c) 1996-2018 Texas Instruments Incorporated
C:\Users\Daniel\AppData\Local\Temp\{A9A05476-C14F-44AF-91F4-641E580AB6D3} PAGE   11

     518              
     519              $C$DW$60        .dwtag  DW_TAG_TI_assign_register
     520                      .dwattr $C$DW$60, DW_AT_name("R0H")
     521                      .dwattr $C$DW$60, DW_AT_location[DW_OP_regx 0x2b]
     522              
     523              $C$DW$61        .dwtag  DW_TAG_TI_assign_register
     524                      .dwattr $C$DW$61, DW_AT_name("R1H")
     525                      .dwattr $C$DW$61, DW_AT_location[DW_OP_regx 0x2f]
     526              
     527              $C$DW$62        .dwtag  DW_TAG_TI_assign_register
     528                      .dwattr $C$DW$62, DW_AT_name("R2H")
     529                      .dwattr $C$DW$62, DW_AT_location[DW_OP_regx 0x33]
     530              
     531              $C$DW$63        .dwtag  DW_TAG_TI_assign_register
     532                      .dwattr $C$DW$63, DW_AT_name("R3H")
     533                      .dwattr $C$DW$63, DW_AT_location[DW_OP_regx 0x37]
     534              
     535              $C$DW$64        .dwtag  DW_TAG_TI_assign_register
     536                      .dwattr $C$DW$64, DW_AT_name("R4H")
     537                      .dwattr $C$DW$64, DW_AT_location[DW_OP_regx 0x3b]
     538              
     539              $C$DW$65        .dwtag  DW_TAG_TI_assign_register
     540                      .dwattr $C$DW$65, DW_AT_name("R5H")
     541                      .dwattr $C$DW$65, DW_AT_location[DW_OP_regx 0x3f]
     542              
     543              $C$DW$66        .dwtag  DW_TAG_TI_assign_register
     544                      .dwattr $C$DW$66, DW_AT_name("R6H")
     545                      .dwattr $C$DW$66, DW_AT_location[DW_OP_regx 0x43]
     546              
     547              $C$DW$67        .dwtag  DW_TAG_TI_assign_register
     548                      .dwattr $C$DW$67, DW_AT_name("R7H")
     549                      .dwattr $C$DW$67, DW_AT_location[DW_OP_regx 0x47]
     550              
     551              $C$DW$68        .dwtag  DW_TAG_TI_assign_register
     552                      .dwattr $C$DW$68, DW_AT_name("RB")
     553                      .dwattr $C$DW$68, DW_AT_location[DW_OP_regx 0x4a]
     554              
     555              $C$DW$69        .dwtag  DW_TAG_TI_assign_register
     556                      .dwattr $C$DW$69, DW_AT_name("STF")
     557                      .dwattr $C$DW$69, DW_AT_location[DW_OP_regx 0x28]
     558              
     559              $C$DW$70        .dwtag  DW_TAG_TI_assign_register
     560                      .dwattr $C$DW$70, DW_AT_name("FPUHAZ")
     561                      .dwattr $C$DW$70, DW_AT_location[DW_OP_reg27]
     562              
     563              $C$DW$71        .dwtag  DW_TAG_TI_assign_register
     564                      .dwattr $C$DW$71, DW_AT_name("STF_HWDIV")
     565                      .dwattr $C$DW$71, DW_AT_location[DW_OP_regx 0x4f]
     566              
     567              $C$DW$72        .dwtag  DW_TAG_TI_assign_register
     568                      .dwattr $C$DW$72, DW_AT_name("VCRC")
     569                      .dwattr $C$DW$72, DW_AT_location[DW_OP_regx 0x50]
     570              
     571              $C$DW$73        .dwtag  DW_TAG_TI_assign_register
     572                      .dwattr $C$DW$73, DW_AT_name("VSTATUS")
TMS320C2000 Assembler PC v22.6.1 Wed May 21 09:51:56 2025

Copyright (c) 1996-2018 Texas Instruments Incorporated
C:\Users\Daniel\AppData\Local\Temp\{A9A05476-C14F-44AF-91F4-641E580AB6D3} PAGE   12

     573                      .dwattr $C$DW$73, DW_AT_location[DW_OP_regx 0x51]
     574              
     575              $C$DW$74        .dwtag  DW_TAG_TI_assign_register
     576                      .dwattr $C$DW$74, DW_AT_name("VCRCPOLY")
     577                      .dwattr $C$DW$74, DW_AT_location[DW_OP_regx 0x52]
     578              
     579              $C$DW$75        .dwtag  DW_TAG_TI_assign_register
     580                      .dwattr $C$DW$75, DW_AT_name("VCRCSIZE")
     581                      .dwattr $C$DW$75, DW_AT_location[DW_OP_regx 0x53]
     582              
     583                      .dwendtag $C$DW$CU
     584              

No Assembly Errors, No Assembly Warnings
