TMS320C2000 Assembler PC v22.6.1 Wed May 21 09:51:58 2025

Copyright (c) 1996-2018 Texas Instruments Incorporated
C:\Users\Daniel\AppData\Local\Temp\{2C0A4961-1358-435F-9775-EBAA64ED3F39} PAGE    1

       1              ;***************************************************************
       2              ;* TMS320C2000 G3 C/C++ Codegen                               PC v22.6.1.LTS *
       3              ;* Date/Time created: Wed May 21 09:51:57 2025                 *
       4              ;***************************************************************
       5                      .compiler_opts --abi=coffabi --cla_support=cla2 --diag_wrap=off --float_support=fpu32 --hll_source=on
       6                      .asg    XAR2, FP
       7              
       8              $C$DW$CU        .dwtag  DW_TAG_compile_unit
       9                      .dwattr $C$DW$CU, DW_AT_name("../device/driverlib/mcan.c")
      10                      .dwattr $C$DW$CU, DW_AT_producer("TI TMS320C2000 G3 C/C++ Codegen PC v22.6.1.LTS Copyright (c) 1996-2
      11                      .dwattr $C$DW$CU, DW_AT_TI_version(0x01)
      12                      .dwattr $C$DW$CU, DW_AT_comp_dir("C:\Users\Daniel\CodeComposer\UPS_MUCI\CPU1_FLASH")
      13              ;**************************************************************
      14              ;* CINIT RECORDS                                              *
      15              ;**************************************************************
      16 00000000               .sect   ".cinit:_objSize"
      17                      .clink
      18                      .align  1
      19 00000000 FFF0          .field          -$C$IR_1,16
      20 00000001 0000-         .field          _objSize+0,32
         00000002 0000 
      21 00000003 0004          .bits           0x4,32
         00000004 0000 
      22                                      ; _objSize[0] @ 0
      23 00000005 0005          .bits           0x5,32
         00000006 0000 
      24                                      ; _objSize[1] @ 32
      25 00000007 0006          .bits           0x6,32
         00000008 0000 
      26                                      ; _objSize[2] @ 64
      27 00000009 0007          .bits           0x7,32
         0000000a 0000 
      28                                      ; _objSize[3] @ 96
      29 0000000b 0008          .bits           0x8,32
         0000000c 0000 
      30                                      ; _objSize[4] @ 128
      31 0000000d 000A          .bits           0xa,32
         0000000e 0000 
      32                                      ; _objSize[5] @ 160
      33 0000000f 000E          .bits           0xe,32
         00000010 0000 
      34                                      ; _objSize[6] @ 192
      35 00000011 0012          .bits           0x12,32
         00000012 0000 
      36                                      ; _objSize[7] @ 224
      37        0010  $C$IR_1:        .set    16
      38              
      39 00000000               .sect   ".cinit:_dataSize"
      40                      .clink
      41                      .align  1
      42 00000000 FFE0          .field          -$C$IR_2,16
      43 00000001 0000-         .field          _dataSize+0,32
         00000002 0000 
      44 00000003 0000          .bits           0,32
         00000004 0000 
TMS320C2000 Assembler PC v22.6.1 Wed May 21 09:51:58 2025

Copyright (c) 1996-2018 Texas Instruments Incorporated
C:\Users\Daniel\AppData\Local\Temp\{2C0A4961-1358-435F-9775-EBAA64ED3F39} PAGE    2

      45                                      ; _dataSize[0] @ 0
      46 00000005 0001          .bits           0x1,32
         00000006 0000 
      47                                      ; _dataSize[1] @ 32
      48 00000007 0002          .bits           0x2,32
         00000008 0000 
      49                                      ; _dataSize[2] @ 64
      50 00000009 0003          .bits           0x3,32
         0000000a 0000 
      51                                      ; _dataSize[3] @ 96
      52 0000000b 0004          .bits           0x4,32
         0000000c 0000 
      53                                      ; _dataSize[4] @ 128
      54 0000000d 0005          .bits           0x5,32
         0000000e 0000 
      55                                      ; _dataSize[5] @ 160
      56 0000000f 0006          .bits           0x6,32
         00000010 0000 
      57                                      ; _dataSize[6] @ 192
      58 00000011 0007          .bits           0x7,32
         00000012 0000 
      59                                      ; _dataSize[7] @ 224
      60 00000013 0008          .bits           0x8,32
         00000014 0000 
      61                                      ; _dataSize[8] @ 256
      62 00000015 000C          .bits           0xc,32
         00000016 0000 
      63                                      ; _dataSize[9] @ 288
      64 00000017 0010          .bits           0x10,32
         00000018 0000 
      65                                      ; _dataSize[10] @ 320
      66 00000019 0014          .bits           0x14,32
         0000001a 0000 
      67                                      ; _dataSize[11] @ 352
      68 0000001b 0018          .bits           0x18,32
         0000001c 0000 
      69                                      ; _dataSize[12] @ 384
      70 0000001d 0020          .bits           0x20,32
         0000001e 0000 
      71                                      ; _dataSize[13] @ 416
      72 0000001f 0030          .bits           0x30,32
         00000020 0000 
      73                                      ; _dataSize[14] @ 448
      74 00000021 0040          .bits           0x40,32
         00000022 0000 
      75                                      ; _dataSize[15] @ 480
      76        0020  $C$IR_2:        .set    32
      77              
      78              
      79              $C$DW$1 .dwtag  DW_TAG_subprogram
      80                      .dwattr $C$DW$1, DW_AT_name("__error__")
      81                      .dwattr $C$DW$1, DW_AT_TI_symbol_name("___error__")
      82                      .dwattr $C$DW$1, DW_AT_declaration
      83                      .dwattr $C$DW$1, DW_AT_external
      84              $C$DW$2 .dwtag  DW_TAG_formal_parameter
TMS320C2000 Assembler PC v22.6.1 Wed May 21 09:51:58 2025

Copyright (c) 1996-2018 Texas Instruments Incorporated
C:\Users\Daniel\AppData\Local\Temp\{2C0A4961-1358-435F-9775-EBAA64ED3F39} PAGE    3

      85                      .dwattr $C$DW$2, DW_AT_type(*$C$DW$T$206)
      86              
      87              $C$DW$3 .dwtag  DW_TAG_formal_parameter
      88                      .dwattr $C$DW$3, DW_AT_type(*$C$DW$T$20)
      89              
      90                      .dwendtag $C$DW$1
      91              
      92              
      93              $C$DW$4 .dwtag  DW_TAG_subprogram
      94                      .dwattr $C$DW$4, DW_AT_name("__eallow")
      95                      .dwattr $C$DW$4, DW_AT_TI_symbol_name("___eallow")
      96                      .dwattr $C$DW$4, DW_AT_declaration
      97                      .dwattr $C$DW$4, DW_AT_external
      98                      .dwendtag $C$DW$4
      99              
     100              
     101              $C$DW$5 .dwtag  DW_TAG_subprogram
     102                      .dwattr $C$DW$5, DW_AT_name("__edis")
     103                      .dwattr $C$DW$5, DW_AT_TI_symbol_name("___edis")
     104                      .dwattr $C$DW$5, DW_AT_declaration
     105                      .dwattr $C$DW$5, DW_AT_external
     106                      .dwendtag $C$DW$5
     107              
     108 00000000       _objSize:       .usect  ".ebss:_objSize",16,1,1
     109                      .clink ".ebss:_objSize"
     110              $C$DW$6 .dwtag  DW_TAG_variable
     111                      .dwattr $C$DW$6, DW_AT_name("objSize")
     112                      .dwattr $C$DW$6, DW_AT_TI_symbol_name("_objSize")
     113                      .dwattr $C$DW$6, DW_AT_type(*$C$DW$T$280)
     114                      .dwattr $C$DW$6, DW_AT_location[DW_OP_addr _objSize]
     115              
     116 00000000       _dataSize:      .usect  ".ebss:_dataSize",32,1,1
     117                      .clink ".ebss:_dataSize"
     118              $C$DW$7 .dwtag  DW_TAG_variable
     119                      .dwattr $C$DW$7, DW_AT_name("dataSize")
     120                      .dwattr $C$DW$7, DW_AT_TI_symbol_name("_dataSize")
     121                      .dwattr $C$DW$7, DW_AT_type(*$C$DW$T$279)
     122                      .dwattr $C$DW$7, DW_AT_location[DW_OP_addr _dataSize]
     123              
     124                      .sblock ".ebss:_dataSize"
     125                      .sblock ".ebss:_objSize"
     126              ;       D:\Programs\TI\ccs1281\ccs\tools\compiler\ti-cgt-c2000_22.6.1.LTS\bin\opt2000.exe C:\\Users\\Daniel\\
     127              ;       D:\Programs\TI\ccs1281\ccs\tools\compiler\ti-cgt-c2000_22.6.1.LTS\bin\ac2000.exe -@C:\\Users\\Daniel\
     128 00000000               .sect   ".text:_MCAN_writeTxEventFIFOAck"
     129                      .clink
     130                      .global _MCAN_writeTxEventFIFOAck
     131              
     132              $C$DW$8 .dwtag  DW_TAG_subprogram
     133                      .dwattr $C$DW$8, DW_AT_name("MCAN_writeTxEventFIFOAck")
     134                      .dwattr $C$DW$8, DW_AT_low_pc(_MCAN_writeTxEventFIFOAck)
     135                      .dwattr $C$DW$8, DW_AT_high_pc(0x00)
     136                      .dwattr $C$DW$8, DW_AT_TI_symbol_name("_MCAN_writeTxEventFIFOAck")
     137                      .dwattr $C$DW$8, DW_AT_external
     138                      .dwattr $C$DW$8, DW_AT_type(*$C$DW$T$260)
     139                      .dwattr $C$DW$8, DW_AT_TI_begin_file("../device/driverlib/mcan.c")
TMS320C2000 Assembler PC v22.6.1 Wed May 21 09:51:58 2025

Copyright (c) 1996-2018 Texas Instruments Incorporated
C:\Users\Daniel\AppData\Local\Temp\{2C0A4961-1358-435F-9775-EBAA64ED3F39} PAGE    4

     140                      .dwattr $C$DW$8, DW_AT_TI_begin_line(0x615)
     141                      .dwattr $C$DW$8, DW_AT_TI_begin_column(0x09)
     142                      .dwattr $C$DW$8, DW_AT_TI_max_frame_size(-6)
     143                      .dwpsn  file "../device/driverlib/mcan.c",line 1558,column 1,is_stmt,address _MCAN_writeTxEventFIFOAc
     144              
     145                      .dwfde $C$DW$CIE, _MCAN_writeTxEventFIFOAck
     146              $C$DW$9 .dwtag  DW_TAG_formal_parameter
     147                      .dwattr $C$DW$9, DW_AT_name("baseAddr")
     148                      .dwattr $C$DW$9, DW_AT_TI_symbol_name("_baseAddr")
     149                      .dwattr $C$DW$9, DW_AT_type(*$C$DW$T$20)
     150                      .dwattr $C$DW$9, DW_AT_location[DW_OP_reg0]
     151              
     152              $C$DW$10        .dwtag  DW_TAG_formal_parameter
     153                      .dwattr $C$DW$10, DW_AT_name("idx")
     154                      .dwattr $C$DW$10, DW_AT_TI_symbol_name("_idx")
     155                      .dwattr $C$DW$10, DW_AT_type(*$C$DW$T$20)
     156                      .dwattr $C$DW$10, DW_AT_location[DW_OP_breg20 -8]
     157              
     158              
     159              ;***************************************************************
     160              ;* FNAME: _MCAN_writeTxEventFIFOAck     FR SIZE:   4           *
     161              ;*                                                             *
     162              ;* FUNCTION ENVIRONMENT                                        *
     163              ;*                                                             *
     164              ;* FUNCTION PROPERTIES                                         *
     165              ;*                            0 Parameter,  0 Auto,  4 SOE     *
     166              ;***************************************************************
     167              
     168              _MCAN_writeTxEventFIFOAck:
     169              ;* AR1   assigned to _baseAddr
     170              $C$DW$11        .dwtag  DW_TAG_variable
     171                      .dwattr $C$DW$11, DW_AT_name("baseAddr")
     172                      .dwattr $C$DW$11, DW_AT_TI_symbol_name("_baseAddr")
     173                      .dwattr $C$DW$11, DW_AT_type(*$C$DW$T$281)
     174                      .dwattr $C$DW$11, DW_AT_location[DW_OP_reg6]
     175              
     176              ;* AR2   assigned to _idx
     177              $C$DW$12        .dwtag  DW_TAG_variable
     178                      .dwattr $C$DW$12, DW_AT_name("idx")
     179                      .dwattr $C$DW$12, DW_AT_TI_symbol_name("_idx")
     180                      .dwattr $C$DW$12, DW_AT_type(*$C$DW$T$281)
     181                      .dwattr $C$DW$12, DW_AT_location[DW_OP_reg8]
     182              
     183              ;* AR6   assigned to _regVal
     184              $C$DW$13        .dwtag  DW_TAG_variable
     185                      .dwattr $C$DW$13, DW_AT_name("regVal")
     186                      .dwattr $C$DW$13, DW_AT_TI_symbol_name("_regVal")
     187                      .dwattr $C$DW$13, DW_AT_type(*$C$DW$T$20)
     188                      .dwattr $C$DW$13, DW_AT_location[DW_OP_reg16]
     189              
     190              ;* AR6   assigned to _regVal
     191              $C$DW$14        .dwtag  DW_TAG_variable
     192                      .dwattr $C$DW$14, DW_AT_name("regVal")
     193                      .dwattr $C$DW$14, DW_AT_TI_symbol_name("_regVal")
     194                      .dwattr $C$DW$14, DW_AT_type(*$C$DW$T$20)
TMS320C2000 Assembler PC v22.6.1 Wed May 21 09:51:58 2025

Copyright (c) 1996-2018 Texas Instruments Incorporated
C:\Users\Daniel\AppData\Local\Temp\{2C0A4961-1358-435F-9775-EBAA64ED3F39} PAGE    5

     195                      .dwattr $C$DW$14, DW_AT_location[DW_OP_reg16]
     196              
     197                      .dwcfi  cfa_offset, -2
     198                      .dwcfi  save_reg_to_mem, 26, 0
     199 00000000 B2BD          MOVL      *SP++,XAR1            ; [CPU_ALU] 
     200                      .dwcfi  save_reg_to_mem, 7, 2
     201                      .dwcfi  cfa_offset, -4
     202                      .dwpsn  file "../device/driverlib/mcan.c",line 1565,column 5,is_stmt,isa 0
     203 00000001 8F05          MOVL      XAR4,#360448          ; [CPU_ARAU] |1565| 
         00000002 8000 
     204                      .dwpsn  file "../device/driverlib/mcan.c",line 1558,column 1,is_stmt,isa 0
     205 00000003 8BA9          MOVL      XAR1,ACC              ; [CPU_ALU] |1558| 
     206 00000004 AABD          MOVL      *SP++,XAR2            ; [CPU_ALU] 
     207                      .dwcfi  save_reg_to_mem, 9, 4
     208                      .dwcfi  cfa_offset, -6
     209                      .dwpsn  file "../device/driverlib/mcan.c",line 1565,column 5,is_stmt,isa 0
     210 00000005 A8A9          MOVL      ACC,XAR4              ; [CPU_ALU] |1565| 
     211                      .dwpsn  file "../device/driverlib/mcan.c",line 1558,column 1,is_stmt,isa 0
     212 00000006 8648          MOVL      XAR2,*-SP[8]          ; [CPU_ALU] |1558| 
     213                      .dwpsn  file "../device/driverlib/mcan.c",line 1565,column 5,is_stmt,isa 0
     214 00000007 0FA1          CMPL      ACC,XAR1              ; [CPU_ALU] |1565| 
     215 00000008 6107          B         $C$L1,EQ              ; [CPU_ALU] |1565| 
     216                      ; branchcc occurs ; [] |1565| 
     217 00000009 FF20          MOV       ACC,#1565             ; [CPU_ALU] |1565| 
         0000000a 061D 
     218 0000000b 8F00+         MOVL      XAR4,#$C$FSL1         ; [CPU_ARAU] |1565| 
         0000000c 0000 
     219              $C$DW$15        .dwtag  DW_TAG_TI_branch
     220                      .dwattr $C$DW$15, DW_AT_low_pc(0x00)
     221                      .dwattr $C$DW$15, DW_AT_name("___error__")
     222                      .dwattr $C$DW$15, DW_AT_TI_call
     223              
     224 0000000d 7640!         LCR       #___error__           ; [CPU_ALU] |1565| 
         0000000e 0000 
     225                      ; call occurs [#___error__] ; [] |1565| 
     226 0000000f       $C$L1:    
     227                      .dwpsn  file "..\device\driverlib\inc/hw_types_mcan.h",line 468,column 21,is_stmt,isa 0
     228 0000000f 8D00          MOVL      XAR0,#18160           ; [CPU_ALU] |468| 
         00000010 46F0 
     229 00000011 0691          MOVL      ACC,*+XAR1[AR0]       ; [CPU_ALU] |468| 
     230                      .dwpsn  file "..\device\driverlib\inc/hw_types_mcan.h",line 469,column 5,is_stmt,isa 0
     231 00000012 0EA8          MOVU      ACC,AH                ; [CPU_ALU] |469| 
     232 00000013 9B00          MOVB      AH,#0                 ; [CPU_ALU] |469| 
     233 00000014 903F          ANDB      AL,#0x3f              ; [CPU_ALU] |469| 
     234 00000015 1EA6          MOVL      XAR6,ACC              ; [CPU_ALU] |469| 
     235 00000016 AAA9          MOVL      ACC,XAR2              ; [CPU_ALU] |469| 
     236                      .dwpsn  file "../device/driverlib/mcan.c",line 1569,column 5,is_stmt,isa 0
     237 00000017 0FA6          CMPL      ACC,XAR6              ; [CPU_ALU] |1569| 
     238 00000018 6904          B         $C$L2,LOS             ; [CPU_ALU] |1569| 
     239                      ; branchcc occurs ; [] |1569| 
     240                      .dwpsn  file "../device/driverlib/mcan.c",line 1578,column 9,is_stmt,isa 0
     241 00000019 0200          MOVB      ACC,#0                ; [CPU_ALU] |1578| 
     242 0000001a 1901          SUBB      ACC,#1                ; [CPU_ALU] |1578| 
     243 0000001b 6F0F          B         $C$L3,UNC             ; [CPU_ALU] |1578| 
     244                      ; branch occurs ; [] |1578| 
TMS320C2000 Assembler PC v22.6.1 Wed May 21 09:51:58 2025

Copyright (c) 1996-2018 Texas Instruments Incorporated
C:\Users\Daniel\AppData\Local\Temp\{2C0A4961-1358-435F-9775-EBAA64ED3F39} PAGE    6

     245 0000001c       $C$L2:    
     246                      .dwpsn  file "..\device\driverlib\inc/hw_types_mcan.h",line 424,column 21,is_stmt,isa 0
     247 0000001c 8D00          MOVL      XAR0,#18168           ; [CPU_ALU] |424| 
         0000001d 46F8 
     248 0000001e 0691          MOVL      ACC,*+XAR1[AR0]       ; [CPU_ALU] |424| 
     249                      .dwpsn  file "..\device\driverlib\inc/hw_types_mcan.h",line 425,column 5,is_stmt,isa 0
     250 0000001f AAAB          MOVL      P,XAR2                ; [CPU_ALU] |425| 
     251 00000020 18A9          AND       AL,#65504             ; [CPU_ALU] |425| 
         00000021 FFE0 
     252 00000022 1EA6          MOVL      XAR6,ACC              ; [CPU_ALU] |425| 
     253 00000023 92AB          MOV       AL,PL                 ; [CPU_ALU] |425| 
     254 00000024 901F          ANDB      AL,#0x1f              ; [CPU_ALU] |425| 
     255 00000025 27A9          MOV       PL,AL                 ; [CPU_ALU] |425| 
     256 00000026 06A6          MOVL      ACC,XAR6              ; [CPU_ALU] |425| 
     257 00000027 CAAB          OR        AL,PL                 ; [CPU_ALU] |425| 
     258                      .dwpsn  file "..\device\driverlib\inc/hw_types_mcan.h",line 430,column 5,is_stmt,isa 0
     259 00000028 1E91          MOVL      *+XAR1[AR0],ACC       ; [CPU_ALU] |430| 
     260                      .dwpsn  file "../device/driverlib/mcan.c",line 1574,column 9,is_stmt,isa 0
     261 00000029 0200          MOVB      ACC,#0                ; [CPU_ALU] |1574| 
     262 0000002a       $C$L3:    
     263 0000002a 86BE          MOVL      XAR2,*--SP            ; [CPU_ALU] 
     264                      .dwcfi  cfa_offset, -4
     265                      .dwcfi  restore_reg, 9
     266 0000002b 8BBE          MOVL      XAR1,*--SP            ; [CPU_ALU] 
     267                      .dwcfi  cfa_offset, -2
     268                      .dwcfi  restore_reg, 7
     269              $C$DW$16        .dwtag  DW_TAG_TI_branch
     270                      .dwattr $C$DW$16, DW_AT_low_pc(0x00)
     271                      .dwattr $C$DW$16, DW_AT_TI_return
     272              
     273 0000002c 0006          LRETR     ; [CPU_ALU] 
     274                      ; return occurs ; [] 
     275                      .dwattr $C$DW$8, DW_AT_TI_end_file("../device/driverlib/mcan.c")
     276                      .dwattr $C$DW$8, DW_AT_TI_end_line(0x62e)
     277                      .dwattr $C$DW$8, DW_AT_TI_end_column(0x01)
     278                      .dwendentry
     279                      .dwendtag $C$DW$8
     280              
     281 00000000               .sect   ".text:_MCAN_writeRxFIFOAck"
     282                      .clink
     283                      .global _MCAN_writeRxFIFOAck
     284              
     285              $C$DW$17        .dwtag  DW_TAG_subprogram
     286                      .dwattr $C$DW$17, DW_AT_name("MCAN_writeRxFIFOAck")
     287                      .dwattr $C$DW$17, DW_AT_low_pc(_MCAN_writeRxFIFOAck)
     288                      .dwattr $C$DW$17, DW_AT_high_pc(0x00)
     289                      .dwattr $C$DW$17, DW_AT_TI_symbol_name("_MCAN_writeRxFIFOAck")
     290                      .dwattr $C$DW$17, DW_AT_external
     291                      .dwattr $C$DW$17, DW_AT_type(*$C$DW$T$260)
     292                      .dwattr $C$DW$17, DW_AT_TI_begin_file("../device/driverlib/mcan.c")
     293                      .dwattr $C$DW$17, DW_AT_TI_begin_line(0x52b)
     294                      .dwattr $C$DW$17, DW_AT_TI_begin_column(0x09)
     295                      .dwattr $C$DW$17, DW_AT_TI_max_frame_size(-8)
     296                      .dwpsn  file "../device/driverlib/mcan.c",line 1326,column 1,is_stmt,address _MCAN_writeRxFIFOAck,isa
     297              
TMS320C2000 Assembler PC v22.6.1 Wed May 21 09:51:58 2025

Copyright (c) 1996-2018 Texas Instruments Incorporated
C:\Users\Daniel\AppData\Local\Temp\{2C0A4961-1358-435F-9775-EBAA64ED3F39} PAGE    7

     298                      .dwfde $C$DW$CIE, _MCAN_writeRxFIFOAck
     299              $C$DW$18        .dwtag  DW_TAG_formal_parameter
     300                      .dwattr $C$DW$18, DW_AT_name("baseAddr")
     301                      .dwattr $C$DW$18, DW_AT_TI_symbol_name("_baseAddr")
     302                      .dwattr $C$DW$18, DW_AT_type(*$C$DW$T$20)
     303                      .dwattr $C$DW$18, DW_AT_location[DW_OP_reg0]
     304              
     305              $C$DW$19        .dwtag  DW_TAG_formal_parameter
     306                      .dwattr $C$DW$19, DW_AT_name("fifoNum")
     307                      .dwattr $C$DW$19, DW_AT_TI_symbol_name("_fifoNum")
     308                      .dwattr $C$DW$19, DW_AT_type(*$C$DW$T$20)
     309                      .dwattr $C$DW$19, DW_AT_location[DW_OP_breg20 -10]
     310              
     311              $C$DW$20        .dwtag  DW_TAG_formal_parameter
     312                      .dwattr $C$DW$20, DW_AT_name("idx")
     313                      .dwattr $C$DW$20, DW_AT_TI_symbol_name("_idx")
     314                      .dwattr $C$DW$20, DW_AT_type(*$C$DW$T$20)
     315                      .dwattr $C$DW$20, DW_AT_location[DW_OP_breg20 -12]
     316              
     317              
     318              ;***************************************************************
     319              ;* FNAME: _MCAN_writeRxFIFOAck          FR SIZE:   6           *
     320              ;*                                                             *
     321              ;* FUNCTION ENVIRONMENT                                        *
     322              ;*                                                             *
     323              ;* FUNCTION PROPERTIES                                         *
     324              ;*                            0 Parameter,  0 Auto,  6 SOE     *
     325              ;***************************************************************
     326              
     327              _MCAN_writeRxFIFOAck:
     328              ;* AR1   assigned to _baseAddr
     329              $C$DW$21        .dwtag  DW_TAG_variable
     330                      .dwattr $C$DW$21, DW_AT_name("baseAddr")
     331                      .dwattr $C$DW$21, DW_AT_TI_symbol_name("_baseAddr")
     332                      .dwattr $C$DW$21, DW_AT_type(*$C$DW$T$281)
     333                      .dwattr $C$DW$21, DW_AT_location[DW_OP_reg6]
     334              
     335              ;* AR2   assigned to _fifoNum
     336              $C$DW$22        .dwtag  DW_TAG_variable
     337                      .dwattr $C$DW$22, DW_AT_name("fifoNum")
     338                      .dwattr $C$DW$22, DW_AT_TI_symbol_name("_fifoNum")
     339                      .dwattr $C$DW$22, DW_AT_type(*$C$DW$T$281)
     340                      .dwattr $C$DW$22, DW_AT_location[DW_OP_reg8]
     341              
     342              ;* AR3   assigned to _idx
     343              $C$DW$23        .dwtag  DW_TAG_variable
     344                      .dwattr $C$DW$23, DW_AT_name("idx")
     345                      .dwattr $C$DW$23, DW_AT_TI_symbol_name("_idx")
     346                      .dwattr $C$DW$23, DW_AT_type(*$C$DW$T$281)
     347                      .dwattr $C$DW$23, DW_AT_location[DW_OP_reg10]
     348              
     349              ;* AR6   assigned to _regVal
     350              $C$DW$24        .dwtag  DW_TAG_variable
     351                      .dwattr $C$DW$24, DW_AT_name("regVal")
     352                      .dwattr $C$DW$24, DW_AT_TI_symbol_name("_regVal")
TMS320C2000 Assembler PC v22.6.1 Wed May 21 09:51:58 2025

Copyright (c) 1996-2018 Texas Instruments Incorporated
C:\Users\Daniel\AppData\Local\Temp\{2C0A4961-1358-435F-9775-EBAA64ED3F39} PAGE    8

     353                      .dwattr $C$DW$24, DW_AT_type(*$C$DW$T$20)
     354                      .dwattr $C$DW$24, DW_AT_location[DW_OP_reg16]
     355              
     356              ;* AR6   assigned to _regVal
     357              $C$DW$25        .dwtag  DW_TAG_variable
     358                      .dwattr $C$DW$25, DW_AT_name("regVal")
     359                      .dwattr $C$DW$25, DW_AT_TI_symbol_name("_regVal")
     360                      .dwattr $C$DW$25, DW_AT_type(*$C$DW$T$20)
     361                      .dwattr $C$DW$25, DW_AT_location[DW_OP_reg16]
     362              
     363              ;* AR6   assigned to _regVal
     364              $C$DW$26        .dwtag  DW_TAG_variable
     365                      .dwattr $C$DW$26, DW_AT_name("regVal")
     366                      .dwattr $C$DW$26, DW_AT_TI_symbol_name("_regVal")
     367                      .dwattr $C$DW$26, DW_AT_type(*$C$DW$T$20)
     368                      .dwattr $C$DW$26, DW_AT_location[DW_OP_reg16]
     369              
     370                      .dwcfi  cfa_offset, -2
     371                      .dwcfi  save_reg_to_mem, 26, 0
     372 00000000 B2BD          MOVL      *SP++,XAR1            ; [CPU_ALU] 
     373                      .dwcfi  save_reg_to_mem, 7, 2
     374                      .dwcfi  cfa_offset, -4
     375                      .dwpsn  file "../device/driverlib/mcan.c",line 1333,column 5,is_stmt,isa 0
     376 00000001 8F05          MOVL      XAR4,#360448          ; [CPU_ARAU] |1333| 
         00000002 8000 
     377                      .dwpsn  file "../device/driverlib/mcan.c",line 1326,column 1,is_stmt,isa 0
     378 00000003 8BA9          MOVL      XAR1,ACC              ; [CPU_ALU] |1326| 
     379 00000004 AABD          MOVL      *SP++,XAR2            ; [CPU_ALU] 
     380                      .dwcfi  save_reg_to_mem, 9, 4
     381                      .dwcfi  cfa_offset, -6
     382                      .dwpsn  file "../device/driverlib/mcan.c",line 1333,column 5,is_stmt,isa 0
     383 00000005 A8A9          MOVL      ACC,XAR4              ; [CPU_ALU] |1333| 
     384 00000006 A2BD          MOVL      *SP++,XAR3            ; [CPU_ALU] 
     385                      .dwcfi  save_reg_to_mem, 11, 6
     386                      .dwcfi  cfa_offset, -8
     387 00000007 0FA1          CMPL      ACC,XAR1              ; [CPU_ALU] |1333| 
     388                      .dwpsn  file "../device/driverlib/mcan.c",line 1326,column 1,is_stmt,isa 0
     389 00000008 824C          MOVL      XAR3,*-SP[12]         ; [CPU_FPU] |1326| 
     390 00000009 864A          MOVL      XAR2,*-SP[10]         ; [CPU_ALU] |1326| 
     391                      .dwpsn  file "../device/driverlib/mcan.c",line 1333,column 5,is_stmt,isa 0
     392 0000000a 6107          B         $C$L4,EQ              ; [CPU_ALU] |1333| 
     393                      ; branchcc occurs ; [] |1333| 
     394 0000000b FF20          MOV       ACC,#1333             ; [CPU_ALU] |1333| 
         0000000c 0535 
     395 0000000d 8F00+         MOVL      XAR4,#$C$FSL1         ; [CPU_ARAU] |1333| 
         0000000e 0000 
     396              $C$DW$27        .dwtag  DW_TAG_TI_branch
     397                      .dwattr $C$DW$27, DW_AT_low_pc(0x00)
     398                      .dwattr $C$DW$27, DW_AT_name("___error__")
     399                      .dwattr $C$DW$27, DW_AT_TI_call
     400              
     401 0000000f 7640!         LCR       #___error__           ; [CPU_ALU] |1333| 
         00000010 0000 
     402                      ; call occurs [#___error__] ; [] |1333| 
     403 00000011       $C$L4:    
TMS320C2000 Assembler PC v22.6.1 Wed May 21 09:51:58 2025

Copyright (c) 1996-2018 Texas Instruments Incorporated
C:\Users\Daniel\AppData\Local\Temp\{2C0A4961-1358-435F-9775-EBAA64ED3F39} PAGE    9

     404                      .dwpsn  file "../device/driverlib/mcan.c",line 1335,column 5,is_stmt,isa 0
     405 00000011 AAA9          MOVL      ACC,XAR2              ; [CPU_ALU] |1335| 
     406 00000012 6111          B         $C$L5,EQ              ; [CPU_ALU] |1335| 
     407                      ; branchcc occurs ; [] |1335| 
     408 00000013 0201          MOVB      ACC,#1                ; [CPU_ALU] |1335| 
     409 00000014 0FA2          CMPL      ACC,XAR2              ; [CPU_ALU] |1335| 
     410 00000015 6027          B         $C$L7,NEQ             ; [CPU_ALU] |1335| 
     411                      ; branchcc occurs ; [] |1335| 
     412                      .dwpsn  file "..\device\driverlib\inc/hw_types_mcan.h",line 468,column 21,is_stmt,isa 0
     413 00000016 8D00          MOVL      XAR0,#18096           ; [CPU_ALU] |468| 
         00000017 46B0 
     414 00000018 0691          MOVL      ACC,*+XAR1[AR0]       ; [CPU_ALU] |468| 
     415                      .dwpsn  file "..\device\driverlib\inc/hw_types_mcan.h",line 469,column 5,is_stmt,isa 0
     416 00000019 0EA8          MOVU      ACC,AH                ; [CPU_ALU] |469| 
     417 0000001a 9B00          MOVB      AH,#0                 ; [CPU_ALU] |469| 
     418 0000001b 907F          ANDB      AL,#0x7f              ; [CPU_ALU] |469| 
     419 0000001c 1EA6          MOVL      XAR6,ACC              ; [CPU_ALU] |469| 
     420 0000001d A2A9          MOVL      ACC,XAR3              ; [CPU_ALU] |469| 
     421                      .dwpsn  file "../device/driverlib/mcan.c",line 1355,column 13,is_stmt,isa 0
     422 0000001e 0FA6          CMPL      ACC,XAR6              ; [CPU_ALU] |1355| 
     423 0000001f 661D          B         $C$L7,HI              ; [CPU_ALU] |1355| 
     424                      ; branchcc occurs ; [] |1355| 
     425                      .dwpsn  file "..\device\driverlib\inc/hw_types_mcan.h",line 424,column 21,is_stmt,isa 0
     426 00000020 8D00          MOVL      XAR0,#18104           ; [CPU_ALU] |424| 
         00000021 46B8 
     427 00000022 6F0D          B         $C$L6,UNC             ; [CPU_ALU] 
     428                      ; branch occurs ; [] 
     429 00000023       $C$L5:    
     430                      .dwpsn  file "..\device\driverlib\inc/hw_types_mcan.h",line 468,column 21,is_stmt,isa 0
     431 00000023 8D00          MOVL      XAR0,#18080           ; [CPU_ALU] |468| 
         00000024 46A0 
     432 00000025 0691          MOVL      ACC,*+XAR1[AR0]       ; [CPU_ALU] |468| 
     433                      .dwpsn  file "..\device\driverlib\inc/hw_types_mcan.h",line 469,column 5,is_stmt,isa 0
     434 00000026 0EA8          MOVU      ACC,AH                ; [CPU_ALU] |469| 
     435 00000027 9B00          MOVB      AH,#0                 ; [CPU_ALU] |469| 
     436 00000028 907F          ANDB      AL,#0x7f              ; [CPU_ALU] |469| 
     437 00000029 1EA6          MOVL      XAR6,ACC              ; [CPU_ALU] |469| 
     438 0000002a A2A9          MOVL      ACC,XAR3              ; [CPU_ALU] |469| 
     439                      .dwpsn  file "../device/driverlib/mcan.c",line 1340,column 13,is_stmt,isa 0
     440 0000002b 0FA6          CMPL      ACC,XAR6              ; [CPU_ALU] |1340| 
     441 0000002c 6610          B         $C$L7,HI              ; [CPU_ALU] |1340| 
     442                      ; branchcc occurs ; [] |1340| 
     443                      .dwpsn  file "..\device\driverlib\inc/hw_types_mcan.h",line 424,column 21,is_stmt,isa 0
     444 0000002d 8D00          MOVL      XAR0,#18088           ; [CPU_ALU] |424| 
         0000002e 46A8 
     445 0000002f       $C$L6:    
     446 0000002f 0691          MOVL      ACC,*+XAR1[AR0]       ; [CPU_ALU] |424| 
     447                      .dwpsn  file "..\device\driverlib\inc/hw_types_mcan.h",line 425,column 5,is_stmt,isa 0
     448 00000030 A2AB          MOVL      P,XAR3                ; [CPU_ALU] |425| 
     449 00000031 18A9          AND       AL,#65472             ; [CPU_ALU] |425| 
         00000032 FFC0 
     450 00000033 1EA6          MOVL      XAR6,ACC              ; [CPU_ALU] |425| 
     451 00000034 92AB          MOV       AL,PL                 ; [CPU_ALU] |425| 
     452 00000035 903F          ANDB      AL,#0x3f              ; [CPU_ALU] |425| 
     453 00000036 27A9          MOV       PL,AL                 ; [CPU_ALU] |425| 
TMS320C2000 Assembler PC v22.6.1 Wed May 21 09:51:58 2025

Copyright (c) 1996-2018 Texas Instruments Incorporated
C:\Users\Daniel\AppData\Local\Temp\{2C0A4961-1358-435F-9775-EBAA64ED3F39} PAGE   10

     454 00000037 06A6          MOVL      ACC,XAR6              ; [CPU_ALU] |425| 
     455 00000038 CAAB          OR        AL,PL                 ; [CPU_ALU] |425| 
     456                      .dwpsn  file "..\device\driverlib\inc/hw_types_mcan.h",line 430,column 5,is_stmt,isa 0
     457 00000039 1E91          MOVL      *+XAR1[AR0],ACC       ; [CPU_ALU] |430| 
     458                      .dwpsn  file "../device/driverlib/mcan.c",line 1345,column 17,is_stmt,isa 0
     459 0000003a 0200          MOVB      ACC,#0                ; [CPU_ALU] |1345| 
     460 0000003b 6F03          B         $C$L8,UNC             ; [CPU_ALU] 
     461                      ; branch occurs ; [] 
     462 0000003c       $C$L7:    
     463                      .dwpsn  file "../device/driverlib/mcan.c",line 1368,column 13,is_stmt,isa 0
     464 0000003c 0200          MOVB      ACC,#0                ; [CPU_ALU] |1368| 
     465 0000003d 1901          SUBB      ACC,#1                ; [CPU_ALU] |1368| 
     466 0000003e       $C$L8:    
     467 0000003e 82BE          MOVL      XAR3,*--SP            ; [CPU_ALU] 
     468                      .dwcfi  cfa_offset, -6
     469                      .dwcfi  restore_reg, 11
     470 0000003f 86BE          MOVL      XAR2,*--SP            ; [CPU_ALU] 
     471                      .dwcfi  cfa_offset, -4
     472                      .dwcfi  restore_reg, 9
     473 00000040 8BBE          MOVL      XAR1,*--SP            ; [CPU_ALU] 
     474                      .dwcfi  cfa_offset, -2
     475                      .dwcfi  restore_reg, 7
     476              $C$DW$28        .dwtag  DW_TAG_TI_branch
     477                      .dwattr $C$DW$28, DW_AT_low_pc(0x00)
     478                      .dwattr $C$DW$28, DW_AT_TI_return
     479              
     480 00000041 0006          LRETR     ; [CPU_ALU] 
     481                      ; return occurs ; [] 
     482                      .dwattr $C$DW$17, DW_AT_TI_end_file("../device/driverlib/mcan.c")
     483                      .dwattr $C$DW$17, DW_AT_TI_end_line(0x55d)
     484                      .dwattr $C$DW$17, DW_AT_TI_end_column(0x01)
     485                      .dwendentry
     486                      .dwendtag $C$DW$17
     487              
     488 00000000               .sect   ".text:_MCAN_getMsgObjSize"
     489                      .clink
     490                      .global _MCAN_getMsgObjSize
     491              
     492              $C$DW$29        .dwtag  DW_TAG_subprogram
     493                      .dwattr $C$DW$29, DW_AT_name("MCAN_getMsgObjSize")
     494                      .dwattr $C$DW$29, DW_AT_low_pc(_MCAN_getMsgObjSize)
     495                      .dwattr $C$DW$29, DW_AT_high_pc(0x00)
     496                      .dwattr $C$DW$29, DW_AT_TI_symbol_name("_MCAN_getMsgObjSize")
     497                      .dwattr $C$DW$29, DW_AT_external
     498                      .dwattr $C$DW$29, DW_AT_type(*$C$DW$T$20)
     499                      .dwattr $C$DW$29, DW_AT_TI_begin_file("../device/driverlib/mcan.c")
     500                      .dwattr $C$DW$29, DW_AT_TI_begin_line(0x8ff)
     501                      .dwattr $C$DW$29, DW_AT_TI_begin_column(0x0a)
     502                      .dwattr $C$DW$29, DW_AT_TI_max_frame_size(-4)
     503                      .dwpsn  file "../device/driverlib/mcan.c",line 2304,column 1,is_stmt,address _MCAN_getMsgObjSize,isa 
     504              
     505                      .dwfde $C$DW$CIE, _MCAN_getMsgObjSize
     506              $C$DW$30        .dwtag  DW_TAG_formal_parameter
     507                      .dwattr $C$DW$30, DW_AT_name("elemSize")
     508                      .dwattr $C$DW$30, DW_AT_TI_symbol_name("_elemSize")
TMS320C2000 Assembler PC v22.6.1 Wed May 21 09:51:58 2025

Copyright (c) 1996-2018 Texas Instruments Incorporated
C:\Users\Daniel\AppData\Local\Temp\{2C0A4961-1358-435F-9775-EBAA64ED3F39} PAGE   11

     509                      .dwattr $C$DW$30, DW_AT_type(*$C$DW$T$20)
     510                      .dwattr $C$DW$30, DW_AT_location[DW_OP_reg0]
     511              
     512              
     513              ;***************************************************************
     514              ;* FNAME: _MCAN_getMsgObjSize           FR SIZE:   2           *
     515              ;*                                                             *
     516              ;* FUNCTION ENVIRONMENT                                        *
     517              ;*                                                             *
     518              ;* FUNCTION PROPERTIES                                         *
     519              ;*                            0 Parameter,  0 Auto,  2 SOE     *
     520              ;***************************************************************
     521              
     522              _MCAN_getMsgObjSize:
     523              ;* AR1   assigned to _elemSize
     524              $C$DW$31        .dwtag  DW_TAG_variable
     525                      .dwattr $C$DW$31, DW_AT_name("elemSize")
     526                      .dwattr $C$DW$31, DW_AT_TI_symbol_name("_elemSize")
     527                      .dwattr $C$DW$31, DW_AT_type(*$C$DW$T$281)
     528                      .dwattr $C$DW$31, DW_AT_location[DW_OP_reg6]
     529              
     530                      .dwcfi  cfa_offset, -2
     531                      .dwcfi  save_reg_to_mem, 26, 0
     532 00000000 B2BD          MOVL      *SP++,XAR1            ; [CPU_ALU] 
     533                      .dwcfi  save_reg_to_mem, 7, 2
     534                      .dwcfi  cfa_offset, -4
     535 00000001 8BA9          MOVL      XAR1,ACC              ; [CPU_ALU] |2304| 
     536                      .dwpsn  file "../device/driverlib/mcan.c",line 2305,column 5,is_stmt,isa 0
     537 00000002 0208          MOVB      ACC,#8                ; [CPU_ALU] |2305| 
     538 00000003 0FA1          CMPL      ACC,XAR1              ; [CPU_ALU] |2305| 
     539 00000004 6607          B         $C$L9,HI              ; [CPU_ALU] |2305| 
     540                      ; branchcc occurs ; [] |2305| 
     541 00000005 FF20          MOV       ACC,#2305             ; [CPU_ALU] |2305| 
         00000006 0901 
     542 00000007 8F00+         MOVL      XAR4,#$C$FSL1         ; [CPU_ARAU] |2305| 
         00000008 0000 
     543              $C$DW$32        .dwtag  DW_TAG_TI_branch
     544                      .dwattr $C$DW$32, DW_AT_low_pc(0x00)
     545                      .dwattr $C$DW$32, DW_AT_name("___error__")
     546                      .dwattr $C$DW$32, DW_AT_TI_call
     547              
     548 00000009 7640!         LCR       #___error__           ; [CPU_ALU] |2305| 
         0000000a 0000 
     549                      ; call occurs [#___error__] ; [] |2305| 
     550 0000000b       $C$L9:    
     551                      .dwpsn  file "../device/driverlib/mcan.c",line 2306,column 5,is_stmt,isa 0
     552 0000000b B2A9          MOVL      ACC,XAR1              ; [CPU_ALU] |2306| 
     553 0000000c 8F00-         MOVL      XAR4,#_objSize        ; [CPU_ARAU] |2306| 
         0000000d 0000 
     554 0000000e FF30          LSL       ACC,1                 ; [CPU_ALU] |2306| 
     555 0000000f 5601          ADDL      XAR4,ACC              ; [CPU_ALU] |2306| 
         00000010 00A4 
     556 00000011 06C4          MOVL      ACC,*+XAR4[0]         ; [CPU_ALU] |2306| 
     557 00000012 8BBE          MOVL      XAR1,*--SP            ; [CPU_ALU] 
     558                      .dwcfi  cfa_offset, -2
TMS320C2000 Assembler PC v22.6.1 Wed May 21 09:51:58 2025

Copyright (c) 1996-2018 Texas Instruments Incorporated
C:\Users\Daniel\AppData\Local\Temp\{2C0A4961-1358-435F-9775-EBAA64ED3F39} PAGE   12

     559                      .dwcfi  restore_reg, 7
     560              $C$DW$33        .dwtag  DW_TAG_TI_branch
     561                      .dwattr $C$DW$33, DW_AT_low_pc(0x00)
     562                      .dwattr $C$DW$33, DW_AT_TI_return
     563              
     564 00000013 0006          LRETR     ; [CPU_ALU] 
     565                      ; return occurs ; [] 
     566                      .dwattr $C$DW$29, DW_AT_TI_end_file("../device/driverlib/mcan.c")
     567                      .dwattr $C$DW$29, DW_AT_TI_end_line(0x903)
     568                      .dwattr $C$DW$29, DW_AT_TI_end_column(0x01)
     569                      .dwendentry
     570                      .dwendtag $C$DW$29
     571              
     572 00000000               .sect   ".text:_MCAN_getDataSize"
     573                      .clink
     574              
     575              $C$DW$34        .dwtag  DW_TAG_subprogram
     576                      .dwattr $C$DW$34, DW_AT_name("MCAN_getDataSize")
     577                      .dwattr $C$DW$34, DW_AT_low_pc(_MCAN_getDataSize)
     578                      .dwattr $C$DW$34, DW_AT_high_pc(0x00)
     579                      .dwattr $C$DW$34, DW_AT_TI_symbol_name("_MCAN_getDataSize")
     580                      .dwattr $C$DW$34, DW_AT_type(*$C$DW$T$20)
     581                      .dwattr $C$DW$34, DW_AT_TI_begin_file("../device/driverlib/mcan.c")
     582                      .dwattr $C$DW$34, DW_AT_TI_begin_line(0x8f9)
     583                      .dwattr $C$DW$34, DW_AT_TI_begin_column(0x11)
     584                      .dwattr $C$DW$34, DW_AT_TI_max_frame_size(-4)
     585                      .dwpsn  file "../device/driverlib/mcan.c",line 2298,column 1,is_stmt,address _MCAN_getDataSize,isa 0
     586              
     587                      .dwfde $C$DW$CIE, _MCAN_getDataSize
     588              $C$DW$35        .dwtag  DW_TAG_formal_parameter
     589                      .dwattr $C$DW$35, DW_AT_name("dlc")
     590                      .dwattr $C$DW$35, DW_AT_TI_symbol_name("_dlc")
     591                      .dwattr $C$DW$35, DW_AT_type(*$C$DW$T$20)
     592                      .dwattr $C$DW$35, DW_AT_location[DW_OP_reg0]
     593              
     594              
     595              ;***************************************************************
     596              ;* FNAME: _MCAN_getDataSize             FR SIZE:   2           *
     597              ;*                                                             *
     598              ;* FUNCTION ENVIRONMENT                                        *
     599              ;*                                                             *
     600              ;* FUNCTION PROPERTIES                                         *
     601              ;*                            0 Parameter,  0 Auto,  2 SOE     *
     602              ;***************************************************************
     603              
     604              _MCAN_getDataSize:
     605              ;* AR1   assigned to _dlc
     606              $C$DW$36        .dwtag  DW_TAG_variable
     607                      .dwattr $C$DW$36, DW_AT_name("dlc")
     608                      .dwattr $C$DW$36, DW_AT_TI_symbol_name("_dlc")
     609                      .dwattr $C$DW$36, DW_AT_type(*$C$DW$T$281)
     610                      .dwattr $C$DW$36, DW_AT_location[DW_OP_reg6]
     611              
     612                      .dwcfi  cfa_offset, -2
     613                      .dwcfi  save_reg_to_mem, 26, 0
TMS320C2000 Assembler PC v22.6.1 Wed May 21 09:51:58 2025

Copyright (c) 1996-2018 Texas Instruments Incorporated
C:\Users\Daniel\AppData\Local\Temp\{2C0A4961-1358-435F-9775-EBAA64ED3F39} PAGE   13

     614 00000000 B2BD          MOVL      *SP++,XAR1            ; [CPU_ALU] 
     615                      .dwcfi  save_reg_to_mem, 7, 2
     616                      .dwcfi  cfa_offset, -4
     617 00000001 8BA9          MOVL      XAR1,ACC              ; [CPU_ALU] |2298| 
     618                      .dwpsn  file "../device/driverlib/mcan.c",line 2299,column 5,is_stmt,isa 0
     619 00000002 0210          MOVB      ACC,#16               ; [CPU_ALU] |2299| 
     620 00000003 0FA1          CMPL      ACC,XAR1              ; [CPU_ALU] |2299| 
     621 00000004 6607          B         $C$L10,HI             ; [CPU_ALU] |2299| 
     622                      ; branchcc occurs ; [] |2299| 
     623 00000005 FF20          MOV       ACC,#2299             ; [CPU_ALU] |2299| 
         00000006 08FB 
     624 00000007 8F00+         MOVL      XAR4,#$C$FSL1         ; [CPU_ARAU] |2299| 
         00000008 0000 
     625              $C$DW$37        .dwtag  DW_TAG_TI_branch
     626                      .dwattr $C$DW$37, DW_AT_low_pc(0x00)
     627                      .dwattr $C$DW$37, DW_AT_name("___error__")
     628                      .dwattr $C$DW$37, DW_AT_TI_call
     629              
     630 00000009 7640!         LCR       #___error__           ; [CPU_ALU] |2299| 
         0000000a 0000 
     631                      ; call occurs [#___error__] ; [] |2299| 
     632 0000000b       $C$L10:    
     633                      .dwpsn  file "../device/driverlib/mcan.c",line 2300,column 5,is_stmt,isa 0
     634 0000000b B2A9          MOVL      ACC,XAR1              ; [CPU_ALU] |2300| 
     635 0000000c 8F00-         MOVL      XAR4,#_dataSize       ; [CPU_ARAU] |2300| 
         0000000d 0000 
     636 0000000e FF30          LSL       ACC,1                 ; [CPU_ALU] |2300| 
     637 0000000f 5601          ADDL      XAR4,ACC              ; [CPU_ALU] |2300| 
         00000010 00A4 
     638 00000011 06C4          MOVL      ACC,*+XAR4[0]         ; [CPU_ALU] |2300| 
     639 00000012 8BBE          MOVL      XAR1,*--SP            ; [CPU_ALU] 
     640                      .dwcfi  cfa_offset, -2
     641                      .dwcfi  restore_reg, 7
     642              $C$DW$38        .dwtag  DW_TAG_TI_branch
     643                      .dwattr $C$DW$38, DW_AT_low_pc(0x00)
     644                      .dwattr $C$DW$38, DW_AT_TI_return
     645              
     646 00000013 0006          LRETR     ; [CPU_ALU] 
     647                      ; return occurs ; [] 
     648                      .dwattr $C$DW$34, DW_AT_TI_end_file("../device/driverlib/mcan.c")
     649                      .dwattr $C$DW$34, DW_AT_TI_end_line(0x8fd)
     650                      .dwattr $C$DW$34, DW_AT_TI_end_column(0x01)
     651                      .dwendentry
     652                      .dwendtag $C$DW$34
     653              
     654 00000000               .sect   ".text:_MCAN_writeMsg"
     655                      .clink
     656              
     657              $C$DW$39        .dwtag  DW_TAG_subprogram
     658                      .dwattr $C$DW$39, DW_AT_name("MCAN_writeMsg")
     659                      .dwattr $C$DW$39, DW_AT_low_pc(_MCAN_writeMsg)
     660                      .dwattr $C$DW$39, DW_AT_high_pc(0x00)
     661                      .dwattr $C$DW$39, DW_AT_TI_symbol_name("_MCAN_writeMsg")
     662                      .dwattr $C$DW$39, DW_AT_TI_begin_file("../device/driverlib/mcan.c")
     663                      .dwattr $C$DW$39, DW_AT_TI_begin_line(0x8c0)
TMS320C2000 Assembler PC v22.6.1 Wed May 21 09:51:58 2025

Copyright (c) 1996-2018 Texas Instruments Incorporated
C:\Users\Daniel\AppData\Local\Temp\{2C0A4961-1358-435F-9775-EBAA64ED3F39} PAGE   14

     664                      .dwattr $C$DW$39, DW_AT_TI_begin_column(0x0d)
     665                      .dwattr $C$DW$39, DW_AT_TI_max_frame_size(-12)
     666                      .dwpsn  file "../device/driverlib/mcan.c",line 2243,column 1,is_stmt,address _MCAN_writeMsg,isa 0
     667              
     668                      .dwfde $C$DW$CIE, _MCAN_writeMsg
     669              $C$DW$40        .dwtag  DW_TAG_formal_parameter
     670                      .dwattr $C$DW$40, DW_AT_name("baseAddr")
     671                      .dwattr $C$DW$40, DW_AT_TI_symbol_name("_baseAddr")
     672                      .dwattr $C$DW$40, DW_AT_type(*$C$DW$T$20)
     673                      .dwattr $C$DW$40, DW_AT_location[DW_OP_reg0]
     674              
     675              $C$DW$41        .dwtag  DW_TAG_formal_parameter
     676                      .dwattr $C$DW$41, DW_AT_name("elemAddr")
     677                      .dwattr $C$DW$41, DW_AT_TI_symbol_name("_elemAddr")
     678                      .dwattr $C$DW$41, DW_AT_type(*$C$DW$T$20)
     679                      .dwattr $C$DW$41, DW_AT_location[DW_OP_breg20 -14]
     680              
     681              $C$DW$42        .dwtag  DW_TAG_formal_parameter
     682                      .dwattr $C$DW$42, DW_AT_name("elem")
     683                      .dwattr $C$DW$42, DW_AT_TI_symbol_name("_elem")
     684                      .dwattr $C$DW$42, DW_AT_type(*$C$DW$T$103)
     685                      .dwattr $C$DW$42, DW_AT_location[DW_OP_reg12]
     686              
     687              
     688              ;***************************************************************
     689              ;* FNAME: _MCAN_writeMsg                FR SIZE:  10           *
     690              ;*                                                             *
     691              ;* FUNCTION ENVIRONMENT                                        *
     692              ;*                                                             *
     693              ;* FUNCTION PROPERTIES                                         *
     694              ;*                            0 Parameter,  4 Auto,  6 SOE     *
     695              ;***************************************************************
     696              
     697              _MCAN_writeMsg:
     698              ;* AR4   assigned to $O$C2
     699              ;* AR1   assigned to $O$U57
     700              ;* AR3   assigned to $O$U57
     701              $C$DW$43        .dwtag  DW_TAG_variable
     702                      .dwattr $C$DW$43, DW_AT_name("baseAddr")
     703                      .dwattr $C$DW$43, DW_AT_TI_symbol_name("_baseAddr")
     704                      .dwattr $C$DW$43, DW_AT_type(*$C$DW$T$281)
     705                      .dwattr $C$DW$43, DW_AT_location[DW_OP_breg20 -2]
     706              
     707              ;* AR2   assigned to _elemAddr
     708              $C$DW$44        .dwtag  DW_TAG_variable
     709                      .dwattr $C$DW$44, DW_AT_name("elemAddr")
     710                      .dwattr $C$DW$44, DW_AT_TI_symbol_name("_elemAddr")
     711                      .dwattr $C$DW$44, DW_AT_type(*$C$DW$T$20)
     712                      .dwattr $C$DW$44, DW_AT_location[DW_OP_reg8]
     713              
     714              ;* AR1   assigned to _elem
     715              $C$DW$45        .dwtag  DW_TAG_variable
     716                      .dwattr $C$DW$45, DW_AT_name("elem")
     717                      .dwattr $C$DW$45, DW_AT_TI_symbol_name("_elem")
     718                      .dwattr $C$DW$45, DW_AT_type(*$C$DW$T$104)
TMS320C2000 Assembler PC v22.6.1 Wed May 21 09:51:58 2025

Copyright (c) 1996-2018 Texas Instruments Incorporated
C:\Users\Daniel\AppData\Local\Temp\{2C0A4961-1358-435F-9775-EBAA64ED3F39} PAGE   15

     719                      .dwattr $C$DW$45, DW_AT_location[DW_OP_reg6]
     720              
     721              $C$DW$46        .dwtag  DW_TAG_variable
     722                      .dwattr $C$DW$46, DW_AT_name("loopCnt")
     723                      .dwattr $C$DW$46, DW_AT_TI_symbol_name("_loopCnt")
     724                      .dwattr $C$DW$46, DW_AT_type(*$C$DW$T$20)
     725                      .dwattr $C$DW$46, DW_AT_location[DW_OP_breg20 -4]
     726              
     727                      .dwcfi  cfa_offset, -2
     728                      .dwcfi  save_reg_to_mem, 26, 0
     729 00000000 B2BD          MOVL      *SP++,XAR1            ; [CPU_ALU] 
     730                      .dwcfi  save_reg_to_mem, 7, 2
     731                      .dwcfi  cfa_offset, -4
     732 00000001 AABD          MOVL      *SP++,XAR2            ; [CPU_ALU] 
     733                      .dwcfi  save_reg_to_mem, 9, 4
     734                      .dwcfi  cfa_offset, -6
     735 00000002 A2BD          MOVL      *SP++,XAR3            ; [CPU_ALU] 
     736                      .dwcfi  save_reg_to_mem, 11, 6
     737                      .dwcfi  cfa_offset, -8
     738 00000003 FE04          ADDB      SP,#4                 ; [CPU_ARAU] 
     739                      .dwcfi  cfa_offset, -12
     740 00000004 8BA4          MOVL      XAR1,XAR4             ; [CPU_ALU] |2243| 
     741 00000005 1EA6          MOVL      XAR6,ACC              ; [CPU_ALU] |2243| 
     742                      .dwpsn  file "../device/driverlib/mcan.c",line 2249,column 5,is_stmt,isa 0
     743 00000006 8F05          MOVL      XAR4,#360448          ; [CPU_ARAU] |2249| 
         00000007 8000 
     744                      .dwpsn  file "../device/driverlib/mcan.c",line 2243,column 1,is_stmt,isa 0
     745 00000008 1E42          MOVL      *-SP[2],ACC           ; [CPU_ALU] |2243| 
     746 00000009 864E          MOVL      XAR2,*-SP[14]         ; [CPU_ALU] |2243| 
     747                      .dwpsn  file "../device/driverlib/mcan.c",line 2249,column 5,is_stmt,isa 0
     748 0000000a A8A9          MOVL      ACC,XAR4              ; [CPU_ALU] |2249| 
     749 0000000b 0FA6          CMPL      ACC,XAR6              ; [CPU_ALU] |2249| 
     750 0000000c 6107          B         $C$L11,EQ             ; [CPU_ALU] |2249| 
     751                      ; branchcc occurs ; [] |2249| 
     752 0000000d FF20          MOV       ACC,#2249             ; [CPU_ALU] |2249| 
         0000000e 08C9 
     753 0000000f 8F00+         MOVL      XAR4,#$C$FSL1         ; [CPU_ARAU] |2249| 
         00000010 0000 
     754              $C$DW$47        .dwtag  DW_TAG_TI_branch
     755                      .dwattr $C$DW$47, DW_AT_low_pc(0x00)
     756                      .dwattr $C$DW$47, DW_AT_name("___error__")
     757                      .dwattr $C$DW$47, DW_AT_TI_call
     758              
     759 00000011 7640!         LCR       #___error__           ; [CPU_ALU] |2249| 
         00000012 0000 
     760                      ; call occurs [#___error__] ; [] |2249| 
     761 00000013       $C$L11:    
     762                      .dwpsn  file "..\device\driverlib\inc/hw_types_mcan.h",line 383,column 5,is_stmt,isa 0
     763 00000013 C442          MOVL      XAR6,*-SP[2]          ; [CPU_ALU] |383| 
     764 00000014 AAA9          MOVL      ACC,XAR2              ; [CPU_ALU] |383| 
     765 00000015 28AC          MOV       T,#29                 ; [CPU_ALU] |383| 
         00000016 001D 
     766 00000017 83A1          MOVL      XAR5,XAR1             ; [CPU_ALU] |383| 
     767 00000018 07A6          ADDL      ACC,XAR6              ; [CPU_ALU] |383| 
     768 00000019 8AA9          MOVL      XAR4,ACC              ; [CPU_ALU] |383| 
TMS320C2000 Assembler PC v22.6.1 Wed May 21 09:51:58 2025

Copyright (c) 1996-2018 Texas Instruments Incorporated
C:\Users\Daniel\AppData\Local\Temp\{2C0A4961-1358-435F-9775-EBAA64ED3F39} PAGE   16

     769 0000001a D010          MOVB      XAR0,#16              ; [CPU_ALU] |383| 
     770 0000001b 06D1          MOVL      ACC,*+XAR1[2]         ; [CPU_ALU] |383| 
     771 0000001c 563B          LSLL      ACC,T                 ; [CPU_ALU] |383| 
     772 0000001d DD0E          ADDB      XAR5,#14              ; [CPU_ALU] |383| 
     773 0000001e CAC1          OR        AL,*+XAR1[0]          ; [CPU_ALU] |383| 
     774 0000001f CBC9          OR        AH,*+XAR1[1]          ; [CPU_ALU] |383| 
     775 00000020 28AC          MOV       T,#30                 ; [CPU_ALU] |383| 
         00000021 001E 
     776 00000022 1EA6          MOVL      XAR6,ACC              ; [CPU_ALU] |383| 
     777 00000023 06E1          MOVL      ACC,*+XAR1[4]         ; [CPU_ALU] |383| 
     778 00000024 563B          LSLL      ACC,T                 ; [CPU_ALU] |383| 
     779 00000025 FF5A          MOVL      P,ACC                 ; [CPU_ALU] |383| 
     780 00000026 28AC          MOV       T,#31                 ; [CPU_ALU] |383| 
         00000027 001F 
     781 00000028 06A6          MOVL      ACC,XAR6              ; [CPU_ALU] |383| 
     782 00000029 CAAB          OR        AL,PL                 ; [CPU_ALU] |383| 
     783 0000002a CBAA          OR        AH,PH                 ; [CPU_ALU] |383| 
     784 0000002b 1EA6          MOVL      XAR6,ACC              ; [CPU_ALU] |383| 
     785 0000002c 06F1          MOVL      ACC,*+XAR1[6]         ; [CPU_ALU] |383| 
     786 0000002d 563B          LSLL      ACC,T                 ; [CPU_ALU] |383| 
     787 0000002e FF5A          MOVL      P,ACC                 ; [CPU_ALU] |383| 
     788 0000002f 06A6          MOVL      ACC,XAR6              ; [CPU_ALU] |383| 
     789 00000030 CAAB          OR        AL,PL                 ; [CPU_ALU] |383| 
     790 00000031 CBAA          OR        AH,PH                 ; [CPU_ALU] |383| 
     791 00000032 1EC4          MOVL      *+XAR4[0],ACC         ; [CPU_ALU] |383| 
     792 00000033 0691          MOVL      ACC,*+XAR1[AR0]       ; [CPU_FPU] |383| 
     793 00000034 FF30          LSL       ACC,1                 ; [CPU_ALU] |383| 
     794 00000035 CAC5          OR        AL,*+XAR5[0]          ; [CPU_ALU] |383| 
     795 00000036 CBCD          OR        AH,*+XAR5[1]          ; [CPU_ALU] |383| 
     796 00000037 83A1          MOVL      XAR5,XAR1             ; [CPU_FPU] |383| 
     797 00000038 FF31          LSL       ACC,2                 ; [CPU_ALU] |383| 
     798 00000039 DD0C          ADDB      XAR5,#12              ; [CPU_ALU] |383| 
     799 0000003a CAC5          OR        AL,*+XAR5[0]          ; [CPU_ALU] |383| 
     800 0000003b CBCD          OR        AH,*+XAR5[1]          ; [CPU_ALU] |383| 
     801 0000003c 83A1          MOVL      XAR5,XAR1             ; [CPU_FPU] |383| 
     802 0000003d FF30          LSL       ACC,1                 ; [CPU_ALU] |383| 
     803 0000003e DD0A          ADDB      XAR5,#10              ; [CPU_ALU] |383| 
     804 0000003f CAC5          OR        AL,*+XAR5[0]          ; [CPU_ALU] |383| 
     805 00000040 CBCD          OR        AH,*+XAR5[1]          ; [CPU_ALU] |383| 
     806 00000041 83A1          MOVL      XAR5,XAR1             ; [CPU_FPU] |383| 
     807                      .dwpsn  file "../device/driverlib/mcan.c",line 2270,column 11,is_stmt,isa 0
     808 00000042 D008          MOVB      XAR0,#8               ; [CPU_ALU] |2270| 
     809                      .dwpsn  file "..\device\driverlib\inc/hw_types_mcan.h",line 383,column 5,is_stmt,isa 0
     810 00000043 FF33          LSL       ACC,4                 ; [CPU_ALU] |383| 
     811 00000044 DD08          ADDB      XAR5,#8               ; [CPU_ALU] |383| 
     812 00000045 CAC5          OR        AL,*+XAR5[0]          ; [CPU_ALU] |383| 
     813 00000046 CBCD          OR        AH,*+XAR5[1]          ; [CPU_ALU] |383| 
     814 00000047 FF3F          LSL       ACC,16                ; [CPU_ALU] |383| 
     815 00000048 1EE4          MOVL      *+XAR4[4],ACC         ; [CPU_ALU] |383| 
     816                      .dwpsn  file "../device/driverlib/mcan.c",line 2270,column 11,is_stmt,isa 0
     817 00000049 0691          MOVL      ACC,*+XAR1[AR0]       ; [CPU_ALU] |2270| 
     818              $C$DW$48        .dwtag  DW_TAG_TI_branch
     819                      .dwattr $C$DW$48, DW_AT_low_pc(0x00)
     820                      .dwattr $C$DW$48, DW_AT_name("_MCAN_getDataSize")
     821                      .dwattr $C$DW$48, DW_AT_TI_call
TMS320C2000 Assembler PC v22.6.1 Wed May 21 09:51:58 2025

Copyright (c) 1996-2018 Texas Instruments Incorporated
C:\Users\Daniel\AppData\Local\Temp\{2C0A4961-1358-435F-9775-EBAA64ED3F39} PAGE   17

     822              
     823 0000004a 7640+         LCR       #_MCAN_getDataSize    ; [CPU_ALU] |2270| 
         0000004b 0000 
     824                      ; call occurs [#_MCAN_getDataSize] ; [] |2270| 
     825                      .dwpsn  file "../device/driverlib/mcan.c",line 2268,column 5,is_stmt,isa 0
     826 0000004c BE00          MOVB      XAR6,#0               ; [CPU_ALU] |2268| 
     827                      .dwpsn  file "../device/driverlib/mcan.c",line 2270,column 11,is_stmt,isa 0
     828 0000004d 1EA7          MOVL      XAR7,ACC              ; [CPU_ALU] |2270| 
     829                      .dwpsn  file "../device/driverlib/mcan.c",line 2266,column 5,is_stmt,isa 0
     830 0000004e DA08          ADDB      XAR2,#8               ; [CPU_ALU] |2266| 
     831                      .dwpsn  file "../device/driverlib/mcan.c",line 2270,column 11,is_stmt,isa 0
     832 0000004f 0204          MOVB      ACC,#4                ; [CPU_FPU] |2270| 
     833                      .dwpsn  file "../device/driverlib/mcan.c",line 2268,column 5,is_stmt,isa 0
     834 00000050 C244          MOVL      *-SP[4],XAR6          ; [CPU_FPU] |2268| 
     835                      .dwpsn  file "../device/driverlib/mcan.c",line 2270,column 11,is_stmt,isa 0
     836 00000051 0FA7          CMPL      ACC,XAR7              ; [CPU_ALU] |2270| 
     837 00000052 6641          B         $C$L14,HI             ; [CPU_ALU] |2270| 
     838                      ; branchcc occurs ; [] |2270| 
     839 00000053       $C$L12:    
     840 00000053 D008          MOVB      XAR0,#8               ; [CPU_ALU] |2270| 
     841 00000054 0691          MOVL      ACC,*+XAR1[AR0]       ; [CPU_ALU] |2270| 
     842              $C$DW$49        .dwtag  DW_TAG_TI_branch
     843                      .dwattr $C$DW$49, DW_AT_low_pc(0x00)
     844                      .dwattr $C$DW$49, DW_AT_name("_MCAN_getDataSize")
     845                      .dwattr $C$DW$49, DW_AT_TI_call
     846              
     847 00000055 7640+         LCR       #_MCAN_getDataSize    ; [CPU_ALU] |2270| 
         00000056 0000 
     848                      ; call occurs [#_MCAN_getDataSize] ; [] |2270| 
     849 00000057 1EA6          MOVL      XAR6,ACC              ; [CPU_ALU] |2270| 
     850 00000058 0644          MOVL      ACC,*-SP[4]           ; [CPU_ALU] |2270| 
     851 00000059 0FA6          CMPL      ACC,XAR6              ; [CPU_ALU] |2270| 
     852 0000005a 6139          B         $C$L14,EQ             ; [CPU_ALU] |2270| 
     853                      ; branchcc occurs ; [] |2270| 
     854                      .dwpsn  file "../device/driverlib/mcan.c",line 2273,column 9,is_stmt,isa 0
     855 0000005b C444          MOVL      XAR6,*-SP[4]          ; [CPU_ALU] |2273| 
     856 0000005c 8A44          MOVL      XAR4,*-SP[4]          ; [CPU_ALU] 
     857 0000005d B2A9          MOVL      ACC,XAR1              ; [CPU_ALU] 
     858 0000005e 07A6          ADDL      ACC,XAR6              ; [CPU_ALU] 
     859 0000005f BE40          MOVB      XAR6,#64              ; [CPU_FPU] |2273| 
     860 00000060 DC03          ADDB      XAR4,#3               ; [CPU_ALU] |2273| 
     861 00000061 0912          ADDB      ACC,#18               ; [CPU_ALU] 
     862 00000062 82A9          MOVL      XAR3,ACC              ; [CPU_FPU] 
     863 00000063 06A6          MOVL      ACC,XAR6              ; [CPU_FPU] 
     864 00000064 0FA4          CMPL      ACC,XAR4              ; [CPU_ALU] |2273| 
     865 00000065 6607          B         $C$L13,HI             ; [CPU_ALU] |2273| 
     866                      ; branchcc occurs ; [] |2273| 
     867 00000066 FF20          MOV       ACC,#2273             ; [CPU_ALU] |2273| 
         00000067 08E1 
     868 00000068 8F00+         MOVL      XAR4,#$C$FSL1         ; [CPU_ARAU] |2273| 
         00000069 0000 
     869              $C$DW$50        .dwtag  DW_TAG_TI_branch
     870                      .dwattr $C$DW$50, DW_AT_low_pc(0x00)
     871                      .dwattr $C$DW$50, DW_AT_name("___error__")
     872                      .dwattr $C$DW$50, DW_AT_TI_call
TMS320C2000 Assembler PC v22.6.1 Wed May 21 09:51:58 2025

Copyright (c) 1996-2018 Texas Instruments Incorporated
C:\Users\Daniel\AppData\Local\Temp\{2C0A4961-1358-435F-9775-EBAA64ED3F39} PAGE   18

     873              
     874 0000006a 7640!         LCR       #___error__           ; [CPU_ALU] |2273| 
         0000006b 0000 
     875                      ; call occurs [#___error__] ; [] |2273| 
     876 0000006c       $C$L13:    
     877 0000006c 2901          CLRC      SXM                   ; [CPU_ALU] 
     878                      .dwpsn  file "..\device\driverlib\inc/hw_types_mcan.h",line 383,column 5,is_stmt,isa 0
     879 0000006d 5603          MOV       ACC,*+XAR3[1] << 8    ; [CPU_ALU] |383| 
         0000006e 08CB 
     880 0000006f 28AC          MOV       T,#24                 ; [CPU_ALU] |383| 
         00000070 0018 
     881 00000071 AFC3          OR        ACC,*+XAR3[0]         ; [CPU_ALU] |383| 
     882 00000072 1EA6          MOVL      XAR6,ACC              ; [CPU_ALU] |383| 
     883 00000073 8AA2          MOVL      XAR4,XAR2             ; [CPU_ALU] |383| 
     884 00000074 25D3          MOV       ACC,*+XAR3[2] << 16   ; [CPU_ALU] |383| 
     885 00000075 FF5A          MOVL      P,ACC                 ; [CPU_ALU] |383| 
     886 00000076 06A6          MOVL      ACC,XAR6              ; [CPU_ALU] |383| 
     887 00000077 CAAB          OR        AL,PL                 ; [CPU_ALU] |383| 
     888 00000078 CBAA          OR        AH,PH                 ; [CPU_ALU] |383| 
     889 00000079 1EA6          MOVL      XAR6,ACC              ; [CPU_ALU] |383| 
     890 0000007a 0EDB          MOVU      ACC,*+XAR3[3]         ; [CPU_ALU] |383| 
     891 0000007b 563B          LSLL      ACC,T                 ; [CPU_ALU] |383| 
     892 0000007c FF5A          MOVL      P,ACC                 ; [CPU_ALU] |383| 
     893 0000007d 06A6          MOVL      ACC,XAR6              ; [CPU_ALU] |383| 
     894 0000007e CAAB          OR        AL,PL                 ; [CPU_ALU] |383| 
     895 0000007f CBAA          OR        AH,PH                 ; [CPU_ALU] |383| 
     896 00000080 1EA6          MOVL      XAR6,ACC              ; [CPU_ALU] |383| 
     897 00000081 0642          MOVL      ACC,*-SP[2]           ; [CPU_ALU] |383| 
     898 00000082 5601          ADDL      XAR4,ACC              ; [CPU_ALU] |383| 
         00000083 00A4 
     899                      .dwpsn  file "../device/driverlib/mcan.c",line 2281,column 9,is_stmt,isa 0
     900 00000084 D008          MOVB      XAR0,#8               ; [CPU_ALU] |2281| 
     901                      .dwpsn  file "..\device\driverlib\inc/hw_types_mcan.h",line 383,column 5,is_stmt,isa 0
     902 00000085 C2C4          MOVL      *+XAR4[0],XAR6        ; [CPU_ALU] |383| 
     903                      .dwpsn  file "../device/driverlib/mcan.c",line 2281,column 9,is_stmt,isa 0
     904 00000086 0691          MOVL      ACC,*+XAR1[AR0]       ; [CPU_ALU] |2281| 
     905              $C$DW$51        .dwtag  DW_TAG_TI_branch
     906                      .dwattr $C$DW$51, DW_AT_low_pc(0x00)
     907                      .dwattr $C$DW$51, DW_AT_name("_MCAN_getDataSize")
     908                      .dwattr $C$DW$51, DW_AT_TI_call
     909              
     910 00000087 7640+         LCR       #_MCAN_getDataSize    ; [CPU_ALU] |2281| 
         00000088 0000 
     911                      ; call occurs [#_MCAN_getDataSize] ; [] |2281| 
     912                      .dwpsn  file "../device/driverlib/mcan.c",line 2280,column 9,is_stmt,isa 0
     913 00000089 DA04          ADDB      XAR2,#4               ; [CPU_ALU] |2280| 
     914                      .dwpsn  file "../device/driverlib/mcan.c",line 2281,column 9,is_stmt,isa 0
     915 0000008a FF5A          MOVL      P,ACC                 ; [CPU_FPU] |2281| 
     916 0000008b 0644          MOVL      ACC,*-SP[4]           ; [CPU_FPU] |2281| 
     917 0000008c 0904          ADDB      ACC,#4                ; [CPU_ALU] |2281| 
     918 0000008d 1E44          MOVL      *-SP[4],ACC           ; [CPU_FPU] |2281| 
     919 0000008e 5641          SUBL      P,ACC                 ; [CPU_ALU] |2281| 
         0000008f 00AB 
     920 00000090 0204          MOVB      ACC,#4                ; [CPU_FPU] |2281| 
     921 00000091 0FAB          CMPL      ACC,P                 ; [CPU_ALU] |2281| 
TMS320C2000 Assembler PC v22.6.1 Wed May 21 09:51:58 2025

Copyright (c) 1996-2018 Texas Instruments Incorporated
C:\Users\Daniel\AppData\Local\Temp\{2C0A4961-1358-435F-9775-EBAA64ED3F39} PAGE   19

     922 00000092 69C1          B         $C$L12,LOS            ; [CPU_ALU] |2281| 
     923                      ; branchcc occurs ; [] |2281| 
     924 00000093       $C$L14:    
     925                      .dwpsn  file "../device/driverlib/mcan.c",line 2285,column 5,is_stmt,isa 0
     926 00000093 D008          MOVB      XAR0,#8               ; [CPU_ALU] |2285| 
     927 00000094 0691          MOVL      ACC,*+XAR1[AR0]       ; [CPU_ALU] |2285| 
     928              $C$DW$52        .dwtag  DW_TAG_TI_branch
     929                      .dwattr $C$DW$52, DW_AT_low_pc(0x00)
     930                      .dwattr $C$DW$52, DW_AT_name("_MCAN_getDataSize")
     931                      .dwattr $C$DW$52, DW_AT_TI_call
     932              
     933 00000095 7640+         LCR       #_MCAN_getDataSize    ; [CPU_ALU] |2285| 
         00000096 0000 
     934                      ; call occurs [#_MCAN_getDataSize] ; [] |2285| 
     935 00000097 1EA6          MOVL      XAR6,ACC              ; [CPU_ALU] |2285| 
     936 00000098 0644          MOVL      ACC,*-SP[4]           ; [CPU_ALU] |2285| 
     937 00000099 0FA6          CMPL      ACC,XAR6              ; [CPU_ALU] |2285| 
     938 0000009a 612A          B         $C$L16,EQ             ; [CPU_ALU] |2285| 
     939                      ; branchcc occurs ; [] |2285| 
     940                      .dwpsn  file "../device/driverlib/mcan.c",line 2287,column 9,is_stmt,isa 0
     941 0000009b C444          MOVL      XAR6,*-SP[4]          ; [CPU_ALU] |2287| 
     942 0000009c 8A44          MOVL      XAR4,*-SP[4]          ; [CPU_ALU] 
     943 0000009d B2A9          MOVL      ACC,XAR1              ; [CPU_ALU] 
     944 0000009e 07A6          ADDL      ACC,XAR6              ; [CPU_ALU] 
     945 0000009f BE40          MOVB      XAR6,#64              ; [CPU_FPU] |2287| 
     946 000000a0 DC03          ADDB      XAR4,#3               ; [CPU_ALU] |2287| 
     947 000000a1 0912          ADDB      ACC,#18               ; [CPU_ALU] 
     948 000000a2 8BA9          MOVL      XAR1,ACC              ; [CPU_FPU] 
     949 000000a3 06A6          MOVL      ACC,XAR6              ; [CPU_FPU] 
     950 000000a4 0FA4          CMPL      ACC,XAR4              ; [CPU_ALU] |2287| 
     951 000000a5 6607          B         $C$L15,HI             ; [CPU_ALU] |2287| 
     952                      ; branchcc occurs ; [] |2287| 
     953 000000a6 FF20          MOV       ACC,#2287             ; [CPU_ALU] |2287| 
         000000a7 08EF 
     954 000000a8 8F00+         MOVL      XAR4,#$C$FSL1         ; [CPU_ARAU] |2287| 
         000000a9 0000 
     955              $C$DW$53        .dwtag  DW_TAG_TI_branch
     956                      .dwattr $C$DW$53, DW_AT_low_pc(0x00)
     957                      .dwattr $C$DW$53, DW_AT_name("___error__")
     958                      .dwattr $C$DW$53, DW_AT_TI_call
     959              
     960 000000aa 7640!         LCR       #___error__           ; [CPU_ALU] |2287| 
         000000ab 0000 
     961                      ; call occurs [#___error__] ; [] |2287| 
     962 000000ac       $C$L15:    
     963 000000ac 2901          CLRC      SXM                   ; [CPU_ALU] 
     964                      .dwpsn  file "..\device\driverlib\inc/hw_types_mcan.h",line 383,column 5,is_stmt,isa 0
     965 000000ad 5603          MOV       ACC,*+XAR1[1] << 8    ; [CPU_ALU] |383| 
         000000ae 08C9 
     966 000000af AFC1          OR        ACC,*+XAR1[0]         ; [CPU_ALU] |383| 
     967 000000b0 1EA6          MOVL      XAR6,ACC              ; [CPU_ALU] |383| 
     968 000000b1 28AC          MOV       T,#24                 ; [CPU_ALU] |383| 
         000000b2 0018 
     969 000000b3 25D1          MOV       ACC,*+XAR1[2] << 16   ; [CPU_ALU] |383| 
     970 000000b4 FF5A          MOVL      P,ACC                 ; [CPU_ALU] |383| 
TMS320C2000 Assembler PC v22.6.1 Wed May 21 09:51:58 2025

Copyright (c) 1996-2018 Texas Instruments Incorporated
C:\Users\Daniel\AppData\Local\Temp\{2C0A4961-1358-435F-9775-EBAA64ED3F39} PAGE   20

     971 000000b5 06A6          MOVL      ACC,XAR6              ; [CPU_ALU] |383| 
     972 000000b6 CAAB          OR        AL,PL                 ; [CPU_ALU] |383| 
     973 000000b7 CBAA          OR        AH,PH                 ; [CPU_ALU] |383| 
     974 000000b8 1EA6          MOVL      XAR6,ACC              ; [CPU_ALU] |383| 
     975 000000b9 0ED9          MOVU      ACC,*+XAR1[3]         ; [CPU_ALU] |383| 
     976 000000ba 563B          LSLL      ACC,T                 ; [CPU_ALU] |383| 
     977 000000bb FF5A          MOVL      P,ACC                 ; [CPU_ALU] |383| 
     978 000000bc 06A6          MOVL      ACC,XAR6              ; [CPU_ALU] |383| 
     979 000000bd CAAB          OR        AL,PL                 ; [CPU_ALU] |383| 
     980 000000be CBAA          OR        AH,PH                 ; [CPU_ALU] |383| 
     981 000000bf 1EA6          MOVL      XAR6,ACC              ; [CPU_ALU] |383| 
     982 000000c0 0642          MOVL      ACC,*-SP[2]           ; [CPU_ALU] |383| 
     983 000000c1 5601          ADDL      XAR2,ACC              ; [CPU_ALU] |383| 
         000000c2 00A2 
     984 000000c3 C2C2          MOVL      *+XAR2[0],XAR6        ; [CPU_ALU] |383| 
     985 000000c4       $C$L16:    
     986 000000c4 FE84          SUBB      SP,#4                 ; [CPU_ARAU] 
     987                      .dwcfi  cfa_offset, -8
     988 000000c5 82BE          MOVL      XAR3,*--SP            ; [CPU_ALU] 
     989                      .dwcfi  cfa_offset, -6
     990                      .dwcfi  restore_reg, 11
     991 000000c6 86BE          MOVL      XAR2,*--SP            ; [CPU_ALU] 
     992                      .dwcfi  cfa_offset, -4
     993                      .dwcfi  restore_reg, 9
     994 000000c7 8BBE          MOVL      XAR1,*--SP            ; [CPU_ALU] 
     995                      .dwcfi  cfa_offset, -2
     996                      .dwcfi  restore_reg, 7
     997              $C$DW$54        .dwtag  DW_TAG_TI_branch
     998                      .dwattr $C$DW$54, DW_AT_low_pc(0x00)
     999                      .dwattr $C$DW$54, DW_AT_TI_return
    1000              
    1001 000000c8 0006          LRETR     ; [CPU_ALU] 
    1002                      ; return occurs ; [] 
    1003                      .dwattr $C$DW$39, DW_AT_TI_end_file("../device/driverlib/mcan.c")
    1004                      .dwattr $C$DW$39, DW_AT_TI_end_line(0x8f7)
    1005                      .dwattr $C$DW$39, DW_AT_TI_end_column(0x01)
    1006                      .dwendentry
    1007                      .dwendtag $C$DW$39
    1008              
    1009 00000000               .sect   ".text:_MCAN_writeMsgRam"
    1010                      .clink
    1011                      .global _MCAN_writeMsgRam
    1012              
    1013              $C$DW$55        .dwtag  DW_TAG_subprogram
    1014                      .dwattr $C$DW$55, DW_AT_name("MCAN_writeMsgRam")
    1015                      .dwattr $C$DW$55, DW_AT_low_pc(_MCAN_writeMsgRam)
    1016                      .dwattr $C$DW$55, DW_AT_high_pc(0x00)
    1017                      .dwattr $C$DW$55, DW_AT_TI_symbol_name("_MCAN_writeMsgRam")
    1018                      .dwattr $C$DW$55, DW_AT_external
    1019                      .dwattr $C$DW$55, DW_AT_TI_begin_file("../device/driverlib/mcan.c")
    1020                      .dwattr $C$DW$55, DW_AT_TI_begin_line(0x2fe)
    1021                      .dwattr $C$DW$55, DW_AT_TI_begin_column(0x06)
    1022                      .dwattr $C$DW$55, DW_AT_TI_max_frame_size(-12)
    1023                      .dwpsn  file "../device/driverlib/mcan.c",line 770,column 1,is_stmt,address _MCAN_writeMsgRam,isa 0
    1024              
TMS320C2000 Assembler PC v22.6.1 Wed May 21 09:51:58 2025

Copyright (c) 1996-2018 Texas Instruments Incorporated
C:\Users\Daniel\AppData\Local\Temp\{2C0A4961-1358-435F-9775-EBAA64ED3F39} PAGE   21

    1025                      .dwfde $C$DW$CIE, _MCAN_writeMsgRam
    1026              $C$DW$56        .dwtag  DW_TAG_formal_parameter
    1027                      .dwattr $C$DW$56, DW_AT_name("baseAddr")
    1028                      .dwattr $C$DW$56, DW_AT_TI_symbol_name("_baseAddr")
    1029                      .dwattr $C$DW$56, DW_AT_type(*$C$DW$T$20)
    1030                      .dwattr $C$DW$56, DW_AT_location[DW_OP_reg0]
    1031              
    1032              $C$DW$57        .dwtag  DW_TAG_formal_parameter
    1033                      .dwattr $C$DW$57, DW_AT_name("memType")
    1034                      .dwattr $C$DW$57, DW_AT_TI_symbol_name("_memType")
    1035                      .dwattr $C$DW$57, DW_AT_type(*$C$DW$T$20)
    1036                      .dwattr $C$DW$57, DW_AT_location[DW_OP_breg20 -14]
    1037              
    1038              $C$DW$58        .dwtag  DW_TAG_formal_parameter
    1039                      .dwattr $C$DW$58, DW_AT_name("bufNum")
    1040                      .dwattr $C$DW$58, DW_AT_TI_symbol_name("_bufNum")
    1041                      .dwattr $C$DW$58, DW_AT_type(*$C$DW$T$20)
    1042                      .dwattr $C$DW$58, DW_AT_location[DW_OP_breg20 -16]
    1043              
    1044              $C$DW$59        .dwtag  DW_TAG_formal_parameter
    1045                      .dwattr $C$DW$59, DW_AT_name("elem")
    1046                      .dwattr $C$DW$59, DW_AT_TI_symbol_name("_elem")
    1047                      .dwattr $C$DW$59, DW_AT_type(*$C$DW$T$103)
    1048                      .dwattr $C$DW$59, DW_AT_location[DW_OP_reg12]
    1049              
    1050              
    1051              ;***************************************************************
    1052              ;* FNAME: _MCAN_writeMsgRam             FR SIZE:  10           *
    1053              ;*                                                             *
    1054              ;* FUNCTION ENVIRONMENT                                        *
    1055              ;*                                                             *
    1056              ;* FUNCTION PROPERTIES                                         *
    1057              ;*                            2 Parameter,  2 Auto,  6 SOE     *
    1058              ;***************************************************************
    1059              
    1060              _MCAN_writeMsgRam:
    1061              ;* AR1   assigned to _baseAddr
    1062              $C$DW$60        .dwtag  DW_TAG_variable
    1063                      .dwattr $C$DW$60, DW_AT_name("baseAddr")
    1064                      .dwattr $C$DW$60, DW_AT_TI_symbol_name("_baseAddr")
    1065                      .dwattr $C$DW$60, DW_AT_type(*$C$DW$T$281)
    1066                      .dwattr $C$DW$60, DW_AT_location[DW_OP_reg6]
    1067              
    1068              ;* AR2   assigned to _memType
    1069              $C$DW$61        .dwtag  DW_TAG_variable
    1070                      .dwattr $C$DW$61, DW_AT_name("memType")
    1071                      .dwattr $C$DW$61, DW_AT_TI_symbol_name("_memType")
    1072                      .dwattr $C$DW$61, DW_AT_type(*$C$DW$T$281)
    1073                      .dwattr $C$DW$61, DW_AT_location[DW_OP_reg8]
    1074              
    1075              ;* AR3   assigned to _bufNum
    1076              $C$DW$62        .dwtag  DW_TAG_variable
    1077                      .dwattr $C$DW$62, DW_AT_name("bufNum")
    1078                      .dwattr $C$DW$62, DW_AT_TI_symbol_name("_bufNum")
    1079                      .dwattr $C$DW$62, DW_AT_type(*$C$DW$T$281)
TMS320C2000 Assembler PC v22.6.1 Wed May 21 09:51:58 2025

Copyright (c) 1996-2018 Texas Instruments Incorporated
C:\Users\Daniel\AppData\Local\Temp\{2C0A4961-1358-435F-9775-EBAA64ED3F39} PAGE   22

    1080                      .dwattr $C$DW$62, DW_AT_location[DW_OP_reg10]
    1081              
    1082              $C$DW$63        .dwtag  DW_TAG_variable
    1083                      .dwattr $C$DW$63, DW_AT_name("elem")
    1084                      .dwattr $C$DW$63, DW_AT_TI_symbol_name("_elem")
    1085                      .dwattr $C$DW$63, DW_AT_type(*$C$DW$T$104)
    1086                      .dwattr $C$DW$63, DW_AT_location[DW_OP_breg20 -4]
    1087              
    1088              ;* AR2   assigned to _startAddr
    1089              $C$DW$64        .dwtag  DW_TAG_variable
    1090                      .dwattr $C$DW$64, DW_AT_name("startAddr")
    1091                      .dwattr $C$DW$64, DW_AT_TI_symbol_name("_startAddr")
    1092                      .dwattr $C$DW$64, DW_AT_type(*$C$DW$T$20)
    1093                      .dwattr $C$DW$64, DW_AT_location[DW_OP_reg8]
    1094              
    1095              ;* AR6   assigned to _elemSize
    1096              $C$DW$65        .dwtag  DW_TAG_variable
    1097                      .dwattr $C$DW$65, DW_AT_name("elemSize")
    1098                      .dwattr $C$DW$65, DW_AT_TI_symbol_name("_elemSize")
    1099                      .dwattr $C$DW$65, DW_AT_type(*$C$DW$T$20)
    1100                      .dwattr $C$DW$65, DW_AT_location[DW_OP_reg16]
    1101              
    1102              ;* AR3   assigned to _idx
    1103              $C$DW$66        .dwtag  DW_TAG_variable
    1104                      .dwattr $C$DW$66, DW_AT_name("idx")
    1105                      .dwattr $C$DW$66, DW_AT_TI_symbol_name("_idx")
    1106                      .dwattr $C$DW$66, DW_AT_type(*$C$DW$T$20)
    1107                      .dwattr $C$DW$66, DW_AT_location[DW_OP_reg10]
    1108              
    1109              ;* AR6   assigned to _enableMod
    1110              $C$DW$67        .dwtag  DW_TAG_variable
    1111                      .dwattr $C$DW$67, DW_AT_name("enableMod")
    1112                      .dwattr $C$DW$67, DW_AT_TI_symbol_name("_enableMod")
    1113                      .dwattr $C$DW$67, DW_AT_type(*$C$DW$T$20)
    1114                      .dwattr $C$DW$67, DW_AT_location[DW_OP_reg16]
    1115              
    1116              ;* AL    assigned to _regVal
    1117              $C$DW$68        .dwtag  DW_TAG_variable
    1118                      .dwattr $C$DW$68, DW_AT_name("regVal")
    1119                      .dwattr $C$DW$68, DW_AT_TI_symbol_name("_regVal")
    1120                      .dwattr $C$DW$68, DW_AT_type(*$C$DW$T$20)
    1121                      .dwattr $C$DW$68, DW_AT_location[DW_OP_reg0]
    1122              
    1123              ;* AL    assigned to _regVal
    1124              $C$DW$69        .dwtag  DW_TAG_variable
    1125                      .dwattr $C$DW$69, DW_AT_name("regVal")
    1126                      .dwattr $C$DW$69, DW_AT_TI_symbol_name("_regVal")
    1127                      .dwattr $C$DW$69, DW_AT_type(*$C$DW$T$20)
    1128                      .dwattr $C$DW$69, DW_AT_location[DW_OP_reg0]
    1129              
    1130              ;* AL    assigned to _regVal
    1131              $C$DW$70        .dwtag  DW_TAG_variable
    1132                      .dwattr $C$DW$70, DW_AT_name("regVal")
    1133                      .dwattr $C$DW$70, DW_AT_TI_symbol_name("_regVal")
    1134                      .dwattr $C$DW$70, DW_AT_type(*$C$DW$T$20)
TMS320C2000 Assembler PC v22.6.1 Wed May 21 09:51:58 2025

Copyright (c) 1996-2018 Texas Instruments Incorporated
C:\Users\Daniel\AppData\Local\Temp\{2C0A4961-1358-435F-9775-EBAA64ED3F39} PAGE   23

    1135                      .dwattr $C$DW$70, DW_AT_location[DW_OP_reg0]
    1136              
    1137                      .dwcfi  cfa_offset, -2
    1138                      .dwcfi  save_reg_to_mem, 26, 0
    1139 00000000 B2BD          MOVL      *SP++,XAR1            ; [CPU_ALU] 
    1140                      .dwcfi  save_reg_to_mem, 7, 2
    1141                      .dwcfi  cfa_offset, -4
    1142 00000001 AABD          MOVL      *SP++,XAR2            ; [CPU_ALU] 
    1143                      .dwcfi  save_reg_to_mem, 9, 4
    1144                      .dwcfi  cfa_offset, -6
    1145 00000002 A2BD          MOVL      *SP++,XAR3            ; [CPU_ALU] 
    1146                      .dwcfi  save_reg_to_mem, 11, 6
    1147                      .dwcfi  cfa_offset, -8
    1148 00000003 FE04          ADDB      SP,#4                 ; [CPU_ARAU] 
    1149                      .dwcfi  cfa_offset, -12
    1150 00000004 8BA9          MOVL      XAR1,ACC              ; [CPU_ALU] |770| 
    1151 00000005 A844          MOVL      *-SP[4],XAR4          ; [CPU_ALU] |770| 
    1152                      .dwpsn  file "../device/driverlib/mcan.c",line 777,column 5,is_stmt,isa 0
    1153 00000006 8F05          MOVL      XAR4,#360448          ; [CPU_ARAU] |777| 
         00000007 8000 
    1154                      .dwpsn  file "../device/driverlib/mcan.c",line 770,column 1,is_stmt,isa 0
    1155 00000008 8250          MOVL      XAR3,*-SP[16]         ; [CPU_ALU] |770| 
    1156 00000009 864E          MOVL      XAR2,*-SP[14]         ; [CPU_ALU] |770| 
    1157                      .dwpsn  file "../device/driverlib/mcan.c",line 777,column 5,is_stmt,isa 0
    1158 0000000a A8A9          MOVL      ACC,XAR4              ; [CPU_ALU] |777| 
    1159 0000000b 0FA1          CMPL      ACC,XAR1              ; [CPU_ALU] |777| 
    1160 0000000c 6107          B         $C$L17,EQ             ; [CPU_ALU] |777| 
    1161                      ; branchcc occurs ; [] |777| 
    1162 0000000d FF20          MOV       ACC,#777              ; [CPU_ALU] |777| 
         0000000e 0309 
    1163 0000000f 8F00+         MOVL      XAR4,#$C$FSL1         ; [CPU_ARAU] |777| 
         00000010 0000 
    1164              $C$DW$71        .dwtag  DW_TAG_TI_branch
    1165                      .dwattr $C$DW$71, DW_AT_low_pc(0x00)
    1166                      .dwattr $C$DW$71, DW_AT_name("___error__")
    1167                      .dwattr $C$DW$71, DW_AT_TI_call
    1168              
    1169 00000011 7640!         LCR       #___error__           ; [CPU_ALU] |777| 
         00000012 0000 
    1170                      ; call occurs [#___error__] ; [] |777| 
    1171 00000013       $C$L17:    
    1172 00000013 AAA9          MOVL      ACC,XAR2              ; [CPU_ALU] 
    1173                      .dwpsn  file "../device/driverlib/mcan.c",line 779,column 5,is_stmt,isa 0
    1174 00000014 6003          B         $C$L18,NEQ            ; [CPU_ALU] |779| 
    1175                      ; branchcc occurs ; [] |779| 
    1176                      .dwpsn  file "../device/driverlib/mcan.c",line 782,column 9,is_stmt,isa 0
    1177 00000015 BE01          MOVB      XAR6,#1               ; [CPU_ALU] |782| 
    1178 00000016 6F03          B         $C$L19,UNC            ; [CPU_ALU] |782| 
    1179                      ; branch occurs ; [] |782| 
    1180 00000017       $C$L18:    
    1181                      .dwpsn  file "../device/driverlib/mcan.c",line 772,column 24,is_stmt,isa 0
    1182 00000017 D300          MOVB      XAR3,#0               ; [CPU_ALU] |772| 
    1183 00000018 C4A3          MOVL      XAR6,XAR3             ; [CPU_ALU] |772| 
    1184 00000019       $C$L19:    
    1185                      .dwpsn  file "../device/driverlib/mcan.c",line 784,column 5,is_stmt,isa 0
TMS320C2000 Assembler PC v22.6.1 Wed May 21 09:51:58 2025

Copyright (c) 1996-2018 Texas Instruments Incorporated
C:\Users\Daniel\AppData\Local\Temp\{2C0A4961-1358-435F-9775-EBAA64ED3F39} PAGE   24

    1186 00000019 0201          MOVB      ACC,#1                ; [CPU_ALU] |784| 
    1187 0000001a 0FA2          CMPL      ACC,XAR2              ; [CPU_ALU] |784| 
    1188 0000001b 6104          B         $C$L20,EQ             ; [CPU_ALU] |784| 
    1189                      ; branchcc occurs ; [] |784| 
    1190                      .dwpsn  file "../device/driverlib/mcan.c",line 789,column 5,is_stmt,isa 0
    1191 0000001c 0FA6          CMPL      ACC,XAR6              ; [CPU_ALU] |789| 
    1192 0000001d 6109          B         $C$L21,EQ             ; [CPU_ALU] |789| 
    1193                      ; branchcc occurs ; [] |789| 
    1194 0000001e 6F28          B         $C$L22,UNC            ; [CPU_ALU] |789| 
    1195                      ; branch occurs ; [] |789| 
    1196 0000001f       $C$L20:    
    1197                      .dwpsn  file "..\device\driverlib\inc/hw_types_mcan.h",line 468,column 21,is_stmt,isa 0
    1198 0000001f 8D00          MOVL      XAR0,#18116           ; [CPU_ALU] |468| 
         00000020 46C4 
    1199 00000021 0691          MOVL      ACC,*+XAR1[AR0]       ; [CPU_ALU] |468| 
    1200                      .dwpsn  file "..\device\driverlib\inc/hw_types_mcan.h",line 469,column 5,is_stmt,isa 0
    1201 00000022 0EA8          MOVU      ACC,AH                ; [CPU_ALU] |469| 
    1202 00000023 9B00          MOVB      AH,#0                 ; [CPU_ALU] |469| 
    1203 00000024 901F          ANDB      AL,#0x1f              ; [CPU_ALU] |469| 
    1204                      .dwpsn  file "..\device\driverlib\inc/hw_types_mcan.h",line 470,column 5,is_stmt,isa 0
    1205 00000025 82A9          MOVL      XAR3,ACC              ; [CPU_ALU] |470| 
    1206 00000026       $C$L21:    
    1207                      .dwpsn  file "..\device\driverlib\inc/hw_types_mcan.h",line 468,column 21,is_stmt,isa 0
    1208 00000026 8D00          MOVL      XAR0,#18112           ; [CPU_ALU] |468| 
         00000027 46C0 
    1209 00000028 2901          CLRC      SXM                   ; [CPU_ALU] 
    1210 00000029 0691          MOVL      ACC,*+XAR1[AR0]       ; [CPU_ALU] |468| 
    1211 0000002a 8D00          MOVL      XAR0,#18120           ; [CPU_ALU] |468| 
         0000002b 46C8 
    1212                      .dwpsn  file "..\device\driverlib\inc/hw_types_mcan.h",line 469,column 5,is_stmt,isa 0
    1213 0000002c FF41          SFR       ACC,2                 ; [CPU_ALU] |469| 
    1214 0000002d 18A9          AND       AL,#16383             ; [CPU_ALU] |469| 
         0000002e 3FFF 
    1215 0000002f 9100          ANDB      AH,#0                 ; [CPU_ALU] |469| 
    1216                      .dwpsn  file "..\device\driverlib\inc/hw_types_mcan.h",line 470,column 5,is_stmt,isa 0
    1217 00000030 86A9          MOVL      XAR2,ACC              ; [CPU_ALU] |470| 
    1218                      .dwpsn  file "..\device\driverlib\inc/hw_types_mcan.h",line 468,column 21,is_stmt,isa 0
    1219 00000031 0691          MOVL      ACC,*+XAR1[AR0]       ; [CPU_ALU] |468| 
    1220                      .dwpsn  file "../device/driverlib/mcan.c",line 796,column 9,is_stmt,isa 0
    1221 00000032 9B00          MOVB      AH,#0                 ; [CPU_ALU] |796| 
    1222 00000033 9007          ANDB      AL,#0x07              ; [CPU_ALU] |796| 
    1223              $C$DW$72        .dwtag  DW_TAG_TI_branch
    1224                      .dwattr $C$DW$72, DW_AT_low_pc(0x00)
    1225                      .dwattr $C$DW$72, DW_AT_name("_MCAN_getMsgObjSize")
    1226                      .dwattr $C$DW$72, DW_AT_TI_call
    1227              
    1228 00000034 7640+         LCR       #_MCAN_getMsgObjSize  ; [CPU_ALU] |796| 
         00000035 0000 
    1229                      ; call occurs [#_MCAN_getMsgObjSize] ; [] |796| 
    1230 00000036 1EA6          MOVL      XAR6,ACC              ; [CPU_ALU] |796| 
    1231                      .dwpsn  file "../device/driverlib/mcan.c",line 800,column 9,is_stmt,isa 0
    1232 00000037 A2AC          MOVL      XT,XAR3               ; [CPU_ALU] |800| 
    1233                      .dwpsn  file "../device/driverlib/mcan.c",line 796,column 9,is_stmt,isa 0
    1234 00000038 AAA9          MOVL      ACC,XAR2              ; [CPU_ALU] |796| 
    1235                      .dwpsn  file "../device/driverlib/mcan.c",line 800,column 9,is_stmt,isa 0
TMS320C2000 Assembler PC v22.6.1 Wed May 21 09:51:58 2025

Copyright (c) 1996-2018 Texas Instruments Incorporated
C:\Users\Daniel\AppData\Local\Temp\{2C0A4961-1358-435F-9775-EBAA64ED3F39} PAGE   25

    1236 00000039 FF31          LSL       ACC,2                 ; [CPU_ALU] |800| 
    1237 0000003a 86A9          MOVL      XAR2,ACC              ; [CPU_ALU] |800| 
    1238 0000003b 06A6          MOVL      ACC,XAR6              ; [CPU_ALU] |800| 
    1239 0000003c FF31          LSL       ACC,2                 ; [CPU_ALU] |800| 
    1240 0000003d 5665          IMPYXUL   P,XT,ACC              ; [CPU_ALU] |800| 
         0000003e 00A9 
    1241 0000003f B2A9          MOVL      ACC,XAR1              ; [CPU_FPU] |800| 
    1242 00000040 5657          ADDUL     P,XAR2                ; [CPU_ALU] |800| 
         00000041 00A2 
    1243 00000042 A942          MOVL      *-SP[2],P             ; [CPU_ALU] |800| 
    1244 00000043 8A44          MOVL      XAR4,*-SP[4]          ; [CPU_ALU] |800| 
    1245              $C$DW$73        .dwtag  DW_TAG_TI_branch
    1246                      .dwattr $C$DW$73, DW_AT_low_pc(0x00)
    1247                      .dwattr $C$DW$73, DW_AT_name("_MCAN_writeMsg")
    1248                      .dwattr $C$DW$73, DW_AT_TI_call
    1249              
    1250 00000044 7640+         LCR       #_MCAN_writeMsg       ; [CPU_ALU] |800| 
         00000045 0000 
    1251                      ; call occurs [#_MCAN_writeMsg] ; [] |800| 
    1252 00000046       $C$L22:    
    1253 00000046 FE84          SUBB      SP,#4                 ; [CPU_ARAU] 
    1254                      .dwcfi  cfa_offset, -8
    1255 00000047 82BE          MOVL      XAR3,*--SP            ; [CPU_ALU] 
    1256                      .dwcfi  cfa_offset, -6
    1257                      .dwcfi  restore_reg, 11
    1258 00000048 86BE          MOVL      XAR2,*--SP            ; [CPU_ALU] 
    1259                      .dwcfi  cfa_offset, -4
    1260                      .dwcfi  restore_reg, 9
    1261 00000049 8BBE          MOVL      XAR1,*--SP            ; [CPU_ALU] 
    1262                      .dwcfi  cfa_offset, -2
    1263                      .dwcfi  restore_reg, 7
    1264              $C$DW$74        .dwtag  DW_TAG_TI_branch
    1265                      .dwattr $C$DW$74, DW_AT_low_pc(0x00)
    1266                      .dwattr $C$DW$74, DW_AT_TI_return
    1267              
    1268 0000004a 0006          LRETR     ; [CPU_ALU] 
    1269                      ; return occurs ; [] 
    1270                      .dwattr $C$DW$55, DW_AT_TI_end_file("../device/driverlib/mcan.c")
    1271                      .dwattr $C$DW$55, DW_AT_TI_end_line(0x322)
    1272                      .dwattr $C$DW$55, DW_AT_TI_end_column(0x01)
    1273                      .dwendentry
    1274                      .dwendtag $C$DW$55
    1275              
    1276 00000000               .sect   ".text:_MCAN_txBufTransIntrEnable"
    1277                      .clink
    1278                      .global _MCAN_txBufTransIntrEnable
    1279              
    1280              $C$DW$75        .dwtag  DW_TAG_subprogram
    1281                      .dwattr $C$DW$75, DW_AT_name("MCAN_txBufTransIntrEnable")
    1282                      .dwattr $C$DW$75, DW_AT_low_pc(_MCAN_txBufTransIntrEnable)
    1283                      .dwattr $C$DW$75, DW_AT_high_pc(0x00)
    1284                      .dwattr $C$DW$75, DW_AT_TI_symbol_name("_MCAN_txBufTransIntrEnable")
    1285                      .dwattr $C$DW$75, DW_AT_external
    1286                      .dwattr $C$DW$75, DW_AT_type(*$C$DW$T$260)
    1287                      .dwattr $C$DW$75, DW_AT_TI_begin_file("../device/driverlib/mcan.c")
TMS320C2000 Assembler PC v22.6.1 Wed May 21 09:51:58 2025

Copyright (c) 1996-2018 Texas Instruments Incorporated
C:\Users\Daniel\AppData\Local\Temp\{2C0A4961-1358-435F-9775-EBAA64ED3F39} PAGE   26

    1288                      .dwattr $C$DW$75, DW_AT_TI_begin_line(0x5ac)
    1289                      .dwattr $C$DW$75, DW_AT_TI_begin_column(0x09)
    1290                      .dwattr $C$DW$75, DW_AT_TI_max_frame_size(-8)
    1291                      .dwpsn  file "../device/driverlib/mcan.c",line 1455,column 1,is_stmt,address _MCAN_txBufTransIntrEnab
    1292              
    1293                      .dwfde $C$DW$CIE, _MCAN_txBufTransIntrEnable
    1294              $C$DW$76        .dwtag  DW_TAG_formal_parameter
    1295                      .dwattr $C$DW$76, DW_AT_name("baseAddr")
    1296                      .dwattr $C$DW$76, DW_AT_TI_symbol_name("_baseAddr")
    1297                      .dwattr $C$DW$76, DW_AT_type(*$C$DW$T$20)
    1298                      .dwattr $C$DW$76, DW_AT_location[DW_OP_reg0]
    1299              
    1300              $C$DW$77        .dwtag  DW_TAG_formal_parameter
    1301                      .dwattr $C$DW$77, DW_AT_name("bufNum")
    1302                      .dwattr $C$DW$77, DW_AT_TI_symbol_name("_bufNum")
    1303                      .dwattr $C$DW$77, DW_AT_type(*$C$DW$T$20)
    1304                      .dwattr $C$DW$77, DW_AT_location[DW_OP_breg20 -10]
    1305              
    1306              $C$DW$78        .dwtag  DW_TAG_formal_parameter
    1307                      .dwattr $C$DW$78, DW_AT_name("enable")
    1308                      .dwattr $C$DW$78, DW_AT_TI_symbol_name("_enable")
    1309                      .dwattr $C$DW$78, DW_AT_type(*$C$DW$T$20)
    1310                      .dwattr $C$DW$78, DW_AT_location[DW_OP_breg20 -12]
    1311              
    1312              
    1313              ;***************************************************************
    1314              ;* FNAME: _MCAN_txBufTransIntrEnable    FR SIZE:   6           *
    1315              ;*                                                             *
    1316              ;* FUNCTION ENVIRONMENT                                        *
    1317              ;*                                                             *
    1318              ;* FUNCTION PROPERTIES                                         *
    1319              ;*                            0 Parameter,  0 Auto,  6 SOE     *
    1320              ;***************************************************************
    1321              
    1322              _MCAN_txBufTransIntrEnable:
    1323              ;* AR1   assigned to _baseAddr
    1324              $C$DW$79        .dwtag  DW_TAG_variable
    1325                      .dwattr $C$DW$79, DW_AT_name("baseAddr")
    1326                      .dwattr $C$DW$79, DW_AT_TI_symbol_name("_baseAddr")
    1327                      .dwattr $C$DW$79, DW_AT_type(*$C$DW$T$281)
    1328                      .dwattr $C$DW$79, DW_AT_location[DW_OP_reg6]
    1329              
    1330              ;* AR2   assigned to _bufNum
    1331              $C$DW$80        .dwtag  DW_TAG_variable
    1332                      .dwattr $C$DW$80, DW_AT_name("bufNum")
    1333                      .dwattr $C$DW$80, DW_AT_TI_symbol_name("_bufNum")
    1334                      .dwattr $C$DW$80, DW_AT_type(*$C$DW$T$281)
    1335                      .dwattr $C$DW$80, DW_AT_location[DW_OP_reg8]
    1336              
    1337              ;* AR3   assigned to _enable
    1338              $C$DW$81        .dwtag  DW_TAG_variable
    1339                      .dwattr $C$DW$81, DW_AT_name("enable")
    1340                      .dwattr $C$DW$81, DW_AT_TI_symbol_name("_enable")
    1341                      .dwattr $C$DW$81, DW_AT_type(*$C$DW$T$281)
    1342                      .dwattr $C$DW$81, DW_AT_location[DW_OP_reg10]
TMS320C2000 Assembler PC v22.6.1 Wed May 21 09:51:58 2025

Copyright (c) 1996-2018 Texas Instruments Incorporated
C:\Users\Daniel\AppData\Local\Temp\{2C0A4961-1358-435F-9775-EBAA64ED3F39} PAGE   27

    1343              
    1344              ;* PL    assigned to _regVal
    1345              $C$DW$82        .dwtag  DW_TAG_variable
    1346                      .dwattr $C$DW$82, DW_AT_name("regVal")
    1347                      .dwattr $C$DW$82, DW_AT_TI_symbol_name("_regVal")
    1348                      .dwattr $C$DW$82, DW_AT_type(*$C$DW$T$20)
    1349                      .dwattr $C$DW$82, DW_AT_location[DW_OP_reg2]
    1350              
    1351              ;* PL    assigned to _regVal
    1352              $C$DW$83        .dwtag  DW_TAG_variable
    1353                      .dwattr $C$DW$83, DW_AT_name("regVal")
    1354                      .dwattr $C$DW$83, DW_AT_TI_symbol_name("_regVal")
    1355                      .dwattr $C$DW$83, DW_AT_type(*$C$DW$T$20)
    1356                      .dwattr $C$DW$83, DW_AT_location[DW_OP_reg2]
    1357              
    1358                      .dwcfi  cfa_offset, -2
    1359                      .dwcfi  save_reg_to_mem, 26, 0
    1360 00000000 B2BD          MOVL      *SP++,XAR1            ; [CPU_ALU] 
    1361                      .dwcfi  save_reg_to_mem, 7, 2
    1362                      .dwcfi  cfa_offset, -4
    1363                      .dwpsn  file "../device/driverlib/mcan.c",line 1462,column 5,is_stmt,isa 0
    1364 00000001 8F05          MOVL      XAR4,#360448          ; [CPU_ARAU] |1462| 
         00000002 8000 
    1365                      .dwpsn  file "../device/driverlib/mcan.c",line 1455,column 1,is_stmt,isa 0
    1366 00000003 8BA9          MOVL      XAR1,ACC              ; [CPU_ALU] |1455| 
    1367 00000004 AABD          MOVL      *SP++,XAR2            ; [CPU_ALU] 
    1368                      .dwcfi  save_reg_to_mem, 9, 4
    1369                      .dwcfi  cfa_offset, -6
    1370                      .dwpsn  file "../device/driverlib/mcan.c",line 1462,column 5,is_stmt,isa 0
    1371 00000005 A8A9          MOVL      ACC,XAR4              ; [CPU_ALU] |1462| 
    1372 00000006 A2BD          MOVL      *SP++,XAR3            ; [CPU_ALU] 
    1373                      .dwcfi  save_reg_to_mem, 11, 6
    1374                      .dwcfi  cfa_offset, -8
    1375 00000007 0FA1          CMPL      ACC,XAR1              ; [CPU_ALU] |1462| 
    1376                      .dwpsn  file "../device/driverlib/mcan.c",line 1455,column 1,is_stmt,isa 0
    1377 00000008 824C          MOVL      XAR3,*-SP[12]         ; [CPU_FPU] |1455| 
    1378 00000009 864A          MOVL      XAR2,*-SP[10]         ; [CPU_ALU] |1455| 
    1379                      .dwpsn  file "../device/driverlib/mcan.c",line 1462,column 5,is_stmt,isa 0
    1380 0000000a 6107          B         $C$L23,EQ             ; [CPU_ALU] |1462| 
    1381                      ; branchcc occurs ; [] |1462| 
    1382 0000000b FF20          MOV       ACC,#1462             ; [CPU_ALU] |1462| 
         0000000c 05B6 
    1383 0000000d 8F00+         MOVL      XAR4,#$C$FSL1         ; [CPU_ARAU] |1462| 
         0000000e 0000 
    1384              $C$DW$84        .dwtag  DW_TAG_TI_branch
    1385                      .dwattr $C$DW$84, DW_AT_low_pc(0x00)
    1386                      .dwattr $C$DW$84, DW_AT_name("___error__")
    1387                      .dwattr $C$DW$84, DW_AT_TI_call
    1388              
    1389 0000000f 7640!         LCR       #___error__           ; [CPU_ALU] |1462| 
         00000010 0000 
    1390                      ; call occurs [#___error__] ; [] |1462| 
    1391 00000011       $C$L23:    
    1392                      .dwpsn  file "../device/driverlib/mcan.c",line 1464,column 5,is_stmt,isa 0
    1393 00000011 0220          MOVB      ACC,#32               ; [CPU_ALU] |1464| 
TMS320C2000 Assembler PC v22.6.1 Wed May 21 09:51:58 2025

Copyright (c) 1996-2018 Texas Instruments Incorporated
C:\Users\Daniel\AppData\Local\Temp\{2C0A4961-1358-435F-9775-EBAA64ED3F39} PAGE   28

    1394 00000012 0FA2          CMPL      ACC,XAR2              ; [CPU_ALU] |1464| 
    1395 00000013 6917          B         $C$L26,LOS            ; [CPU_ALU] |1464| 
    1396                      ; branchcc occurs ; [] |1464| 
    1397                      .dwpsn  file "../device/driverlib/mcan.c",line 1466,column 9,is_stmt,isa 0
    1398 00000014 0201          MOVB      ACC,#1                ; [CPU_ALU] |1466| 
    1399 00000015 0FA3          CMPL      ACC,XAR3              ; [CPU_ALU] |1466| 
    1400 00000016 610A          B         $C$L24,EQ             ; [CPU_ALU] |1466| 
    1401                      ; branchcc occurs ; [] |1466| 
    1402                      .dwpsn  file "..\device\driverlib\inc/hw_types_mcan.h",line 383,column 5,is_stmt,isa 0
    1403 00000017 2DA2          MOV       T,AR2                 ; [CPU_ALU] |383| 
    1404                      .dwpsn  file "..\device\driverlib\inc/hw_types_mcan.h",line 369,column 21,is_stmt,isa 0
    1405 00000018 8D00          MOVL      XAR0,#18144           ; [CPU_ALU] |369| 
         00000019 46E0 
    1406                      .dwpsn  file "..\device\driverlib\inc/hw_types_mcan.h",line 383,column 5,is_stmt,isa 0
    1407 0000001a 563B          LSLL      ACC,T                 ; [CPU_ALU] |383| 
    1408                      .dwpsn  file "..\device\driverlib\inc/hw_types_mcan.h",line 369,column 21,is_stmt,isa 0
    1409 0000001b A391          MOVL      P,*+XAR1[AR0]         ; [CPU_FPU] |369| 
    1410                      .dwpsn  file "..\device\driverlib\inc/hw_types_mcan.h",line 383,column 5,is_stmt,isa 0
    1411 0000001c FF55          NOT       ACC                   ; [CPU_ALU] |383| 
    1412 0000001d CEAB          AND       AL,PL                 ; [CPU_ALU] |383| 
    1413 0000001e CFAA          AND       AH,PH                 ; [CPU_ALU] |383| 
    1414                      .dwpsn  file "../device/driverlib/mcan.c",line 1476,column 13,is_stmt,isa 0
    1415 0000001f 6F08          B         $C$L25,UNC            ; [CPU_ALU] |1476| 
    1416                      ; branch occurs ; [] |1476| 
    1417 00000020       $C$L24:    
    1418                      .dwpsn  file "..\device\driverlib\inc/hw_types_mcan.h",line 369,column 21,is_stmt,isa 0
    1419 00000020 8D00          MOVL      XAR0,#18144           ; [CPU_ALU] |369| 
         00000021 46E0 
    1420                      .dwpsn  file "..\device\driverlib\inc/hw_types_mcan.h",line 383,column 5,is_stmt,isa 0
    1421 00000022 2DA2          MOV       T,AR2                 ; [CPU_ALU] |383| 
    1422                      .dwpsn  file "..\device\driverlib\inc/hw_types_mcan.h",line 369,column 21,is_stmt,isa 0
    1423 00000023 A391          MOVL      P,*+XAR1[AR0]         ; [CPU_ALU] |369| 
    1424                      .dwpsn  file "..\device\driverlib\inc/hw_types_mcan.h",line 383,column 5,is_stmt,isa 0
    1425 00000024 563B          LSLL      ACC,T                 ; [CPU_ALU] |383| 
    1426 00000025 CAAB          OR        AL,PL                 ; [CPU_ALU] |383| 
    1427 00000026 CBAA          OR        AH,PH                 ; [CPU_ALU] |383| 
    1428 00000027       $C$L25:    
    1429 00000027 1E91          MOVL      *+XAR1[AR0],ACC       ; [CPU_ALU] |383| 
    1430                      .dwpsn  file "../device/driverlib/mcan.c",line 1478,column 9,is_stmt,isa 0
    1431 00000028 0200          MOVB      ACC,#0                ; [CPU_ALU] |1478| 
    1432 00000029 6F03          B         $C$L27,UNC            ; [CPU_ALU] 
    1433                      ; branch occurs ; [] 
    1434 0000002a       $C$L26:    
    1435                      .dwpsn  file "../device/driverlib/mcan.c",line 1482,column 9,is_stmt,isa 0
    1436 0000002a 0200          MOVB      ACC,#0                ; [CPU_ALU] |1482| 
    1437 0000002b 1901          SUBB      ACC,#1                ; [CPU_ALU] |1482| 
    1438 0000002c       $C$L27:    
    1439 0000002c 82BE          MOVL      XAR3,*--SP            ; [CPU_ALU] 
    1440                      .dwcfi  cfa_offset, -6
    1441                      .dwcfi  restore_reg, 11
    1442 0000002d 86BE          MOVL      XAR2,*--SP            ; [CPU_ALU] 
    1443                      .dwcfi  cfa_offset, -4
    1444                      .dwcfi  restore_reg, 9
    1445 0000002e 8BBE          MOVL      XAR1,*--SP            ; [CPU_ALU] 
    1446                      .dwcfi  cfa_offset, -2
TMS320C2000 Assembler PC v22.6.1 Wed May 21 09:51:58 2025

Copyright (c) 1996-2018 Texas Instruments Incorporated
C:\Users\Daniel\AppData\Local\Temp\{2C0A4961-1358-435F-9775-EBAA64ED3F39} PAGE   29

    1447                      .dwcfi  restore_reg, 7
    1448              $C$DW$85        .dwtag  DW_TAG_TI_branch
    1449                      .dwattr $C$DW$85, DW_AT_low_pc(0x00)
    1450                      .dwattr $C$DW$85, DW_AT_TI_return
    1451              
    1452 0000002f 0006          LRETR     ; [CPU_ALU] 
    1453                      ; return occurs ; [] 
    1454                      .dwattr $C$DW$75, DW_AT_TI_end_file("../device/driverlib/mcan.c")
    1455                      .dwattr $C$DW$75, DW_AT_TI_end_line(0x5cd)
    1456                      .dwattr $C$DW$75, DW_AT_TI_end_column(0x01)
    1457                      .dwendentry
    1458                      .dwendtag $C$DW$75
    1459              
    1460 00000000               .sect   ".text:_MCAN_txBufCancellationStatus"
    1461                      .clink
    1462                      .global _MCAN_txBufCancellationStatus
    1463              
    1464              $C$DW$86        .dwtag  DW_TAG_subprogram
    1465                      .dwattr $C$DW$86, DW_AT_name("MCAN_txBufCancellationStatus")
    1466                      .dwattr $C$DW$86, DW_AT_low_pc(_MCAN_txBufCancellationStatus)
    1467                      .dwattr $C$DW$86, DW_AT_high_pc(0x00)
    1468                      .dwattr $C$DW$86, DW_AT_TI_symbol_name("_MCAN_txBufCancellationStatus")
    1469                      .dwattr $C$DW$86, DW_AT_external
    1470                      .dwattr $C$DW$86, DW_AT_type(*$C$DW$T$20)
    1471                      .dwattr $C$DW$86, DW_AT_TI_begin_file("../device/driverlib/mcan.c")
    1472                      .dwattr $C$DW$86, DW_AT_TI_begin_line(0x5a2)
    1473                      .dwattr $C$DW$86, DW_AT_TI_begin_column(0x0a)
    1474                      .dwattr $C$DW$86, DW_AT_TI_max_frame_size(-4)
    1475                      .dwpsn  file "../device/driverlib/mcan.c",line 1443,column 1,is_stmt,address _MCAN_txBufCancellationS
    1476              
    1477                      .dwfde $C$DW$CIE, _MCAN_txBufCancellationStatus
    1478              $C$DW$87        .dwtag  DW_TAG_formal_parameter
    1479                      .dwattr $C$DW$87, DW_AT_name("baseAddr")
    1480                      .dwattr $C$DW$87, DW_AT_TI_symbol_name("_baseAddr")
    1481                      .dwattr $C$DW$87, DW_AT_type(*$C$DW$T$20)
    1482                      .dwattr $C$DW$87, DW_AT_location[DW_OP_reg0]
    1483              
    1484              
    1485              ;***************************************************************
    1486              ;* FNAME: _MCAN_txBufCancellationStatus FR SIZE:   2           *
    1487              ;*                                                             *
    1488              ;* FUNCTION ENVIRONMENT                                        *
    1489              ;*                                                             *
    1490              ;* FUNCTION PROPERTIES                                         *
    1491              ;*                            0 Parameter,  0 Auto,  2 SOE     *
    1492              ;***************************************************************
    1493              
    1494              _MCAN_txBufCancellationStatus:
    1495              ;* AR1   assigned to _baseAddr
    1496              $C$DW$88        .dwtag  DW_TAG_variable
    1497                      .dwattr $C$DW$88, DW_AT_name("baseAddr")
    1498                      .dwattr $C$DW$88, DW_AT_TI_symbol_name("_baseAddr")
    1499                      .dwattr $C$DW$88, DW_AT_type(*$C$DW$T$281)
    1500                      .dwattr $C$DW$88, DW_AT_location[DW_OP_reg6]
    1501              
TMS320C2000 Assembler PC v22.6.1 Wed May 21 09:51:58 2025

Copyright (c) 1996-2018 Texas Instruments Incorporated
C:\Users\Daniel\AppData\Local\Temp\{2C0A4961-1358-435F-9775-EBAA64ED3F39} PAGE   30

    1502              ;* AL    assigned to _regVal
    1503              $C$DW$89        .dwtag  DW_TAG_variable
    1504                      .dwattr $C$DW$89, DW_AT_name("regVal")
    1505                      .dwattr $C$DW$89, DW_AT_TI_symbol_name("_regVal")
    1506                      .dwattr $C$DW$89, DW_AT_type(*$C$DW$T$20)
    1507                      .dwattr $C$DW$89, DW_AT_location[DW_OP_reg0]
    1508              
    1509                      .dwcfi  cfa_offset, -2
    1510                      .dwcfi  save_reg_to_mem, 26, 0
    1511 00000000 B2BD          MOVL      *SP++,XAR1            ; [CPU_ALU] 
    1512                      .dwcfi  save_reg_to_mem, 7, 2
    1513                      .dwcfi  cfa_offset, -4
    1514 00000001 8BA9          MOVL      XAR1,ACC              ; [CPU_ALU] |1443| 
    1515                      .dwpsn  file "../device/driverlib/mcan.c",line 1447,column 5,is_stmt,isa 0
    1516 00000002 8F05          MOVL      XAR4,#360448          ; [CPU_ARAU] |1447| 
         00000003 8000 
    1517 00000004 A8A9          MOVL      ACC,XAR4              ; [CPU_ALU] |1447| 
    1518 00000005 0FA1          CMPL      ACC,XAR1              ; [CPU_ALU] |1447| 
    1519 00000006 6107          B         $C$L28,EQ             ; [CPU_ALU] |1447| 
    1520                      ; branchcc occurs ; [] |1447| 
    1521 00000007 FF20          MOV       ACC,#1447             ; [CPU_ALU] |1447| 
         00000008 05A7 
    1522 00000009 8F00+         MOVL      XAR4,#$C$FSL1         ; [CPU_ARAU] |1447| 
         0000000a 0000 
    1523              $C$DW$90        .dwtag  DW_TAG_TI_branch
    1524                      .dwattr $C$DW$90, DW_AT_low_pc(0x00)
    1525                      .dwattr $C$DW$90, DW_AT_name("___error__")
    1526                      .dwattr $C$DW$90, DW_AT_TI_call
    1527              
    1528 0000000b 7640!         LCR       #___error__           ; [CPU_ALU] |1447| 
         0000000c 0000 
    1529                      ; call occurs [#___error__] ; [] |1447| 
    1530 0000000d       $C$L28:    
    1531                      .dwpsn  file "..\device\driverlib\inc/hw_types_mcan.h",line 369,column 21,is_stmt,isa 0
    1532 0000000d 8D00          MOVL      XAR0,#18140           ; [CPU_ALU] |369| 
         0000000e 46DC 
    1533 0000000f 0691          MOVL      ACC,*+XAR1[AR0]       ; [CPU_ALU] |369| 
    1534 00000010 8BBE          MOVL      XAR1,*--SP            ; [CPU_ALU] 
    1535                      .dwcfi  cfa_offset, -2
    1536                      .dwcfi  restore_reg, 7
    1537              $C$DW$91        .dwtag  DW_TAG_TI_branch
    1538                      .dwattr $C$DW$91, DW_AT_low_pc(0x00)
    1539                      .dwattr $C$DW$91, DW_AT_TI_return
    1540              
    1541 00000011 0006          LRETR     ; [CPU_ALU] 
    1542                      ; return occurs ; [] 
    1543                      .dwattr $C$DW$86, DW_AT_TI_end_file("../device/driverlib/mcan.c")
    1544                      .dwattr $C$DW$86, DW_AT_TI_end_line(0x5aa)
    1545                      .dwattr $C$DW$86, DW_AT_TI_end_column(0x01)
    1546                      .dwendentry
    1547                      .dwendtag $C$DW$86
    1548              
    1549 00000000               .sect   ".text:_MCAN_writeProtectedRegAccessLock"
    1550                      .clink
    1551              
TMS320C2000 Assembler PC v22.6.1 Wed May 21 09:51:58 2025

Copyright (c) 1996-2018 Texas Instruments Incorporated
C:\Users\Daniel\AppData\Local\Temp\{2C0A4961-1358-435F-9775-EBAA64ED3F39} PAGE   31

    1552              $C$DW$92        .dwtag  DW_TAG_subprogram
    1553                      .dwattr $C$DW$92, DW_AT_name("MCAN_writeProtectedRegAccessLock")
    1554                      .dwattr $C$DW$92, DW_AT_low_pc(_MCAN_writeProtectedRegAccessLock)
    1555                      .dwattr $C$DW$92, DW_AT_high_pc(0x00)
    1556                      .dwattr $C$DW$92, DW_AT_TI_symbol_name("_MCAN_writeProtectedRegAccessLock")
    1557                      .dwattr $C$DW$92, DW_AT_TI_begin_file("../device/driverlib/mcan.c")
    1558                      .dwattr $C$DW$92, DW_AT_TI_begin_line(0x864)
    1559                      .dwattr $C$DW$92, DW_AT_TI_begin_column(0x0d)
    1560                      .dwattr $C$DW$92, DW_AT_TI_max_frame_size(-4)
    1561                      .dwpsn  file "../device/driverlib/mcan.c",line 2149,column 1,is_stmt,address _MCAN_writeProtectedRegA
    1562              
    1563                      .dwfde $C$DW$CIE, _MCAN_writeProtectedRegAccessLock
    1564              $C$DW$93        .dwtag  DW_TAG_formal_parameter
    1565                      .dwattr $C$DW$93, DW_AT_name("baseAddr")
    1566                      .dwattr $C$DW$93, DW_AT_TI_symbol_name("_baseAddr")
    1567                      .dwattr $C$DW$93, DW_AT_type(*$C$DW$T$20)
    1568                      .dwattr $C$DW$93, DW_AT_location[DW_OP_reg0]
    1569              
    1570              
    1571              ;***************************************************************
    1572              ;* FNAME: _MCAN_writeProtectedRegAccessLock FR SIZE:   2           *
    1573              ;*                                                             *
    1574              ;* FUNCTION ENVIRONMENT                                        *
    1575              ;*                                                             *
    1576              ;* FUNCTION PROPERTIES                                         *
    1577              ;*                            0 Parameter,  0 Auto,  2 SOE     *
    1578              ;***************************************************************
    1579              
    1580              _MCAN_writeProtectedRegAccessLock:
    1581              ;* AR1   assigned to _baseAddr
    1582              $C$DW$94        .dwtag  DW_TAG_variable
    1583                      .dwattr $C$DW$94, DW_AT_name("baseAddr")
    1584                      .dwattr $C$DW$94, DW_AT_TI_symbol_name("_baseAddr")
    1585                      .dwattr $C$DW$94, DW_AT_type(*$C$DW$T$281)
    1586                      .dwattr $C$DW$94, DW_AT_location[DW_OP_reg6]
    1587              
    1588              ;* AL    assigned to _regVal
    1589              $C$DW$95        .dwtag  DW_TAG_variable
    1590                      .dwattr $C$DW$95, DW_AT_name("regVal")
    1591                      .dwattr $C$DW$95, DW_AT_TI_symbol_name("_regVal")
    1592                      .dwattr $C$DW$95, DW_AT_type(*$C$DW$T$20)
    1593                      .dwattr $C$DW$95, DW_AT_location[DW_OP_reg0]
    1594              
    1595                      .dwcfi  cfa_offset, -2
    1596                      .dwcfi  save_reg_to_mem, 26, 0
    1597 00000000 B2BD          MOVL      *SP++,XAR1            ; [CPU_ALU] 
    1598                      .dwcfi  save_reg_to_mem, 7, 2
    1599                      .dwcfi  cfa_offset, -4
    1600 00000001 8BA9          MOVL      XAR1,ACC              ; [CPU_ALU] |2149| 
    1601                      .dwpsn  file "../device/driverlib/mcan.c",line 2153,column 5,is_stmt,isa 0
    1602 00000002 8F05          MOVL      XAR4,#360448          ; [CPU_ARAU] |2153| 
         00000003 8000 
    1603 00000004 A8A9          MOVL      ACC,XAR4              ; [CPU_ALU] |2153| 
    1604 00000005 0FA1          CMPL      ACC,XAR1              ; [CPU_ALU] |2153| 
    1605 00000006 6107          B         $C$L29,EQ             ; [CPU_ALU] |2153| 
TMS320C2000 Assembler PC v22.6.1 Wed May 21 09:51:58 2025

Copyright (c) 1996-2018 Texas Instruments Incorporated
C:\Users\Daniel\AppData\Local\Temp\{2C0A4961-1358-435F-9775-EBAA64ED3F39} PAGE   32

    1606                      ; branchcc occurs ; [] |2153| 
    1607 00000007 FF20          MOV       ACC,#2153             ; [CPU_ALU] |2153| 
         00000008 0869 
    1608 00000009 8F00+         MOVL      XAR4,#$C$FSL1         ; [CPU_ARAU] |2153| 
         0000000a 0000 
    1609              $C$DW$96        .dwtag  DW_TAG_TI_branch
    1610                      .dwattr $C$DW$96, DW_AT_low_pc(0x00)
    1611                      .dwattr $C$DW$96, DW_AT_name("___error__")
    1612                      .dwattr $C$DW$96, DW_AT_TI_call
    1613              
    1614 0000000b 7640!         LCR       #___error__           ; [CPU_ALU] |2153| 
         0000000c 0000 
    1615                      ; call occurs [#___error__] ; [] |2153| 
    1616 0000000d       $C$L29:    
    1617                      .dwpsn  file "..\device\driverlib\inc/hw_types_mcan.h",line 424,column 21,is_stmt,isa 0
    1618 0000000d 8D00          MOVL      XAR0,#17944           ; [CPU_ALU] |424| 
         0000000e 4618 
    1619 0000000f 0691          MOVL      ACC,*+XAR1[AR0]       ; [CPU_ALU] |424| 
    1620                      .dwpsn  file "..\device\driverlib\inc/hw_types_mcan.h",line 430,column 5,is_stmt,isa 0
    1621 00000010 18A9          AND       AL,#65533             ; [CPU_ALU] |430| 
         00000011 FFFD 
    1622 00000012 1E91          MOVL      *+XAR1[AR0],ACC       ; [CPU_ALU] |430| 
    1623 00000013 8BBE          MOVL      XAR1,*--SP            ; [CPU_ALU] 
    1624                      .dwcfi  cfa_offset, -2
    1625                      .dwcfi  restore_reg, 7
    1626              $C$DW$97        .dwtag  DW_TAG_TI_branch
    1627                      .dwattr $C$DW$97, DW_AT_low_pc(0x00)
    1628                      .dwattr $C$DW$97, DW_AT_TI_return
    1629              
    1630 00000014 0006          LRETR     ; [CPU_ALU] 
    1631                      ; return occurs ; [] 
    1632                      .dwattr $C$DW$92, DW_AT_TI_end_file("../device/driverlib/mcan.c")
    1633                      .dwattr $C$DW$92, DW_AT_TI_end_line(0x86c)
    1634                      .dwattr $C$DW$92, DW_AT_TI_end_column(0x01)
    1635                      .dwendentry
    1636                      .dwendtag $C$DW$92
    1637              
    1638 00000000               .sect   ".text:_MCAN_txBufCancellationReq"
    1639                      .clink
    1640                      .global _MCAN_txBufCancellationReq
    1641              
    1642              $C$DW$98        .dwtag  DW_TAG_subprogram
    1643                      .dwattr $C$DW$98, DW_AT_name("MCAN_txBufCancellationReq")
    1644                      .dwattr $C$DW$98, DW_AT_low_pc(_MCAN_txBufCancellationReq)
    1645                      .dwattr $C$DW$98, DW_AT_high_pc(0x00)
    1646                      .dwattr $C$DW$98, DW_AT_TI_symbol_name("_MCAN_txBufCancellationReq")
    1647                      .dwattr $C$DW$98, DW_AT_external
    1648                      .dwattr $C$DW$98, DW_AT_type(*$C$DW$T$260)
    1649                      .dwattr $C$DW$98, DW_AT_TI_begin_file("../device/driverlib/mcan.c")
    1650                      .dwattr $C$DW$98, DW_AT_TI_begin_line(0x57a)
    1651                      .dwattr $C$DW$98, DW_AT_TI_begin_column(0x09)
    1652                      .dwattr $C$DW$98, DW_AT_TI_max_frame_size(-8)
    1653                      .dwpsn  file "../device/driverlib/mcan.c",line 1403,column 1,is_stmt,address _MCAN_txBufCancellationR
    1654              
    1655                      .dwfde $C$DW$CIE, _MCAN_txBufCancellationReq
TMS320C2000 Assembler PC v22.6.1 Wed May 21 09:51:58 2025

Copyright (c) 1996-2018 Texas Instruments Incorporated
C:\Users\Daniel\AppData\Local\Temp\{2C0A4961-1358-435F-9775-EBAA64ED3F39} PAGE   33

    1656              $C$DW$99        .dwtag  DW_TAG_formal_parameter
    1657                      .dwattr $C$DW$99, DW_AT_name("baseAddr")
    1658                      .dwattr $C$DW$99, DW_AT_TI_symbol_name("_baseAddr")
    1659                      .dwattr $C$DW$99, DW_AT_type(*$C$DW$T$20)
    1660                      .dwattr $C$DW$99, DW_AT_location[DW_OP_reg0]
    1661              
    1662              $C$DW$100       .dwtag  DW_TAG_formal_parameter
    1663                      .dwattr $C$DW$100, DW_AT_name("buffNum")
    1664                      .dwattr $C$DW$100, DW_AT_TI_symbol_name("_buffNum")
    1665                      .dwattr $C$DW$100, DW_AT_type(*$C$DW$T$20)
    1666                      .dwattr $C$DW$100, DW_AT_location[DW_OP_breg20 -10]
    1667              
    1668              
    1669              ;***************************************************************
    1670              ;* FNAME: _MCAN_txBufCancellationReq    FR SIZE:   6           *
    1671              ;*                                                             *
    1672              ;* FUNCTION ENVIRONMENT                                        *
    1673              ;*                                                             *
    1674              ;* FUNCTION PROPERTIES                                         *
    1675              ;*                            0 Parameter,  0 Auto,  6 SOE     *
    1676              ;***************************************************************
    1677              
    1678              _MCAN_txBufCancellationReq:
    1679              ;* AR1   assigned to _baseAddr
    1680              $C$DW$101       .dwtag  DW_TAG_variable
    1681                      .dwattr $C$DW$101, DW_AT_name("baseAddr")
    1682                      .dwattr $C$DW$101, DW_AT_TI_symbol_name("_baseAddr")
    1683                      .dwattr $C$DW$101, DW_AT_type(*$C$DW$T$281)
    1684                      .dwattr $C$DW$101, DW_AT_location[DW_OP_reg6]
    1685              
    1686              ;* AR3   assigned to _buffNum
    1687              $C$DW$102       .dwtag  DW_TAG_variable
    1688                      .dwattr $C$DW$102, DW_AT_name("buffNum")
    1689                      .dwattr $C$DW$102, DW_AT_TI_symbol_name("_buffNum")
    1690                      .dwattr $C$DW$102, DW_AT_type(*$C$DW$T$281)
    1691                      .dwattr $C$DW$102, DW_AT_location[DW_OP_reg10]
    1692              
    1693              ;* PL    assigned to _status
    1694              $C$DW$103       .dwtag  DW_TAG_variable
    1695                      .dwattr $C$DW$103, DW_AT_name("status")
    1696                      .dwattr $C$DW$103, DW_AT_TI_symbol_name("_status")
    1697                      .dwattr $C$DW$103, DW_AT_type(*$C$DW$T$260)
    1698                      .dwattr $C$DW$103, DW_AT_location[DW_OP_reg2]
    1699              
    1700              ;* PL    assigned to _regVal
    1701              $C$DW$104       .dwtag  DW_TAG_variable
    1702                      .dwattr $C$DW$104, DW_AT_name("regVal")
    1703                      .dwattr $C$DW$104, DW_AT_TI_symbol_name("_regVal")
    1704                      .dwattr $C$DW$104, DW_AT_type(*$C$DW$T$20)
    1705                      .dwattr $C$DW$104, DW_AT_location[DW_OP_reg2]
    1706              
    1707                      .dwcfi  cfa_offset, -2
    1708                      .dwcfi  save_reg_to_mem, 26, 0
    1709 00000000 B2BD          MOVL      *SP++,XAR1            ; [CPU_ALU] 
    1710                      .dwcfi  save_reg_to_mem, 7, 2
TMS320C2000 Assembler PC v22.6.1 Wed May 21 09:51:58 2025

Copyright (c) 1996-2018 Texas Instruments Incorporated
C:\Users\Daniel\AppData\Local\Temp\{2C0A4961-1358-435F-9775-EBAA64ED3F39} PAGE   34

    1711                      .dwcfi  cfa_offset, -4
    1712                      .dwpsn  file "../device/driverlib/mcan.c",line 1410,column 5,is_stmt,isa 0
    1713 00000001 8F05          MOVL      XAR4,#360448          ; [CPU_ARAU] |1410| 
         00000002 8000 
    1714                      .dwpsn  file "../device/driverlib/mcan.c",line 1403,column 1,is_stmt,isa 0
    1715 00000003 8BA9          MOVL      XAR1,ACC              ; [CPU_ALU] |1403| 
    1716 00000004 AABD          MOVL      *SP++,XAR2            ; [CPU_ALU] 
    1717                      .dwcfi  save_reg_to_mem, 9, 4
    1718                      .dwcfi  cfa_offset, -6
    1719                      .dwpsn  file "../device/driverlib/mcan.c",line 1410,column 5,is_stmt,isa 0
    1720 00000005 A8A9          MOVL      ACC,XAR4              ; [CPU_ALU] |1410| 
    1721 00000006 A2BD          MOVL      *SP++,XAR3            ; [CPU_ALU] 
    1722                      .dwcfi  save_reg_to_mem, 11, 6
    1723                      .dwcfi  cfa_offset, -8
    1724 00000007 0FA1          CMPL      ACC,XAR1              ; [CPU_ALU] |1410| 
    1725                      .dwpsn  file "../device/driverlib/mcan.c",line 1403,column 1,is_stmt,isa 0
    1726 00000008 824A          MOVL      XAR3,*-SP[10]         ; [CPU_FPU] |1403| 
    1727                      .dwpsn  file "../device/driverlib/mcan.c",line 1410,column 5,is_stmt,isa 0
    1728 00000009 6107          B         $C$L30,EQ             ; [CPU_ALU] |1410| 
    1729                      ; branchcc occurs ; [] |1410| 
    1730 0000000a FF20          MOV       ACC,#1410             ; [CPU_ALU] |1410| 
         0000000b 0582 
    1731 0000000c 8F00+         MOVL      XAR4,#$C$FSL1         ; [CPU_ARAU] |1410| 
         0000000d 0000 
    1732              $C$DW$105       .dwtag  DW_TAG_TI_branch
    1733                      .dwattr $C$DW$105, DW_AT_low_pc(0x00)
    1734                      .dwattr $C$DW$105, DW_AT_name("___error__")
    1735                      .dwattr $C$DW$105, DW_AT_TI_call
    1736              
    1737 0000000e 7640!         LCR       #___error__           ; [CPU_ALU] |1410| 
         0000000f 0000 
    1738                      ; call occurs [#___error__] ; [] |1410| 
    1739 00000010       $C$L30:    
    1740                      .dwpsn  file "../device/driverlib/mcan.c",line 1412,column 5,is_stmt,isa 0
    1741 00000010 0220          MOVB      ACC,#32               ; [CPU_ALU] |1412| 
    1742 00000011 0FA3          CMPL      ACC,XAR3              ; [CPU_ALU] |1412| 
    1743 00000012 6606          B         $C$L31,HI             ; [CPU_ALU] |1412| 
    1744                      ; branchcc occurs ; [] |1412| 
    1745                      .dwpsn  file "../device/driverlib/mcan.c",line 1427,column 9,is_stmt,isa 0
    1746 00000013 28AB          MOV       PL,#65535             ; [CPU_ALU] |1427| 
         00000014 FFFF 
    1747 00000015 28AA          MOV       PH,#65535             ; [CPU_ALU] |1427| 
         00000016 FFFF 
    1748 00000017 6F11          B         $C$L32,UNC            ; [CPU_ALU] |1427| 
    1749                      ; branch occurs ; [] |1427| 
    1750 00000018       $C$L31:    
    1751                      .dwpsn  file "..\device\driverlib\inc/hw_types_mcan.h",line 369,column 21,is_stmt,isa 0
    1752 00000018 8D00          MOVL      XAR0,#18132           ; [CPU_ALU] |369| 
         00000019 46D4 
    1753                      .dwpsn  file "../device/driverlib/mcan.c",line 1420,column 9,is_stmt,isa 0
    1754 0000001a B2A9          MOVL      ACC,XAR1              ; [CPU_ALU] |1420| 
    1755                      .dwpsn  file "..\device\driverlib\inc/hw_types_mcan.h",line 369,column 21,is_stmt,isa 0
    1756 0000001b 8691          MOVL      XAR2,*+XAR1[AR0]      ; [CPU_ALU] |369| 
    1757                      .dwpsn  file "../device/driverlib/mcan.c",line 1420,column 9,is_stmt,isa 0
    1758              $C$DW$106       .dwtag  DW_TAG_TI_branch
TMS320C2000 Assembler PC v22.6.1 Wed May 21 09:51:58 2025

Copyright (c) 1996-2018 Texas Instruments Incorporated
C:\Users\Daniel\AppData\Local\Temp\{2C0A4961-1358-435F-9775-EBAA64ED3F39} PAGE   35

    1759                      .dwattr $C$DW$106, DW_AT_low_pc(0x00)
    1760                      .dwattr $C$DW$106, DW_AT_name("_MCAN_writeProtectedRegAccessLock")
    1761                      .dwattr $C$DW$106, DW_AT_TI_call
    1762              
    1763 0000001c 7640+         LCR       #_MCAN_writeProtectedRegAccessLock ; [CPU_ALU] |1420| 
         0000001d 0000 
    1764                      ; call occurs [#_MCAN_writeProtectedRegAccessLock] ; [] |1420| 
    1765                      .dwpsn  file "..\device\driverlib\inc/hw_types_mcan.h",line 383,column 5,is_stmt,isa 0
    1766 0000001e 2DA3          MOV       T,AR3                 ; [CPU_ALU] |383| 
    1767 0000001f 0201          MOVB      ACC,#1                ; [CPU_ALU] |383| 
    1768 00000020 8D00          MOVL      XAR0,#18132           ; [CPU_ALU] |383| 
         00000021 46D4 
    1769 00000022 563B          LSLL      ACC,T                 ; [CPU_ALU] |383| 
    1770 00000023 AAAB          MOVL      P,XAR2                ; [CPU_ALU] |383| 
    1771 00000024 CAAB          OR        AL,PL                 ; [CPU_ALU] |383| 
    1772 00000025 CBAA          OR        AH,PH                 ; [CPU_ALU] |383| 
    1773                      .dwpsn  file "../device/driverlib/mcan.c",line 1423,column 9,is_stmt,isa 0
    1774 00000026 3100          MOV       P,#0                  ; [CPU_ALU] |1423| 
    1775                      .dwpsn  file "..\device\driverlib\inc/hw_types_mcan.h",line 383,column 5,is_stmt,isa 0
    1776 00000027 1E91          MOVL      *+XAR1[AR0],ACC       ; [CPU_ALU] |383| 
    1777 00000028       $C$L32:    
    1778 00000028 82BE          MOVL      XAR3,*--SP            ; [CPU_ALU] 
    1779                      .dwcfi  cfa_offset, -6
    1780                      .dwcfi  restore_reg, 11
    1781                      .dwpsn  file "../device/driverlib/mcan.c",line 1429,column 5,is_stmt,isa 0
    1782 00000029 A9A9          MOVL      ACC,P                 ; [CPU_ALU] |1429| 
    1783 0000002a 86BE          MOVL      XAR2,*--SP            ; [CPU_ALU] 
    1784                      .dwcfi  cfa_offset, -4
    1785                      .dwcfi  restore_reg, 9
    1786 0000002b 8BBE          MOVL      XAR1,*--SP            ; [CPU_ALU] 
    1787                      .dwcfi  cfa_offset, -2
    1788                      .dwcfi  restore_reg, 7
    1789              $C$DW$107       .dwtag  DW_TAG_TI_branch
    1790                      .dwattr $C$DW$107, DW_AT_low_pc(0x00)
    1791                      .dwattr $C$DW$107, DW_AT_TI_return
    1792              
    1793 0000002c 0006          LRETR     ; [CPU_ALU] 
    1794                      ; return occurs ; [] 
    1795                      .dwattr $C$DW$98, DW_AT_TI_end_file("../device/driverlib/mcan.c")
    1796                      .dwattr $C$DW$98, DW_AT_TI_end_line(0x596)
    1797                      .dwattr $C$DW$98, DW_AT_TI_end_column(0x01)
    1798                      .dwendentry
    1799                      .dwendtag $C$DW$98
    1800              
    1801 00000000               .sect   ".text:_MCAN_txBufAddReq"
    1802                      .clink
    1803                      .global _MCAN_txBufAddReq
    1804              
    1805              $C$DW$108       .dwtag  DW_TAG_subprogram
    1806                      .dwattr $C$DW$108, DW_AT_name("MCAN_txBufAddReq")
    1807                      .dwattr $C$DW$108, DW_AT_low_pc(_MCAN_txBufAddReq)
    1808                      .dwattr $C$DW$108, DW_AT_high_pc(0x00)
    1809                      .dwattr $C$DW$108, DW_AT_TI_symbol_name("_MCAN_txBufAddReq")
    1810                      .dwattr $C$DW$108, DW_AT_external
    1811                      .dwattr $C$DW$108, DW_AT_type(*$C$DW$T$260)
TMS320C2000 Assembler PC v22.6.1 Wed May 21 09:51:58 2025

Copyright (c) 1996-2018 Texas Instruments Incorporated
C:\Users\Daniel\AppData\Local\Temp\{2C0A4961-1358-435F-9775-EBAA64ED3F39} PAGE   36

    1812                      .dwattr $C$DW$108, DW_AT_TI_begin_file("../device/driverlib/mcan.c")
    1813                      .dwattr $C$DW$108, DW_AT_TI_begin_line(0x324)
    1814                      .dwattr $C$DW$108, DW_AT_TI_begin_column(0x09)
    1815                      .dwattr $C$DW$108, DW_AT_TI_max_frame_size(-8)
    1816                      .dwpsn  file "../device/driverlib/mcan.c",line 805,column 1,is_stmt,address _MCAN_txBufAddReq,isa 0
    1817              
    1818                      .dwfde $C$DW$CIE, _MCAN_txBufAddReq
    1819              $C$DW$109       .dwtag  DW_TAG_formal_parameter
    1820                      .dwattr $C$DW$109, DW_AT_name("baseAddr")
    1821                      .dwattr $C$DW$109, DW_AT_TI_symbol_name("_baseAddr")
    1822                      .dwattr $C$DW$109, DW_AT_type(*$C$DW$T$20)
    1823                      .dwattr $C$DW$109, DW_AT_location[DW_OP_reg0]
    1824              
    1825              $C$DW$110       .dwtag  DW_TAG_formal_parameter
    1826                      .dwattr $C$DW$110, DW_AT_name("bufNum")
    1827                      .dwattr $C$DW$110, DW_AT_TI_symbol_name("_bufNum")
    1828                      .dwattr $C$DW$110, DW_AT_type(*$C$DW$T$20)
    1829                      .dwattr $C$DW$110, DW_AT_location[DW_OP_breg20 -10]
    1830              
    1831              
    1832              ;***************************************************************
    1833              ;* FNAME: _MCAN_txBufAddReq             FR SIZE:   6           *
    1834              ;*                                                             *
    1835              ;* FUNCTION ENVIRONMENT                                        *
    1836              ;*                                                             *
    1837              ;* FUNCTION PROPERTIES                                         *
    1838              ;*                            0 Parameter,  0 Auto,  6 SOE     *
    1839              ;***************************************************************
    1840              
    1841              _MCAN_txBufAddReq:
    1842              ;* AR1   assigned to _baseAddr
    1843              $C$DW$111       .dwtag  DW_TAG_variable
    1844                      .dwattr $C$DW$111, DW_AT_name("baseAddr")
    1845                      .dwattr $C$DW$111, DW_AT_TI_symbol_name("_baseAddr")
    1846                      .dwattr $C$DW$111, DW_AT_type(*$C$DW$T$281)
    1847                      .dwattr $C$DW$111, DW_AT_location[DW_OP_reg6]
    1848              
    1849              ;* AR3   assigned to _bufNum
    1850              $C$DW$112       .dwtag  DW_TAG_variable
    1851                      .dwattr $C$DW$112, DW_AT_name("bufNum")
    1852                      .dwattr $C$DW$112, DW_AT_TI_symbol_name("_bufNum")
    1853                      .dwattr $C$DW$112, DW_AT_type(*$C$DW$T$281)
    1854                      .dwattr $C$DW$112, DW_AT_location[DW_OP_reg10]
    1855              
    1856              ;* PL    assigned to _status
    1857              $C$DW$113       .dwtag  DW_TAG_variable
    1858                      .dwattr $C$DW$113, DW_AT_name("status")
    1859                      .dwattr $C$DW$113, DW_AT_TI_symbol_name("_status")
    1860                      .dwattr $C$DW$113, DW_AT_type(*$C$DW$T$260)
    1861                      .dwattr $C$DW$113, DW_AT_location[DW_OP_reg2]
    1862              
    1863              ;* PL    assigned to _regVal
    1864              $C$DW$114       .dwtag  DW_TAG_variable
    1865                      .dwattr $C$DW$114, DW_AT_name("regVal")
    1866                      .dwattr $C$DW$114, DW_AT_TI_symbol_name("_regVal")
TMS320C2000 Assembler PC v22.6.1 Wed May 21 09:51:58 2025

Copyright (c) 1996-2018 Texas Instruments Incorporated
C:\Users\Daniel\AppData\Local\Temp\{2C0A4961-1358-435F-9775-EBAA64ED3F39} PAGE   37

    1867                      .dwattr $C$DW$114, DW_AT_type(*$C$DW$T$20)
    1868                      .dwattr $C$DW$114, DW_AT_location[DW_OP_reg2]
    1869              
    1870                      .dwcfi  cfa_offset, -2
    1871                      .dwcfi  save_reg_to_mem, 26, 0
    1872 00000000 B2BD          MOVL      *SP++,XAR1            ; [CPU_ALU] 
    1873                      .dwcfi  save_reg_to_mem, 7, 2
    1874                      .dwcfi  cfa_offset, -4
    1875                      .dwpsn  file "../device/driverlib/mcan.c",line 812,column 5,is_stmt,isa 0
    1876 00000001 8F05          MOVL      XAR4,#360448          ; [CPU_ARAU] |812| 
         00000002 8000 
    1877                      .dwpsn  file "../device/driverlib/mcan.c",line 805,column 1,is_stmt,isa 0
    1878 00000003 8BA9          MOVL      XAR1,ACC              ; [CPU_ALU] |805| 
    1879 00000004 AABD          MOVL      *SP++,XAR2            ; [CPU_ALU] 
    1880                      .dwcfi  save_reg_to_mem, 9, 4
    1881                      .dwcfi  cfa_offset, -6
    1882                      .dwpsn  file "../device/driverlib/mcan.c",line 812,column 5,is_stmt,isa 0
    1883 00000005 A8A9          MOVL      ACC,XAR4              ; [CPU_ALU] |812| 
    1884 00000006 A2BD          MOVL      *SP++,XAR3            ; [CPU_ALU] 
    1885                      .dwcfi  save_reg_to_mem, 11, 6
    1886                      .dwcfi  cfa_offset, -8
    1887 00000007 0FA1          CMPL      ACC,XAR1              ; [CPU_ALU] |812| 
    1888                      .dwpsn  file "../device/driverlib/mcan.c",line 805,column 1,is_stmt,isa 0
    1889 00000008 824A          MOVL      XAR3,*-SP[10]         ; [CPU_FPU] |805| 
    1890                      .dwpsn  file "../device/driverlib/mcan.c",line 812,column 5,is_stmt,isa 0
    1891 00000009 6107          B         $C$L33,EQ             ; [CPU_ALU] |812| 
    1892                      ; branchcc occurs ; [] |812| 
    1893 0000000a FF20          MOV       ACC,#812              ; [CPU_ALU] |812| 
         0000000b 032C 
    1894 0000000c 8F00+         MOVL      XAR4,#$C$FSL1         ; [CPU_ARAU] |812| 
         0000000d 0000 
    1895              $C$DW$115       .dwtag  DW_TAG_TI_branch
    1896                      .dwattr $C$DW$115, DW_AT_low_pc(0x00)
    1897                      .dwattr $C$DW$115, DW_AT_name("___error__")
    1898                      .dwattr $C$DW$115, DW_AT_TI_call
    1899              
    1900 0000000e 7640!         LCR       #___error__           ; [CPU_ALU] |812| 
         0000000f 0000 
    1901                      ; call occurs [#___error__] ; [] |812| 
    1902 00000010       $C$L33:    
    1903                      .dwpsn  file "../device/driverlib/mcan.c",line 814,column 5,is_stmt,isa 0
    1904 00000010 0220          MOVB      ACC,#32               ; [CPU_ALU] |814| 
    1905 00000011 0FA3          CMPL      ACC,XAR3              ; [CPU_ALU] |814| 
    1906 00000012 6606          B         $C$L34,HI             ; [CPU_ALU] |814| 
    1907                      ; branchcc occurs ; [] |814| 
    1908                      .dwpsn  file "../device/driverlib/mcan.c",line 829,column 9,is_stmt,isa 0
    1909 00000013 28AB          MOV       PL,#65535             ; [CPU_ALU] |829| 
         00000014 FFFF 
    1910 00000015 28AA          MOV       PH,#65535             ; [CPU_ALU] |829| 
         00000016 FFFF 
    1911 00000017 6F11          B         $C$L35,UNC            ; [CPU_ALU] |829| 
    1912                      ; branch occurs ; [] |829| 
    1913 00000018       $C$L34:    
    1914                      .dwpsn  file "..\device\driverlib\inc/hw_types_mcan.h",line 369,column 21,is_stmt,isa 0
    1915 00000018 8D00          MOVL      XAR0,#18128           ; [CPU_ALU] |369| 
TMS320C2000 Assembler PC v22.6.1 Wed May 21 09:51:58 2025

Copyright (c) 1996-2018 Texas Instruments Incorporated
C:\Users\Daniel\AppData\Local\Temp\{2C0A4961-1358-435F-9775-EBAA64ED3F39} PAGE   38

         00000019 46D0 
    1916                      .dwpsn  file "../device/driverlib/mcan.c",line 822,column 9,is_stmt,isa 0
    1917 0000001a B2A9          MOVL      ACC,XAR1              ; [CPU_ALU] |822| 
    1918                      .dwpsn  file "..\device\driverlib\inc/hw_types_mcan.h",line 369,column 21,is_stmt,isa 0
    1919 0000001b 8691          MOVL      XAR2,*+XAR1[AR0]      ; [CPU_ALU] |369| 
    1920                      .dwpsn  file "../device/driverlib/mcan.c",line 822,column 9,is_stmt,isa 0
    1921              $C$DW$116       .dwtag  DW_TAG_TI_branch
    1922                      .dwattr $C$DW$116, DW_AT_low_pc(0x00)
    1923                      .dwattr $C$DW$116, DW_AT_name("_MCAN_writeProtectedRegAccessLock")
    1924                      .dwattr $C$DW$116, DW_AT_TI_call
    1925              
    1926 0000001c 7640+         LCR       #_MCAN_writeProtectedRegAccessLock ; [CPU_ALU] |822| 
         0000001d 0000 
    1927                      ; call occurs [#_MCAN_writeProtectedRegAccessLock] ; [] |822| 
    1928                      .dwpsn  file "..\device\driverlib\inc/hw_types_mcan.h",line 383,column 5,is_stmt,isa 0
    1929 0000001e 2DA3          MOV       T,AR3                 ; [CPU_ALU] |383| 
    1930 0000001f 0201          MOVB      ACC,#1                ; [CPU_ALU] |383| 
    1931 00000020 8D00          MOVL      XAR0,#18128           ; [CPU_ALU] |383| 
         00000021 46D0 
    1932 00000022 563B          LSLL      ACC,T                 ; [CPU_ALU] |383| 
    1933 00000023 AAAB          MOVL      P,XAR2                ; [CPU_ALU] |383| 
    1934 00000024 CAAB          OR        AL,PL                 ; [CPU_ALU] |383| 
    1935 00000025 CBAA          OR        AH,PH                 ; [CPU_ALU] |383| 
    1936                      .dwpsn  file "../device/driverlib/mcan.c",line 825,column 9,is_stmt,isa 0
    1937 00000026 3100          MOV       P,#0                  ; [CPU_ALU] |825| 
    1938                      .dwpsn  file "..\device\driverlib\inc/hw_types_mcan.h",line 383,column 5,is_stmt,isa 0
    1939 00000027 1E91          MOVL      *+XAR1[AR0],ACC       ; [CPU_ALU] |383| 
    1940 00000028       $C$L35:    
    1941 00000028 82BE          MOVL      XAR3,*--SP            ; [CPU_ALU] 
    1942                      .dwcfi  cfa_offset, -6
    1943                      .dwcfi  restore_reg, 11
    1944                      .dwpsn  file "../device/driverlib/mcan.c",line 831,column 5,is_stmt,isa 0
    1945 00000029 A9A9          MOVL      ACC,P                 ; [CPU_ALU] |831| 
    1946 0000002a 86BE          MOVL      XAR2,*--SP            ; [CPU_ALU] 
    1947                      .dwcfi  cfa_offset, -4
    1948                      .dwcfi  restore_reg, 9
    1949 0000002b 8BBE          MOVL      XAR1,*--SP            ; [CPU_ALU] 
    1950                      .dwcfi  cfa_offset, -2
    1951                      .dwcfi  restore_reg, 7
    1952              $C$DW$117       .dwtag  DW_TAG_TI_branch
    1953                      .dwattr $C$DW$117, DW_AT_low_pc(0x00)
    1954                      .dwattr $C$DW$117, DW_AT_TI_return
    1955              
    1956 0000002c 0006          LRETR     ; [CPU_ALU] 
    1957                      ; return occurs ; [] 
    1958                      .dwattr $C$DW$108, DW_AT_TI_end_file("../device/driverlib/mcan.c")
    1959                      .dwattr $C$DW$108, DW_AT_TI_end_line(0x340)
    1960                      .dwattr $C$DW$108, DW_AT_TI_end_column(0x01)
    1961                      .dwendentry
    1962                      .dwendtag $C$DW$108
    1963              
    1964 00000000               .sect   ".text:_MCAN_writeProtectedRegAccessUnlock"
    1965                      .clink
    1966              
    1967              $C$DW$118       .dwtag  DW_TAG_subprogram
TMS320C2000 Assembler PC v22.6.1 Wed May 21 09:51:58 2025

Copyright (c) 1996-2018 Texas Instruments Incorporated
C:\Users\Daniel\AppData\Local\Temp\{2C0A4961-1358-435F-9775-EBAA64ED3F39} PAGE   39

    1968                      .dwattr $C$DW$118, DW_AT_name("MCAN_writeProtectedRegAccessUnlock")
    1969                      .dwattr $C$DW$118, DW_AT_low_pc(_MCAN_writeProtectedRegAccessUnlock)
    1970                      .dwattr $C$DW$118, DW_AT_high_pc(0x00)
    1971                      .dwattr $C$DW$118, DW_AT_TI_symbol_name("_MCAN_writeProtectedRegAccessUnlock")
    1972                      .dwattr $C$DW$118, DW_AT_TI_begin_file("../device/driverlib/mcan.c")
    1973                      .dwattr $C$DW$118, DW_AT_TI_begin_line(0x85a)
    1974                      .dwattr $C$DW$118, DW_AT_TI_begin_column(0x0d)
    1975                      .dwattr $C$DW$118, DW_AT_TI_max_frame_size(-4)
    1976                      .dwpsn  file "../device/driverlib/mcan.c",line 2139,column 1,is_stmt,address _MCAN_writeProtectedRegA
    1977              
    1978                      .dwfde $C$DW$CIE, _MCAN_writeProtectedRegAccessUnlock
    1979              $C$DW$119       .dwtag  DW_TAG_formal_parameter
    1980                      .dwattr $C$DW$119, DW_AT_name("baseAddr")
    1981                      .dwattr $C$DW$119, DW_AT_TI_symbol_name("_baseAddr")
    1982                      .dwattr $C$DW$119, DW_AT_type(*$C$DW$T$20)
    1983                      .dwattr $C$DW$119, DW_AT_location[DW_OP_reg0]
    1984              
    1985              
    1986              ;***************************************************************
    1987              ;* FNAME: _MCAN_writeProtectedRegAccessUnlock FR SIZE:   2           *
    1988              ;*                                                             *
    1989              ;* FUNCTION ENVIRONMENT                                        *
    1990              ;*                                                             *
    1991              ;* FUNCTION PROPERTIES                                         *
    1992              ;*                            0 Parameter,  0 Auto,  2 SOE     *
    1993              ;***************************************************************
    1994              
    1995              _MCAN_writeProtectedRegAccessUnlock:
    1996              ;* AR1   assigned to _baseAddr
    1997              $C$DW$120       .dwtag  DW_TAG_variable
    1998                      .dwattr $C$DW$120, DW_AT_name("baseAddr")
    1999                      .dwattr $C$DW$120, DW_AT_TI_symbol_name("_baseAddr")
    2000                      .dwattr $C$DW$120, DW_AT_type(*$C$DW$T$281)
    2001                      .dwattr $C$DW$120, DW_AT_location[DW_OP_reg6]
    2002              
    2003              ;* AL    assigned to _regVal
    2004              $C$DW$121       .dwtag  DW_TAG_variable
    2005                      .dwattr $C$DW$121, DW_AT_name("regVal")
    2006                      .dwattr $C$DW$121, DW_AT_TI_symbol_name("_regVal")
    2007                      .dwattr $C$DW$121, DW_AT_type(*$C$DW$T$20)
    2008                      .dwattr $C$DW$121, DW_AT_location[DW_OP_reg0]
    2009              
    2010                      .dwcfi  cfa_offset, -2
    2011                      .dwcfi  save_reg_to_mem, 26, 0
    2012 00000000 B2BD          MOVL      *SP++,XAR1            ; [CPU_ALU] 
    2013                      .dwcfi  save_reg_to_mem, 7, 2
    2014                      .dwcfi  cfa_offset, -4
    2015 00000001 8BA9          MOVL      XAR1,ACC              ; [CPU_ALU] |2139| 
    2016                      .dwpsn  file "../device/driverlib/mcan.c",line 2143,column 5,is_stmt,isa 0
    2017 00000002 8F05          MOVL      XAR4,#360448          ; [CPU_ARAU] |2143| 
         00000003 8000 
    2018 00000004 A8A9          MOVL      ACC,XAR4              ; [CPU_ALU] |2143| 
    2019 00000005 0FA1          CMPL      ACC,XAR1              ; [CPU_ALU] |2143| 
    2020 00000006 6107          B         $C$L36,EQ             ; [CPU_ALU] |2143| 
    2021                      ; branchcc occurs ; [] |2143| 
TMS320C2000 Assembler PC v22.6.1 Wed May 21 09:51:58 2025

Copyright (c) 1996-2018 Texas Instruments Incorporated
C:\Users\Daniel\AppData\Local\Temp\{2C0A4961-1358-435F-9775-EBAA64ED3F39} PAGE   40

    2022 00000007 FF20          MOV       ACC,#2143             ; [CPU_ALU] |2143| 
         00000008 085F 
    2023 00000009 8F00+         MOVL      XAR4,#$C$FSL1         ; [CPU_ARAU] |2143| 
         0000000a 0000 
    2024              $C$DW$122       .dwtag  DW_TAG_TI_branch
    2025                      .dwattr $C$DW$122, DW_AT_low_pc(0x00)
    2026                      .dwattr $C$DW$122, DW_AT_name("___error__")
    2027                      .dwattr $C$DW$122, DW_AT_TI_call
    2028              
    2029 0000000b 7640!         LCR       #___error__           ; [CPU_ALU] |2143| 
         0000000c 0000 
    2030                      ; call occurs [#___error__] ; [] |2143| 
    2031 0000000d       $C$L36:    
    2032                      .dwpsn  file "..\device\driverlib\inc/hw_types_mcan.h",line 424,column 21,is_stmt,isa 0
    2033 0000000d 8D00          MOVL      XAR0,#17944           ; [CPU_ALU] |424| 
         0000000e 4618 
    2034 0000000f 0691          MOVL      ACC,*+XAR1[AR0]       ; [CPU_ALU] |424| 
    2035                      .dwpsn  file "..\device\driverlib\inc/hw_types_mcan.h",line 430,column 5,is_stmt,isa 0
    2036 00000010 5002          ORB       AL,#0x02              ; [CPU_ALU] |430| 
    2037 00000011 1E91          MOVL      *+XAR1[AR0],ACC       ; [CPU_ALU] |430| 
    2038 00000012 8BBE          MOVL      XAR1,*--SP            ; [CPU_ALU] 
    2039                      .dwcfi  cfa_offset, -2
    2040                      .dwcfi  restore_reg, 7
    2041              $C$DW$123       .dwtag  DW_TAG_TI_branch
    2042                      .dwattr $C$DW$123, DW_AT_low_pc(0x00)
    2043                      .dwattr $C$DW$123, DW_AT_TI_return
    2044              
    2045 00000013 0006          LRETR     ; [CPU_ALU] 
    2046                      ; return occurs ; [] 
    2047                      .dwattr $C$DW$118, DW_AT_TI_end_file("../device/driverlib/mcan.c")
    2048                      .dwattr $C$DW$118, DW_AT_TI_end_line(0x862)
    2049                      .dwattr $C$DW$118, DW_AT_TI_end_column(0x01)
    2050                      .dwendentry
    2051                      .dwendtag $C$DW$118
    2052              
    2053 00000000               .sect   ".text:_MCAN_setTxPinState"
    2054                      .clink
    2055                      .global _MCAN_setTxPinState
    2056              
    2057              $C$DW$124       .dwtag  DW_TAG_subprogram
    2058                      .dwattr $C$DW$124, DW_AT_name("MCAN_setTxPinState")
    2059                      .dwattr $C$DW$124, DW_AT_low_pc(_MCAN_setTxPinState)
    2060                      .dwattr $C$DW$124, DW_AT_high_pc(0x00)
    2061                      .dwattr $C$DW$124, DW_AT_TI_symbol_name("_MCAN_setTxPinState")
    2062                      .dwattr $C$DW$124, DW_AT_external
    2063                      .dwattr $C$DW$124, DW_AT_TI_begin_file("../device/driverlib/mcan.c")
    2064                      .dwattr $C$DW$124, DW_AT_TI_begin_line(0x7a7)
    2065                      .dwattr $C$DW$124, DW_AT_TI_begin_column(0x06)
    2066                      .dwattr $C$DW$124, DW_AT_TI_max_frame_size(-8)
    2067                      .dwpsn  file "../device/driverlib/mcan.c",line 1960,column 1,is_stmt,address _MCAN_setTxPinState,isa 
    2068              
    2069                      .dwfde $C$DW$CIE, _MCAN_setTxPinState
    2070              $C$DW$125       .dwtag  DW_TAG_formal_parameter
    2071                      .dwattr $C$DW$125, DW_AT_name("baseAddr")
    2072                      .dwattr $C$DW$125, DW_AT_TI_symbol_name("_baseAddr")
TMS320C2000 Assembler PC v22.6.1 Wed May 21 09:51:58 2025

Copyright (c) 1996-2018 Texas Instruments Incorporated
C:\Users\Daniel\AppData\Local\Temp\{2C0A4961-1358-435F-9775-EBAA64ED3F39} PAGE   41

    2073                      .dwattr $C$DW$125, DW_AT_type(*$C$DW$T$20)
    2074                      .dwattr $C$DW$125, DW_AT_location[DW_OP_reg0]
    2075              
    2076              $C$DW$126       .dwtag  DW_TAG_formal_parameter
    2077                      .dwattr $C$DW$126, DW_AT_name("state")
    2078                      .dwattr $C$DW$126, DW_AT_TI_symbol_name("_state")
    2079                      .dwattr $C$DW$126, DW_AT_type(*$C$DW$T$20)
    2080                      .dwattr $C$DW$126, DW_AT_location[DW_OP_breg20 -10]
    2081              
    2082              
    2083              ;***************************************************************
    2084              ;* FNAME: _MCAN_setTxPinState           FR SIZE:   6           *
    2085              ;*                                                             *
    2086              ;* FUNCTION ENVIRONMENT                                        *
    2087              ;*                                                             *
    2088              ;* FUNCTION PROPERTIES                                         *
    2089              ;*                            0 Parameter,  0 Auto,  6 SOE     *
    2090              ;***************************************************************
    2091              
    2092              _MCAN_setTxPinState:
    2093              ;* AR3   assigned to _baseAddr
    2094              $C$DW$127       .dwtag  DW_TAG_variable
    2095                      .dwattr $C$DW$127, DW_AT_name("baseAddr")
    2096                      .dwattr $C$DW$127, DW_AT_TI_symbol_name("_baseAddr")
    2097                      .dwattr $C$DW$127, DW_AT_type(*$C$DW$T$281)
    2098                      .dwattr $C$DW$127, DW_AT_location[DW_OP_reg10]
    2099              
    2100              ;* AR2   assigned to _state
    2101              $C$DW$128       .dwtag  DW_TAG_variable
    2102                      .dwattr $C$DW$128, DW_AT_name("state")
    2103                      .dwattr $C$DW$128, DW_AT_TI_symbol_name("_state")
    2104                      .dwattr $C$DW$128, DW_AT_type(*$C$DW$T$281)
    2105                      .dwattr $C$DW$128, DW_AT_location[DW_OP_reg8]
    2106              
    2107              ;* AL    assigned to _regVal
    2108              $C$DW$129       .dwtag  DW_TAG_variable
    2109                      .dwattr $C$DW$129, DW_AT_name("regVal")
    2110                      .dwattr $C$DW$129, DW_AT_TI_symbol_name("_regVal")
    2111                      .dwattr $C$DW$129, DW_AT_type(*$C$DW$T$20)
    2112                      .dwattr $C$DW$129, DW_AT_location[DW_OP_reg0]
    2113              
    2114              ;* AR6   assigned to _regVal
    2115              $C$DW$130       .dwtag  DW_TAG_variable
    2116                      .dwattr $C$DW$130, DW_AT_name("regVal")
    2117                      .dwattr $C$DW$130, DW_AT_TI_symbol_name("_regVal")
    2118                      .dwattr $C$DW$130, DW_AT_type(*$C$DW$T$20)
    2119                      .dwattr $C$DW$130, DW_AT_location[DW_OP_reg16]
    2120              
    2121                      .dwcfi  cfa_offset, -2
    2122                      .dwcfi  save_reg_to_mem, 26, 0
    2123 00000000 B2BD          MOVL      *SP++,XAR1            ; [CPU_ALU] 
    2124                      .dwcfi  save_reg_to_mem, 7, 2
    2125                      .dwcfi  cfa_offset, -4
    2126 00000001 AABD          MOVL      *SP++,XAR2            ; [CPU_ALU] 
    2127                      .dwcfi  save_reg_to_mem, 9, 4
TMS320C2000 Assembler PC v22.6.1 Wed May 21 09:51:58 2025

Copyright (c) 1996-2018 Texas Instruments Incorporated
C:\Users\Daniel\AppData\Local\Temp\{2C0A4961-1358-435F-9775-EBAA64ED3F39} PAGE   42

    2128                      .dwcfi  cfa_offset, -6
    2129 00000002 A2BD          MOVL      *SP++,XAR3            ; [CPU_ALU] 
    2130                      .dwcfi  save_reg_to_mem, 11, 6
    2131                      .dwcfi  cfa_offset, -8
    2132 00000003 82A9          MOVL      XAR3,ACC              ; [CPU_ALU] |1960| 
    2133                      .dwpsn  file "../device/driverlib/mcan.c",line 1964,column 5,is_stmt,isa 0
    2134 00000004 8F05          MOVL      XAR4,#360448          ; [CPU_ARAU] |1964| 
         00000005 8000 
    2135 00000006 A8A9          MOVL      ACC,XAR4              ; [CPU_ALU] |1964| 
    2136                      .dwpsn  file "../device/driverlib/mcan.c",line 1960,column 1,is_stmt,isa 0
    2137 00000007 864A          MOVL      XAR2,*-SP[10]         ; [CPU_ALU] |1960| 
    2138                      .dwpsn  file "../device/driverlib/mcan.c",line 1964,column 5,is_stmt,isa 0
    2139 00000008 0FA3          CMPL      ACC,XAR3              ; [CPU_ALU] |1964| 
    2140 00000009 6107          B         $C$L37,EQ             ; [CPU_ALU] |1964| 
    2141                      ; branchcc occurs ; [] |1964| 
    2142 0000000a FF20          MOV       ACC,#1964             ; [CPU_ALU] |1964| 
         0000000b 07AC 
    2143 0000000c 8F00+         MOVL      XAR4,#$C$FSL1         ; [CPU_ARAU] |1964| 
         0000000d 0000 
    2144              $C$DW$131       .dwtag  DW_TAG_TI_branch
    2145                      .dwattr $C$DW$131, DW_AT_low_pc(0x00)
    2146                      .dwattr $C$DW$131, DW_AT_name("___error__")
    2147                      .dwattr $C$DW$131, DW_AT_TI_call
    2148              
    2149 0000000e 7640!         LCR       #___error__           ; [CPU_ALU] |1964| 
         0000000f 0000 
    2150                      ; call occurs [#___error__] ; [] |1964| 
    2151 00000010       $C$L37:    
    2152                      .dwpsn  file "../device/driverlib/mcan.c",line 1966,column 5,is_stmt,isa 0
    2153 00000010 A2A9          MOVL      ACC,XAR3              ; [CPU_ALU] |1966| 
    2154              $C$DW$132       .dwtag  DW_TAG_TI_branch
    2155                      .dwattr $C$DW$132, DW_AT_low_pc(0x00)
    2156                      .dwattr $C$DW$132, DW_AT_name("_MCAN_writeProtectedRegAccessUnlock")
    2157                      .dwattr $C$DW$132, DW_AT_TI_call
    2158              
    2159 00000011 7640+         LCR       #_MCAN_writeProtectedRegAccessUnlock ; [CPU_ALU] |1966| 
         00000012 0000 
    2160                      ; call occurs [#_MCAN_writeProtectedRegAccessUnlock] ; [] |1966| 
    2161                      .dwpsn  file "..\device\driverlib\inc/hw_types_mcan.h",line 430,column 5,is_stmt,isa 0
    2162 00000013 8D40          MOVL      XAR1,#17944           ; [CPU_ALU] |430| 
         00000014 4618 
    2163                      .dwpsn  file "..\device\driverlib\inc/hw_types_mcan.h",line 424,column 21,is_stmt,isa 0
    2164 00000015 8D00          MOVL      XAR0,#17944           ; [CPU_ALU] |424| 
         00000016 4618 
    2165 00000017 0693          MOVL      ACC,*+XAR3[AR0]       ; [CPU_ALU] |424| 
    2166                      .dwpsn  file "..\device\driverlib\inc/hw_types_mcan.h",line 430,column 5,is_stmt,isa 0
    2167 00000018 5080          ORB       AL,#0x80              ; [CPU_ALU] |430| 
    2168                      .dwpsn  file "..\device\driverlib\inc/hw_types_mcan.h",line 424,column 21,is_stmt,isa 0
    2169 00000019 8D00          MOVL      XAR0,#17936           ; [CPU_ALU] |424| 
         0000001a 4610 
    2170                      .dwpsn  file "..\device\driverlib\inc/hw_types_mcan.h",line 430,column 5,is_stmt,isa 0
    2171 0000001b 1E9B          MOVL      *+XAR3[AR1],ACC       ; [CPU_ALU] |430| 
    2172                      .dwpsn  file "..\device\driverlib\inc/hw_types_mcan.h",line 424,column 21,is_stmt,isa 0
    2173 0000001c 0693          MOVL      ACC,*+XAR3[AR0]       ; [CPU_ALU] |424| 
    2174                      .dwpsn  file "..\device\driverlib\inc/hw_types_mcan.h",line 425,column 5,is_stmt,isa 0
TMS320C2000 Assembler PC v22.6.1 Wed May 21 09:51:58 2025

Copyright (c) 1996-2018 Texas Instruments Incorporated
C:\Users\Daniel\AppData\Local\Temp\{2C0A4961-1358-435F-9775-EBAA64ED3F39} PAGE   43

    2175 0000001d 18A9          AND       AL,#65439             ; [CPU_ALU] |425| 
         0000001e FF9F 
    2176 0000001f 1EA6          MOVL      XAR6,ACC              ; [CPU_ALU] |425| 
    2177 00000020 AAA9          MOVL      ACC,XAR2              ; [CPU_ALU] |425| 
    2178 00000021 9B00          MOVB      AH,#0                 ; [CPU_ALU] |425| 
    2179 00000022 9003          ANDB      AL,#0x03              ; [CPU_ALU] |425| 
    2180 00000023 FF34          LSL       ACC,5                 ; [CPU_ALU] |425| 
    2181 00000024 FF5A          MOVL      P,ACC                 ; [CPU_ALU] |425| 
    2182 00000025 06A6          MOVL      ACC,XAR6              ; [CPU_ALU] |425| 
    2183 00000026 CAAB          OR        AL,PL                 ; [CPU_ALU] |425| 
    2184 00000027 CBAA          OR        AH,PH                 ; [CPU_ALU] |425| 
    2185                      .dwpsn  file "..\device\driverlib\inc/hw_types_mcan.h",line 430,column 5,is_stmt,isa 0
    2186 00000028 1E93          MOVL      *+XAR3[AR0],ACC       ; [CPU_ALU] |430| 
    2187                      .dwpsn  file "../device/driverlib/mcan.c",line 1973,column 5,is_stmt,isa 0
    2188 00000029 A2A9          MOVL      ACC,XAR3              ; [CPU_ALU] |1973| 
    2189              $C$DW$133       .dwtag  DW_TAG_TI_branch
    2190                      .dwattr $C$DW$133, DW_AT_low_pc(0x00)
    2191                      .dwattr $C$DW$133, DW_AT_name("_MCAN_writeProtectedRegAccessLock")
    2192                      .dwattr $C$DW$133, DW_AT_TI_call
    2193              
    2194 0000002a 7640+         LCR       #_MCAN_writeProtectedRegAccessLock ; [CPU_ALU] |1973| 
         0000002b 0000 
    2195                      ; call occurs [#_MCAN_writeProtectedRegAccessLock] ; [] |1973| 
    2196 0000002c 82BE          MOVL      XAR3,*--SP            ; [CPU_ALU] 
    2197                      .dwcfi  cfa_offset, -6
    2198                      .dwcfi  restore_reg, 11
    2199 0000002d 86BE          MOVL      XAR2,*--SP            ; [CPU_ALU] 
    2200                      .dwcfi  cfa_offset, -4
    2201                      .dwcfi  restore_reg, 9
    2202 0000002e 8BBE          MOVL      XAR1,*--SP            ; [CPU_ALU] 
    2203                      .dwcfi  cfa_offset, -2
    2204                      .dwcfi  restore_reg, 7
    2205              $C$DW$134       .dwtag  DW_TAG_TI_branch
    2206                      .dwattr $C$DW$134, DW_AT_low_pc(0x00)
    2207                      .dwattr $C$DW$134, DW_AT_TI_return
    2208              
    2209 0000002f 0006          LRETR     ; [CPU_ALU] 
    2210                      ; return occurs ; [] 
    2211                      .dwattr $C$DW$124, DW_AT_TI_end_file("../device/driverlib/mcan.c")
    2212                      .dwattr $C$DW$124, DW_AT_TI_end_line(0x7b6)
    2213                      .dwattr $C$DW$124, DW_AT_TI_end_column(0x01)
    2214                      .dwendentry
    2215                      .dwendtag $C$DW$124
    2216              
    2217 00000000               .sect   ".text:_MCAN_setOpMode"
    2218                      .clink
    2219                      .global _MCAN_setOpMode
    2220              
    2221              $C$DW$135       .dwtag  DW_TAG_subprogram
    2222                      .dwattr $C$DW$135, DW_AT_name("MCAN_setOpMode")
    2223                      .dwattr $C$DW$135, DW_AT_low_pc(_MCAN_setOpMode)
    2224                      .dwattr $C$DW$135, DW_AT_high_pc(0x00)
    2225                      .dwattr $C$DW$135, DW_AT_TI_symbol_name("_MCAN_setOpMode")
    2226                      .dwattr $C$DW$135, DW_AT_external
    2227                      .dwattr $C$DW$135, DW_AT_TI_begin_file("../device/driverlib/mcan.c")
TMS320C2000 Assembler PC v22.6.1 Wed May 21 09:51:58 2025

Copyright (c) 1996-2018 Texas Instruments Incorporated
C:\Users\Daniel\AppData\Local\Temp\{2C0A4961-1358-435F-9775-EBAA64ED3F39} PAGE   44

    2228                      .dwattr $C$DW$135, DW_AT_TI_begin_line(0x166)
    2229                      .dwattr $C$DW$135, DW_AT_TI_begin_column(0x06)
    2230                      .dwattr $C$DW$135, DW_AT_TI_max_frame_size(-6)
    2231                      .dwpsn  file "../device/driverlib/mcan.c",line 359,column 1,is_stmt,address _MCAN_setOpMode,isa 0
    2232              
    2233                      .dwfde $C$DW$CIE, _MCAN_setOpMode
    2234              $C$DW$136       .dwtag  DW_TAG_formal_parameter
    2235                      .dwattr $C$DW$136, DW_AT_name("baseAddr")
    2236                      .dwattr $C$DW$136, DW_AT_TI_symbol_name("_baseAddr")
    2237                      .dwattr $C$DW$136, DW_AT_type(*$C$DW$T$20)
    2238                      .dwattr $C$DW$136, DW_AT_location[DW_OP_reg0]
    2239              
    2240              $C$DW$137       .dwtag  DW_TAG_formal_parameter
    2241                      .dwattr $C$DW$137, DW_AT_name("mode")
    2242                      .dwattr $C$DW$137, DW_AT_TI_symbol_name("_mode")
    2243                      .dwattr $C$DW$137, DW_AT_type(*$C$DW$T$20)
    2244                      .dwattr $C$DW$137, DW_AT_location[DW_OP_breg20 -8]
    2245              
    2246              
    2247              ;***************************************************************
    2248              ;* FNAME: _MCAN_setOpMode               FR SIZE:   4           *
    2249              ;*                                                             *
    2250              ;* FUNCTION ENVIRONMENT                                        *
    2251              ;*                                                             *
    2252              ;* FUNCTION PROPERTIES                                         *
    2253              ;*                            0 Parameter,  0 Auto,  4 SOE     *
    2254              ;***************************************************************
    2255              
    2256              _MCAN_setOpMode:
    2257              ;* AR1   assigned to _baseAddr
    2258              $C$DW$138       .dwtag  DW_TAG_variable
    2259                      .dwattr $C$DW$138, DW_AT_name("baseAddr")
    2260                      .dwattr $C$DW$138, DW_AT_TI_symbol_name("_baseAddr")
    2261                      .dwattr $C$DW$138, DW_AT_type(*$C$DW$T$281)
    2262                      .dwattr $C$DW$138, DW_AT_location[DW_OP_reg6]
    2263              
    2264              ;* AR2   assigned to _mode
    2265              $C$DW$139       .dwtag  DW_TAG_variable
    2266                      .dwattr $C$DW$139, DW_AT_name("mode")
    2267                      .dwattr $C$DW$139, DW_AT_TI_symbol_name("_mode")
    2268                      .dwattr $C$DW$139, DW_AT_type(*$C$DW$T$281)
    2269                      .dwattr $C$DW$139, DW_AT_location[DW_OP_reg8]
    2270              
    2271              ;* AR6   assigned to _regVal
    2272              $C$DW$140       .dwtag  DW_TAG_variable
    2273                      .dwattr $C$DW$140, DW_AT_name("regVal")
    2274                      .dwattr $C$DW$140, DW_AT_TI_symbol_name("_regVal")
    2275                      .dwattr $C$DW$140, DW_AT_type(*$C$DW$T$20)
    2276                      .dwattr $C$DW$140, DW_AT_location[DW_OP_reg16]
    2277              
    2278                      .dwcfi  cfa_offset, -2
    2279                      .dwcfi  save_reg_to_mem, 26, 0
    2280 00000000 B2BD          MOVL      *SP++,XAR1            ; [CPU_ALU] 
    2281                      .dwcfi  save_reg_to_mem, 7, 2
    2282                      .dwcfi  cfa_offset, -4
TMS320C2000 Assembler PC v22.6.1 Wed May 21 09:51:58 2025

Copyright (c) 1996-2018 Texas Instruments Incorporated
C:\Users\Daniel\AppData\Local\Temp\{2C0A4961-1358-435F-9775-EBAA64ED3F39} PAGE   45

    2283                      .dwpsn  file "../device/driverlib/mcan.c",line 363,column 5,is_stmt,isa 0
    2284 00000001 8F05          MOVL      XAR4,#360448          ; [CPU_ARAU] |363| 
         00000002 8000 
    2285                      .dwpsn  file "../device/driverlib/mcan.c",line 359,column 1,is_stmt,isa 0
    2286 00000003 8BA9          MOVL      XAR1,ACC              ; [CPU_ALU] |359| 
    2287 00000004 AABD          MOVL      *SP++,XAR2            ; [CPU_ALU] 
    2288                      .dwcfi  save_reg_to_mem, 9, 4
    2289                      .dwcfi  cfa_offset, -6
    2290                      .dwpsn  file "../device/driverlib/mcan.c",line 363,column 5,is_stmt,isa 0
    2291 00000005 A8A9          MOVL      ACC,XAR4              ; [CPU_ALU] |363| 
    2292                      .dwpsn  file "../device/driverlib/mcan.c",line 359,column 1,is_stmt,isa 0
    2293 00000006 8648          MOVL      XAR2,*-SP[8]          ; [CPU_ALU] |359| 
    2294                      .dwpsn  file "../device/driverlib/mcan.c",line 363,column 5,is_stmt,isa 0
    2295 00000007 0FA1          CMPL      ACC,XAR1              ; [CPU_ALU] |363| 
    2296 00000008 6107          B         $C$L38,EQ             ; [CPU_ALU] |363| 
    2297                      ; branchcc occurs ; [] |363| 
    2298 00000009 FF20          MOV       ACC,#363              ; [CPU_ALU] |363| 
         0000000a 016B 
    2299 0000000b 8F00+         MOVL      XAR4,#$C$FSL1         ; [CPU_ARAU] |363| 
         0000000c 0000 
    2300              $C$DW$141       .dwtag  DW_TAG_TI_branch
    2301                      .dwattr $C$DW$141, DW_AT_low_pc(0x00)
    2302                      .dwattr $C$DW$141, DW_AT_name("___error__")
    2303                      .dwattr $C$DW$141, DW_AT_TI_call
    2304              
    2305 0000000d 7640!         LCR       #___error__           ; [CPU_ALU] |363| 
         0000000e 0000 
    2306                      ; call occurs [#___error__] ; [] |363| 
    2307 0000000f       $C$L38:    
    2308                      .dwpsn  file "..\device\driverlib\inc/hw_types_mcan.h",line 424,column 21,is_stmt,isa 0
    2309 0000000f 8D00          MOVL      XAR0,#17944           ; [CPU_ALU] |424| 
         00000010 4618 
    2310 00000011 0691          MOVL      ACC,*+XAR1[AR0]       ; [CPU_ALU] |424| 
    2311                      .dwpsn  file "..\device\driverlib\inc/hw_types_mcan.h",line 425,column 5,is_stmt,isa 0
    2312 00000012 AAAB          MOVL      P,XAR2                ; [CPU_ALU] |425| 
    2313 00000013 18A9          AND       AL,#65534             ; [CPU_ALU] |425| 
         00000014 FFFE 
    2314 00000015 1EA6          MOVL      XAR6,ACC              ; [CPU_ALU] |425| 
    2315 00000016 92AB          MOV       AL,PL                 ; [CPU_ALU] |425| 
    2316 00000017 9001          ANDB      AL,#0x01              ; [CPU_ALU] |425| 
    2317 00000018 27A9          MOV       PL,AL                 ; [CPU_ALU] |425| 
    2318 00000019 06A6          MOVL      ACC,XAR6              ; [CPU_ALU] |425| 
    2319 0000001a CAAB          OR        AL,PL                 ; [CPU_ALU] |425| 
    2320                      .dwpsn  file "..\device\driverlib\inc/hw_types_mcan.h",line 430,column 5,is_stmt,isa 0
    2321 0000001b 1E91          MOVL      *+XAR1[AR0],ACC       ; [CPU_ALU] |430| 
    2322 0000001c 86BE          MOVL      XAR2,*--SP            ; [CPU_ALU] 
    2323                      .dwcfi  cfa_offset, -4
    2324                      .dwcfi  restore_reg, 9
    2325 0000001d 8BBE          MOVL      XAR1,*--SP            ; [CPU_ALU] 
    2326                      .dwcfi  cfa_offset, -2
    2327                      .dwcfi  restore_reg, 7
    2328              $C$DW$142       .dwtag  DW_TAG_TI_branch
    2329                      .dwattr $C$DW$142, DW_AT_low_pc(0x00)
    2330                      .dwattr $C$DW$142, DW_AT_TI_return
    2331              
TMS320C2000 Assembler PC v22.6.1 Wed May 21 09:51:58 2025

Copyright (c) 1996-2018 Texas Instruments Incorporated
C:\Users\Daniel\AppData\Local\Temp\{2C0A4961-1358-435F-9775-EBAA64ED3F39} PAGE   46

    2332 0000001e 0006          LRETR     ; [CPU_ALU] 
    2333                      ; return occurs ; [] 
    2334                      .dwattr $C$DW$135, DW_AT_TI_end_file("../device/driverlib/mcan.c")
    2335                      .dwattr $C$DW$135, DW_AT_TI_end_line(0x16e)
    2336                      .dwattr $C$DW$135, DW_AT_TI_end_column(0x01)
    2337                      .dwendentry
    2338                      .dwendtag $C$DW$135
    2339              
    2340 00000000               .sect   ".text:_MCAN_setExtIDAndMask"
    2341                      .clink
    2342                      .global _MCAN_setExtIDAndMask
    2343              
    2344              $C$DW$143       .dwtag  DW_TAG_subprogram
    2345                      .dwattr $C$DW$143, DW_AT_name("MCAN_setExtIDAndMask")
    2346                      .dwattr $C$DW$143, DW_AT_low_pc(_MCAN_setExtIDAndMask)
    2347                      .dwattr $C$DW$143, DW_AT_high_pc(0x00)
    2348                      .dwattr $C$DW$143, DW_AT_TI_symbol_name("_MCAN_setExtIDAndMask")
    2349                      .dwattr $C$DW$143, DW_AT_external
    2350                      .dwattr $C$DW$143, DW_AT_type(*$C$DW$T$260)
    2351                      .dwattr $C$DW$143, DW_AT_TI_begin_file("../device/driverlib/mcan.c")
    2352                      .dwattr $C$DW$143, DW_AT_TI_begin_line(0x2e3)
    2353                      .dwattr $C$DW$143, DW_AT_TI_begin_column(0x09)
    2354                      .dwattr $C$DW$143, DW_AT_TI_max_frame_size(-6)
    2355                      .dwpsn  file "../device/driverlib/mcan.c",line 740,column 1,is_stmt,address _MCAN_setExtIDAndMask,isa
    2356              
    2357                      .dwfde $C$DW$CIE, _MCAN_setExtIDAndMask
    2358              $C$DW$144       .dwtag  DW_TAG_formal_parameter
    2359                      .dwattr $C$DW$144, DW_AT_name("baseAddr")
    2360                      .dwattr $C$DW$144, DW_AT_TI_symbol_name("_baseAddr")
    2361                      .dwattr $C$DW$144, DW_AT_type(*$C$DW$T$20)
    2362                      .dwattr $C$DW$144, DW_AT_location[DW_OP_reg0]
    2363              
    2364              $C$DW$145       .dwtag  DW_TAG_formal_parameter
    2365                      .dwattr $C$DW$145, DW_AT_name("idMask")
    2366                      .dwattr $C$DW$145, DW_AT_TI_symbol_name("_idMask")
    2367                      .dwattr $C$DW$145, DW_AT_type(*$C$DW$T$20)
    2368                      .dwattr $C$DW$145, DW_AT_location[DW_OP_breg20 -8]
    2369              
    2370              
    2371              ;***************************************************************
    2372              ;* FNAME: _MCAN_setExtIDAndMask         FR SIZE:   4           *
    2373              ;*                                                             *
    2374              ;* FUNCTION ENVIRONMENT                                        *
    2375              ;*                                                             *
    2376              ;* FUNCTION PROPERTIES                                         *
    2377              ;*                            0 Parameter,  0 Auto,  4 SOE     *
    2378              ;***************************************************************
    2379              
    2380              _MCAN_setExtIDAndMask:
    2381              ;* AR1   assigned to _baseAddr
    2382              $C$DW$146       .dwtag  DW_TAG_variable
    2383                      .dwattr $C$DW$146, DW_AT_name("baseAddr")
    2384                      .dwattr $C$DW$146, DW_AT_TI_symbol_name("_baseAddr")
    2385                      .dwattr $C$DW$146, DW_AT_type(*$C$DW$T$281)
    2386                      .dwattr $C$DW$146, DW_AT_location[DW_OP_reg6]
TMS320C2000 Assembler PC v22.6.1 Wed May 21 09:51:58 2025

Copyright (c) 1996-2018 Texas Instruments Incorporated
C:\Users\Daniel\AppData\Local\Temp\{2C0A4961-1358-435F-9775-EBAA64ED3F39} PAGE   47

    2387              
    2388              ;* AR2   assigned to _idMask
    2389              $C$DW$147       .dwtag  DW_TAG_variable
    2390                      .dwattr $C$DW$147, DW_AT_name("idMask")
    2391                      .dwattr $C$DW$147, DW_AT_TI_symbol_name("_idMask")
    2392                      .dwattr $C$DW$147, DW_AT_type(*$C$DW$T$281)
    2393                      .dwattr $C$DW$147, DW_AT_location[DW_OP_reg8]
    2394              
    2395              ;* AL    assigned to _regVal
    2396              $C$DW$148       .dwtag  DW_TAG_variable
    2397                      .dwattr $C$DW$148, DW_AT_name("regVal")
    2398                      .dwattr $C$DW$148, DW_AT_TI_symbol_name("_regVal")
    2399                      .dwattr $C$DW$148, DW_AT_type(*$C$DW$T$20)
    2400                      .dwattr $C$DW$148, DW_AT_location[DW_OP_reg0]
    2401              
    2402                      .dwcfi  cfa_offset, -2
    2403                      .dwcfi  save_reg_to_mem, 26, 0
    2404 00000000 B2BD          MOVL      *SP++,XAR1            ; [CPU_ALU] 
    2405                      .dwcfi  save_reg_to_mem, 7, 2
    2406                      .dwcfi  cfa_offset, -4
    2407                      .dwpsn  file "../device/driverlib/mcan.c",line 746,column 5,is_stmt,isa 0
    2408 00000001 8F05          MOVL      XAR4,#360448          ; [CPU_ARAU] |746| 
         00000002 8000 
    2409                      .dwpsn  file "../device/driverlib/mcan.c",line 740,column 1,is_stmt,isa 0
    2410 00000003 8BA9          MOVL      XAR1,ACC              ; [CPU_ALU] |740| 
    2411 00000004 AABD          MOVL      *SP++,XAR2            ; [CPU_ALU] 
    2412                      .dwcfi  save_reg_to_mem, 9, 4
    2413                      .dwcfi  cfa_offset, -6
    2414                      .dwpsn  file "../device/driverlib/mcan.c",line 746,column 5,is_stmt,isa 0
    2415 00000005 A8A9          MOVL      ACC,XAR4              ; [CPU_ALU] |746| 
    2416                      .dwpsn  file "../device/driverlib/mcan.c",line 740,column 1,is_stmt,isa 0
    2417 00000006 8648          MOVL      XAR2,*-SP[8]          ; [CPU_ALU] |740| 
    2418                      .dwpsn  file "../device/driverlib/mcan.c",line 746,column 5,is_stmt,isa 0
    2419 00000007 0FA1          CMPL      ACC,XAR1              ; [CPU_ALU] |746| 
    2420 00000008 6107          B         $C$L39,EQ             ; [CPU_ALU] |746| 
    2421                      ; branchcc occurs ; [] |746| 
    2422 00000009 FF20          MOV       ACC,#746              ; [CPU_ALU] |746| 
         0000000a 02EA 
    2423 0000000b 8F00+         MOVL      XAR4,#$C$FSL1         ; [CPU_ARAU] |746| 
         0000000c 0000 
    2424              $C$DW$149       .dwtag  DW_TAG_TI_branch
    2425                      .dwattr $C$DW$149, DW_AT_low_pc(0x00)
    2426                      .dwattr $C$DW$149, DW_AT_name("___error__")
    2427                      .dwattr $C$DW$149, DW_AT_TI_call
    2428              
    2429 0000000d 7640!         LCR       #___error__           ; [CPU_ALU] |746| 
         0000000e 0000 
    2430                      ; call occurs [#___error__] ; [] |746| 
    2431 0000000f       $C$L39:    
    2432                      .dwpsn  file "../device/driverlib/mcan.c",line 748,column 5,is_stmt,isa 0
    2433 0000000f 28A9          MOV       AL,#65535             ; [CPU_ALU] |748| 
         00000010 FFFF 
    2434 00000011 28A8          MOV       AH,#8191              ; [CPU_ALU] |748| 
         00000012 1FFF 
    2435 00000013 0FA2          CMPL      ACC,XAR2              ; [CPU_ALU] |748| 
TMS320C2000 Assembler PC v22.6.1 Wed May 21 09:51:58 2025

Copyright (c) 1996-2018 Texas Instruments Incorporated
C:\Users\Daniel\AppData\Local\Temp\{2C0A4961-1358-435F-9775-EBAA64ED3F39} PAGE   48

    2436 00000014 6704          B         $C$L40,HIS            ; [CPU_ALU] |748| 
    2437                      ; branchcc occurs ; [] |748| 
    2438                      .dwpsn  file "../device/driverlib/mcan.c",line 761,column 9,is_stmt,isa 0
    2439 00000015 0200          MOVB      ACC,#0                ; [CPU_ALU] |761| 
    2440 00000016 1901          SUBB      ACC,#1                ; [CPU_ALU] |761| 
    2441 00000017 6F14          B         $C$L41,UNC            ; [CPU_ALU] |761| 
    2442                      ; branch occurs ; [] |761| 
    2443 00000018       $C$L40:    
    2444                      .dwpsn  file "../device/driverlib/mcan.c",line 750,column 9,is_stmt,isa 0
    2445 00000018 B2A9          MOVL      ACC,XAR1              ; [CPU_ALU] |750| 
    2446              $C$DW$150       .dwtag  DW_TAG_TI_branch
    2447                      .dwattr $C$DW$150, DW_AT_low_pc(0x00)
    2448                      .dwattr $C$DW$150, DW_AT_name("_MCAN_writeProtectedRegAccessUnlock")
    2449                      .dwattr $C$DW$150, DW_AT_TI_call
    2450              
    2451 00000019 7640+         LCR       #_MCAN_writeProtectedRegAccessUnlock ; [CPU_ALU] |750| 
         0000001a 0000 
    2452                      ; call occurs [#_MCAN_writeProtectedRegAccessUnlock] ; [] |750| 
    2453                      .dwpsn  file "..\device\driverlib\inc/hw_types_mcan.h",line 424,column 21,is_stmt,isa 0
    2454 0000001b 8D00          MOVL      XAR0,#18064           ; [CPU_ALU] |424| 
         0000001c 4690 
    2455                      .dwpsn  file "..\device\driverlib\inc/hw_types_mcan.h",line 425,column 5,is_stmt,isa 0
    2456 0000001d AAAB          MOVL      P,XAR2                ; [CPU_ALU] |425| 
    2457                      .dwpsn  file "..\device\driverlib\inc/hw_types_mcan.h",line 424,column 21,is_stmt,isa 0
    2458 0000001e 0691          MOVL      ACC,*+XAR1[AR0]       ; [CPU_ALU] |424| 
    2459                      .dwpsn  file "..\device\driverlib\inc/hw_types_mcan.h",line 425,column 5,is_stmt,isa 0
    2460 0000001f 18AA          AND       PH,#8191              ; [CPU_ALU] |425| 
         00000020 1FFF 
    2461 00000021 9000          ANDB      AL,#0                 ; [CPU_ALU] |425| 
    2462 00000022 18A8          AND       AH,#57344             ; [CPU_ALU] |425| 
         00000023 E000 
    2463 00000024 CAAB          OR        AL,PL                 ; [CPU_ALU] |425| 
    2464 00000025 CBAA          OR        AH,PH                 ; [CPU_ALU] |425| 
    2465                      .dwpsn  file "..\device\driverlib\inc/hw_types_mcan.h",line 430,column 5,is_stmt,isa 0
    2466 00000026 1E91          MOVL      *+XAR1[AR0],ACC       ; [CPU_ALU] |430| 
    2467                      .dwpsn  file "../device/driverlib/mcan.c",line 756,column 9,is_stmt,isa 0
    2468 00000027 B2A9          MOVL      ACC,XAR1              ; [CPU_ALU] |756| 
    2469              $C$DW$151       .dwtag  DW_TAG_TI_branch
    2470                      .dwattr $C$DW$151, DW_AT_low_pc(0x00)
    2471                      .dwattr $C$DW$151, DW_AT_name("_MCAN_writeProtectedRegAccessLock")
    2472                      .dwattr $C$DW$151, DW_AT_TI_call
    2473              
    2474 00000028 7640+         LCR       #_MCAN_writeProtectedRegAccessLock ; [CPU_ALU] |756| 
         00000029 0000 
    2475                      ; call occurs [#_MCAN_writeProtectedRegAccessLock] ; [] |756| 
    2476                      .dwpsn  file "../device/driverlib/mcan.c",line 757,column 9,is_stmt,isa 0
    2477 0000002a 0200          MOVB      ACC,#0                ; [CPU_ALU] |757| 
    2478 0000002b       $C$L41:    
    2479 0000002b 86BE          MOVL      XAR2,*--SP            ; [CPU_ALU] 
    2480                      .dwcfi  cfa_offset, -4
    2481                      .dwcfi  restore_reg, 9
    2482 0000002c 8BBE          MOVL      XAR1,*--SP            ; [CPU_ALU] 
    2483                      .dwcfi  cfa_offset, -2
    2484                      .dwcfi  restore_reg, 7
    2485              $C$DW$152       .dwtag  DW_TAG_TI_branch
TMS320C2000 Assembler PC v22.6.1 Wed May 21 09:51:58 2025

Copyright (c) 1996-2018 Texas Instruments Incorporated
C:\Users\Daniel\AppData\Local\Temp\{2C0A4961-1358-435F-9775-EBAA64ED3F39} PAGE   49

    2486                      .dwattr $C$DW$152, DW_AT_low_pc(0x00)
    2487                      .dwattr $C$DW$152, DW_AT_TI_return
    2488              
    2489 0000002d 0006          LRETR     ; [CPU_ALU] 
    2490                      ; return occurs ; [] 
    2491                      .dwattr $C$DW$143, DW_AT_TI_end_file("../device/driverlib/mcan.c")
    2492                      .dwattr $C$DW$143, DW_AT_TI_end_line(0x2fc)
    2493                      .dwattr $C$DW$143, DW_AT_TI_end_column(0x01)
    2494                      .dwendentry
    2495                      .dwendtag $C$DW$143
    2496              
    2497 00000000               .sect   ".text:_MCAN_setBitTime"
    2498                      .clink
    2499                      .global _MCAN_setBitTime
    2500              
    2501              $C$DW$153       .dwtag  DW_TAG_subprogram
    2502                      .dwattr $C$DW$153, DW_AT_name("MCAN_setBitTime")
    2503                      .dwattr $C$DW$153, DW_AT_low_pc(_MCAN_setBitTime)
    2504                      .dwattr $C$DW$153, DW_AT_high_pc(0x00)
    2505                      .dwattr $C$DW$153, DW_AT_TI_symbol_name("_MCAN_setBitTime")
    2506                      .dwattr $C$DW$153, DW_AT_external
    2507                      .dwattr $C$DW$153, DW_AT_type(*$C$DW$T$260)
    2508                      .dwattr $C$DW$153, DW_AT_TI_begin_file("../device/driverlib/mcan.c")
    2509                      .dwattr $C$DW$153, DW_AT_TI_begin_line(0x222)
    2510                      .dwattr $C$DW$153, DW_AT_TI_begin_column(0x09)
    2511                      .dwattr $C$DW$153, DW_AT_TI_max_frame_size(-8)
    2512                      .dwpsn  file "../device/driverlib/mcan.c",line 548,column 1,is_stmt,address _MCAN_setBitTime,isa 0
    2513              
    2514                      .dwfde $C$DW$CIE, _MCAN_setBitTime
    2515              $C$DW$154       .dwtag  DW_TAG_formal_parameter
    2516                      .dwattr $C$DW$154, DW_AT_name("baseAddr")
    2517                      .dwattr $C$DW$154, DW_AT_TI_symbol_name("_baseAddr")
    2518                      .dwattr $C$DW$154, DW_AT_type(*$C$DW$T$20)
    2519                      .dwattr $C$DW$154, DW_AT_location[DW_OP_reg0]
    2520              
    2521              $C$DW$155       .dwtag  DW_TAG_formal_parameter
    2522                      .dwattr $C$DW$155, DW_AT_name("configParams")
    2523                      .dwattr $C$DW$155, DW_AT_TI_symbol_name("_configParams")
    2524                      .dwattr $C$DW$155, DW_AT_type(*$C$DW$T$84)
    2525                      .dwattr $C$DW$155, DW_AT_location[DW_OP_reg12]
    2526              
    2527              
    2528              ;***************************************************************
    2529              ;* FNAME: _MCAN_setBitTime              FR SIZE:   6           *
    2530              ;*                                                             *
    2531              ;* FUNCTION ENVIRONMENT                                        *
    2532              ;*                                                             *
    2533              ;* FUNCTION PROPERTIES                                         *
    2534              ;*                            0 Parameter,  0 Auto,  6 SOE     *
    2535              ;***************************************************************
    2536              
    2537              _MCAN_setBitTime:
    2538              ;* PL    assigned to $O$C17
    2539              ;* PL    assigned to $O$C18
    2540              ;* AR6   assigned to $O$U13
TMS320C2000 Assembler PC v22.6.1 Wed May 21 09:51:58 2025

Copyright (c) 1996-2018 Texas Instruments Incorporated
C:\Users\Daniel\AppData\Local\Temp\{2C0A4961-1358-435F-9775-EBAA64ED3F39} PAGE   50

    2541              ;* AR5   assigned to $O$U16
    2542              ;* AR4   assigned to $O$U20
    2543              ;* AR5   assigned to $O$U57
    2544              ;* AR4   assigned to $O$U60
    2545              ;* AR7   assigned to $O$U64
    2546              ;* AR2   assigned to _baseAddr
    2547              $C$DW$156       .dwtag  DW_TAG_variable
    2548                      .dwattr $C$DW$156, DW_AT_name("baseAddr")
    2549                      .dwattr $C$DW$156, DW_AT_TI_symbol_name("_baseAddr")
    2550                      .dwattr $C$DW$156, DW_AT_type(*$C$DW$T$281)
    2551                      .dwattr $C$DW$156, DW_AT_location[DW_OP_reg8]
    2552              
    2553              ;* AR3   assigned to _configParams
    2554              $C$DW$157       .dwtag  DW_TAG_variable
    2555                      .dwattr $C$DW$157, DW_AT_name("configParams")
    2556                      .dwattr $C$DW$157, DW_AT_TI_symbol_name("_configParams")
    2557                      .dwattr $C$DW$157, DW_AT_type(*$C$DW$T$85)
    2558                      .dwattr $C$DW$157, DW_AT_location[DW_OP_reg10]
    2559              
    2560              ;* AR1   assigned to _status
    2561              $C$DW$158       .dwtag  DW_TAG_variable
    2562                      .dwattr $C$DW$158, DW_AT_name("status")
    2563                      .dwattr $C$DW$158, DW_AT_TI_symbol_name("_status")
    2564                      .dwattr $C$DW$158, DW_AT_type(*$C$DW$T$260)
    2565                      .dwattr $C$DW$158, DW_AT_location[DW_OP_reg6]
    2566              
    2567              ;* AR7   assigned to _regVal
    2568              $C$DW$159       .dwtag  DW_TAG_variable
    2569                      .dwattr $C$DW$159, DW_AT_name("regVal")
    2570                      .dwattr $C$DW$159, DW_AT_TI_symbol_name("_regVal")
    2571                      .dwattr $C$DW$159, DW_AT_type(*$C$DW$T$20)
    2572                      .dwattr $C$DW$159, DW_AT_location[DW_OP_reg18]
    2573              
    2574              ;* AR7   assigned to _regVal
    2575              $C$DW$160       .dwtag  DW_TAG_variable
    2576                      .dwattr $C$DW$160, DW_AT_name("regVal")
    2577                      .dwattr $C$DW$160, DW_AT_TI_symbol_name("_regVal")
    2578                      .dwattr $C$DW$160, DW_AT_type(*$C$DW$T$20)
    2579                      .dwattr $C$DW$160, DW_AT_location[DW_OP_reg18]
    2580              
    2581              ;* AR6   assigned to _regVal
    2582              $C$DW$161       .dwtag  DW_TAG_variable
    2583                      .dwattr $C$DW$161, DW_AT_name("regVal")
    2584                      .dwattr $C$DW$161, DW_AT_TI_symbol_name("_regVal")
    2585                      .dwattr $C$DW$161, DW_AT_type(*$C$DW$T$20)
    2586                      .dwattr $C$DW$161, DW_AT_location[DW_OP_reg16]
    2587              
    2588              ;* AR6   assigned to _regVal
    2589              $C$DW$162       .dwtag  DW_TAG_variable
    2590                      .dwattr $C$DW$162, DW_AT_name("regVal")
    2591                      .dwattr $C$DW$162, DW_AT_TI_symbol_name("_regVal")
    2592                      .dwattr $C$DW$162, DW_AT_type(*$C$DW$T$20)
    2593                      .dwattr $C$DW$162, DW_AT_location[DW_OP_reg16]
    2594              
    2595              ;* AR6   assigned to _regVal
TMS320C2000 Assembler PC v22.6.1 Wed May 21 09:51:58 2025

Copyright (c) 1996-2018 Texas Instruments Incorporated
C:\Users\Daniel\AppData\Local\Temp\{2C0A4961-1358-435F-9775-EBAA64ED3F39} PAGE   51

    2596              $C$DW$163       .dwtag  DW_TAG_variable
    2597                      .dwattr $C$DW$163, DW_AT_name("regVal")
    2598                      .dwattr $C$DW$163, DW_AT_TI_symbol_name("_regVal")
    2599                      .dwattr $C$DW$163, DW_AT_type(*$C$DW$T$20)
    2600                      .dwattr $C$DW$163, DW_AT_location[DW_OP_reg16]
    2601              
    2602              ;* AR6   assigned to _regVal
    2603              $C$DW$164       .dwtag  DW_TAG_variable
    2604                      .dwattr $C$DW$164, DW_AT_name("regVal")
    2605                      .dwattr $C$DW$164, DW_AT_TI_symbol_name("_regVal")
    2606                      .dwattr $C$DW$164, DW_AT_type(*$C$DW$T$20)
    2607                      .dwattr $C$DW$164, DW_AT_location[DW_OP_reg16]
    2608              
    2609              ;* AR6   assigned to _regVal
    2610              $C$DW$165       .dwtag  DW_TAG_variable
    2611                      .dwattr $C$DW$165, DW_AT_name("regVal")
    2612                      .dwattr $C$DW$165, DW_AT_TI_symbol_name("_regVal")
    2613                      .dwattr $C$DW$165, DW_AT_type(*$C$DW$T$20)
    2614                      .dwattr $C$DW$165, DW_AT_location[DW_OP_reg16]
    2615              
    2616              ;* AR6   assigned to _regVal
    2617              $C$DW$166       .dwtag  DW_TAG_variable
    2618                      .dwattr $C$DW$166, DW_AT_name("regVal")
    2619                      .dwattr $C$DW$166, DW_AT_TI_symbol_name("_regVal")
    2620                      .dwattr $C$DW$166, DW_AT_type(*$C$DW$T$20)
    2621                      .dwattr $C$DW$166, DW_AT_location[DW_OP_reg16]
    2622              
    2623                      .dwcfi  cfa_offset, -2
    2624                      .dwcfi  save_reg_to_mem, 26, 0
    2625 00000000 B2BD          MOVL      *SP++,XAR1            ; [CPU_ALU] 
    2626                      .dwcfi  save_reg_to_mem, 7, 2
    2627                      .dwcfi  cfa_offset, -4
    2628 00000001 AABD          MOVL      *SP++,XAR2            ; [CPU_ALU] 
    2629                      .dwcfi  save_reg_to_mem, 9, 4
    2630                      .dwcfi  cfa_offset, -6
    2631 00000002 86A9          MOVL      XAR2,ACC              ; [CPU_ALU] |548| 
    2632 00000003 A2BD          MOVL      *SP++,XAR3            ; [CPU_ALU] 
    2633                      .dwcfi  save_reg_to_mem, 11, 6
    2634                      .dwcfi  cfa_offset, -8
    2635 00000004 82A4          MOVL      XAR3,XAR4             ; [CPU_ALU] |548| 
    2636                      .dwpsn  file "../device/driverlib/mcan.c",line 554,column 5,is_stmt,isa 0
    2637 00000005 8F05          MOVL      XAR4,#360448          ; [CPU_ARAU] |554| 
         00000006 8000 
    2638 00000007 A8A9          MOVL      ACC,XAR4              ; [CPU_ALU] |554| 
    2639 00000008 0FA2          CMPL      ACC,XAR2              ; [CPU_ALU] |554| 
    2640 00000009 6107          B         $C$L42,EQ             ; [CPU_ALU] |554| 
    2641                      ; branchcc occurs ; [] |554| 
    2642 0000000a FF20          MOV       ACC,#554              ; [CPU_ALU] |554| 
         0000000b 022A 
    2643 0000000c 8F00+         MOVL      XAR4,#$C$FSL1         ; [CPU_ARAU] |554| 
         0000000d 0000 
    2644              $C$DW$167       .dwtag  DW_TAG_TI_branch
    2645                      .dwattr $C$DW$167, DW_AT_low_pc(0x00)
    2646                      .dwattr $C$DW$167, DW_AT_name("___error__")
    2647                      .dwattr $C$DW$167, DW_AT_TI_call
TMS320C2000 Assembler PC v22.6.1 Wed May 21 09:51:58 2025

Copyright (c) 1996-2018 Texas Instruments Incorporated
C:\Users\Daniel\AppData\Local\Temp\{2C0A4961-1358-435F-9775-EBAA64ED3F39} PAGE   52

    2648              
    2649 0000000e 7640!         LCR       #___error__           ; [CPU_ALU] |554| 
         0000000f 0000 
    2650                      ; call occurs [#___error__] ; [] |554| 
    2651 00000010       $C$L42:    
    2652                      .dwpsn  file "../device/driverlib/mcan.c",line 556,column 5,is_stmt,isa 0
    2653 00000010 AAA9          MOVL      ACC,XAR2              ; [CPU_ALU] |556| 
    2654              $C$DW$168       .dwtag  DW_TAG_TI_branch
    2655                      .dwattr $C$DW$168, DW_AT_low_pc(0x00)
    2656                      .dwattr $C$DW$168, DW_AT_name("_MCAN_writeProtectedRegAccessUnlock")
    2657                      .dwattr $C$DW$168, DW_AT_TI_call
    2658              
    2659 00000011 7640+         LCR       #_MCAN_writeProtectedRegAccessUnlock ; [CPU_ALU] |556| 
         00000012 0000 
    2660                      ; call occurs [#_MCAN_writeProtectedRegAccessUnlock] ; [] |556| 
    2661                      .dwpsn  file "../device/driverlib/mcan.c",line 558,column 5,is_stmt,isa 0
    2662 00000013 027F          MOVB      ACC,#127              ; [CPU_ALU] |558| 
    2663 00000014 A3F3          MOVL      P,*+XAR3[6]           ; [CPU_ALU] |558| 
    2664 00000015 0FAB          CMPL      ACC,P                 ; [CPU_ALU] |558| 
    2665 00000016 FFE8          B         $C$L43,LO             ; [CPU_ALU] |558| 
         00000017 0090 
    2666                      ; branchcc occurs ; [] |558| 
    2667 00000018 C4E3          MOVL      XAR6,*+XAR3[4]        ; [CPU_ALU] |558| 
    2668 00000019 0FA6          CMPL      ACC,XAR6              ; [CPU_ALU] |558| 
    2669 0000001a FFE8          B         $C$L43,LO             ; [CPU_ALU] |558| 
         0000001b 008C 
    2670                      ; branchcc occurs ; [] |558| 
    2671 0000001c 83D3          MOVL      XAR5,*+XAR3[2]        ; [CPU_ALU] |558| 
    2672 0000001d 02FF          MOVB      ACC,#255              ; [CPU_ALU] |558| 
    2673 0000001e 0FA5          CMPL      ACC,XAR5              ; [CPU_ALU] |558| 
    2674 0000001f FFE8          B         $C$L43,LO             ; [CPU_ALU] |558| 
         00000020 0087 
    2675                      ; branchcc occurs ; [] |558| 
    2676 00000021 8AC3          MOVL      XAR4,*+XAR3[0]        ; [CPU_ALU] |558| 
    2677 00000022 FF20          MOV       ACC,#511              ; [CPU_ALU] |558| 
         00000023 01FF 
    2678 00000024 0FA4          CMPL      ACC,XAR4              ; [CPU_ALU] |558| 
    2679 00000025 FFE8          B         $C$L43,LO             ; [CPU_ALU] |558| 
         00000026 0081 
    2680                      ; branchcc occurs ; [] |558| 
    2681                      .dwpsn  file "..\device\driverlib\inc/hw_types_mcan.h",line 424,column 21,is_stmt,isa 0
    2682 00000027 8D00          MOVL      XAR0,#17948           ; [CPU_ALU] |424| 
         00000028 461C 
    2683 00000029 0692          MOVL      ACC,*+XAR2[AR0]       ; [CPU_ALU] |424| 
    2684                      .dwpsn  file "..\device\driverlib\inc/hw_types_mcan.h",line 425,column 5,is_stmt,isa 0
    2685 0000002a 28AC          MOV       T,#25                 ; [CPU_ALU] |425| 
         0000002b 0019 
    2686 0000002c 18A8          AND       AH,#511               ; [CPU_ALU] |425| 
         0000002d 01FF 
    2687                      .dwpsn  file "..\device\driverlib\inc/hw_types_mcan.h",line 430,column 5,is_stmt,isa 0
    2688 0000002e 8D40          MOVL      XAR1,#17948           ; [CPU_ALU] |430| 
         0000002f 461C 
    2689                      .dwpsn  file "..\device\driverlib\inc/hw_types_mcan.h",line 425,column 5,is_stmt,isa 0
    2690 00000030 1EA7          MOVL      XAR7,ACC              ; [CPU_ALU] |425| 
    2691 00000031 A9A9          MOVL      ACC,P                 ; [CPU_ALU] |425| 
TMS320C2000 Assembler PC v22.6.1 Wed May 21 09:51:58 2025

Copyright (c) 1996-2018 Texas Instruments Incorporated
C:\Users\Daniel\AppData\Local\Temp\{2C0A4961-1358-435F-9775-EBAA64ED3F39} PAGE   53

    2692 00000032 563B          LSLL      ACC,T                 ; [CPU_ALU] |425| 
    2693 00000033 FF5A          MOVL      P,ACC                 ; [CPU_ALU] |425| 
    2694 00000034 06A7          MOVL      ACC,XAR7              ; [CPU_ALU] |425| 
    2695 00000035 CAAB          OR        AL,PL                 ; [CPU_ALU] |425| 
    2696 00000036 CBAA          OR        AH,PH                 ; [CPU_ALU] |425| 
    2697                      .dwpsn  file "..\device\driverlib\inc/hw_types_mcan.h",line 430,column 5,is_stmt,isa 0
    2698 00000037 1E9A          MOVL      *+XAR2[AR1],ACC       ; [CPU_ALU] |430| 
    2699                      .dwpsn  file "..\device\driverlib\inc/hw_types_mcan.h",line 425,column 5,is_stmt,isa 0
    2700 00000038 A3A6          MOVL      P,XAR6                ; [CPU_ALU] |425| 
    2701                      .dwpsn  file "..\device\driverlib\inc/hw_types_mcan.h",line 424,column 21,is_stmt,isa 0
    2702 00000039 0692          MOVL      ACC,*+XAR2[AR0]       ; [CPU_ALU] |424| 
    2703                      .dwpsn  file "..\device\driverlib\inc/hw_types_mcan.h",line 425,column 5,is_stmt,isa 0
    2704 0000003a 18A9          AND       AL,#65408             ; [CPU_ALU] |425| 
         0000003b FF80 
    2705 0000003c 1EA7          MOVL      XAR7,ACC              ; [CPU_ALU] |425| 
    2706 0000003d 92AB          MOV       AL,PL                 ; [CPU_ALU] |425| 
    2707 0000003e 907F          ANDB      AL,#0x7f              ; [CPU_ALU] |425| 
    2708 0000003f 27A9          MOV       PL,AL                 ; [CPU_ALU] |425| 
    2709 00000040 06A7          MOVL      ACC,XAR7              ; [CPU_ALU] |425| 
    2710 00000041 CAAB          OR        AL,PL                 ; [CPU_ALU] |425| 
    2711                      .dwpsn  file "..\device\driverlib\inc/hw_types_mcan.h",line 430,column 5,is_stmt,isa 0
    2712 00000042 1E92          MOVL      *+XAR2[AR0],ACC       ; [CPU_ALU] |430| 
    2713                      .dwpsn  file "..\device\driverlib\inc/hw_types_mcan.h",line 424,column 21,is_stmt,isa 0
    2714 00000043 0692          MOVL      ACC,*+XAR2[AR0]       ; [CPU_ALU] |424| 
    2715                      .dwpsn  file "..\device\driverlib\inc/hw_types_mcan.h",line 425,column 5,is_stmt,isa 0
    2716 00000044 90FF          ANDB      AL,#255               ; [CPU_ALU] |425| 
    2717 00000045 1EA6          MOVL      XAR6,ACC              ; [CPU_ALU] |425| 
    2718 00000046 A0A9          MOVL      ACC,XAR5              ; [CPU_ALU] |425| 
    2719 00000047 9B00          MOVB      AH,#0                 ; [CPU_ALU] |425| 
    2720 00000048 90FF          ANDB      AL,#0xff              ; [CPU_ALU] |425| 
    2721 00000049 FF37          LSL       ACC,8                 ; [CPU_ALU] |425| 
    2722 0000004a FF5A          MOVL      P,ACC                 ; [CPU_ALU] |425| 
    2723 0000004b 06A6          MOVL      ACC,XAR6              ; [CPU_ALU] |425| 
    2724 0000004c CAAB          OR        AL,PL                 ; [CPU_ALU] |425| 
    2725 0000004d CBAA          OR        AH,PH                 ; [CPU_ALU] |425| 
    2726 0000004e A8AB          MOVL      P,XAR4                ; [CPU_FPU] |425| 
    2727                      .dwpsn  file "..\device\driverlib\inc/hw_types_mcan.h",line 430,column 5,is_stmt,isa 0
    2728 0000004f 1E92          MOVL      *+XAR2[AR0],ACC       ; [CPU_ALU] |430| 
    2729                      .dwpsn  file "..\device\driverlib\inc/hw_types_mcan.h",line 425,column 5,is_stmt,isa 0
    2730 00000050 18AB          AND       PL,#511               ; [CPU_ALU] |425| 
         00000051 01FF 
    2731 00000052 18AA          AND       PH,#0                 ; [CPU_ALU] |425| 
         00000053 0000 
    2732                      .dwpsn  file "..\device\driverlib\inc/hw_types_mcan.h",line 424,column 21,is_stmt,isa 0
    2733 00000054 0692          MOVL      ACC,*+XAR2[AR0]       ; [CPU_FPU] |424| 
    2734                      .dwpsn  file "..\device\driverlib\inc/hw_types_mcan.h",line 425,column 5,is_stmt,isa 0
    2735 00000055 18A8          AND       AH,#65024             ; [CPU_ALU] |425| 
         00000056 FE00 
    2736 00000057 1EA6          MOVL      XAR6,ACC              ; [CPU_FPU] |425| 
    2737                      .dwpsn  file "../device/driverlib/mcan.c",line 583,column 9,is_stmt,isa 0
    2738 00000058 D00E          MOVB      XAR0,#14              ; [CPU_FPU] |583| 
    2739                      .dwpsn  file "..\device\driverlib\inc/hw_types_mcan.h",line 425,column 5,is_stmt,isa 0
    2740 00000059 A9A9          MOVL      ACC,P                 ; [CPU_ALU] |425| 
    2741 0000005a FF3F          LSL       ACC,16                ; [CPU_ALU] |425| 
    2742 0000005b FF5A          MOVL      P,ACC                 ; [CPU_ALU] |425| 
TMS320C2000 Assembler PC v22.6.1 Wed May 21 09:51:58 2025

Copyright (c) 1996-2018 Texas Instruments Incorporated
C:\Users\Daniel\AppData\Local\Temp\{2C0A4961-1358-435F-9775-EBAA64ED3F39} PAGE   54

    2743 0000005c 06A6          MOVL      ACC,XAR6              ; [CPU_ALU] |425| 
    2744 0000005d CAAB          OR        AL,PL                 ; [CPU_ALU] |425| 
    2745 0000005e CBAA          OR        AH,PH                 ; [CPU_ALU] |425| 
    2746                      .dwpsn  file "..\device\driverlib\inc/hw_types_mcan.h",line 430,column 5,is_stmt,isa 0
    2747 0000005f 1E9A          MOVL      *+XAR2[AR1],ACC       ; [CPU_ALU] |430| 
    2748                      .dwpsn  file "../device/driverlib/mcan.c",line 583,column 9,is_stmt,isa 0
    2749 00000060 020F          MOVB      ACC,#15               ; [CPU_ALU] |583| 
    2750 00000061 A393          MOVL      P,*+XAR3[AR0]         ; [CPU_ALU] |583| 
    2751 00000062 0FAB          CMPL      ACC,P                 ; [CPU_ALU] |583| 
    2752 00000063 6843          B         $C$L43,LO             ; [CPU_ALU] |583| 
    2753                      ; branchcc occurs ; [] |583| 
    2754 00000064 D00C          MOVB      XAR0,#12              ; [CPU_ALU] |583| 
    2755 00000065 8393          MOVL      XAR5,*+XAR3[AR0]      ; [CPU_ALU] |583| 
    2756 00000066 0FA5          CMPL      ACC,XAR5              ; [CPU_ALU] |583| 
    2757 00000067 683F          B         $C$L43,LO             ; [CPU_ALU] |583| 
    2758                      ; branchcc occurs ; [] |583| 
    2759 00000068 D00A          MOVB      XAR0,#10              ; [CPU_ALU] |583| 
    2760 00000069 8A93          MOVL      XAR4,*+XAR3[AR0]      ; [CPU_ALU] |583| 
    2761 0000006a 021F          MOVB      ACC,#31               ; [CPU_ALU] |583| 
    2762 0000006b 0FA4          CMPL      ACC,XAR4              ; [CPU_ALU] |583| 
    2763 0000006c 683A          B         $C$L43,LO             ; [CPU_ALU] |583| 
    2764                      ; branchcc occurs ; [] |583| 
    2765 0000006d D008          MOVB      XAR0,#8               ; [CPU_ALU] |583| 
    2766 0000006e C593          MOVL      XAR7,*+XAR3[AR0]      ; [CPU_ALU] |583| 
    2767 0000006f 0FA7          CMPL      ACC,XAR7              ; [CPU_ALU] |583| 
    2768 00000070 6836          B         $C$L43,LO             ; [CPU_ALU] |583| 
    2769                      ; branchcc occurs ; [] |583| 
    2770                      .dwpsn  file "..\device\driverlib\inc/hw_types_mcan.h",line 424,column 21,is_stmt,isa 0
    2771 00000071 8D00          MOVL      XAR0,#17932           ; [CPU_ALU] |424| 
         00000072 460C 
    2772 00000073 0692          MOVL      ACC,*+XAR2[AR0]       ; [CPU_ALU] |424| 
    2773                      .dwpsn  file "..\device\driverlib\inc/hw_types_mcan.h",line 425,column 5,is_stmt,isa 0
    2774 00000074 18A9          AND       AL,#65520             ; [CPU_ALU] |425| 
         00000075 FFF0 
    2775 00000076 1EA6          MOVL      XAR6,ACC              ; [CPU_ALU] |425| 
    2776 00000077 92AB          MOV       AL,PL                 ; [CPU_ALU] |425| 
    2777 00000078 900F          ANDB      AL,#0x0f              ; [CPU_ALU] |425| 
    2778 00000079 27A9          MOV       PL,AL                 ; [CPU_ALU] |425| 
    2779 0000007a 06A6          MOVL      ACC,XAR6              ; [CPU_ALU] |425| 
    2780                      .dwpsn  file "../device/driverlib/mcan.c",line 600,column 13,is_stmt,isa 0
    2781 0000007b D100          MOVB      XAR1,#0               ; [CPU_ALU] |600| 
    2782                      .dwpsn  file "..\device\driverlib\inc/hw_types_mcan.h",line 425,column 5,is_stmt,isa 0
    2783 0000007c CAAB          OR        AL,PL                 ; [CPU_ALU] |425| 
    2784                      .dwpsn  file "..\device\driverlib\inc/hw_types_mcan.h",line 430,column 5,is_stmt,isa 0
    2785 0000007d 1E92          MOVL      *+XAR2[AR0],ACC       ; [CPU_ALU] |430| 
    2786                      .dwpsn  file "..\device\driverlib\inc/hw_types_mcan.h",line 424,column 21,is_stmt,isa 0
    2787 0000007e 0692          MOVL      ACC,*+XAR2[AR0]       ; [CPU_ALU] |424| 
    2788                      .dwpsn  file "..\device\driverlib\inc/hw_types_mcan.h",line 425,column 5,is_stmt,isa 0
    2789 0000007f 18A9          AND       AL,#65295             ; [CPU_ALU] |425| 
         00000080 FF0F 
    2790 00000081 1EA6          MOVL      XAR6,ACC              ; [CPU_ALU] |425| 
    2791 00000082 A0A9          MOVL      ACC,XAR5              ; [CPU_ALU] |425| 
    2792 00000083 9B00          MOVB      AH,#0                 ; [CPU_ALU] |425| 
    2793 00000084 900F          ANDB      AL,#0x0f              ; [CPU_ALU] |425| 
    2794 00000085 FF33          LSL       ACC,4                 ; [CPU_ALU] |425| 
TMS320C2000 Assembler PC v22.6.1 Wed May 21 09:51:58 2025

Copyright (c) 1996-2018 Texas Instruments Incorporated
C:\Users\Daniel\AppData\Local\Temp\{2C0A4961-1358-435F-9775-EBAA64ED3F39} PAGE   55

    2795 00000086 FF5A          MOVL      P,ACC                 ; [CPU_ALU] |425| 
    2796 00000087 06A6          MOVL      ACC,XAR6              ; [CPU_ALU] |425| 
    2797 00000088 CAAB          OR        AL,PL                 ; [CPU_ALU] |425| 
    2798 00000089 CBAA          OR        AH,PH                 ; [CPU_ALU] |425| 
    2799                      .dwpsn  file "..\device\driverlib\inc/hw_types_mcan.h",line 430,column 5,is_stmt,isa 0
    2800 0000008a 1E92          MOVL      *+XAR2[AR0],ACC       ; [CPU_ALU] |430| 
    2801                      .dwpsn  file "..\device\driverlib\inc/hw_types_mcan.h",line 424,column 21,is_stmt,isa 0
    2802 0000008b 0692          MOVL      ACC,*+XAR2[AR0]       ; [CPU_ALU] |424| 
    2803                      .dwpsn  file "..\device\driverlib\inc/hw_types_mcan.h",line 425,column 5,is_stmt,isa 0
    2804 0000008c 18A9          AND       AL,#57599             ; [CPU_ALU] |425| 
         0000008d E0FF 
    2805 0000008e 1EA6          MOVL      XAR6,ACC              ; [CPU_ALU] |425| 
    2806 0000008f A8A9          MOVL      ACC,XAR4              ; [CPU_ALU] |425| 
    2807 00000090 9B00          MOVB      AH,#0                 ; [CPU_ALU] |425| 
    2808 00000091 901F          ANDB      AL,#0x1f              ; [CPU_ALU] |425| 
    2809 00000092 FF37          LSL       ACC,8                 ; [CPU_ALU] |425| 
    2810 00000093 FF5A          MOVL      P,ACC                 ; [CPU_ALU] |425| 
    2811 00000094 06A6          MOVL      ACC,XAR6              ; [CPU_ALU] |425| 
    2812 00000095 CAAB          OR        AL,PL                 ; [CPU_ALU] |425| 
    2813 00000096 CBAA          OR        AH,PH                 ; [CPU_ALU] |425| 
    2814                      .dwpsn  file "..\device\driverlib\inc/hw_types_mcan.h",line 430,column 5,is_stmt,isa 0
    2815 00000097 1E92          MOVL      *+XAR2[AR0],ACC       ; [CPU_ALU] |430| 
    2816                      .dwpsn  file "..\device\driverlib\inc/hw_types_mcan.h",line 424,column 21,is_stmt,isa 0
    2817 00000098 0692          MOVL      ACC,*+XAR2[AR0]       ; [CPU_ALU] |424| 
    2818                      .dwpsn  file "..\device\driverlib\inc/hw_types_mcan.h",line 425,column 5,is_stmt,isa 0
    2819 00000099 18A8          AND       AH,#65504             ; [CPU_ALU] |425| 
         0000009a FFE0 
    2820 0000009b 1EA6          MOVL      XAR6,ACC              ; [CPU_ALU] |425| 
    2821 0000009c 06A7          MOVL      ACC,XAR7              ; [CPU_ALU] |425| 
    2822 0000009d 9B00          MOVB      AH,#0                 ; [CPU_ALU] |425| 
    2823 0000009e 901F          ANDB      AL,#0x1f              ; [CPU_ALU] |425| 
    2824 0000009f FF3F          LSL       ACC,16                ; [CPU_ALU] |425| 
    2825 000000a0 FF5A          MOVL      P,ACC                 ; [CPU_ALU] |425| 
    2826 000000a1 06A6          MOVL      ACC,XAR6              ; [CPU_ALU] |425| 
    2827 000000a2 CAAB          OR        AL,PL                 ; [CPU_ALU] |425| 
    2828 000000a3 CBAA          OR        AH,PH                 ; [CPU_ALU] |425| 
    2829                      .dwpsn  file "..\device\driverlib\inc/hw_types_mcan.h",line 430,column 5,is_stmt,isa 0
    2830 000000a4 1E92          MOVL      *+XAR2[AR0],ACC       ; [CPU_ALU] |430| 
    2831 000000a5 6F04          B         $C$L44,UNC            ; [CPU_ALU] 
    2832                      ; branch occurs ; [] 
    2833 000000a6       $C$L43:    
    2834                      .dwpsn  file "../device/driverlib/mcan.c",line 579,column 9,is_stmt,isa 0
    2835 000000a6 0200          MOVB      ACC,#0                ; [CPU_ALU] |579| 
    2836 000000a7 1901          SUBB      ACC,#1                ; [CPU_ALU] |579| 
    2837 000000a8 8BA9          MOVL      XAR1,ACC              ; [CPU_ALU] |579| 
    2838 000000a9       $C$L44:    
    2839                      .dwpsn  file "../device/driverlib/mcan.c",line 608,column 5,is_stmt,isa 0
    2840 000000a9 AAA9          MOVL      ACC,XAR2              ; [CPU_ALU] |608| 
    2841              $C$DW$169       .dwtag  DW_TAG_TI_branch
    2842                      .dwattr $C$DW$169, DW_AT_low_pc(0x00)
    2843                      .dwattr $C$DW$169, DW_AT_name("_MCAN_writeProtectedRegAccessLock")
    2844                      .dwattr $C$DW$169, DW_AT_TI_call
    2845              
    2846 000000aa 7640+         LCR       #_MCAN_writeProtectedRegAccessLock ; [CPU_ALU] |608| 
         000000ab 0000 
TMS320C2000 Assembler PC v22.6.1 Wed May 21 09:51:58 2025

Copyright (c) 1996-2018 Texas Instruments Incorporated
C:\Users\Daniel\AppData\Local\Temp\{2C0A4961-1358-435F-9775-EBAA64ED3F39} PAGE   56

    2847                      ; call occurs [#_MCAN_writeProtectedRegAccessLock] ; [] |608| 
    2848 000000ac 82BE          MOVL      XAR3,*--SP            ; [CPU_ALU] 
    2849                      .dwcfi  cfa_offset, -6
    2850                      .dwcfi  restore_reg, 11
    2851                      .dwpsn  file "../device/driverlib/mcan.c",line 609,column 5,is_stmt,isa 0
    2852 000000ad B2A9          MOVL      ACC,XAR1              ; [CPU_ALU] |609| 
    2853 000000ae 86BE          MOVL      XAR2,*--SP            ; [CPU_ALU] 
    2854                      .dwcfi  cfa_offset, -4
    2855                      .dwcfi  restore_reg, 9
    2856 000000af 8BBE          MOVL      XAR1,*--SP            ; [CPU_ALU] 
    2857                      .dwcfi  cfa_offset, -2
    2858                      .dwcfi  restore_reg, 7
    2859              $C$DW$170       .dwtag  DW_TAG_TI_branch
    2860                      .dwattr $C$DW$170, DW_AT_low_pc(0x00)
    2861                      .dwattr $C$DW$170, DW_AT_TI_return
    2862              
    2863 000000b0 0006          LRETR     ; [CPU_ALU] 
    2864                      ; return occurs ; [] 
    2865                      .dwattr $C$DW$153, DW_AT_TI_end_file("../device/driverlib/mcan.c")
    2866                      .dwattr $C$DW$153, DW_AT_TI_end_line(0x262)
    2867                      .dwattr $C$DW$153, DW_AT_TI_end_column(0x01)
    2868                      .dwendentry
    2869                      .dwendtag $C$DW$153
    2870              
    2871 00000000               .sect   ".text:_MCAN_selectIntrLine"
    2872                      .clink
    2873                      .global _MCAN_selectIntrLine
    2874              
    2875              $C$DW$171       .dwtag  DW_TAG_subprogram
    2876                      .dwattr $C$DW$171, DW_AT_name("MCAN_selectIntrLine")
    2877                      .dwattr $C$DW$171, DW_AT_low_pc(_MCAN_selectIntrLine)
    2878                      .dwattr $C$DW$171, DW_AT_high_pc(0x00)
    2879                      .dwattr $C$DW$171, DW_AT_TI_symbol_name("_MCAN_selectIntrLine")
    2880                      .dwattr $C$DW$171, DW_AT_external
    2881                      .dwattr $C$DW$171, DW_AT_TI_begin_file("../device/driverlib/mcan.c")
    2882                      .dwattr $C$DW$171, DW_AT_TI_begin_line(0x4a4)
    2883                      .dwattr $C$DW$171, DW_AT_TI_begin_column(0x06)
    2884                      .dwattr $C$DW$171, DW_AT_TI_max_frame_size(-8)
    2885                      .dwpsn  file "../device/driverlib/mcan.c",line 1191,column 1,is_stmt,address _MCAN_selectIntrLine,isa
    2886              
    2887                      .dwfde $C$DW$CIE, _MCAN_selectIntrLine
    2888              $C$DW$172       .dwtag  DW_TAG_formal_parameter
    2889                      .dwattr $C$DW$172, DW_AT_name("baseAddr")
    2890                      .dwattr $C$DW$172, DW_AT_TI_symbol_name("_baseAddr")
    2891                      .dwattr $C$DW$172, DW_AT_type(*$C$DW$T$20)
    2892                      .dwattr $C$DW$172, DW_AT_location[DW_OP_reg0]
    2893              
    2894              $C$DW$173       .dwtag  DW_TAG_formal_parameter
    2895                      .dwattr $C$DW$173, DW_AT_name("intrMask")
    2896                      .dwattr $C$DW$173, DW_AT_TI_symbol_name("_intrMask")
    2897                      .dwattr $C$DW$173, DW_AT_type(*$C$DW$T$20)
    2898                      .dwattr $C$DW$173, DW_AT_location[DW_OP_breg20 -10]
    2899              
    2900              $C$DW$174       .dwtag  DW_TAG_formal_parameter
    2901                      .dwattr $C$DW$174, DW_AT_name("lineNum")
TMS320C2000 Assembler PC v22.6.1 Wed May 21 09:51:58 2025

Copyright (c) 1996-2018 Texas Instruments Incorporated
C:\Users\Daniel\AppData\Local\Temp\{2C0A4961-1358-435F-9775-EBAA64ED3F39} PAGE   57

    2902                      .dwattr $C$DW$174, DW_AT_TI_symbol_name("_lineNum")
    2903                      .dwattr $C$DW$174, DW_AT_type(*$C$DW$T$20)
    2904                      .dwattr $C$DW$174, DW_AT_location[DW_OP_breg20 -12]
    2905              
    2906              
    2907              ;***************************************************************
    2908              ;* FNAME: _MCAN_selectIntrLine          FR SIZE:   6           *
    2909              ;*                                                             *
    2910              ;* FUNCTION ENVIRONMENT                                        *
    2911              ;*                                                             *
    2912              ;* FUNCTION PROPERTIES                                         *
    2913              ;*                            0 Parameter,  0 Auto,  6 SOE     *
    2914              ;***************************************************************
    2915              
    2916              _MCAN_selectIntrLine:
    2917              ;* AR1   assigned to _baseAddr
    2918              $C$DW$175       .dwtag  DW_TAG_variable
    2919                      .dwattr $C$DW$175, DW_AT_name("baseAddr")
    2920                      .dwattr $C$DW$175, DW_AT_TI_symbol_name("_baseAddr")
    2921                      .dwattr $C$DW$175, DW_AT_type(*$C$DW$T$281)
    2922                      .dwattr $C$DW$175, DW_AT_location[DW_OP_reg6]
    2923              
    2924              ;* AR2   assigned to _intrMask
    2925              $C$DW$176       .dwtag  DW_TAG_variable
    2926                      .dwattr $C$DW$176, DW_AT_name("intrMask")
    2927                      .dwattr $C$DW$176, DW_AT_TI_symbol_name("_intrMask")
    2928                      .dwattr $C$DW$176, DW_AT_type(*$C$DW$T$281)
    2929                      .dwattr $C$DW$176, DW_AT_location[DW_OP_reg8]
    2930              
    2931              ;* AR3   assigned to _lineNum
    2932              $C$DW$177       .dwtag  DW_TAG_variable
    2933                      .dwattr $C$DW$177, DW_AT_name("lineNum")
    2934                      .dwattr $C$DW$177, DW_AT_TI_symbol_name("_lineNum")
    2935                      .dwattr $C$DW$177, DW_AT_type(*$C$DW$T$281)
    2936                      .dwattr $C$DW$177, DW_AT_location[DW_OP_reg10]
    2937              
    2938              ;* PL    assigned to _regVal
    2939              $C$DW$178       .dwtag  DW_TAG_variable
    2940                      .dwattr $C$DW$178, DW_AT_name("regVal")
    2941                      .dwattr $C$DW$178, DW_AT_TI_symbol_name("_regVal")
    2942                      .dwattr $C$DW$178, DW_AT_type(*$C$DW$T$20)
    2943                      .dwattr $C$DW$178, DW_AT_location[DW_OP_reg2]
    2944              
    2945              ;* PL    assigned to _regVal
    2946              $C$DW$179       .dwtag  DW_TAG_variable
    2947                      .dwattr $C$DW$179, DW_AT_name("regVal")
    2948                      .dwattr $C$DW$179, DW_AT_TI_symbol_name("_regVal")
    2949                      .dwattr $C$DW$179, DW_AT_type(*$C$DW$T$20)
    2950                      .dwattr $C$DW$179, DW_AT_location[DW_OP_reg2]
    2951              
    2952                      .dwcfi  cfa_offset, -2
    2953                      .dwcfi  save_reg_to_mem, 26, 0
    2954 00000000 B2BD          MOVL      *SP++,XAR1            ; [CPU_ALU] 
    2955                      .dwcfi  save_reg_to_mem, 7, 2
    2956                      .dwcfi  cfa_offset, -4
TMS320C2000 Assembler PC v22.6.1 Wed May 21 09:51:58 2025

Copyright (c) 1996-2018 Texas Instruments Incorporated
C:\Users\Daniel\AppData\Local\Temp\{2C0A4961-1358-435F-9775-EBAA64ED3F39} PAGE   58

    2957                      .dwpsn  file "../device/driverlib/mcan.c",line 1197,column 5,is_stmt,isa 0
    2958 00000001 8F05          MOVL      XAR4,#360448          ; [CPU_ARAU] |1197| 
         00000002 8000 
    2959                      .dwpsn  file "../device/driverlib/mcan.c",line 1191,column 1,is_stmt,isa 0
    2960 00000003 8BA9          MOVL      XAR1,ACC              ; [CPU_ALU] |1191| 
    2961 00000004 AABD          MOVL      *SP++,XAR2            ; [CPU_ALU] 
    2962                      .dwcfi  save_reg_to_mem, 9, 4
    2963                      .dwcfi  cfa_offset, -6
    2964                      .dwpsn  file "../device/driverlib/mcan.c",line 1197,column 5,is_stmt,isa 0
    2965 00000005 A8A9          MOVL      ACC,XAR4              ; [CPU_ALU] |1197| 
    2966 00000006 A2BD          MOVL      *SP++,XAR3            ; [CPU_ALU] 
    2967                      .dwcfi  save_reg_to_mem, 11, 6
    2968                      .dwcfi  cfa_offset, -8
    2969 00000007 0FA1          CMPL      ACC,XAR1              ; [CPU_ALU] |1197| 
    2970                      .dwpsn  file "../device/driverlib/mcan.c",line 1191,column 1,is_stmt,isa 0
    2971 00000008 824C          MOVL      XAR3,*-SP[12]         ; [CPU_FPU] |1191| 
    2972 00000009 864A          MOVL      XAR2,*-SP[10]         ; [CPU_ALU] |1191| 
    2973                      .dwpsn  file "../device/driverlib/mcan.c",line 1197,column 5,is_stmt,isa 0
    2974 0000000a 6107          B         $C$L45,EQ             ; [CPU_ALU] |1197| 
    2975                      ; branchcc occurs ; [] |1197| 
    2976 0000000b FF20          MOV       ACC,#1197             ; [CPU_ALU] |1197| 
         0000000c 04AD 
    2977 0000000d 8F00+         MOVL      XAR4,#$C$FSL1         ; [CPU_ARAU] |1197| 
         0000000e 0000 
    2978              $C$DW$180       .dwtag  DW_TAG_TI_branch
    2979                      .dwattr $C$DW$180, DW_AT_low_pc(0x00)
    2980                      .dwattr $C$DW$180, DW_AT_name("___error__")
    2981                      .dwattr $C$DW$180, DW_AT_TI_call
    2982              
    2983 0000000f 7640!         LCR       #___error__           ; [CPU_ALU] |1197| 
         00000010 0000 
    2984                      ; call occurs [#___error__] ; [] |1197| 
    2985 00000011       $C$L45:    
    2986 00000011 A2A9          MOVL      ACC,XAR3              ; [CPU_ALU] 
    2987                      .dwpsn  file "../device/driverlib/mcan.c",line 1199,column 5,is_stmt,isa 0
    2988 00000012 6009          B         $C$L46,NEQ            ; [CPU_ALU] |1199| 
    2989                      ; branchcc occurs ; [] |1199| 
    2990                      .dwpsn  file "..\device\driverlib\inc/hw_types_mcan.h",line 369,column 21,is_stmt,isa 0
    2991 00000013 8D00          MOVL      XAR0,#18008           ; [CPU_ALU] |369| 
         00000014 4658 
    2992                      .dwpsn  file "..\device\driverlib\inc/hw_types_mcan.h",line 383,column 5,is_stmt,isa 0
    2993 00000015 AAA9          MOVL      ACC,XAR2              ; [CPU_ALU] |383| 
    2994                      .dwpsn  file "..\device\driverlib\inc/hw_types_mcan.h",line 369,column 21,is_stmt,isa 0
    2995 00000016 A391          MOVL      P,*+XAR1[AR0]         ; [CPU_ALU] |369| 
    2996                      .dwpsn  file "..\device\driverlib\inc/hw_types_mcan.h",line 383,column 5,is_stmt,isa 0
    2997 00000017 FF55          NOT       ACC                   ; [CPU_ALU] |383| 
    2998 00000018 CEAB          AND       AL,PL                 ; [CPU_ALU] |383| 
    2999 00000019 CFAA          AND       AH,PH                 ; [CPU_ALU] |383| 
    3000 0000001a 6F07          B         $C$L47,UNC            ; [CPU_ALU] 
    3001                      ; branch occurs ; [] 
    3002 0000001b       $C$L46:    
    3003                      .dwpsn  file "..\device\driverlib\inc/hw_types_mcan.h",line 369,column 21,is_stmt,isa 0
    3004 0000001b 8D00          MOVL      XAR0,#18008           ; [CPU_ALU] |369| 
         0000001c 4658 
    3005                      .dwpsn  file "..\device\driverlib\inc/hw_types_mcan.h",line 383,column 5,is_stmt,isa 0
TMS320C2000 Assembler PC v22.6.1 Wed May 21 09:51:58 2025

Copyright (c) 1996-2018 Texas Instruments Incorporated
C:\Users\Daniel\AppData\Local\Temp\{2C0A4961-1358-435F-9775-EBAA64ED3F39} PAGE   59

    3006 0000001d AAA9          MOVL      ACC,XAR2              ; [CPU_ALU] |383| 
    3007                      .dwpsn  file "..\device\driverlib\inc/hw_types_mcan.h",line 369,column 21,is_stmt,isa 0
    3008 0000001e A391          MOVL      P,*+XAR1[AR0]         ; [CPU_ALU] |369| 
    3009                      .dwpsn  file "..\device\driverlib\inc/hw_types_mcan.h",line 383,column 5,is_stmt,isa 0
    3010 0000001f CAAB          OR        AL,PL                 ; [CPU_ALU] |383| 
    3011 00000020 CBAA          OR        AH,PH                 ; [CPU_ALU] |383| 
    3012 00000021       $C$L47:    
    3013 00000021 1E91          MOVL      *+XAR1[AR0],ACC       ; [CPU_ALU] |383| 
    3014 00000022 82BE          MOVL      XAR3,*--SP            ; [CPU_ALU] 
    3015                      .dwcfi  cfa_offset, -6
    3016                      .dwcfi  restore_reg, 11
    3017 00000023 86BE          MOVL      XAR2,*--SP            ; [CPU_ALU] 
    3018                      .dwcfi  cfa_offset, -4
    3019                      .dwcfi  restore_reg, 9
    3020 00000024 8BBE          MOVL      XAR1,*--SP            ; [CPU_ALU] 
    3021                      .dwcfi  cfa_offset, -2
    3022                      .dwcfi  restore_reg, 7
    3023              $C$DW$181       .dwtag  DW_TAG_TI_branch
    3024                      .dwattr $C$DW$181, DW_AT_low_pc(0x00)
    3025                      .dwattr $C$DW$181, DW_AT_TI_return
    3026              
    3027 00000025 0006          LRETR     ; [CPU_ALU] 
    3028                      ; return occurs ; [] 
    3029                      .dwattr $C$DW$171, DW_AT_TI_end_file("../device/driverlib/mcan.c")
    3030                      .dwattr $C$DW$171, DW_AT_TI_end_line(0x4bb)
    3031                      .dwattr $C$DW$171, DW_AT_TI_end_column(0x01)
    3032                      .dwendentry
    3033                      .dwendtag $C$DW$171
    3034              
    3035 00000000               .sect   ".text:_MCAN_selectClockSource"
    3036                      .clink
    3037                      .global _MCAN_selectClockSource
    3038              
    3039              $C$DW$182       .dwtag  DW_TAG_subprogram
    3040                      .dwattr $C$DW$182, DW_AT_name("MCAN_selectClockSource")
    3041                      .dwattr $C$DW$182, DW_AT_low_pc(_MCAN_selectClockSource)
    3042                      .dwattr $C$DW$182, DW_AT_high_pc(0x00)
    3043                      .dwattr $C$DW$182, DW_AT_TI_symbol_name("_MCAN_selectClockSource")
    3044                      .dwattr $C$DW$182, DW_AT_external
    3045                      .dwattr $C$DW$182, DW_AT_TI_begin_file("../device/driverlib/mcan.c")
    3046                      .dwattr $C$DW$182, DW_AT_TI_begin_line(0xff)
    3047                      .dwattr $C$DW$182, DW_AT_TI_begin_column(0x06)
    3048                      .dwattr $C$DW$182, DW_AT_TI_max_frame_size(-6)
    3049                      .dwpsn  file "../device/driverlib/mcan.c",line 256,column 1,is_stmt,address _MCAN_selectClockSource,i
    3050              
    3051                      .dwfde $C$DW$CIE, _MCAN_selectClockSource
    3052              $C$DW$183       .dwtag  DW_TAG_formal_parameter
    3053                      .dwattr $C$DW$183, DW_AT_name("baseAddr")
    3054                      .dwattr $C$DW$183, DW_AT_TI_symbol_name("_baseAddr")
    3055                      .dwattr $C$DW$183, DW_AT_type(*$C$DW$T$20)
    3056                      .dwattr $C$DW$183, DW_AT_location[DW_OP_reg0]
    3057              
    3058              $C$DW$184       .dwtag  DW_TAG_formal_parameter
    3059                      .dwattr $C$DW$184, DW_AT_name("source")
    3060                      .dwattr $C$DW$184, DW_AT_TI_symbol_name("_source")
TMS320C2000 Assembler PC v22.6.1 Wed May 21 09:51:58 2025

Copyright (c) 1996-2018 Texas Instruments Incorporated
C:\Users\Daniel\AppData\Local\Temp\{2C0A4961-1358-435F-9775-EBAA64ED3F39} PAGE   60

    3061                      .dwattr $C$DW$184, DW_AT_type(*$C$DW$T$51)
    3062                      .dwattr $C$DW$184, DW_AT_location[DW_OP_reg12]
    3063              
    3064              
    3065              ;***************************************************************
    3066              ;* FNAME: _MCAN_selectClockSource       FR SIZE:   4           *
    3067              ;*                                                             *
    3068              ;* FUNCTION ENVIRONMENT                                        *
    3069              ;*                                                             *
    3070              ;* FUNCTION PROPERTIES                                         *
    3071              ;*                            0 Parameter,  0 Auto,  4 SOE     *
    3072              ;***************************************************************
    3073              
    3074              _MCAN_selectClockSource:
    3075              ;* AR2   assigned to _baseAddr
    3076              $C$DW$185       .dwtag  DW_TAG_variable
    3077                      .dwattr $C$DW$185, DW_AT_name("baseAddr")
    3078                      .dwattr $C$DW$185, DW_AT_TI_symbol_name("_baseAddr")
    3079                      .dwattr $C$DW$185, DW_AT_type(*$C$DW$T$281)
    3080                      .dwattr $C$DW$185, DW_AT_location[DW_OP_reg8]
    3081              
    3082              ;* AR1   assigned to _source
    3083              $C$DW$186       .dwtag  DW_TAG_variable
    3084                      .dwattr $C$DW$186, DW_AT_name("source")
    3085                      .dwattr $C$DW$186, DW_AT_TI_symbol_name("_source")
    3086                      .dwattr $C$DW$186, DW_AT_type(*$C$DW$T$52)
    3087                      .dwattr $C$DW$186, DW_AT_location[DW_OP_reg6]
    3088              
    3089                      .dwcfi  cfa_offset, -2
    3090                      .dwcfi  save_reg_to_mem, 26, 0
    3091 00000000 B2BD          MOVL      *SP++,XAR1            ; [CPU_ALU] 
    3092                      .dwcfi  save_reg_to_mem, 7, 2
    3093                      .dwcfi  cfa_offset, -4
    3094 00000001 AABD          MOVL      *SP++,XAR2            ; [CPU_ALU] 
    3095                      .dwcfi  save_reg_to_mem, 9, 4
    3096                      .dwcfi  cfa_offset, -6
    3097 00000002 86A9          MOVL      XAR2,ACC              ; [CPU_ALU] |256| 
    3098 00000003 59A4          MOVZ      AR1,AR4               ; [CPU_ALU] |256| 
    3099                      .dwpsn  file "../device/driverlib/mcan.c",line 260,column 5,is_stmt,isa 0
    3100 00000004 8F05          MOVL      XAR4,#360448          ; [CPU_ARAU] |260| 
         00000005 8000 
    3101 00000006 A8A9          MOVL      ACC,XAR4              ; [CPU_ALU] |260| 
    3102 00000007 0FA2          CMPL      ACC,XAR2              ; [CPU_ALU] |260| 
    3103 00000008 6107          B         $C$L48,EQ             ; [CPU_ALU] |260| 
    3104                      ; branchcc occurs ; [] |260| 
    3105 00000009 FF20          MOV       ACC,#260              ; [CPU_ALU] |260| 
         0000000a 0104 
    3106 0000000b 8F00+         MOVL      XAR4,#$C$FSL1         ; [CPU_ARAU] |260| 
         0000000c 0000 
    3107              $C$DW$187       .dwtag  DW_TAG_TI_branch
    3108                      .dwattr $C$DW$187, DW_AT_low_pc(0x00)
    3109                      .dwattr $C$DW$187, DW_AT_name("___error__")
    3110                      .dwattr $C$DW$187, DW_AT_TI_call
    3111              
    3112 0000000d 7640!         LCR       #___error__           ; [CPU_ALU] |260| 
TMS320C2000 Assembler PC v22.6.1 Wed May 21 09:51:58 2025

Copyright (c) 1996-2018 Texas Instruments Incorporated
C:\Users\Daniel\AppData\Local\Temp\{2C0A4961-1358-435F-9775-EBAA64ED3F39} PAGE   61

         0000000e 0000 
    3113                      ; call occurs [#___error__] ; [] |260| 
    3114 0000000f       $C$L48:    
    3115                      .dwpsn  file "../device/driverlib/mcan.c",line 265,column 5,is_stmt,isa 0
    3116 0000000f 7622          EALLOW    ; [CPU_ALU] |265| 
    3117                      .dwpsn  file "../device/driverlib/mcan.c",line 267,column 5,is_stmt,isa 0
    3118 00000010 8F05          MOVL      XAR4,#360448          ; [CPU_ARAU] |267| 
         00000011 8000 
    3119 00000012 A8A9          MOVL      ACC,XAR4              ; [CPU_ALU] |267| 
    3120 00000013 0FA2          CMPL      ACC,XAR2              ; [CPU_ALU] |267| 
    3121 00000014 600A          B         $C$L49,NEQ            ; [CPU_ALU] |267| 
    3122                      ; branchcc occurs ; [] |267| 
    3123                      .dwpsn  file "../device/driverlib/mcan.c",line 270,column 13,is_stmt,isa 0
    3124 00000015 8F05          MOVL      XAR4,#381450          ; [CPU_ARAU] |270| 
         00000016 D20A 
    3125 00000017 CCC4          AND       AL,*+XAR4[0],#0xf3ff  ; [CPU_ALU] |270| 
         00000018 F3FF 
    3126 00000019 88A9          MOVZ      AR6,AL                ; [CPU_ALU] |270| 
    3127 0000001a 5603          MOV       ACC,AR1 << #10        ; [CPU_ALU] |270| 
         0000001b 0AA1 
    3128 0000001c CAA6          OR        AL,AR6                ; [CPU_ALU] |270| 
    3129 0000001d 96C4          MOV       *+XAR4[0],AL          ; [CPU_ALU] |270| 
    3130 0000001e       $C$L49:    
    3131                      .dwpsn  file "../device/driverlib/mcan.c",line 285,column 5,is_stmt,isa 0
    3132 0000001e 761A          EDIS      ; [CPU_ALU] |285| 
    3133 0000001f 86BE          MOVL      XAR2,*--SP            ; [CPU_ALU] 
    3134                      .dwcfi  cfa_offset, -4
    3135                      .dwcfi  restore_reg, 9
    3136 00000020 8BBE          MOVL      XAR1,*--SP            ; [CPU_ALU] 
    3137                      .dwcfi  cfa_offset, -2
    3138                      .dwcfi  restore_reg, 7
    3139              $C$DW$188       .dwtag  DW_TAG_TI_branch
    3140                      .dwattr $C$DW$188, DW_AT_low_pc(0x00)
    3141                      .dwattr $C$DW$188, DW_AT_TI_return
    3142              
    3143 00000021 0006          LRETR     ; [CPU_ALU] 
    3144                      ; return occurs ; [] 
    3145                      .dwattr $C$DW$182, DW_AT_TI_end_file("../device/driverlib/mcan.c")
    3146                      .dwattr $C$DW$182, DW_AT_TI_end_line(0x11f)
    3147                      .dwattr $C$DW$182, DW_AT_TI_end_column(0x01)
    3148                      .dwendentry
    3149                      .dwendtag $C$DW$182
    3150              
    3151 00000000               .sect   ".text:_MCAN_resetTSCounter"
    3152                      .clink
    3153                      .global _MCAN_resetTSCounter
    3154              
    3155              $C$DW$189       .dwtag  DW_TAG_subprogram
    3156                      .dwattr $C$DW$189, DW_AT_name("MCAN_resetTSCounter")
    3157                      .dwattr $C$DW$189, DW_AT_low_pc(_MCAN_resetTSCounter)
    3158                      .dwattr $C$DW$189, DW_AT_high_pc(0x00)
    3159                      .dwattr $C$DW$189, DW_AT_TI_symbol_name("_MCAN_resetTSCounter")
    3160                      .dwattr $C$DW$189, DW_AT_external
    3161                      .dwattr $C$DW$189, DW_AT_TI_begin_file("../device/driverlib/mcan.c")
    3162                      .dwattr $C$DW$189, DW_AT_TI_begin_line(0x7f1)
TMS320C2000 Assembler PC v22.6.1 Wed May 21 09:51:58 2025

Copyright (c) 1996-2018 Texas Instruments Incorporated
C:\Users\Daniel\AppData\Local\Temp\{2C0A4961-1358-435F-9775-EBAA64ED3F39} PAGE   62

    3163                      .dwattr $C$DW$189, DW_AT_TI_begin_column(0x06)
    3164                      .dwattr $C$DW$189, DW_AT_TI_max_frame_size(-4)
    3165                      .dwpsn  file "../device/driverlib/mcan.c",line 2034,column 1,is_stmt,address _MCAN_resetTSCounter,isa
    3166              
    3167                      .dwfde $C$DW$CIE, _MCAN_resetTSCounter
    3168              $C$DW$190       .dwtag  DW_TAG_formal_parameter
    3169                      .dwattr $C$DW$190, DW_AT_name("baseAddr")
    3170                      .dwattr $C$DW$190, DW_AT_TI_symbol_name("_baseAddr")
    3171                      .dwattr $C$DW$190, DW_AT_type(*$C$DW$T$20)
    3172                      .dwattr $C$DW$190, DW_AT_location[DW_OP_reg0]
    3173              
    3174              
    3175              ;***************************************************************
    3176              ;* FNAME: _MCAN_resetTSCounter          FR SIZE:   2           *
    3177              ;*                                                             *
    3178              ;* FUNCTION ENVIRONMENT                                        *
    3179              ;*                                                             *
    3180              ;* FUNCTION PROPERTIES                                         *
    3181              ;*                            0 Parameter,  0 Auto,  2 SOE     *
    3182              ;***************************************************************
    3183              
    3184              _MCAN_resetTSCounter:
    3185              ;* AR1   assigned to _baseAddr
    3186              $C$DW$191       .dwtag  DW_TAG_variable
    3187                      .dwattr $C$DW$191, DW_AT_name("baseAddr")
    3188                      .dwattr $C$DW$191, DW_AT_TI_symbol_name("_baseAddr")
    3189                      .dwattr $C$DW$191, DW_AT_type(*$C$DW$T$281)
    3190                      .dwattr $C$DW$191, DW_AT_location[DW_OP_reg6]
    3191              
    3192              ;* AL    assigned to _regVal
    3193              $C$DW$192       .dwtag  DW_TAG_variable
    3194                      .dwattr $C$DW$192, DW_AT_name("regVal")
    3195                      .dwattr $C$DW$192, DW_AT_TI_symbol_name("_regVal")
    3196                      .dwattr $C$DW$192, DW_AT_type(*$C$DW$T$20)
    3197                      .dwattr $C$DW$192, DW_AT_location[DW_OP_reg0]
    3198              
    3199                      .dwcfi  cfa_offset, -2
    3200                      .dwcfi  save_reg_to_mem, 26, 0
    3201 00000000 B2BD          MOVL      *SP++,XAR1            ; [CPU_ALU] 
    3202                      .dwcfi  save_reg_to_mem, 7, 2
    3203                      .dwcfi  cfa_offset, -4
    3204 00000001 8BA9          MOVL      XAR1,ACC              ; [CPU_ALU] |2034| 
    3205                      .dwpsn  file "../device/driverlib/mcan.c",line 2038,column 5,is_stmt,isa 0
    3206 00000002 8F05          MOVL      XAR4,#360448          ; [CPU_ARAU] |2038| 
         00000003 8000 
    3207 00000004 A8A9          MOVL      ACC,XAR4              ; [CPU_ALU] |2038| 
    3208 00000005 0FA1          CMPL      ACC,XAR1              ; [CPU_ALU] |2038| 
    3209 00000006 6107          B         $C$L50,EQ             ; [CPU_ALU] |2038| 
    3210                      ; branchcc occurs ; [] |2038| 
    3211 00000007 FF20          MOV       ACC,#2038             ; [CPU_ALU] |2038| 
         00000008 07F6 
    3212 00000009 8F00+         MOVL      XAR4,#$C$FSL1         ; [CPU_ARAU] |2038| 
