TMS320C2000 Assembler PC v22.6.1 Wed May 21 09:51:57 2025

Copyright (c) 1996-2018 Texas Instruments Incorporated
C:\Users\Daniel\AppData\Local\Temp\{6611AAE7-1C01-4726-BC3D-E811A318ED3B} PAGE    1

       1              ;***************************************************************
       2              ;* TMS320C2000 G3 C/C++ Codegen                               PC v22.6.1.LTS *
       3              ;* Date/Time created: Wed May 21 09:51:57 2025                 *
       4              ;***************************************************************
       5                      .compiler_opts --abi=coffabi --cla_support=cla2 --diag_wrap=off --float_support=fpu32 --hll_source=on
       6                      .asg    XAR2, FP
       7              
       8              $C$DW$CU        .dwtag  DW_TAG_compile_unit
       9                      .dwattr $C$DW$CU, DW_AT_name("../device/driverlib/memcfg.c")
      10                      .dwattr $C$DW$CU, DW_AT_producer("TI TMS320C2000 G3 C/C++ Codegen PC v22.6.1.LTS Copyright (c) 1996-2
      11                      .dwattr $C$DW$CU, DW_AT_TI_version(0x01)
      12                      .dwattr $C$DW$CU, DW_AT_comp_dir("C:\Users\Daniel\CodeComposer\UPS_MUCI\CPU1_FLASH")
      13              
      14              $C$DW$1 .dwtag  DW_TAG_subprogram
      15                      .dwattr $C$DW$1, DW_AT_name("__error__")
      16                      .dwattr $C$DW$1, DW_AT_TI_symbol_name("___error__")
      17                      .dwattr $C$DW$1, DW_AT_declaration
      18                      .dwattr $C$DW$1, DW_AT_external
      19              $C$DW$2 .dwtag  DW_TAG_formal_parameter
      20                      .dwattr $C$DW$2, DW_AT_type(*$C$DW$T$27)
      21              
      22              $C$DW$3 .dwtag  DW_TAG_formal_parameter
      23                      .dwattr $C$DW$3, DW_AT_type(*$C$DW$T$29)
      24              
      25                      .dwendtag $C$DW$1
      26              
      27              
      28              $C$DW$4 .dwtag  DW_TAG_subprogram
      29                      .dwattr $C$DW$4, DW_AT_name("__eallow")
      30                      .dwattr $C$DW$4, DW_AT_TI_symbol_name("___eallow")
      31                      .dwattr $C$DW$4, DW_AT_declaration
      32                      .dwattr $C$DW$4, DW_AT_external
      33                      .dwendtag $C$DW$4
      34              
      35              
      36              $C$DW$5 .dwtag  DW_TAG_subprogram
      37                      .dwattr $C$DW$5, DW_AT_name("__edis")
      38                      .dwattr $C$DW$5, DW_AT_TI_symbol_name("___edis")
      39                      .dwattr $C$DW$5, DW_AT_declaration
      40                      .dwattr $C$DW$5, DW_AT_external
      41                      .dwendtag $C$DW$5
      42              
      43              ;       D:\Programs\TI\ccs1281\ccs\tools\compiler\ti-cgt-c2000_22.6.1.LTS\bin\opt2000.exe C:\\Users\\Daniel\\
      44              ;       D:\Programs\TI\ccs1281\ccs\tools\compiler\ti-cgt-c2000_22.6.1.LTS\bin\ac2000.exe -@C:\\Users\\Daniel\
      45 00000000               .sect   ".text:_MemCfg_unlockTestConfig"
      46                      .clink
      47                      .global _MemCfg_unlockTestConfig
      48              
      49              $C$DW$6 .dwtag  DW_TAG_subprogram
      50                      .dwattr $C$DW$6, DW_AT_name("MemCfg_unlockTestConfig")
      51                      .dwattr $C$DW$6, DW_AT_low_pc(_MemCfg_unlockTestConfig)
      52                      .dwattr $C$DW$6, DW_AT_high_pc(0x00)
      53                      .dwattr $C$DW$6, DW_AT_TI_symbol_name("_MemCfg_unlockTestConfig")
      54                      .dwattr $C$DW$6, DW_AT_external
      55                      .dwattr $C$DW$6, DW_AT_TI_begin_file("../device/driverlib/memcfg.c")
TMS320C2000 Assembler PC v22.6.1 Wed May 21 09:51:57 2025

Copyright (c) 1996-2018 Texas Instruments Incorporated
C:\Users\Daniel\AppData\Local\Temp\{6611AAE7-1C01-4726-BC3D-E811A318ED3B} PAGE    2

      56                      .dwattr $C$DW$6, DW_AT_TI_begin_line(0x1c8)
      57                      .dwattr $C$DW$6, DW_AT_TI_begin_column(0x01)
      58                      .dwattr $C$DW$6, DW_AT_TI_max_frame_size(-4)
      59                      .dwpsn  file "../device/driverlib/memcfg.c",line 457,column 1,is_stmt,address _MemCfg_unlockTestConfi
      60              
      61                      .dwfde $C$DW$CIE, _MemCfg_unlockTestConfig
      62              $C$DW$7 .dwtag  DW_TAG_formal_parameter
      63                      .dwattr $C$DW$7, DW_AT_name("memSections")
      64                      .dwattr $C$DW$7, DW_AT_TI_symbol_name("_memSections")
      65                      .dwattr $C$DW$7, DW_AT_type(*$C$DW$T$29)
      66                      .dwattr $C$DW$7, DW_AT_location[DW_OP_reg0]
      67              
      68              
      69              ;***************************************************************
      70              ;* FNAME: _MemCfg_unlockTestConfig      FR SIZE:   2           *
      71              ;*                                                             *
      72              ;* FUNCTION ENVIRONMENT                                        *
      73              ;*                                                             *
      74              ;* FUNCTION PROPERTIES                                         *
      75              ;*                            0 Parameter,  0 Auto,  2 SOE     *
      76              ;***************************************************************
      77              
      78              _MemCfg_unlockTestConfig:
      79              ;* AR1   assigned to $O$C1
      80              ;* AR6   assigned to $O$K7
      81              ;* AR1   assigned to _memSections
      82              $C$DW$8 .dwtag  DW_TAG_variable
      83                      .dwattr $C$DW$8, DW_AT_name("memSections")
      84                      .dwattr $C$DW$8, DW_AT_TI_symbol_name("_memSections")
      85                      .dwattr $C$DW$8, DW_AT_type(*$C$DW$T$48)
      86                      .dwattr $C$DW$8, DW_AT_location[DW_OP_reg6]
      87              
      88                      .dwcfi  cfa_offset, -2
      89                      .dwcfi  save_reg_to_mem, 26, 0
      90 00000000 B2BD          MOVL      *SP++,XAR1            ; [CPU_ALU] 
      91                      .dwcfi  save_reg_to_mem, 7, 2
      92                      .dwcfi  cfa_offset, -4
      93 00000001 8BA9          MOVL      XAR1,ACC              ; [CPU_ALU] |457| 
      94                      .dwpsn  file "../device/driverlib/memcfg.c",line 461,column 5,is_stmt,isa 0
      95 00000002 9000          ANDB      AL,#0                 ; [CPU_ALU] |461| 
      96 00000003 18A8          AND       AH,#65024             ; [CPU_ALU] |461| 
         00000004 FE00 
      97 00000005 FF58          TEST      ACC                   ; [CPU_ALU] |461| 
      98 00000006 611C          B         $C$L1,EQ              ; [CPU_ALU] |461| 
      99                      ; branchcc occurs ; [] |461| 
     100 00000007 B2A9          MOVL      ACC,XAR1              ; [CPU_ALU] |461| 
     101 00000008 9000          ANDB      AL,#0                 ; [CPU_ALU] |461| 
     102 00000009 18A8          AND       AH,#65280             ; [CPU_ALU] |461| 
         0000000a FF00 
     103 0000000b 1EA6          MOVL      XAR6,ACC              ; [CPU_ALU] |461| 
     104 0000000c FF2F          MOV       ACC,#1024 << 15       ; [CPU_ALU] |461| 
         0000000d 0400 
     105 0000000e 0FA6          CMPL      ACC,XAR6              ; [CPU_ALU] |461| 
     106 0000000f 6113          B         $C$L1,EQ              ; [CPU_ALU] |461| 
     107                      ; branchcc occurs ; [] |461| 
TMS320C2000 Assembler PC v22.6.1 Wed May 21 09:51:57 2025

Copyright (c) 1996-2018 Texas Instruments Incorporated
C:\Users\Daniel\AppData\Local\Temp\{6611AAE7-1C01-4726-BC3D-E811A318ED3B} PAGE    3

     108 00000010 FF2F          MOV       ACC,#1536 << 15       ; [CPU_ALU] |461| 
         00000011 0600 
     109 00000012 0FA6          CMPL      ACC,XAR6              ; [CPU_ALU] |461| 
     110 00000013 610F          B         $C$L1,EQ              ; [CPU_ALU] |461| 
     111                      ; branchcc occurs ; [] |461| 
     112 00000014 FF2F          MOV       ACC,#2048 << 15       ; [CPU_ALU] |461| 
         00000015 0800 
     113 00000016 0FA6          CMPL      ACC,XAR6              ; [CPU_ALU] |461| 
     114 00000017 610B          B         $C$L1,EQ              ; [CPU_ALU] |461| 
     115                      ; branchcc occurs ; [] |461| 
     116 00000018 0200          MOVB      ACC,#0                ; [CPU_ALU] |461| 
     117 00000019 1901          SUBB      ACC,#1                ; [CPU_ALU] |461| 
     118 0000001a 0FA1          CMPL      ACC,XAR1              ; [CPU_ALU] |461| 
     119 0000001b 6107          B         $C$L1,EQ              ; [CPU_ALU] |461| 
     120                      ; branchcc occurs ; [] |461| 
     121 0000001c FF20          MOV       ACC,#466              ; [CPU_ALU] |461| 
         0000001d 01D2 
     122 0000001e 8F00+         MOVL      XAR4,#$C$FSL1         ; [CPU_ARAU] |461| 
         0000001f 0000 
     123              $C$DW$9 .dwtag  DW_TAG_TI_branch
     124                      .dwattr $C$DW$9, DW_AT_low_pc(0x00)
     125                      .dwattr $C$DW$9, DW_AT_name("___error__")
     126                      .dwattr $C$DW$9, DW_AT_TI_call
     127              
     128 00000020 7640!         LCR       #___error__           ; [CPU_ALU] |461| 
         00000021 0000 
     129                      ; call occurs [#___error__] ; [] |461| 
     130 00000022       $C$L1:    
     131                      .dwpsn  file "../device/driverlib/memcfg.c",line 473,column 5,is_stmt,isa 0
     132 00000022 7622          EALLOW    ; [CPU_ALU] |473| 
     133                      .dwpsn  file "../device/driverlib/memcfg.c",line 475,column 5,is_stmt,isa 0
     134 00000023 B2A9          MOVL      ACC,XAR1              ; [CPU_ALU] |475| 
     135 00000024 9000          ANDB      AL,#0                 ; [CPU_ALU] |475| 
     136 00000025 18A8          AND       AH,#65280             ; [CPU_ALU] |475| 
         00000026 FF00 
     137 00000027 1EA6          MOVL      XAR6,ACC              ; [CPU_ALU] |475| 
     138 00000028 FF2F          MOV       ACC,#1024 << 15       ; [CPU_ALU] |475| 
         00000029 0400 
     139 0000002a 0FA6          CMPL      ACC,XAR6              ; [CPU_ALU] |475| 
     140 0000002b 640F          B         $C$L2,LT              ; [CPU_ALU] |475| 
     141                      ; branchcc occurs ; [] |475| 
     142 0000002c 0FA6          CMPL      ACC,XAR6              ; [CPU_ALU] |475| 
     143 0000002d 6140          B         $C$L6,EQ              ; [CPU_ALU] |475| 
     144                      ; branchcc occurs ; [] |475| 
     145 0000002e 3B01          SETC      SXM                   ; [CPU_ALU] 
     146 0000002f FF2F          MOV       ACC,#-512 << 15       ; [CPU_ALU] |475| 
         00000030 FE00 
     147 00000031 0FA6          CMPL      ACC,XAR6              ; [CPU_ALU] |475| 
     148 00000032 6111          B         $C$L3,EQ              ; [CPU_ALU] |475| 
     149                      ; branchcc occurs ; [] |475| 
     150 00000033 06A6          MOVL      ACC,XAR6              ; [CPU_ALU] 
     151 00000034 613F          B         $C$L8,EQ              ; [CPU_ALU] |475| 
     152                      ; branchcc occurs ; [] |475| 
     153 00000035 FF2F          MOV       ACC,#512 << 15        ; [CPU_ALU] |475| 
         00000036 0200 
TMS320C2000 Assembler PC v22.6.1 Wed May 21 09:51:57 2025

Copyright (c) 1996-2018 Texas Instruments Incorporated
C:\Users\Daniel\AppData\Local\Temp\{6611AAE7-1C01-4726-BC3D-E811A318ED3B} PAGE    4

     154 00000037 0FA6          CMPL      ACC,XAR6              ; [CPU_ALU] |475| 
     155 00000038 6138          B         $C$L7,EQ              ; [CPU_ALU] |475| 
     156                      ; branchcc occurs ; [] |475| 
     157 00000039 6F47          B         $C$L11,UNC            ; [CPU_ALU] |475| 
     158                      ; branch occurs ; [] |475| 
     159 0000003a       $C$L2:    
     160 0000003a FF2F          MOV       ACC,#1536 << 15       ; [CPU_ALU] |475| 
         0000003b 0600 
     161 0000003c 0FA6          CMPL      ACC,XAR6              ; [CPU_ALU] |475| 
     162 0000003d 612D          B         $C$L5,EQ              ; [CPU_ALU] |475| 
     163                      ; branchcc occurs ; [] |475| 
     164 0000003e FF2F          MOV       ACC,#2048 << 15       ; [CPU_ALU] |475| 
         0000003f 0800 
     165 00000040 0FA6          CMPL      ACC,XAR6              ; [CPU_ALU] |475| 
     166 00000041 6126          B         $C$L4,EQ              ; [CPU_ALU] |475| 
     167                      ; branchcc occurs ; [] |475| 
     168 00000042 6F3E          B         $C$L11,UNC            ; [CPU_ALU] |475| 
     169                      ; branch occurs ; [] |475| 
     170 00000043       $C$L3:    
     171                      .dwpsn  file "../device/driverlib/memcfg.c",line 516,column 13,is_stmt,isa 0
     172 00000043 B2A9          MOVL      ACC,XAR1              ; [CPU_ALU] |516| 
     173 00000044 8F05          MOVL      XAR4,#390166          ; [CPU_ARAU] |516| 
         00000045 F416 
     174 00000046 F17F          XOR       AH,#127               ; [CPU_ALU] |516| 
     175 00000047 1CA9          XOR       AL,#65535             ; [CPU_ALU] |516| 
         00000048 FFFF 
     176 00000049 1AA8          OR        AH,#65445             ; [CPU_ALU] |516| 
         0000004a FFA5 
     177 0000004b 8BA9          MOVL      XAR1,ACC              ; [CPU_ALU] |516| 
     178 0000004c CAC4          OR        AL,*+XAR4[0]          ; [CPU_ALU] |516| 
     179 0000004d CBCC          OR        AH,*+XAR4[1]          ; [CPU_ALU] |516| 
     180 0000004e 1EC4          MOVL      *+XAR4[0],ACC         ; [CPU_ALU] |516| 
     181                      .dwpsn  file "../device/driverlib/memcfg.c",line 519,column 13,is_stmt,isa 0
     182 0000004f 8F05          MOVL      XAR4,#390198          ; [CPU_ARAU] |519| 
         00000050 F436 
     183 00000051 B2A9          MOVL      ACC,XAR1              ; [CPU_ALU] |519| 
     184 00000052 CAC4          OR        AL,*+XAR4[0]          ; [CPU_ALU] |519| 
     185 00000053 CBCC          OR        AH,*+XAR4[1]          ; [CPU_ALU] |519| 
     186 00000054 1EC4          MOVL      *+XAR4[0],ACC         ; [CPU_ALU] |519| 
     187                      .dwpsn  file "../device/driverlib/memcfg.c",line 522,column 13,is_stmt,isa 0
     188 00000055 8F05          MOVL      XAR4,#390230          ; [CPU_ARAU] |522| 
         00000056 F456 
     189 00000057 B2A9          MOVL      ACC,XAR1              ; [CPU_ALU] |522| 
     190 00000058 CAC4          OR        AL,*+XAR4[0]          ; [CPU_ALU] |522| 
     191 00000059 CBCC          OR        AH,*+XAR4[1]          ; [CPU_ALU] |522| 
     192 0000005a 1EC4          MOVL      *+XAR4[0],ACC         ; [CPU_ALU] |522| 
     193                      .dwpsn  file "../device/driverlib/memcfg.c",line 525,column 13,is_stmt,isa 0
     194 0000005b 8F05          MOVL      XAR4,#390262          ; [CPU_ARAU] |525| 
         0000005c F476 
     195 0000005d B2A9          MOVL      ACC,XAR1              ; [CPU_ALU] |525| 
     196 0000005e CAC4          OR        AL,*+XAR4[0]          ; [CPU_ALU] |525| 
     197 0000005f CBCC          OR        AH,*+XAR4[1]          ; [CPU_ALU] |525| 
     198 00000060 1EC4          MOVL      *+XAR4[0],ACC         ; [CPU_ALU] |525| 
     199                      .dwpsn  file "../device/driverlib/memcfg.c",line 528,column 13,is_stmt,isa 0
     200 00000061 8F05          MOVL      XAR4,#390304          ; [CPU_ARAU] |528| 
TMS320C2000 Assembler PC v22.6.1 Wed May 21 09:51:57 2025

Copyright (c) 1996-2018 Texas Instruments Incorporated
C:\Users\Daniel\AppData\Local\Temp\{6611AAE7-1C01-4726-BC3D-E811A318ED3B} PAGE    5

         00000062 F4A0 
     201 00000063 B2A9          MOVL      ACC,XAR1              ; [CPU_ALU] |528| 
     202 00000064 CAC4          OR        AL,*+XAR4[0]          ; [CPU_ALU] |528| 
     203 00000065 CBCC          OR        AH,*+XAR4[1]          ; [CPU_ALU] |528| 
     204                      .dwpsn  file "../device/driverlib/memcfg.c",line 531,column 13,is_stmt,isa 0
     205 00000066 6F19          B         $C$L10,UNC            ; [CPU_ALU] |531| 
     206                      ; branch occurs ; [] |531| 
     207 00000067       $C$L4:    
     208                      .dwpsn  file "../device/driverlib/memcfg.c",line 506,column 13,is_stmt,isa 0
     209 00000067 8F05          MOVL      XAR4,#390304          ; [CPU_ARAU] |506| 
         00000068 F4A0 
     210                      .dwpsn  file "../device/driverlib/memcfg.c",line 509,column 13,is_stmt,isa 0
     211 00000069 6F0C          B         $C$L9,UNC             ; [CPU_ALU] |509| 
     212                      ; branch occurs ; [] |509| 
     213 0000006a       $C$L5:    
     214                      .dwpsn  file "../device/driverlib/memcfg.c",line 499,column 13,is_stmt,isa 0
     215 0000006a 8F05          MOVL      XAR4,#390262          ; [CPU_ARAU] |499| 
         0000006b F476 
     216                      .dwpsn  file "../device/driverlib/memcfg.c",line 503,column 13,is_stmt,isa 0
     217 0000006c 6F09          B         $C$L9,UNC             ; [CPU_ALU] |503| 
     218                      ; branch occurs ; [] |503| 
     219 0000006d       $C$L6:    
     220                      .dwpsn  file "../device/driverlib/memcfg.c",line 492,column 13,is_stmt,isa 0
     221 0000006d 8F05          MOVL      XAR4,#390230          ; [CPU_ARAU] |492| 
         0000006e F456 
     222                      .dwpsn  file "../device/driverlib/memcfg.c",line 496,column 13,is_stmt,isa 0
     223 0000006f 6F06          B         $C$L9,UNC             ; [CPU_ALU] |496| 
     224                      ; branch occurs ; [] |496| 
     225 00000070       $C$L7:    
     226                      .dwpsn  file "../device/driverlib/memcfg.c",line 485,column 13,is_stmt,isa 0
     227 00000070 8F05          MOVL      XAR4,#390198          ; [CPU_ARAU] |485| 
         00000071 F436 
     228                      .dwpsn  file "../device/driverlib/memcfg.c",line 489,column 13,is_stmt,isa 0
     229 00000072 6F03          B         $C$L9,UNC             ; [CPU_ALU] |489| 
     230                      ; branch occurs ; [] |489| 
     231 00000073       $C$L8:    
     232                      .dwpsn  file "../device/driverlib/memcfg.c",line 478,column 13,is_stmt,isa 0
     233 00000073 8F05          MOVL      XAR4,#390166          ; [CPU_ARAU] |478| 
         00000074 F416 
     234 00000075       $C$L9:    
     235 00000075 B2A9          MOVL      ACC,XAR1              ; [CPU_ALU] |478| 
     236 00000076 F17F          XOR       AH,#127               ; [CPU_ALU] |478| 
     237 00000077 1CA9          XOR       AL,#65535             ; [CPU_ALU] |478| 
         00000078 FFFF 
     238 00000079 1AA8          OR        AH,#32256             ; [CPU_ALU] |478| 
         0000007a 7E00 
     239 0000007b CEC4          AND       AL,*+XAR4[0]          ; [CPU_ALU] |478| 
     240 0000007c CFCC          AND       AH,*+XAR4[1]          ; [CPU_ALU] |478| 
     241 0000007d 1AA8          OR        AH,#42405             ; [CPU_ALU] |478| 
         0000007e A5A5 
     242 0000007f       $C$L10:    
     243 0000007f 1EC4          MOVL      *+XAR4[0],ACC         ; [CPU_ALU] |478| 
     244 00000080       $C$L11:    
     245                      .dwpsn  file "../device/driverlib/memcfg.c",line 541,column 5,is_stmt,isa 0
     246 00000080 761A          EDIS      ; [CPU_ALU] |541| 
TMS320C2000 Assembler PC v22.6.1 Wed May 21 09:51:57 2025

Copyright (c) 1996-2018 Texas Instruments Incorporated
C:\Users\Daniel\AppData\Local\Temp\{6611AAE7-1C01-4726-BC3D-E811A318ED3B} PAGE    6

     247 00000081 8BBE          MOVL      XAR1,*--SP            ; [CPU_ALU] 
     248                      .dwcfi  cfa_offset, -2
     249                      .dwcfi  restore_reg, 7
     250              $C$DW$10        .dwtag  DW_TAG_TI_branch
     251                      .dwattr $C$DW$10, DW_AT_low_pc(0x00)
     252                      .dwattr $C$DW$10, DW_AT_TI_return
     253              
     254 00000082 0006          LRETR     ; [CPU_ALU] 
     255                      ; return occurs ; [] 
     256                      .dwattr $C$DW$6, DW_AT_TI_end_file("../device/driverlib/memcfg.c")
     257                      .dwattr $C$DW$6, DW_AT_TI_end_line(0x21f)
     258                      .dwattr $C$DW$6, DW_AT_TI_end_column(0x01)
     259                      .dwendentry
     260                      .dwendtag $C$DW$6
     261              
     262 00000000               .sect   ".text:_MemCfg_unlockConfig"
     263                      .clink
     264                      .global _MemCfg_unlockConfig
     265              
     266              $C$DW$11        .dwtag  DW_TAG_subprogram
     267                      .dwattr $C$DW$11, DW_AT_name("MemCfg_unlockConfig")
     268                      .dwattr $C$DW$11, DW_AT_low_pc(_MemCfg_unlockConfig)
     269                      .dwattr $C$DW$11, DW_AT_high_pc(0x00)
     270                      .dwattr $C$DW$11, DW_AT_TI_symbol_name("_MemCfg_unlockConfig")
     271                      .dwattr $C$DW$11, DW_AT_external
     272                      .dwattr $C$DW$11, DW_AT_TI_begin_file("../device/driverlib/memcfg.c")
     273                      .dwattr $C$DW$11, DW_AT_TI_begin_line(0x77)
     274                      .dwattr $C$DW$11, DW_AT_TI_begin_column(0x01)
     275                      .dwattr $C$DW$11, DW_AT_TI_max_frame_size(-4)
     276                      .dwpsn  file "../device/driverlib/memcfg.c",line 120,column 1,is_stmt,address _MemCfg_unlockConfig,is
     277              
     278                      .dwfde $C$DW$CIE, _MemCfg_unlockConfig
     279              $C$DW$12        .dwtag  DW_TAG_formal_parameter
     280                      .dwattr $C$DW$12, DW_AT_name("memSections")
     281                      .dwattr $C$DW$12, DW_AT_TI_symbol_name("_memSections")
     282                      .dwattr $C$DW$12, DW_AT_type(*$C$DW$T$29)
     283                      .dwattr $C$DW$12, DW_AT_location[DW_OP_reg0]
     284              
     285              
     286              ;***************************************************************
     287              ;* FNAME: _MemCfg_unlockConfig          FR SIZE:   2           *
     288              ;*                                                             *
     289              ;* FUNCTION ENVIRONMENT                                        *
     290              ;*                                                             *
     291              ;* FUNCTION PROPERTIES                                         *
     292              ;*                            0 Parameter,  0 Auto,  2 SOE     *
     293              ;***************************************************************
     294              
     295              _MemCfg_unlockConfig:
     296              ;* AR6   assigned to $O$K7
     297              ;* AR1   assigned to _memSections
     298              $C$DW$13        .dwtag  DW_TAG_variable
     299                      .dwattr $C$DW$13, DW_AT_name("memSections")
     300                      .dwattr $C$DW$13, DW_AT_TI_symbol_name("_memSections")
     301                      .dwattr $C$DW$13, DW_AT_type(*$C$DW$T$48)
TMS320C2000 Assembler PC v22.6.1 Wed May 21 09:51:57 2025

Copyright (c) 1996-2018 Texas Instruments Incorporated
C:\Users\Daniel\AppData\Local\Temp\{6611AAE7-1C01-4726-BC3D-E811A318ED3B} PAGE    7

     302                      .dwattr $C$DW$13, DW_AT_location[DW_OP_reg6]
     303              
     304                      .dwcfi  cfa_offset, -2
     305                      .dwcfi  save_reg_to_mem, 26, 0
     306 00000000 B2BD          MOVL      *SP++,XAR1            ; [CPU_ALU] 
     307                      .dwcfi  save_reg_to_mem, 7, 2
     308                      .dwcfi  cfa_offset, -4
     309 00000001 8BA9          MOVL      XAR1,ACC              ; [CPU_ALU] |120| 
     310                      .dwpsn  file "../device/driverlib/memcfg.c",line 124,column 5,is_stmt,isa 0
     311 00000002 9000          ANDB      AL,#0                 ; [CPU_ALU] |124| 
     312 00000003 18A8          AND       AH,#65024             ; [CPU_ALU] |124| 
         00000004 FE00 
     313 00000005 FF58          TEST      ACC                   ; [CPU_ALU] |124| 
     314 00000006 6117          B         $C$L12,EQ             ; [CPU_ALU] |124| 
     315                      ; branchcc occurs ; [] |124| 
     316 00000007 B2A9          MOVL      ACC,XAR1              ; [CPU_ALU] |124| 
     317 00000008 9000          ANDB      AL,#0                 ; [CPU_ALU] |124| 
     318 00000009 18A8          AND       AH,#65280             ; [CPU_ALU] |124| 
         0000000a FF00 
     319 0000000b 1EA6          MOVL      XAR6,ACC              ; [CPU_ALU] |124| 
     320 0000000c FF2F          MOV       ACC,#1024 << 15       ; [CPU_ALU] |124| 
         0000000d 0400 
     321 0000000e 0FA6          CMPL      ACC,XAR6              ; [CPU_ALU] |124| 
     322 0000000f 610E          B         $C$L12,EQ             ; [CPU_ALU] |124| 
     323                      ; branchcc occurs ; [] |124| 
     324 00000010 FF2F          MOV       ACC,#1536 << 15       ; [CPU_ALU] |124| 
         00000011 0600 
     325 00000012 0FA6          CMPL      ACC,XAR6              ; [CPU_ALU] |124| 
     326 00000013 610A          B         $C$L12,EQ             ; [CPU_ALU] |124| 
     327                      ; branchcc occurs ; [] |124| 
     328 00000014 0200          MOVB      ACC,#0                ; [CPU_ALU] |124| 
     329 00000015 1901          SUBB      ACC,#1                ; [CPU_ALU] |124| 
     330 00000016 0FA1          CMPL      ACC,XAR1              ; [CPU_ALU] |124| 
     331 00000017 6106          B         $C$L12,EQ             ; [CPU_ALU] |124| 
     332                      ; branchcc occurs ; [] |124| 
     333 00000018 8F00+         MOVL      XAR4,#$C$FSL1         ; [CPU_ARAU] |124| 
         00000019 0000 
     334 0000001a 0280          MOVB      ACC,#128              ; [CPU_ALU] |124| 
     335              $C$DW$14        .dwtag  DW_TAG_TI_branch
     336                      .dwattr $C$DW$14, DW_AT_low_pc(0x00)
     337                      .dwattr $C$DW$14, DW_AT_name("___error__")
     338                      .dwattr $C$DW$14, DW_AT_TI_call
     339              
     340 0000001b 7640!         LCR       #___error__           ; [CPU_ALU] |124| 
         0000001c 0000 
     341                      ; call occurs [#___error__] ; [] |124| 
     342 0000001d       $C$L12:    
     343                      .dwpsn  file "../device/driverlib/memcfg.c",line 134,column 5,is_stmt,isa 0
     344 0000001d 7622          EALLOW    ; [CPU_ALU] |134| 
     345                      .dwpsn  file "../device/driverlib/memcfg.c",line 136,column 5,is_stmt,isa 0
     346 0000001e B2A9          MOVL      ACC,XAR1              ; [CPU_ALU] |136| 
     347 0000001f 9000          ANDB      AL,#0                 ; [CPU_ALU] |136| 
     348 00000020 18A8          AND       AH,#65280             ; [CPU_ALU] |136| 
         00000021 FF00 
     349 00000022 1EA6          MOVL      XAR6,ACC              ; [CPU_ALU] |136| 
TMS320C2000 Assembler PC v22.6.1 Wed May 21 09:51:57 2025

Copyright (c) 1996-2018 Texas Instruments Incorporated
C:\Users\Daniel\AppData\Local\Temp\{6611AAE7-1C01-4726-BC3D-E811A318ED3B} PAGE    8

     350 00000023 FF2F          MOV       ACC,#512 << 15        ; [CPU_ALU] |136| 
         00000024 0200 
     351 00000025 0FA6          CMPL      ACC,XAR6              ; [CPU_ALU] |136| 
     352 00000026 640B          B         $C$L13,LT             ; [CPU_ALU] |136| 
     353                      ; branchcc occurs ; [] |136| 
     354 00000027 0FA6          CMPL      ACC,XAR6              ; [CPU_ALU] |136| 
     355 00000028 6131          B         $C$L17,EQ             ; [CPU_ALU] |136| 
     356                      ; branchcc occurs ; [] |136| 
     357 00000029 3B01          SETC      SXM                   ; [CPU_ALU] 
     358 0000002a FF2F          MOV       ACC,#-512 << 15       ; [CPU_ALU] |136| 
         0000002b FE00 
     359 0000002c 0FA6          CMPL      ACC,XAR6              ; [CPU_ALU] |136| 
     360 0000002d 610D          B         $C$L14,EQ             ; [CPU_ALU] |136| 
     361                      ; branchcc occurs ; [] |136| 
     362 0000002e 06A6          MOVL      ACC,XAR6              ; [CPU_ALU] 
     363 0000002f 612D          B         $C$L18,EQ             ; [CPU_ALU] |136| 
     364                      ; branchcc occurs ; [] |136| 
     365 00000030 6F36          B         $C$L20,UNC            ; [CPU_ALU] |136| 
     366                      ; branch occurs ; [] |136| 
     367 00000031       $C$L13:    
     368 00000031 FF2F          MOV       ACC,#1024 << 15       ; [CPU_ALU] |136| 
         00000032 0400 
     369 00000033 0FA6          CMPL      ACC,XAR6              ; [CPU_ALU] |136| 
     370 00000034 6122          B         $C$L16,EQ             ; [CPU_ALU] |136| 
     371                      ; branchcc occurs ; [] |136| 
     372 00000035 FF2F          MOV       ACC,#1536 << 15       ; [CPU_ALU] |136| 
         00000036 0600 
     373 00000037 0FA6          CMPL      ACC,XAR6              ; [CPU_ALU] |136| 
     374 00000038 611B          B         $C$L15,EQ             ; [CPU_ALU] |136| 
     375                      ; branchcc occurs ; [] |136| 
     376 00000039 6F2D          B         $C$L20,UNC            ; [CPU_ALU] |136| 
     377                      ; branch occurs ; [] |136| 
     378 0000003a       $C$L14:    
     379                      .dwpsn  file "../device/driverlib/memcfg.c",line 162,column 13,is_stmt,isa 0
     380 0000003a 8F45          MOVL      XAR5,#390144          ; [CPU_ARAU] |162| 
         0000003b F400 
     381                      .dwpsn  file "../device/driverlib/memcfg.c",line 164,column 13,is_stmt,isa 0
     382 0000003c 8F05          MOVL      XAR4,#390176          ; [CPU_ARAU] |164| 
         0000003d F420 
     383                      .dwpsn  file "../device/driverlib/memcfg.c",line 162,column 13,is_stmt,isa 0
     384 0000003e 06C5          MOVL      ACC,*+XAR5[0]         ; [CPU_ALU] |162| 
     385 0000003f 18A9          AND       AL,#65532             ; [CPU_ALU] |162| 
         00000040 FFFC 
     386 00000041 1EC5          MOVL      *+XAR5[0],ACC         ; [CPU_ALU] |162| 
     387                      .dwpsn  file "../device/driverlib/memcfg.c",line 166,column 13,is_stmt,isa 0
     388 00000042 8F45          MOVL      XAR5,#390208          ; [CPU_ARAU] |166| 
         00000043 F440 
     389                      .dwpsn  file "../device/driverlib/memcfg.c",line 164,column 13,is_stmt,isa 0
     390 00000044 06C4          MOVL      ACC,*+XAR4[0]         ; [CPU_ALU] |164| 
     391 00000045 18A9          AND       AL,#65280             ; [CPU_ALU] |164| 
         00000046 FF00 
     392 00000047 1EC4          MOVL      *+XAR4[0],ACC         ; [CPU_ALU] |164| 
     393                      .dwpsn  file "../device/driverlib/memcfg.c",line 168,column 13,is_stmt,isa 0
     394 00000048 8F05          MOVL      XAR4,#390240          ; [CPU_ARAU] |168| 
         00000049 F460 
TMS320C2000 Assembler PC v22.6.1 Wed May 21 09:51:57 2025

Copyright (c) 1996-2018 Texas Instruments Incorporated
C:\Users\Daniel\AppData\Local\Temp\{6611AAE7-1C01-4726-BC3D-E811A318ED3B} PAGE    9

     395                      .dwpsn  file "../device/driverlib/memcfg.c",line 166,column 13,is_stmt,isa 0
     396 0000004a 06C5          MOVL      ACC,*+XAR5[0]         ; [CPU_ALU] |166| 
     397 0000004b 18A9          AND       AL,#65520             ; [CPU_ALU] |166| 
         0000004c FFF0 
     398 0000004d 1EC5          MOVL      *+XAR5[0],ACC         ; [CPU_ALU] |166| 
     399                      .dwpsn  file "../device/driverlib/memcfg.c",line 168,column 13,is_stmt,isa 0
     400 0000004e 06C4          MOVL      ACC,*+XAR4[0]         ; [CPU_ALU] |168| 
     401 0000004f 18A9          AND       AL,#65529             ; [CPU_ALU] |168| 
         00000050 FFF9 
     402 00000051 1EC4          MOVL      *+XAR4[0],ACC         ; [CPU_ALU] |168| 
     403                      .dwpsn  file "../device/driverlib/memcfg.c",line 170,column 13,is_stmt,isa 0
     404 00000052 6F14          B         $C$L20,UNC            ; [CPU_ALU] |170| 
     405                      ; branch occurs ; [] |170| 
     406 00000053       $C$L15:    
     407                      .dwpsn  file "../device/driverlib/memcfg.c",line 154,column 13,is_stmt,isa 0
     408 00000053 8F05          MOVL      XAR4,#390240          ; [CPU_ARAU] |154| 
         00000054 F460 
     409                      .dwpsn  file "../device/driverlib/memcfg.c",line 156,column 13,is_stmt,isa 0
     410 00000055 6F09          B         $C$L19,UNC            ; [CPU_ALU] |156| 
     411                      ; branch occurs ; [] |156| 
     412 00000056       $C$L16:    
     413                      .dwpsn  file "../device/driverlib/memcfg.c",line 149,column 13,is_stmt,isa 0
     414 00000056 8F05          MOVL      XAR4,#390208          ; [CPU_ARAU] |149| 
         00000057 F440 
     415                      .dwpsn  file "../device/driverlib/memcfg.c",line 151,column 13,is_stmt,isa 0
     416 00000058 6F06          B         $C$L19,UNC            ; [CPU_ALU] |151| 
     417                      ; branch occurs ; [] |151| 
     418 00000059       $C$L17:    
     419                      .dwpsn  file "../device/driverlib/memcfg.c",line 144,column 13,is_stmt,isa 0
     420 00000059 8F05          MOVL      XAR4,#390176          ; [CPU_ARAU] |144| 
         0000005a F420 
     421                      .dwpsn  file "../device/driverlib/memcfg.c",line 146,column 13,is_stmt,isa 0
     422 0000005b 6F03          B         $C$L19,UNC            ; [CPU_ALU] |146| 
     423                      ; branch occurs ; [] |146| 
     424 0000005c       $C$L18:    
     425                      .dwpsn  file "../device/driverlib/memcfg.c",line 139,column 13,is_stmt,isa 0
     426 0000005c 8F05          MOVL      XAR4,#390144          ; [CPU_ARAU] |139| 
         0000005d F400 
     427 0000005e       $C$L19:    
     428 0000005e B2A9          MOVL      ACC,XAR1              ; [CPU_ALU] |139| 
     429 0000005f 1CA9          XOR       AL,#65535             ; [CPU_ALU] |139| 
         00000060 FFFF 
     430 00000061 F1FF          XOR       AH,#255               ; [CPU_ALU] |139| 
     431 00000062 C0C4          AND       *+XAR4[0],AL          ; [CPU_FPU] |139| 
     432 00000063 1AA8          OR        AH,#65280             ; [CPU_ALU] |139| 
         00000064 FF00 
     433 00000065 C1CC          AND       *+XAR4[1],AH          ; [CPU_ALU] |139| 
     434 00000066       $C$L20:    
     435                      .dwpsn  file "../device/driverlib/memcfg.c",line 180,column 5,is_stmt,isa 0
     436 00000066 761A          EDIS      ; [CPU_ALU] |180| 
     437 00000067 8BBE          MOVL      XAR1,*--SP            ; [CPU_ALU] 
     438                      .dwcfi  cfa_offset, -2
     439                      .dwcfi  restore_reg, 7
     440              $C$DW$15        .dwtag  DW_TAG_TI_branch
     441                      .dwattr $C$DW$15, DW_AT_low_pc(0x00)
TMS320C2000 Assembler PC v22.6.1 Wed May 21 09:51:57 2025

Copyright (c) 1996-2018 Texas Instruments Incorporated
C:\Users\Daniel\AppData\Local\Temp\{6611AAE7-1C01-4726-BC3D-E811A318ED3B} PAGE   10

     442                      .dwattr $C$DW$15, DW_AT_TI_return
     443              
     444 00000068 0006          LRETR     ; [CPU_ALU] 
     445                      ; return occurs ; [] 
     446                      .dwattr $C$DW$11, DW_AT_TI_end_file("../device/driverlib/memcfg.c")
     447                      .dwattr $C$DW$11, DW_AT_TI_end_line(0xb5)
     448                      .dwattr $C$DW$11, DW_AT_TI_end_column(0x01)
     449                      .dwendentry
     450                      .dwendtag $C$DW$11
     451              
     452 00000000               .sect   ".text:_MemCfg_setTestMode"
     453                      .clink
     454                      .global _MemCfg_setTestMode
     455              
     456              $C$DW$16        .dwtag  DW_TAG_subprogram
     457                      .dwattr $C$DW$16, DW_AT_name("MemCfg_setTestMode")
     458                      .dwattr $C$DW$16, DW_AT_low_pc(_MemCfg_setTestMode)
     459                      .dwattr $C$DW$16, DW_AT_high_pc(0x00)
     460                      .dwattr $C$DW$16, DW_AT_TI_symbol_name("_MemCfg_setTestMode")
     461                      .dwattr $C$DW$16, DW_AT_external
     462                      .dwattr $C$DW$16, DW_AT_TI_begin_file("../device/driverlib/memcfg.c")
     463                      .dwattr $C$DW$16, DW_AT_TI_begin_line(0x226)
     464                      .dwattr $C$DW$16, DW_AT_TI_begin_column(0x01)
     465                      .dwattr $C$DW$16, DW_AT_TI_max_frame_size(-8)
     466                      .dwpsn  file "../device/driverlib/memcfg.c",line 551,column 1,is_stmt,address _MemCfg_setTestMode,isa
     467              
     468                      .dwfde $C$DW$CIE, _MemCfg_setTestMode
     469              $C$DW$17        .dwtag  DW_TAG_formal_parameter
     470                      .dwattr $C$DW$17, DW_AT_name("memSection")
     471                      .dwattr $C$DW$17, DW_AT_TI_symbol_name("_memSection")
     472                      .dwattr $C$DW$17, DW_AT_type(*$C$DW$T$29)
     473                      .dwattr $C$DW$17, DW_AT_location[DW_OP_reg0]
     474              
     475              $C$DW$18        .dwtag  DW_TAG_formal_parameter
     476                      .dwattr $C$DW$18, DW_AT_name("testMode")
     477                      .dwattr $C$DW$18, DW_AT_TI_symbol_name("_testMode")
     478                      .dwattr $C$DW$18, DW_AT_type(*$C$DW$T$23)
     479                      .dwattr $C$DW$18, DW_AT_location[DW_OP_reg12]
     480              
     481              
     482              ;***************************************************************
     483              ;* FNAME: _MemCfg_setTestMode           FR SIZE:   6           *
     484              ;*                                                             *
     485              ;* FUNCTION ENVIRONMENT                                        *
     486              ;*                                                             *
     487              ;* FUNCTION PROPERTIES                                         *
     488              ;*                            0 Parameter,  0 Auto,  6 SOE     *
     489              ;***************************************************************
     490              
     491              _MemCfg_setTestMode:
     492              ;* AR2   assigned to $O$K9
     493              ;* AR6   assigned to $O$K9
     494              ;* AR2   assigned to _memSection
     495              $C$DW$19        .dwtag  DW_TAG_variable
     496                      .dwattr $C$DW$19, DW_AT_name("memSection")
TMS320C2000 Assembler PC v22.6.1 Wed May 21 09:51:57 2025

Copyright (c) 1996-2018 Texas Instruments Incorporated
C:\Users\Daniel\AppData\Local\Temp\{6611AAE7-1C01-4726-BC3D-E811A318ED3B} PAGE   11

     497                      .dwattr $C$DW$19, DW_AT_TI_symbol_name("_memSection")
     498                      .dwattr $C$DW$19, DW_AT_type(*$C$DW$T$48)
     499                      .dwattr $C$DW$19, DW_AT_location[DW_OP_reg8]
     500              
     501              ;* AR3   assigned to _testMode
     502              $C$DW$20        .dwtag  DW_TAG_variable
     503                      .dwattr $C$DW$20, DW_AT_name("testMode")
     504                      .dwattr $C$DW$20, DW_AT_TI_symbol_name("_testMode")
     505                      .dwattr $C$DW$20, DW_AT_type(*$C$DW$T$24)
     506                      .dwattr $C$DW$20, DW_AT_location[DW_OP_reg10]
     507              
     508              ;* AR1   assigned to _shiftVal
     509              $C$DW$21        .dwtag  DW_TAG_variable
     510                      .dwattr $C$DW$21, DW_AT_name("shiftVal")
     511                      .dwattr $C$DW$21, DW_AT_TI_symbol_name("_shiftVal")
     512                      .dwattr $C$DW$21, DW_AT_type(*$C$DW$T$29)
     513                      .dwattr $C$DW$21, DW_AT_location[DW_OP_reg6]
     514              
     515              ;* AR6   assigned to _maskVal
     516              $C$DW$22        .dwtag  DW_TAG_variable
     517                      .dwattr $C$DW$22, DW_AT_name("maskVal")
     518                      .dwattr $C$DW$22, DW_AT_TI_symbol_name("_maskVal")
     519                      .dwattr $C$DW$22, DW_AT_type(*$C$DW$T$29)
     520                      .dwattr $C$DW$22, DW_AT_location[DW_OP_reg16]
     521              
     522              ;* PL    assigned to _regVal
     523              $C$DW$23        .dwtag  DW_TAG_variable
     524                      .dwattr $C$DW$23, DW_AT_name("regVal")
     525                      .dwattr $C$DW$23, DW_AT_TI_symbol_name("_regVal")
     526                      .dwattr $C$DW$23, DW_AT_type(*$C$DW$T$29)
     527                      .dwattr $C$DW$23, DW_AT_location[DW_OP_reg2]
     528              
     529              ;* AR6   assigned to _sectionNum
     530              $C$DW$24        .dwtag  DW_TAG_variable
     531                      .dwattr $C$DW$24, DW_AT_name("sectionNum")
     532                      .dwattr $C$DW$24, DW_AT_TI_symbol_name("_sectionNum")
     533                      .dwattr $C$DW$24, DW_AT_type(*$C$DW$T$29)
     534                      .dwattr $C$DW$24, DW_AT_location[DW_OP_reg16]
     535              
     536                      .dwcfi  cfa_offset, -2
     537                      .dwcfi  save_reg_to_mem, 26, 0
     538 00000000 B2BD          MOVL      *SP++,XAR1            ; [CPU_ALU] 
     539                      .dwcfi  save_reg_to_mem, 7, 2
     540                      .dwcfi  cfa_offset, -4
     541 00000001 AABD          MOVL      *SP++,XAR2            ; [CPU_ALU] 
     542                      .dwcfi  save_reg_to_mem, 9, 4
     543                      .dwcfi  cfa_offset, -6
     544 00000002 86A9          MOVL      XAR2,ACC              ; [CPU_ALU] |551| 
     545                      .dwpsn  file "../device/driverlib/memcfg.c",line 552,column 23,is_stmt,isa 0
     546 00000003 D100          MOVB      XAR1,#0               ; [CPU_ALU] |552| 
     547                      .dwpsn  file "../device/driverlib/memcfg.c",line 560,column 5,is_stmt,isa 0
     548 00000004 9000          ANDB      AL,#0                 ; [CPU_ALU] |560| 
     549 00000005 18A8          AND       AH,#65024             ; [CPU_ALU] |560| 
         00000006 FE00 
     550 00000007 A2BD          MOVL      *SP++,XAR3            ; [CPU_ALU] 
TMS320C2000 Assembler PC v22.6.1 Wed May 21 09:51:57 2025

Copyright (c) 1996-2018 Texas Instruments Incorporated
C:\Users\Daniel\AppData\Local\Temp\{6611AAE7-1C01-4726-BC3D-E811A318ED3B} PAGE   12

     551                      .dwcfi  save_reg_to_mem, 11, 6
     552                      .dwcfi  cfa_offset, -8
     553 00000008 FF58          TEST      ACC                   ; [CPU_ALU] |560| 
     554                      .dwpsn  file "../device/driverlib/memcfg.c",line 551,column 1,is_stmt,isa 0
     555 00000009 5BA4          MOVZ      AR3,AR4               ; [CPU_ALU] |551| 
     556                      .dwpsn  file "../device/driverlib/memcfg.c",line 560,column 5,is_stmt,isa 0
     557 0000000a 6118          B         $C$L21,EQ             ; [CPU_ALU] |560| 
     558                      ; branchcc occurs ; [] |560| 
     559 0000000b AAA9          MOVL      ACC,XAR2              ; [CPU_ALU] |560| 
     560 0000000c 9000          ANDB      AL,#0                 ; [CPU_ALU] |560| 
     561 0000000d 18A8          AND       AH,#65280             ; [CPU_ALU] |560| 
         0000000e FF00 
     562 0000000f 1EA6          MOVL      XAR6,ACC              ; [CPU_ALU] |560| 
     563 00000010 FF2F          MOV       ACC,#1024 << 15       ; [CPU_ALU] |560| 
         00000011 0400 
     564 00000012 0FA6          CMPL      ACC,XAR6              ; [CPU_ALU] |560| 
     565 00000013 610F          B         $C$L21,EQ             ; [CPU_ALU] |560| 
     566                      ; branchcc occurs ; [] |560| 
     567 00000014 FF2F          MOV       ACC,#2048 << 15       ; [CPU_ALU] |560| 
         00000015 0800 
     568 00000016 0FA6          CMPL      ACC,XAR6              ; [CPU_ALU] |560| 
     569 00000017 610B          B         $C$L21,EQ             ; [CPU_ALU] |560| 
     570                      ; branchcc occurs ; [] |560| 
     571 00000018 FF2F          MOV       ACC,#1536 << 15       ; [CPU_ALU] |560| 
         00000019 0600 
     572 0000001a 0FA6          CMPL      ACC,XAR6              ; [CPU_ALU] |560| 
     573 0000001b 6107          B         $C$L21,EQ             ; [CPU_ALU] |560| 
     574                      ; branchcc occurs ; [] |560| 
     575 0000001c FF20          MOV       ACC,#564              ; [CPU_ALU] |560| 
         0000001d 0234 
     576 0000001e 8F00+         MOVL      XAR4,#$C$FSL1         ; [CPU_ARAU] |560| 
         0000001f 0000 
     577              $C$DW$25        .dwtag  DW_TAG_TI_branch
     578                      .dwattr $C$DW$25, DW_AT_low_pc(0x00)
     579                      .dwattr $C$DW$25, DW_AT_name("___error__")
     580                      .dwattr $C$DW$25, DW_AT_TI_call
     581              
     582 00000020 7640!         LCR       #___error__           ; [CPU_ALU] |560| 
         00000021 0000 
     583                      ; call occurs [#___error__] ; [] |560| 
     584 00000022       $C$L21:    
     585                      .dwpsn  file "../device/driverlib/memcfg.c",line 571,column 5,is_stmt,isa 0
     586 00000022 AAA9          MOVL      ACC,XAR2              ; [CPU_ALU] |571| 
     587 00000023 AAAB          MOVL      P,XAR2                ; [CPU_ALU] 
     588 00000024 91FF          ANDB      AH,#255               ; [CPU_ALU] |571| 
     589 00000025 18AB          AND       PL,#0                 ; [CPU_ALU] 
         00000026 0000 
     590 00000027 1EA6          MOVL      XAR6,ACC              ; [CPU_FPU] |571| 
     591 00000028 18AA          AND       PH,#65280             ; [CPU_ALU] 
         00000029 FF00 
     592                      .dwpsn  file "../device/driverlib/memcfg.c",line 573,column 11,is_stmt,isa 0
     593 0000002a 0201          MOVB      ACC,#1                ; [CPU_FPU] |573| 
     594 0000002b A9A2          MOVL      XAR2,P                ; [CPU_ALU] 
     595 0000002c 0FA6          CMPL      ACC,XAR6              ; [CPU_ALU] |573| 
     596 0000002d 6109          B         $C$L23,EQ             ; [CPU_ALU] |573| 
TMS320C2000 Assembler PC v22.6.1 Wed May 21 09:51:57 2025

Copyright (c) 1996-2018 Texas Instruments Incorporated
C:\Users\Daniel\AppData\Local\Temp\{6611AAE7-1C01-4726-BC3D-E811A318ED3B} PAGE   13

     597                      ; branchcc occurs ; [] |573| 
     598 0000002e 2901          CLRC      SXM                   ; [CPU_ALU] 
     599 0000002f       $C$L22:    
     600 0000002f 06A6          MOVL      ACC,XAR6              ; [CPU_ALU] 
     601 00000030 FF40          SFR       ACC,1                 ; [CPU_ALU] |573| 
     602 00000031 1EA6          MOVL      XAR6,ACC              ; [CPU_ALU] |573| 
     603                      .dwpsn  file "../device/driverlib/memcfg.c",line 576,column 9,is_stmt,isa 0
     604 00000032 D902          ADDB      XAR1,#2               ; [CPU_ALU] |576| 
     605                      .dwpsn  file "../device/driverlib/memcfg.c",line 573,column 11,is_stmt,isa 0
     606 00000033 0201          MOVB      ACC,#1                ; [CPU_FPU] |573| 
     607 00000034 0FA6          CMPL      ACC,XAR6              ; [CPU_ALU] |573| 
     608 00000035 60FA          B         $C$L22,NEQ            ; [CPU_ALU] |573| 
     609                      ; branchcc occurs ; [] |573| 
     610 00000036       $C$L23:    
     611                      .dwpsn  file "../device/driverlib/memcfg.c",line 579,column 5,is_stmt,isa 0
     612 00000036 2DA1          MOV       T,AR1                 ; [CPU_ALU] |579| 
     613 00000037 0203          MOVB      ACC,#3                ; [CPU_ALU] |579| 
     614 00000038 563B          LSLL      ACC,T                 ; [CPU_ALU] |579| 
     615 00000039 1EA6          MOVL      XAR6,ACC              ; [CPU_ALU] |579| 
     616                      .dwpsn  file "../device/driverlib/memcfg.c",line 580,column 5,is_stmt,isa 0
     617 0000003a 0EA3          MOVU      ACC,AR3               ; [CPU_ALU] |580| 
     618 0000003b 563B          LSLL      ACC,T                 ; [CPU_ALU] |580| 
     619 0000003c FF5A          MOVL      P,ACC                 ; [CPU_ALU] |580| 
     620                      .dwpsn  file "../device/driverlib/memcfg.c",line 585,column 5,is_stmt,isa 0
     621 0000003d 7622          EALLOW    ; [CPU_ALU] |585| 
     622                      .dwpsn  file "../device/driverlib/memcfg.c",line 587,column 5,is_stmt,isa 0
     623 0000003e FF2F          MOV       ACC,#1024 << 15       ; [CPU_ALU] |587| 
         0000003f 0400 
     624 00000040 0FA2          CMPL      ACC,XAR2              ; [CPU_ALU] |587| 
     625 00000041 640A          B         $C$L24,LT             ; [CPU_ALU] |587| 
     626                      ; branchcc occurs ; [] |587| 
     627 00000042 0FA2          CMPL      ACC,XAR2              ; [CPU_ALU] |587| 
     628 00000043 611A          B         $C$L26,EQ             ; [CPU_ALU] |587| 
     629                      ; branchcc occurs ; [] |587| 
     630 00000044 AAA9          MOVL      ACC,XAR2              ; [CPU_ALU] 
     631 00000045 6122          B         $C$L28,EQ             ; [CPU_ALU] |587| 
     632                      ; branchcc occurs ; [] |587| 
     633 00000046 FF2F          MOV       ACC,#512 << 15        ; [CPU_ALU] |587| 
         00000047 0200 
     634 00000048 0FA2          CMPL      ACC,XAR2              ; [CPU_ALU] |587| 
     635 00000049 6119          B         $C$L27,EQ             ; [CPU_ALU] |587| 
     636                      ; branchcc occurs ; [] |587| 
     637 0000004a 6F29          B         $C$L30,UNC            ; [CPU_ALU] |587| 
     638                      ; branch occurs ; [] |587| 
     639 0000004b       $C$L24:    
     640 0000004b FF2F          MOV       ACC,#1536 << 15       ; [CPU_ALU] |587| 
         0000004c 0600 
     641 0000004d 0FA2          CMPL      ACC,XAR2              ; [CPU_ALU] |587| 
     642 0000004e 610A          B         $C$L25,EQ             ; [CPU_ALU] |587| 
     643                      ; branchcc occurs ; [] |587| 
     644 0000004f FF2F          MOV       ACC,#2048 << 15       ; [CPU_ALU] |587| 
         00000050 0800 
     645 00000051 0FA2          CMPL      ACC,XAR2              ; [CPU_ALU] |587| 
     646 00000052 6021          B         $C$L30,NEQ            ; [CPU_ALU] |587| 
     647                      ; branchcc occurs ; [] |587| 
TMS320C2000 Assembler PC v22.6.1 Wed May 21 09:51:57 2025

Copyright (c) 1996-2018 Texas Instruments Incorporated
C:\Users\Daniel\AppData\Local\Temp\{6611AAE7-1C01-4726-BC3D-E811A318ED3B} PAGE   14

     648                      .dwpsn  file "../device/driverlib/memcfg.c",line 610,column 13,is_stmt,isa 0
     649 00000053 8F45          MOVL      XAR5,#390306          ; [CPU_ARAU] |610| 
         00000054 F4A2 
     650                      .dwpsn  file "../device/driverlib/memcfg.c",line 611,column 13,is_stmt,isa 0
     651 00000055 8F05          MOVL      XAR4,#390306          ; [CPU_ARAU] |611| 
         00000056 F4A2 
     652                      .dwpsn  file "../device/driverlib/memcfg.c",line 612,column 13,is_stmt,isa 0
     653 00000057 6F14          B         $C$L29,UNC            ; [CPU_ALU] |612| 
     654                      ; branch occurs ; [] |612| 
     655 00000058       $C$L25:    
     656                      .dwpsn  file "../device/driverlib/memcfg.c",line 605,column 13,is_stmt,isa 0
     657 00000058 8F45          MOVL      XAR5,#390256          ; [CPU_ARAU] |605| 
         00000059 F470 
     658                      .dwpsn  file "../device/driverlib/memcfg.c",line 606,column 13,is_stmt,isa 0
     659 0000005a 8F05          MOVL      XAR4,#390256          ; [CPU_ARAU] |606| 
         0000005b F470 
     660                      .dwpsn  file "../device/driverlib/memcfg.c",line 607,column 13,is_stmt,isa 0
     661 0000005c 6F0F          B         $C$L29,UNC            ; [CPU_ALU] |607| 
     662                      ; branch occurs ; [] |607| 
     663 0000005d       $C$L26:    
     664                      .dwpsn  file "../device/driverlib/memcfg.c",line 600,column 13,is_stmt,isa 0
     665 0000005d 8F45          MOVL      XAR5,#390224          ; [CPU_ARAU] |600| 
         0000005e F450 
     666                      .dwpsn  file "../device/driverlib/memcfg.c",line 601,column 13,is_stmt,isa 0
     667 0000005f 8F05          MOVL      XAR4,#390224          ; [CPU_ARAU] |601| 
         00000060 F450 
     668                      .dwpsn  file "../device/driverlib/memcfg.c",line 602,column 13,is_stmt,isa 0
     669 00000061 6F0A          B         $C$L29,UNC            ; [CPU_ALU] |602| 
     670                      ; branch occurs ; [] |602| 
     671 00000062       $C$L27:    
     672                      .dwpsn  file "../device/driverlib/memcfg.c",line 595,column 13,is_stmt,isa 0
     673 00000062 8F45          MOVL      XAR5,#390192          ; [CPU_ARAU] |595| 
         00000063 F430 
     674                      .dwpsn  file "../device/driverlib/memcfg.c",line 596,column 13,is_stmt,isa 0
     675 00000064 8F05          MOVL      XAR4,#390192          ; [CPU_ARAU] |596| 
         00000065 F430 
     676                      .dwpsn  file "../device/driverlib/memcfg.c",line 597,column 13,is_stmt,isa 0
     677 00000066 6F05          B         $C$L29,UNC            ; [CPU_ALU] |597| 
     678                      ; branch occurs ; [] |597| 
     679 00000067       $C$L28:    
     680                      .dwpsn  file "../device/driverlib/memcfg.c",line 590,column 13,is_stmt,isa 0
     681 00000067 8F45          MOVL      XAR5,#390160          ; [CPU_ARAU] |590| 
         00000068 F410 
     682                      .dwpsn  file "../device/driverlib/memcfg.c",line 591,column 13,is_stmt,isa 0
     683 00000069 8F05          MOVL      XAR4,#390160          ; [CPU_ARAU] |591| 
         0000006a F410 
     684 0000006b       $C$L29:    
     685                      .dwpsn  file "../device/driverlib/memcfg.c",line 590,column 13,is_stmt,isa 0
     686 0000006b 06A6          MOVL      ACC,XAR6              ; [CPU_ALU] |590| 
     687 0000006c FF55          NOT       ACC                   ; [CPU_ALU] |590| 
     688 0000006d C0C5          AND       *+XAR5[0],AL          ; [CPU_ALU] |590| 
     689 0000006e 92AB          MOV       AL,PL                 ; [CPU_ALU] |590| 
     690 0000006f C1CD          AND       *+XAR5[1],AH          ; [CPU_ALU] |590| 
     691                      .dwpsn  file "../device/driverlib/memcfg.c",line 591,column 13,is_stmt,isa 0
     692 00000070 98C4          OR        *+XAR4[0],AL          ; [CPU_ALU] |591| 
TMS320C2000 Assembler PC v22.6.1 Wed May 21 09:51:57 2025

Copyright (c) 1996-2018 Texas Instruments Incorporated
C:\Users\Daniel\AppData\Local\Temp\{6611AAE7-1C01-4726-BC3D-E811A318ED3B} PAGE   15

     693 00000071 92AA          MOV       AL,PH                 ; [CPU_ALU] |591| 
     694 00000072 98CC          OR        *+XAR4[1],AL          ; [CPU_ALU] |591| 
     695 00000073       $C$L30:    
     696                      .dwpsn  file "../device/driverlib/memcfg.c",line 621,column 5,is_stmt,isa 0
     697 00000073 761A          EDIS      ; [CPU_ALU] |621| 
     698 00000074 82BE          MOVL      XAR3,*--SP            ; [CPU_ALU] 
     699                      .dwcfi  cfa_offset, -6
     700                      .dwcfi  restore_reg, 11
     701 00000075 86BE          MOVL      XAR2,*--SP            ; [CPU_ALU] 
     702                      .dwcfi  cfa_offset, -4
     703                      .dwcfi  restore_reg, 9
     704 00000076 8BBE          MOVL      XAR1,*--SP            ; [CPU_ALU] 
     705                      .dwcfi  cfa_offset, -2
     706                      .dwcfi  restore_reg, 7
     707              $C$DW$26        .dwtag  DW_TAG_TI_branch
     708                      .dwattr $C$DW$26, DW_AT_low_pc(0x00)
     709                      .dwattr $C$DW$26, DW_AT_TI_return
     710              
     711 00000077 0006          LRETR     ; [CPU_ALU] 
     712                      ; return occurs ; [] 
     713                      .dwattr $C$DW$16, DW_AT_TI_end_file("../device/driverlib/memcfg.c")
     714                      .dwattr $C$DW$16, DW_AT_TI_end_line(0x26e)
     715                      .dwattr $C$DW$16, DW_AT_TI_end_column(0x01)
     716                      .dwendentry
     717                      .dwendtag $C$DW$16
     718              
     719 00000000               .sect   ".text:_MemCfg_setProtection"
     720                      .clink
     721                      .global _MemCfg_setProtection
     722              
     723              $C$DW$27        .dwtag  DW_TAG_subprogram
     724                      .dwattr $C$DW$27, DW_AT_name("MemCfg_setProtection")
     725                      .dwattr $C$DW$27, DW_AT_low_pc(_MemCfg_setProtection)
     726                      .dwattr $C$DW$27, DW_AT_high_pc(0x00)
     727                      .dwattr $C$DW$27, DW_AT_TI_symbol_name("_MemCfg_setProtection")
     728                      .dwattr $C$DW$27, DW_AT_external
     729                      .dwattr $C$DW$27, DW_AT_TI_begin_file("../device/driverlib/memcfg.c")
     730                      .dwattr $C$DW$27, DW_AT_TI_begin_line(0x103)
     731                      .dwattr $C$DW$27, DW_AT_TI_begin_column(0x01)
     732                      .dwattr $C$DW$27, DW_AT_TI_max_frame_size(-8)
     733                      .dwpsn  file "../device/driverlib/memcfg.c",line 260,column 1,is_stmt,address _MemCfg_setProtection,i
     734              
     735                      .dwfde $C$DW$CIE, _MemCfg_setProtection
     736              $C$DW$28        .dwtag  DW_TAG_formal_parameter
     737                      .dwattr $C$DW$28, DW_AT_name("memSection")
     738                      .dwattr $C$DW$28, DW_AT_TI_symbol_name("_memSection")
     739                      .dwattr $C$DW$28, DW_AT_type(*$C$DW$T$29)
     740                      .dwattr $C$DW$28, DW_AT_location[DW_OP_reg0]
     741              
     742              $C$DW$29        .dwtag  DW_TAG_formal_parameter
     743                      .dwattr $C$DW$29, DW_AT_name("protectMode")
     744                      .dwattr $C$DW$29, DW_AT_TI_symbol_name("_protectMode")
     745                      .dwattr $C$DW$29, DW_AT_type(*$C$DW$T$29)
     746                      .dwattr $C$DW$29, DW_AT_location[DW_OP_breg20 -10]
     747              
TMS320C2000 Assembler PC v22.6.1 Wed May 21 09:51:57 2025

Copyright (c) 1996-2018 Texas Instruments Incorporated
C:\Users\Daniel\AppData\Local\Temp\{6611AAE7-1C01-4726-BC3D-E811A318ED3B} PAGE   16

     748              
     749              ;***************************************************************
     750              ;* FNAME: _MemCfg_setProtection         FR SIZE:   6           *
     751              ;*                                                             *
     752              ;* FUNCTION ENVIRONMENT                                        *
     753              ;*                                                             *
     754              ;* FUNCTION PROPERTIES                                         *
     755              ;*                            0 Parameter,  2 Auto,  4 SOE     *
     756              ;***************************************************************
     757              
     758              _MemCfg_setProtection:
     759              ;* AR4   assigned to $O$C1
     760              ;* AR1   assigned to $O$K9
     761              ;* AR1   assigned to _memSection
     762              $C$DW$30        .dwtag  DW_TAG_variable
     763                      .dwattr $C$DW$30, DW_AT_name("memSection")
     764                      .dwattr $C$DW$30, DW_AT_TI_symbol_name("_memSection")
     765                      .dwattr $C$DW$30, DW_AT_type(*$C$DW$T$48)
     766                      .dwattr $C$DW$30, DW_AT_location[DW_OP_reg6]
     767              
     768              ;* AR2   assigned to _protectMode
     769              $C$DW$31        .dwtag  DW_TAG_variable
     770                      .dwattr $C$DW$31, DW_AT_name("protectMode")
     771                      .dwattr $C$DW$31, DW_AT_TI_symbol_name("_protectMode")
     772                      .dwattr $C$DW$31, DW_AT_type(*$C$DW$T$48)
     773                      .dwattr $C$DW$31, DW_AT_location[DW_OP_reg8]
     774              
     775              $C$DW$32        .dwtag  DW_TAG_variable
     776                      .dwattr $C$DW$32, DW_AT_name("shiftVal")
     777                      .dwattr $C$DW$32, DW_AT_TI_symbol_name("_shiftVal")
     778                      .dwattr $C$DW$32, DW_AT_type(*$C$DW$T$29)
     779                      .dwattr $C$DW$32, DW_AT_location[DW_OP_breg20 -2]
     780              
     781              ;* AR7   assigned to _maskVal
     782              $C$DW$33        .dwtag  DW_TAG_variable
     783                      .dwattr $C$DW$33, DW_AT_name("maskVal")
     784                      .dwattr $C$DW$33, DW_AT_TI_symbol_name("_maskVal")
     785                      .dwattr $C$DW$33, DW_AT_type(*$C$DW$T$29)
     786                      .dwattr $C$DW$33, DW_AT_location[DW_OP_reg18]
     787              
     788              ;* PL    assigned to _regVal
     789              $C$DW$34        .dwtag  DW_TAG_variable
     790                      .dwattr $C$DW$34, DW_AT_name("regVal")
     791                      .dwattr $C$DW$34, DW_AT_TI_symbol_name("_regVal")
     792                      .dwattr $C$DW$34, DW_AT_type(*$C$DW$T$29)
     793                      .dwattr $C$DW$34, DW_AT_location[DW_OP_reg2]
     794              
     795              ;* AR6   assigned to _sectionNum
     796              $C$DW$35        .dwtag  DW_TAG_variable
     797                      .dwattr $C$DW$35, DW_AT_name("sectionNum")
     798                      .dwattr $C$DW$35, DW_AT_TI_symbol_name("_sectionNum")
     799                      .dwattr $C$DW$35, DW_AT_type(*$C$DW$T$29)
     800                      .dwattr $C$DW$35, DW_AT_location[DW_OP_reg16]
     801              
     802              ;* AR6   assigned to _regOffset
TMS320C2000 Assembler PC v22.6.1 Wed May 21 09:51:57 2025

Copyright (c) 1996-2018 Texas Instruments Incorporated
C:\Users\Daniel\AppData\Local\Temp\{6611AAE7-1C01-4726-BC3D-E811A318ED3B} PAGE   17

     803              $C$DW$36        .dwtag  DW_TAG_variable
     804                      .dwattr $C$DW$36, DW_AT_name("regOffset")
     805                      .dwattr $C$DW$36, DW_AT_TI_symbol_name("_regOffset")
     806                      .dwattr $C$DW$36, DW_AT_type(*$C$DW$T$29)
     807                      .dwattr $C$DW$36, DW_AT_location[DW_OP_reg16]
     808              
     809                      .dwcfi  cfa_offset, -2
     810                      .dwcfi  save_reg_to_mem, 26, 0
     811 00000000 B2BD          MOVL      *SP++,XAR1            ; [CPU_ALU] 
     812                      .dwcfi  save_reg_to_mem, 7, 2
     813                      .dwcfi  cfa_offset, -4
     814 00000001 AABD          MOVL      *SP++,XAR2            ; [CPU_ALU] 
     815                      .dwcfi  save_reg_to_mem, 9, 4
     816                      .dwcfi  cfa_offset, -6
     817 00000002 FE02          ADDB      SP,#2                 ; [CPU_ARAU] 
     818                      .dwcfi  cfa_offset, -8
     819 00000003 8BA9          MOVL      XAR1,ACC              ; [CPU_ALU] |260| 
     820                      .dwpsn  file "../device/driverlib/memcfg.c",line 261,column 23,is_stmt,isa 0
     821 00000004 BE00          MOVB      XAR6,#0               ; [CPU_ALU] |261| 
     822                      .dwpsn  file "../device/driverlib/memcfg.c",line 270,column 5,is_stmt,isa 0
     823 00000005 9000          ANDB      AL,#0                 ; [CPU_ALU] |270| 
     824 00000006 18A8          AND       AH,#65024             ; [CPU_ALU] |270| 
         00000007 FE00 
     825                      .dwpsn  file "../device/driverlib/memcfg.c",line 260,column 1,is_stmt,isa 0
     826 00000008 864A          MOVL      XAR2,*-SP[10]         ; [CPU_FPU] |260| 
     827                      .dwpsn  file "../device/driverlib/memcfg.c",line 270,column 5,is_stmt,isa 0
     828 00000009 FF58          TEST      ACC                   ; [CPU_ALU] |270| 
     829                      .dwpsn  file "../device/driverlib/memcfg.c",line 261,column 23,is_stmt,isa 0
     830 0000000a C242          MOVL      *-SP[2],XAR6          ; [CPU_ALU] |261| 
     831                      .dwpsn  file "../device/driverlib/memcfg.c",line 270,column 5,is_stmt,isa 0
     832 0000000b 6110          B         $C$L31,EQ             ; [CPU_ALU] |270| 
     833                      ; branchcc occurs ; [] |270| 
     834 0000000c B2A9          MOVL      ACC,XAR1              ; [CPU_ALU] |270| 
     835 0000000d 2BAB          MOV       PL,#0                 ; [CPU_ALU] |270| 
     836 0000000e 28AA          MOV       PH,#512               ; [CPU_ALU] |270| 
         0000000f 0200 
     837 00000010 9000          ANDB      AL,#0                 ; [CPU_ALU] |270| 
     838 00000011 18A8          AND       AH,#65280             ; [CPU_ALU] |270| 
         00000012 FF00 
     839 00000013 0FAB          CMPL      ACC,P                 ; [CPU_ALU] |270| 
     840 00000014 6107          B         $C$L31,EQ             ; [CPU_ALU] |270| 
     841                      ; branchcc occurs ; [] |270| 
     842 00000015 FF20          MOV       ACC,#272              ; [CPU_ALU] |270| 
         00000016 0110 
     843 00000017 8F00+         MOVL      XAR4,#$C$FSL1         ; [CPU_ARAU] |270| 
         00000018 0000 
     844              $C$DW$37        .dwtag  DW_TAG_TI_branch
     845                      .dwattr $C$DW$37, DW_AT_low_pc(0x00)
     846                      .dwattr $C$DW$37, DW_AT_name("___error__")
     847                      .dwattr $C$DW$37, DW_AT_TI_call
     848              
     849 00000019 7640!         LCR       #___error__           ; [CPU_ALU] |270| 
         0000001a 0000 
     850                      ; call occurs [#___error__] ; [] |270| 
     851 0000001b       $C$L31:    
TMS320C2000 Assembler PC v22.6.1 Wed May 21 09:51:57 2025

Copyright (c) 1996-2018 Texas Instruments Incorporated
C:\Users\Daniel\AppData\Local\Temp\{6611AAE7-1C01-4726-BC3D-E811A318ED3B} PAGE   18

     852                      .dwpsn  file "../device/driverlib/memcfg.c",line 279,column 5,is_stmt,isa 0
     853 0000001b B2A9          MOVL      ACC,XAR1              ; [CPU_ALU] |279| 
     854 0000001c B2AB          MOVL      P,XAR1                ; [CPU_ALU] 
     855 0000001d 91FF          ANDB      AH,#255               ; [CPU_ALU] |279| 
     856 0000001e 18AB          AND       PL,#0                 ; [CPU_ALU] 
         0000001f 0000 
     857 00000020 1EA6          MOVL      XAR6,ACC              ; [CPU_FPU] |279| 
     858 00000021 18AA          AND       PH,#65280             ; [CPU_ALU] 
         00000022 FF00 
     859                      .dwpsn  file "../device/driverlib/memcfg.c",line 281,column 11,is_stmt,isa 0
     860 00000023 0201          MOVB      ACC,#1                ; [CPU_FPU] |281| 
     861 00000024 A9A1          MOVL      XAR1,P                ; [CPU_ALU] 
     862 00000025 0FA6          CMPL      ACC,XAR6              ; [CPU_ALU] |281| 
     863 00000026 610B          B         $C$L33,EQ             ; [CPU_ALU] |281| 
     864                      ; branchcc occurs ; [] |281| 
     865 00000027 2901          CLRC      SXM                   ; [CPU_ALU] 
     866 00000028       $C$L32:    
     867 00000028 8A42          MOVL      XAR4,*-SP[2]          ; [CPU_ALU] |281| 
     868 00000029 06A6          MOVL      ACC,XAR6              ; [CPU_ALU] 
     869 0000002a FF40          SFR       ACC,1                 ; [CPU_ALU] |281| 
     870 0000002b 1EA6          MOVL      XAR6,ACC              ; [CPU_ALU] |281| 
     871                      .dwpsn  file "../device/driverlib/memcfg.c",line 284,column 9,is_stmt,isa 0
     872 0000002c DC08          ADDB      XAR4,#8               ; [CPU_ALU] |284| 
     873                      .dwpsn  file "../device/driverlib/memcfg.c",line 281,column 11,is_stmt,isa 0
     874 0000002d 0201          MOVB      ACC,#1                ; [CPU_FPU] |281| 
     875                      .dwpsn  file "../device/driverlib/memcfg.c",line 284,column 9,is_stmt,isa 0
     876 0000002e A842          MOVL      *-SP[2],XAR4          ; [CPU_ALU] |284| 
     877                      .dwpsn  file "../device/driverlib/memcfg.c",line 281,column 11,is_stmt,isa 0
     878 0000002f 0FA6          CMPL      ACC,XAR6              ; [CPU_ALU] |281| 
     879 00000030 60F8          B         $C$L32,NEQ            ; [CPU_ALU] |281| 
     880                      ; branchcc occurs ; [] |281| 
     881 00000031       $C$L33:    
     882 00000031 0642          MOVL      ACC,*-SP[2]           ; [CPU_ALU] 
     883 00000032 2901          CLRC      SXM                   ; [CPU_ALU] 
     884                      .dwpsn  file "../device/driverlib/memcfg.c",line 291,column 5,is_stmt,isa 0
     885 00000033 FF43          SFR       ACC,4                 ; [CPU_ALU] |291| 
     886 00000034 18A9          AND       AL,#4094              ; [CPU_ALU] |291| 
         00000035 0FFE 
     887 00000036 9100          ANDB      AH,#0                 ; [CPU_ALU] |291| 
     888 00000037 1EA6          MOVL      XAR6,ACC              ; [CPU_ALU] |291| 
     889 00000038 9242          MOV       AL,*-SP[2]            ; [CPU_ALU] |291| 
     890                      .dwpsn  file "../device/driverlib/memcfg.c",line 293,column 5,is_stmt,isa 0
     891 00000039 901F          ANDB      AL,#0x1f              ; [CPU_ALU] |293| 
     892 0000003a 2DA9          MOV       T,AL                  ; [CPU_ALU] |293| 
     893 0000003b 9642          MOV       *-SP[2],AL            ; [CPU_ALU] |293| 
     894 0000003c 020F          MOVB      ACC,#15               ; [CPU_ALU] |293| 
     895 0000003d 563B          LSLL      ACC,T                 ; [CPU_ALU] |293| 
     896 0000003e 1EA7          MOVL      XAR7,ACC              ; [CPU_ALU] |293| 
     897                      .dwpsn  file "../device/driverlib/memcfg.c",line 294,column 5,is_stmt,isa 0
     898 0000003f AAA9          MOVL      ACC,XAR2              ; [CPU_ALU] |294| 
     899 00000040 563B          LSLL      ACC,T                 ; [CPU_ALU] |294| 
     900 00000041 FF5A          MOVL      P,ACC                 ; [CPU_ALU] |294| 
     901                      .dwpsn  file "../device/driverlib/memcfg.c",line 299,column 5,is_stmt,isa 0
     902 00000042 7622          EALLOW    ; [CPU_ALU] |299| 
     903                      .dwpsn  file "../device/driverlib/memcfg.c",line 301,column 5,is_stmt,isa 0
TMS320C2000 Assembler PC v22.6.1 Wed May 21 09:51:57 2025

Copyright (c) 1996-2018 Texas Instruments Incorporated
C:\Users\Daniel\AppData\Local\Temp\{6611AAE7-1C01-4726-BC3D-E811A318ED3B} PAGE   19

     904 00000043 B2A9          MOVL      ACC,XAR1              ; [CPU_ALU] |301| 
     905 00000044 610F          B         $C$L35,EQ             ; [CPU_ALU] |301| 
     906                      ; branchcc occurs ; [] |301| 
     907 00000045 FF2F          MOV       ACC,#512 << 15        ; [CPU_ALU] |301| 
         00000046 0200 
     908 00000047 0FA1          CMPL      ACC,XAR1              ; [CPU_ALU] |301| 
     909 00000048 6108          B         $C$L34,EQ             ; [CPU_ALU] |301| 
     910                      ; branchcc occurs ; [] |301| 
     911 00000049 FF2F          MOV       ACC,#1024 << 15       ; [CPU_ALU] |301| 
         0000004a 0400 
     912 0000004b 0FA1          CMPL      ACC,XAR1              ; [CPU_ALU] |301| 
     913 0000004c 6014          B         $C$L37,NEQ            ; [CPU_ALU] |301| 
     914                      ; branchcc occurs ; [] |301| 
     915                      .dwpsn  file "../device/driverlib/memcfg.c",line 314,column 13,is_stmt,isa 0
     916 0000004d 8F05          MOVL      XAR4,#390216          ; [CPU_ARAU] |314| 
         0000004e F448 
     917                      .dwpsn  file "../device/driverlib/memcfg.c",line 316,column 13,is_stmt,isa 0
     918 0000004f 6F06          B         $C$L36,UNC            ; [CPU_ALU] |316| 
     919                      ; branch occurs ; [] |316| 
     920 00000050       $C$L34:    
     921                      .dwpsn  file "../device/driverlib/memcfg.c",line 309,column 13,is_stmt,isa 0
     922 00000050 8F05          MOVL      XAR4,#390184          ; [CPU_ARAU] |309| 
         00000051 F428 
     923                      .dwpsn  file "../device/driverlib/memcfg.c",line 311,column 13,is_stmt,isa 0
     924 00000052 6F03          B         $C$L36,UNC            ; [CPU_ALU] |311| 
     925                      ; branch occurs ; [] |311| 
     926 00000053       $C$L35:    
     927                      .dwpsn  file "../device/driverlib/memcfg.c",line 304,column 13,is_stmt,isa 0
     928 00000053 8F05          MOVL      XAR4,#390152          ; [CPU_ARAU] |304| 
         00000054 F408 
     929 00000055       $C$L36:    
     930 00000055 06A6          MOVL      ACC,XAR6              ; [CPU_ALU] |304| 
     931 00000056 5601          ADDL      XAR4,ACC              ; [CPU_ALU] |304| 
         00000057 00A4 
     932 00000058 06A7          MOVL      ACC,XAR7              ; [CPU_ALU] |304| 
     933 00000059 FF55          NOT       ACC                   ; [CPU_ALU] |304| 
     934 0000005a C0C4          AND       *+XAR4[0],AL          ; [CPU_ALU] |304| 
     935 0000005b 92AB          MOV       AL,PL                 ; [CPU_ALU] |304| 
     936 0000005c C1CC          AND       *+XAR4[1],AH          ; [CPU_ALU] |304| 
     937                      .dwpsn  file "../device/driverlib/memcfg.c",line 305,column 13,is_stmt,isa 0
     938 0000005d 98C4          OR        *+XAR4[0],AL          ; [CPU_ALU] |305| 
     939 0000005e 92AA          MOV       AL,PH                 ; [CPU_ALU] |305| 
     940 0000005f 98CC          OR        *+XAR4[1],AL          ; [CPU_ALU] |305| 
     941 00000060       $C$L37:    
     942                      .dwpsn  file "../device/driverlib/memcfg.c",line 326,column 5,is_stmt,isa 0
     943 00000060 761A          EDIS      ; [CPU_ALU] |326| 
     944 00000061 FE82          SUBB      SP,#2                 ; [CPU_ARAU] 
     945                      .dwcfi  cfa_offset, -6
     946 00000062 86BE          MOVL      XAR2,*--SP            ; [CPU_ALU] 
     947                      .dwcfi  cfa_offset, -4
     948                      .dwcfi  restore_reg, 9
     949 00000063 8BBE          MOVL      XAR1,*--SP            ; [CPU_ALU] 
     950                      .dwcfi  cfa_offset, -2
     951                      .dwcfi  restore_reg, 7
     952              $C$DW$38        .dwtag  DW_TAG_TI_branch
TMS320C2000 Assembler PC v22.6.1 Wed May 21 09:51:57 2025

Copyright (c) 1996-2018 Texas Instruments Incorporated
C:\Users\Daniel\AppData\Local\Temp\{6611AAE7-1C01-4726-BC3D-E811A318ED3B} PAGE   20

     953                      .dwattr $C$DW$38, DW_AT_low_pc(0x00)
     954                      .dwattr $C$DW$38, DW_AT_TI_return
     955              
     956 00000064 0006          LRETR     ; [CPU_ALU] 
     957                      ; return occurs ; [] 
     958                      .dwattr $C$DW$27, DW_AT_TI_end_file("../device/driverlib/memcfg.c")
     959                      .dwattr $C$DW$27, DW_AT_TI_end_line(0x147)
     960                      .dwattr $C$DW$27, DW_AT_TI_end_column(0x01)
     961                      .dwendentry
     962                      .dwendtag $C$DW$27
     963              
     964 00000000               .sect   ".text:_MemCfg_setLSRAMControllerSel"
     965                      .clink
     966                      .global _MemCfg_setLSRAMControllerSel
     967              
     968              $C$DW$39        .dwtag  DW_TAG_subprogram
     969                      .dwattr $C$DW$39, DW_AT_name("MemCfg_setLSRAMControllerSel")
     970                      .dwattr $C$DW$39, DW_AT_low_pc(_MemCfg_setLSRAMControllerSel)
     971                      .dwattr $C$DW$39, DW_AT_high_pc(0x00)
     972                      .dwattr $C$DW$39, DW_AT_TI_symbol_name("_MemCfg_setLSRAMControllerSel")
     973                      .dwattr $C$DW$39, DW_AT_external
     974                      .dwattr $C$DW$39, DW_AT_TI_begin_file("../device/driverlib/memcfg.c")
     975                      .dwattr $C$DW$39, DW_AT_TI_begin_line(0x14f)
     976                      .dwattr $C$DW$39, DW_AT_TI_begin_column(0x01)
     977                      .dwattr $C$DW$39, DW_AT_TI_max_frame_size(-6)
     978                      .dwpsn  file "../device/driverlib/memcfg.c",line 337,column 1,is_stmt,address _MemCfg_setLSRAMControl
     979              
     980                      .dwfde $C$DW$CIE, _MemCfg_setLSRAMControllerSel
     981              $C$DW$40        .dwtag  DW_TAG_formal_parameter
     982                      .dwattr $C$DW$40, DW_AT_name("ramSection")
     983                      .dwattr $C$DW$40, DW_AT_TI_symbol_name("_ramSection")
     984                      .dwattr $C$DW$40, DW_AT_type(*$C$DW$T$29)
     985                      .dwattr $C$DW$40, DW_AT_location[DW_OP_reg0]
     986              
     987              $C$DW$41        .dwtag  DW_TAG_formal_parameter
     988                      .dwattr $C$DW$41, DW_AT_name("controllerSel")
     989                      .dwattr $C$DW$41, DW_AT_TI_symbol_name("_controllerSel")
     990                      .dwattr $C$DW$41, DW_AT_type(*$C$DW$T$20)
     991                      .dwattr $C$DW$41, DW_AT_location[DW_OP_reg12]
     992              
     993              
     994              ;***************************************************************
     995              ;* FNAME: _MemCfg_setLSRAMControllerSel FR SIZE:   4           *
     996              ;*                                                             *
     997              ;* FUNCTION ENVIRONMENT                                        *
     998              ;*                                                             *
     999              ;* FUNCTION PROPERTIES                                         *
    1000              ;*                            0 Parameter,  0 Auto,  4 SOE     *
    1001              ;***************************************************************
    1002              
    1003              _MemCfg_setLSRAMControllerSel:
    1004              ;* AR2   assigned to _ramSection
    1005              $C$DW$42        .dwtag  DW_TAG_variable
    1006                      .dwattr $C$DW$42, DW_AT_name("ramSection")
    1007                      .dwattr $C$DW$42, DW_AT_TI_symbol_name("_ramSection")
TMS320C2000 Assembler PC v22.6.1 Wed May 21 09:51:57 2025

Copyright (c) 1996-2018 Texas Instruments Incorporated
C:\Users\Daniel\AppData\Local\Temp\{6611AAE7-1C01-4726-BC3D-E811A318ED3B} PAGE   21

    1008                      .dwattr $C$DW$42, DW_AT_type(*$C$DW$T$48)
    1009                      .dwattr $C$DW$42, DW_AT_location[DW_OP_reg8]
    1010              
    1011              ;* AR1   assigned to _controllerSel
    1012              $C$DW$43        .dwtag  DW_TAG_variable
    1013                      .dwattr $C$DW$43, DW_AT_name("controllerSel")
    1014                      .dwattr $C$DW$43, DW_AT_TI_symbol_name("_controllerSel")
    1015                      .dwattr $C$DW$43, DW_AT_type(*$C$DW$T$21)
    1016                      .dwattr $C$DW$43, DW_AT_location[DW_OP_reg6]
    1017              
    1018              ;* AR4   assigned to _shiftVal
    1019              $C$DW$44        .dwtag  DW_TAG_variable
    1020                      .dwattr $C$DW$44, DW_AT_name("shiftVal")
    1021                      .dwattr $C$DW$44, DW_AT_TI_symbol_name("_shiftVal")
    1022                      .dwattr $C$DW$44, DW_AT_type(*$C$DW$T$29)
    1023                      .dwattr $C$DW$44, DW_AT_location[DW_OP_reg12]
    1024              
    1025              ;* AR2   assigned to _temp
    1026              $C$DW$45        .dwtag  DW_TAG_variable
    1027                      .dwattr $C$DW$45, DW_AT_name("temp")
    1028                      .dwattr $C$DW$45, DW_AT_TI_symbol_name("_temp")
    1029                      .dwattr $C$DW$45, DW_AT_type(*$C$DW$T$29)
    1030                      .dwattr $C$DW$45, DW_AT_location[DW_OP_reg8]
    1031              
    1032                      .dwcfi  cfa_offset, -2
    1033                      .dwcfi  save_reg_to_mem, 26, 0
    1034 00000000 B2BD          MOVL      *SP++,XAR1            ; [CPU_ALU] 
    1035                      .dwcfi  save_reg_to_mem, 7, 2
    1036                      .dwcfi  cfa_offset, -4
    1037                      .dwpsn  file "../device/driverlib/memcfg.c",line 344,column 5,is_stmt,isa 0
    1038 00000001 2BAB          MOV       PL,#0                 ; [CPU_ALU] |344| 
    1039 00000002 28AA          MOV       PH,#256               ; [CPU_ALU] |344| 
         00000003 0100 
    1040 00000004 AABD          MOVL      *SP++,XAR2            ; [CPU_ALU] 
    1041                      .dwcfi  save_reg_to_mem, 9, 4
    1042                      .dwcfi  cfa_offset, -6
    1043                      .dwpsn  file "../device/driverlib/memcfg.c",line 337,column 1,is_stmt,isa 0
    1044 00000005 59A4          MOVZ      AR1,AR4               ; [CPU_ALU] |337| 
    1045 00000006 86A9          MOVL      XAR2,ACC              ; [CPU_ALU] |337| 
    1046                      .dwpsn  file "../device/driverlib/memcfg.c",line 344,column 5,is_stmt,isa 0
    1047 00000007 9000          ANDB      AL,#0                 ; [CPU_ALU] |344| 
    1048 00000008 18A8          AND       AH,#65280             ; [CPU_ALU] |344| 
         00000009 FF00 
    1049 0000000a 0FAB          CMPL      ACC,P                 ; [CPU_ALU] |344| 
    1050 0000000b 6107          B         $C$L38,EQ             ; [CPU_ALU] |344| 
    1051                      ; branchcc occurs ; [] |344| 
    1052 0000000c FF20          MOV       ACC,#344              ; [CPU_ALU] |344| 
         0000000d 0158 
    1053 0000000e 8F00+         MOVL      XAR4,#$C$FSL1         ; [CPU_ARAU] |344| 
         0000000f 0000 
    1054              $C$DW$46        .dwtag  DW_TAG_TI_branch
    1055                      .dwattr $C$DW$46, DW_AT_low_pc(0x00)
    1056                      .dwattr $C$DW$46, DW_AT_name("___error__")
    1057                      .dwattr $C$DW$46, DW_AT_TI_call
    1058              
TMS320C2000 Assembler PC v22.6.1 Wed May 21 09:51:57 2025

Copyright (c) 1996-2018 Texas Instruments Incorporated
C:\Users\Daniel\AppData\Local\Temp\{6611AAE7-1C01-4726-BC3D-E811A318ED3B} PAGE   22

    1059 00000010 7640!         LCR       #___error__           ; [CPU_ALU] |344| 
         00000011 0000 
    1060                      ; call occurs [#___error__] ; [] |344| 
    1061 00000012       $C$L38:    
    1062                      .dwpsn  file "../device/driverlib/memcfg.c",line 352,column 5,is_stmt,isa 0
    1063 00000012 AAA9          MOVL      ACC,XAR2              ; [CPU_ALU] |352| 
    1064 00000013 91FF          ANDB      AH,#255               ; [CPU_ALU] |352| 
    1065 00000014 86A9          MOVL      XAR2,ACC              ; [CPU_ALU] |352| 
    1066                      .dwpsn  file "../device/driverlib/memcfg.c",line 351,column 5,is_stmt,isa 0
    1067 00000015 D400          MOVB      XAR4,#0               ; [CPU_ALU] |351| 
    1068                      .dwpsn  file "../device/driverlib/memcfg.c",line 354,column 11,is_stmt,isa 0
    1069 00000016 0201          MOVB      ACC,#1                ; [CPU_ALU] |354| 
    1070 00000017 0FA2          CMPL      ACC,XAR2              ; [CPU_ALU] |354| 
    1071 00000018 6109          B         $C$L40,EQ             ; [CPU_ALU] |354| 
    1072                      ; branchcc occurs ; [] |354| 
    1073 00000019 2901          CLRC      SXM                   ; [CPU_ALU] 
    1074 0000001a       $C$L39:    
    1075 0000001a AAA9          MOVL      ACC,XAR2              ; [CPU_ALU] 
    1076 0000001b FF40          SFR       ACC,1                 ; [CPU_ALU] |354| 
    1077 0000001c 86A9          MOVL      XAR2,ACC              ; [CPU_ALU] |354| 
    1078                      .dwpsn  file "../device/driverlib/memcfg.c",line 357,column 9,is_stmt,isa 0
    1079 0000001d DC02          ADDB      XAR4,#2               ; [CPU_ALU] |357| 
    1080                      .dwpsn  file "../device/driverlib/memcfg.c",line 354,column 11,is_stmt,isa 0
    1081 0000001e 0201          MOVB      ACC,#1                ; [CPU_FPU] |354| 
    1082 0000001f 0FA2          CMPL      ACC,XAR2              ; [CPU_ALU] |354| 
    1083 00000020 60FA          B         $C$L39,NEQ            ; [CPU_ALU] |354| 
    1084                      ; branchcc occurs ; [] |354| 
    1085 00000021       $C$L40:    
    1086                      .dwpsn  file "../device/driverlib/memcfg.c",line 363,column 5,is_stmt,isa 0
    1087 00000021 7622          EALLOW    ; [CPU_ALU] |363| 
    1088                      .dwpsn  file "../device/driverlib/memcfg.c",line 365,column 5,is_stmt,isa 0
    1089 00000022 2DA4          MOV       T,AR4                 ; [CPU_ALU] |365| 
    1090 00000023 0203          MOVB      ACC,#3                ; [CPU_ALU] |365| 
    1091 00000024 8F45          MOVL      XAR5,#390180          ; [CPU_ARAU] |365| 
         00000025 F424 
    1092 00000026 27A1          MOV       PL,AR1                ; [CPU_ALU] |365| 
    1093 00000027 2BAA          MOV       PH,#0                 ; [CPU_ALU] |365| 
    1094 00000028 563B          LSLL      ACC,T                 ; [CPU_ALU] |365| 
    1095 00000029 8F05          MOVL      XAR4,#390180          ; [CPU_ARAU] |365| 
         0000002a F424 
    1096 0000002b FF55          NOT       ACC                   ; [CPU_ALU] |365| 
    1097 0000002c CEC5          AND       AL,*+XAR5[0]          ; [CPU_ALU] |365| 
    1098 0000002d CFCD          AND       AH,*+XAR5[1]          ; [CPU_ALU] |365| 
    1099 0000002e 1EA6          MOVL      XAR6,ACC              ; [CPU_ALU] |365| 
    1100 0000002f A9A9          MOVL      ACC,P                 ; [CPU_ALU] |365| 
    1101 00000030 563B          LSLL      ACC,T                 ; [CPU_ALU] |365| 
    1102 00000031 FF5A          MOVL      P,ACC                 ; [CPU_ALU] |365| 
    1103 00000032 06A6          MOVL      ACC,XAR6              ; [CPU_ALU] |365| 
    1104 00000033 CAAB          OR        AL,PL                 ; [CPU_ALU] |365| 
    1105 00000034 CBAA          OR        AH,PH                 ; [CPU_ALU] |365| 
    1106 00000035 1EC4          MOVL      *+XAR4[0],ACC         ; [CPU_ALU] |365| 
    1107                      .dwpsn  file "../device/driverlib/memcfg.c",line 370,column 5,is_stmt,isa 0
    1108 00000036 761A          EDIS      ; [CPU_ALU] |370| 
    1109 00000037 86BE          MOVL      XAR2,*--SP            ; [CPU_ALU] 
    1110                      .dwcfi  cfa_offset, -4
TMS320C2000 Assembler PC v22.6.1 Wed May 21 09:51:57 2025

Copyright (c) 1996-2018 Texas Instruments Incorporated
C:\Users\Daniel\AppData\Local\Temp\{6611AAE7-1C01-4726-BC3D-E811A318ED3B} PAGE   23

    1111                      .dwcfi  restore_reg, 9
    1112 00000038 8BBE          MOVL      XAR1,*--SP            ; [CPU_ALU] 
    1113                      .dwcfi  cfa_offset, -2
    1114                      .dwcfi  restore_reg, 7
    1115              $C$DW$47        .dwtag  DW_TAG_TI_branch
    1116                      .dwattr $C$DW$47, DW_AT_low_pc(0x00)
    1117                      .dwattr $C$DW$47, DW_AT_TI_return
    1118              
    1119 00000039 0006          LRETR     ; [CPU_ALU] 
    1120                      ; return occurs ; [] 
    1121                      .dwattr $C$DW$39, DW_AT_TI_end_file("../device/driverlib/memcfg.c")
    1122                      .dwattr $C$DW$39, DW_AT_TI_end_line(0x173)
    1123                      .dwattr $C$DW$39, DW_AT_TI_end_column(0x01)
    1124                      .dwendentry
    1125                      .dwendtag $C$DW$39
    1126              
    1127 00000000               .sect   ".text:_MemCfg_lockTestConfig"
    1128                      .clink
    1129                      .global _MemCfg_lockTestConfig
    1130              
    1131              $C$DW$48        .dwtag  DW_TAG_subprogram
    1132                      .dwattr $C$DW$48, DW_AT_name("MemCfg_lockTestConfig")
    1133                      .dwattr $C$DW$48, DW_AT_low_pc(_MemCfg_lockTestConfig)
    1134                      .dwattr $C$DW$48, DW_AT_high_pc(0x00)
    1135                      .dwattr $C$DW$48, DW_AT_TI_symbol_name("_MemCfg_lockTestConfig")
    1136                      .dwattr $C$DW$48, DW_AT_external
    1137                      .dwattr $C$DW$48, DW_AT_TI_begin_file("../device/driverlib/memcfg.c")
    1138                      .dwattr $C$DW$48, DW_AT_TI_begin_line(0x17b)
    1139                      .dwattr $C$DW$48, DW_AT_TI_begin_column(0x01)
    1140                      .dwattr $C$DW$48, DW_AT_TI_max_frame_size(-4)
    1141                      .dwpsn  file "../device/driverlib/memcfg.c",line 380,column 1,is_stmt,address _MemCfg_lockTestConfig,
    1142              
    1143                      .dwfde $C$DW$CIE, _MemCfg_lockTestConfig
    1144              $C$DW$49        .dwtag  DW_TAG_formal_parameter
    1145                      .dwattr $C$DW$49, DW_AT_name("memSections")
    1146                      .dwattr $C$DW$49, DW_AT_TI_symbol_name("_memSections")
    1147                      .dwattr $C$DW$49, DW_AT_type(*$C$DW$T$29)
    1148                      .dwattr $C$DW$49, DW_AT_location[DW_OP_reg0]
    1149              
    1150              
    1151              ;***************************************************************
    1152              ;* FNAME: _MemCfg_lockTestConfig        FR SIZE:   2           *
    1153              ;*                                                             *
    1154              ;* FUNCTION ENVIRONMENT                                        *
    1155              ;*                                                             *
    1156              ;* FUNCTION PROPERTIES                                         *
    1157              ;*                            0 Parameter,  0 Auto,  2 SOE     *
    1158              ;***************************************************************
    1159              
    1160              _MemCfg_lockTestConfig:
    1161              ;* AL    assigned to $O$C1
    1162              ;* AR6   assigned to $O$K7
    1163              ;* AR1   assigned to _memSections
    1164              $C$DW$50        .dwtag  DW_TAG_variable
    1165                      .dwattr $C$DW$50, DW_AT_name("memSections")
TMS320C2000 Assembler PC v22.6.1 Wed May 21 09:51:57 2025

Copyright (c) 1996-2018 Texas Instruments Incorporated
C:\Users\Daniel\AppData\Local\Temp\{6611AAE7-1C01-4726-BC3D-E811A318ED3B} PAGE   24

    1166                      .dwattr $C$DW$50, DW_AT_TI_symbol_name("_memSections")
    1167                      .dwattr $C$DW$50, DW_AT_type(*$C$DW$T$48)
    1168                      .dwattr $C$DW$50, DW_AT_location[DW_OP_reg6]
    1169              
    1170                      .dwcfi  cfa_offset, -2
    1171                      .dwcfi  save_reg_to_mem, 26, 0
    1172 00000000 B2BD          MOVL      *SP++,XAR1            ; [CPU_ALU] 
    1173                      .dwcfi  save_reg_to_mem, 7, 2
    1174                      .dwcfi  cfa_offset, -4
    1175 00000001 8BA9          MOVL      XAR1,ACC              ; [CPU_ALU] |380| 
    1176                      .dwpsn  file "../device/driverlib/memcfg.c",line 384,column 5,is_stmt,isa 0
    1177 00000002 9000          ANDB      AL,#0                 ; [CPU_ALU] |384| 
    1178 00000003 18A8          AND       AH,#65024             ; [CPU_ALU] |384| 
         00000004 FE00 
    1179 00000005 FF58          TEST      ACC                   ; [CPU_ALU] |384| 
    1180 00000006 611C          B         $C$L41,EQ             ; [CPU_ALU] |384| 
    1181                      ; branchcc occurs ; [] |384| 
    1182 00000007 B2A9          MOVL      ACC,XAR1              ; [CPU_ALU] |384| 
    1183 00000008 9000          ANDB      AL,#0                 ; [CPU_ALU] |384| 
    1184 00000009 18A8          AND       AH,#65280             ; [CPU_ALU] |384| 
         0000000a FF00 
    1185 0000000b 1EA6          MOVL      XAR6,ACC              ; [CPU_ALU] |384| 
    1186 0000000c FF2F          MOV       ACC,#1024 << 15       ; [CPU_ALU] |384| 
         0000000d 0400 
    1187 0000000e 0FA6          CMPL      ACC,XAR6              ; [CPU_ALU] |384| 
    1188 0000000f 6113          B         $C$L41,EQ             ; [CPU_ALU] |384| 
    1189                      ; branchcc occurs ; [] |384| 
    1190 00000010 FF2F          MOV       ACC,#1536 << 15       ; [CPU_ALU] |384| 
         00000011 0600 
    1191 00000012 0FA6          CMPL      ACC,XAR6              ; [CPU_ALU] |384| 
    1192 00000013 610F          B         $C$L41,EQ             ; [CPU_ALU] |384| 
    1193                      ; branchcc occurs ; [] |384| 
    1194 00000014 FF2F          MOV       ACC,#2048 << 15       ; [CPU_ALU] |384| 
         00000015 0800 
    1195 00000016 0FA6          CMPL      ACC,XAR6              ; [CPU_ALU] |384| 
    1196 00000017 610B          B         $C$L41,EQ             ; [CPU_ALU] |384| 
    1197                      ; branchcc occurs ; [] |384| 
    1198 00000018 0200          MOVB      ACC,#0                ; [CPU_ALU] |384| 
    1199 00000019 1901          SUBB      ACC,#1                ; [CPU_ALU] |384| 
    1200 0000001a 0FA1          CMPL      ACC,XAR1              ; [CPU_ALU] |384| 
    1201 0000001b 6107          B         $C$L41,EQ             ; [CPU_ALU] |384| 
    1202                      ; branchcc occurs ; [] |384| 
    1203 0000001c FF20          MOV       ACC,#389              ; [CPU_ALU] |384| 
         0000001d 0185 
    1204 0000001e 8F00+         MOVL      XAR4,#$C$FSL1         ; [CPU_ARAU] |384| 
         0000001f 0000 
    1205              $C$DW$51        .dwtag  DW_TAG_TI_branch
    1206                      .dwattr $C$DW$51, DW_AT_low_pc(0x00)
    1207                      .dwattr $C$DW$51, DW_AT_name("___error__")
    1208                      .dwattr $C$DW$51, DW_AT_TI_call
    1209              
    1210 00000020 7640!         LCR       #___error__           ; [CPU_ALU] |384| 
         00000021 0000 
    1211                      ; call occurs [#___error__] ; [] |384| 
    1212 00000022       $C$L41:    
TMS320C2000 Assembler PC v22.6.1 Wed May 21 09:51:57 2025

Copyright (c) 1996-2018 Texas Instruments Incorporated
C:\Users\Daniel\AppData\Local\Temp\{6611AAE7-1C01-4726-BC3D-E811A318ED3B} PAGE   25

    1213                      .dwpsn  file "../device/driverlib/memcfg.c",line 394,column 5,is_stmt,isa 0
    1214 00000022 7622          EALLOW    ; [CPU_ALU] |394| 
    1215                      .dwpsn  file "../device/driverlib/memcfg.c",line 396,column 5,is_stmt,isa 0
    1216 00000023 B2A9          MOVL      ACC,XAR1              ; [CPU_ALU] |396| 
    1217 00000024 9000          ANDB      AL,#0                 ; [CPU_ALU] |396| 
    1218 00000025 18A8          AND       AH,#65280             ; [CPU_ALU] |396| 
         00000026 FF00 
    1219 00000027 1EA6          MOVL      XAR6,ACC              ; [CPU_ALU] |396| 
    1220 00000028 FF2F          MOV       ACC,#1024 << 15       ; [CPU_ALU] |396| 
         00000029 0400 
    1221 0000002a 0FA6          CMPL      ACC,XAR6              ; [CPU_ALU] |396| 
    1222 0000002b 640F          B         $C$L42,LT             ; [CPU_ALU] |396| 
    1223                      ; branchcc occurs ; [] |396| 
    1224 0000002c 0FA6          CMPL      ACC,XAR6              ; [CPU_ALU] |396| 
    1225 0000002d 6135          B         $C$L46,EQ             ; [CPU_ALU] |396| 
    1226                      ; branchcc occurs ; [] |396| 
    1227 0000002e 3B01          SETC      SXM                   ; [CPU_ALU] 
    1228 0000002f FF2F          MOV       ACC,#-512 << 15       ; [CPU_ALU] |396| 
         00000030 FE00 
    1229 00000031 0FA6          CMPL      ACC,XAR6              ; [CPU_ALU] |396| 
    1230 00000032 6111          B         $C$L43,EQ             ; [CPU_ALU] |396| 
    1231                      ; branchcc occurs ; [] |396| 
    1232 00000033 06A6          MOVL      ACC,XAR6              ; [CPU_ALU] 
    1233 00000034 6134          B         $C$L48,EQ             ; [CPU_ALU] |396| 
    1234                      ; branchcc occurs ; [] |396| 
    1235 00000035 FF2F          MOV       ACC,#512 << 15        ; [CPU_ALU] |396| 
         00000036 0200 
    1236 00000037 0FA6          CMPL      ACC,XAR6              ; [CPU_ALU] |396| 
    1237 00000038 612D          B         $C$L47,EQ             ; [CPU_ALU] |396| 
    1238                      ; branchcc occurs ; [] |396| 
    1239 00000039 6F38          B         $C$L50,UNC            ; [CPU_ALU] |396| 
    1240                      ; branch occurs ; [] |396| 
    1241 0000003a       $C$L42:    
    1242 0000003a FF2F          MOV       ACC,#1536 << 15       ; [CPU_ALU] |396| 
         0000003b 0600 
    1243 0000003c 0FA6          CMPL      ACC,XAR6              ; [CPU_ALU] |396| 
    1244 0000003d 6122          B         $C$L45,EQ             ; [CPU_ALU] |396| 
    1245                      ; branchcc occurs ; [] |396| 
    1246 0000003e FF2F          MOV       ACC,#2048 << 15       ; [CPU_ALU] |396| 
         0000003f 0800 
    1247 00000040 0FA6          CMPL      ACC,XAR6              ; [CPU_ALU] |396| 
    1248 00000041 611B          B         $C$L44,EQ             ; [CPU_ALU] |396| 
    1249                      ; branchcc occurs ; [] |396| 
    1250 00000042 6F2F          B         $C$L50,UNC            ; [CPU_ALU] |396| 
    1251                      ; branch occurs ; [] |396| 
    1252 00000043       $C$L43:    
    1253                      .dwpsn  file "../device/driverlib/memcfg.c",line 428,column 13,is_stmt,isa 0
    1254 00000043 B2A9          MOVL      ACC,XAR1              ; [CPU_ALU] |428| 
    1255 00000044 8F45          MOVL      XAR5,#390166          ; [CPU_ARAU] |428| 
         00000045 F416 
    1256                      .dwpsn  file "../device/driverlib/memcfg.c",line 430,column 13,is_stmt,isa 0
    1257 00000046 8F05          MOVL      XAR4,#390198          ; [CPU_ARAU] |430| 
         00000047 F436 
    1258                      .dwpsn  file "../device/driverlib/memcfg.c",line 428,column 13,is_stmt,isa 0
    1259 00000048 917F          ANDB      AH,#127               ; [CPU_ALU] |428| 
TMS320C2000 Assembler PC v22.6.1 Wed May 21 09:51:57 2025

Copyright (c) 1996-2018 Texas Instruments Incorporated
C:\Users\Daniel\AppData\Local\Temp\{6611AAE7-1C01-4726-BC3D-E811A318ED3B} PAGE   26

    1260                      .dwpsn  file "../device/driverlib/memcfg.c",line 432,column 13,is_stmt,isa 0
    1261 00000049 7685          MOVL      XAR6,#390230          ; [CPU_ARAU] |432| 
         0000004a F456 
    1262                      .dwpsn  file "../device/driverlib/memcfg.c",line 428,column 13,is_stmt,isa 0
    1263 0000004b 98C5          OR        *+XAR5[0],AL          ; [CPU_ALU] |428| 
    1264 0000004c 1AA8          OR        AH,#42405             ; [CPU_ALU] |428| 
         0000004d A5A5 
    1265 0000004e 99CD          OR        *+XAR5[1],AH          ; [CPU_ALU] |428| 
    1266                      .dwpsn  file "../device/driverlib/memcfg.c",line 430,column 13,is_stmt,isa 0
    1267 0000004f 98C4          OR        *+XAR4[0],AL          ; [CPU_ALU] |430| 
    1268                      .dwpsn  file "../device/driverlib/memcfg.c",line 434,column 13,is_stmt,isa 0
    1269 00000050 8F45          MOVL      XAR5,#390262          ; [CPU_ARAU] |434| 
         00000051 F476 
    1270                      .dwpsn  file "../device/driverlib/memcfg.c",line 430,column 13,is_stmt,isa 0
    1271 00000052 99CC          OR        *+XAR4[1],AH          ; [CPU_ALU] |430| 
    1272                      .dwpsn  file "../device/driverlib/memcfg.c",line 436,column 13,is_stmt,isa 0
    1273 00000053 8F05          MOVL      XAR4,#390304          ; [CPU_ARAU] |436| 
         00000054 F4A0 
    1274                      .dwpsn  file "../device/driverlib/memcfg.c",line 432,column 13,is_stmt,isa 0
    1275 00000055 98C6          OR        *+XAR6[0],AL          ; [CPU_ALU] |432| 
    1276 00000056 99CE          OR        *+XAR6[1],AH          ; [CPU_ALU] |432| 
    1277                      .dwpsn  file "../device/driverlib/memcfg.c",line 434,column 13,is_stmt,isa 0
    1278 00000057 98C5          OR        *+XAR5[0],AL          ; [CPU_ALU] |434| 
    1279 00000058 99CD          OR        *+XAR5[1],AH          ; [CPU_ALU] |434| 
    1280                      .dwpsn  file "../device/driverlib/memcfg.c",line 436,column 13,is_stmt,isa 0
    1281 00000059 98C4          OR        *+XAR4[0],AL          ; [CPU_ALU] |436| 
    1282 0000005a 99CC          OR        *+XAR4[1],AH          ; [CPU_ALU] |436| 
    1283                      .dwpsn  file "../device/driverlib/memcfg.c",line 438,column 13,is_stmt,isa 0
    1284 0000005b 6F16          B         $C$L50,UNC            ; [CPU_ALU] |438| 
    1285                      ; branch occurs ; [] |438| 
    1286 0000005c       $C$L44:    
    1287                      .dwpsn  file "../device/driverlib/memcfg.c",line 419,column 13,is_stmt,isa 0
    1288 0000005c 8F05          MOVL      XAR4,#390304          ; [CPU_ARAU] |419| 
         0000005d F4A0 
    1289                      .dwpsn  file "../device/driverlib/memcfg.c",line 421,column 13,is_stmt,isa 0
    1290 0000005e 6F0C          B         $C$L49,UNC            ; [CPU_ALU] |421| 
    1291                      ; branch occurs ; [] |421| 
    1292 0000005f       $C$L45:    
    1293                      .dwpsn  file "../device/driverlib/memcfg.c",line 414,column 14,is_stmt,isa 0
    1294 0000005f 8F05          MOVL      XAR4,#390262          ; [CPU_ARAU] |414| 
         00000060 F476 
    1295                      .dwpsn  file "../device/driverlib/memcfg.c",line 416,column 13,is_stmt,isa 0
    1296 00000061 6F09          B         $C$L49,UNC            ; [CPU_ALU] |416| 
    1297                      ; branch occurs ; [] |416| 
    1298 00000062       $C$L46:    
    1299                      .dwpsn  file "../device/driverlib/memcfg.c",line 409,column 14,is_stmt,isa 0
    1300 00000062 8F05          MOVL      XAR4,#390230          ; [CPU_ARAU] |409| 
         00000063 F456 
    1301                      .dwpsn  file "../device/driverlib/memcfg.c",line 411,column 13,is_stmt,isa 0
    1302 00000064 6F06          B         $C$L49,UNC            ; [CPU_ALU] |411| 
    1303                      ; branch occurs ; [] |411| 
    1304 00000065       $C$L47:    
    1305                      .dwpsn  file "../device/driverlib/memcfg.c",line 404,column 14,is_stmt,isa 0
    1306 00000065 8F05          MOVL      XAR4,#390198          ; [CPU_ARAU] |404| 
         00000066 F436 
TMS320C2000 Assembler PC v22.6.1 Wed May 21 09:51:57 2025

Copyright (c) 1996-2018 Texas Instruments Incorporated
C:\Users\Daniel\AppData\Local\Temp\{6611AAE7-1C01-4726-BC3D-E811A318ED3B} PAGE   27

    1307                      .dwpsn  file "../device/driverlib/memcfg.c",line 406,column 13,is_stmt,isa 0
    1308 00000067 6F03          B         $C$L49,UNC            ; [CPU_ALU] |406| 
    1309                      ; branch occurs ; [] |406| 
    1310 00000068       $C$L48:    
    1311                      .dwpsn  file "../device/driverlib/memcfg.c",line 399,column 14,is_stmt,isa 0
    1312 00000068 8F05          MOVL      XAR4,#390166          ; [CPU_ARAU] |399| 
         00000069 F416 
    1313 0000006a       $C$L49:    
    1314 0000006a B2A9          MOVL      ACC,XAR1              ; [CPU_ALU] |399| 
    1315 0000006b 917F          ANDB      AH,#127               ; [CPU_ALU] |399| 
    1316 0000006c CAC4          OR        AL,*+XAR4[0]          ; [CPU_ALU] |399| 
    1317 0000006d CBCC          OR        AH,*+XAR4[1]          ; [CPU_ALU] |399| 
    1318 0000006e 1AA8          OR        AH,#42405             ; [CPU_ALU] |399| 
         0000006f A5A5 
    1319 00000070 1EC4          MOVL      *+XAR4[0],ACC         ; [CPU_ALU] |399| 
    1320 00000071       $C$L50:    
    1321                      .dwpsn  file "../device/driverlib/memcfg.c",line 448,column 5,is_stmt,isa 0
    1322 00000071 761A          EDIS      ; [CPU_ALU] |448| 
    1323 00000072 8BBE          MOVL      XAR1,*--SP            ; [CPU_ALU] 
    1324                      .dwcfi  cfa_offset, -2
    1325                      .dwcfi  restore_reg, 7
    1326              $C$DW$52        .dwtag  DW_TAG_TI_branch
    1327                      .dwattr $C$DW$52, DW_AT_low_pc(0x00)
    1328                      .dwattr $C$DW$52, DW_AT_TI_return
    1329              
    1330 00000073 0006          LRETR     ; [CPU_ALU] 
    1331                      ; return occurs ; [] 
    1332                      .dwattr $C$DW$48, DW_AT_TI_end_file("../device/driverlib/memcfg.c")
    1333                      .dwattr $C$DW$48, DW_AT_TI_end_line(0x1c1)
    1334                      .dwattr $C$DW$48, DW_AT_TI_end_column(0x01)
    1335                      .dwendentry
    1336                      .dwendtag $C$DW$48
    1337              
    1338 00000000               .sect   ".text:_MemCfg_lockConfig"
    1339                      .clink
    1340                      .global _MemCfg_lockConfig
    1341              
    1342              $C$DW$53        .dwtag  DW_TAG_subprogram
    1343                      .dwattr $C$DW$53, DW_AT_name("MemCfg_lockConfig")
    1344                      .dwattr $C$DW$53, DW_AT_low_pc(_MemCfg_lockConfig)
    1345                      .dwattr $C$DW$53, DW_AT_high_pc(0x00)
    1346                      .dwattr $C$DW$53, DW_AT_TI_symbol_name("_MemCfg_lockConfig")
    1347                      .dwattr $C$DW$53, DW_AT_external
    1348                      .dwattr $C$DW$53, DW_AT_TI_begin_file("../device/driverlib/memcfg.c")
    1349                      .dwattr $C$DW$53, DW_AT_TI_begin_line(0x32)
    1350                      .dwattr $C$DW$53, DW_AT_TI_begin_column(0x01)
    1351                      .dwattr $C$DW$53, DW_AT_TI_max_frame_size(-4)
    1352                      .dwpsn  file "../device/driverlib/memcfg.c",line 51,column 1,is_stmt,address _MemCfg_lockConfig,isa 0
    1353              
    1354                      .dwfde $C$DW$CIE, _MemCfg_lockConfig
    1355              $C$DW$54        .dwtag  DW_TAG_formal_parameter
    1356                      .dwattr $C$DW$54, DW_AT_name("memSections")
    1357                      .dwattr $C$DW$54, DW_AT_TI_symbol_name("_memSections")
    1358                      .dwattr $C$DW$54, DW_AT_type(*$C$DW$T$29)
    1359                      .dwattr $C$DW$54, DW_AT_location[DW_OP_reg0]
TMS320C2000 Assembler PC v22.6.1 Wed May 21 09:51:57 2025

Copyright (c) 1996-2018 Texas Instruments Incorporated
C:\Users\Daniel\AppData\Local\Temp\{6611AAE7-1C01-4726-BC3D-E811A318ED3B} PAGE   28

    1360              
    1361              
    1362              ;***************************************************************
    1363              ;* FNAME: _MemCfg_lockConfig            FR SIZE:   2           *
    1364              ;*                                                             *
    1365              ;* FUNCTION ENVIRONMENT                                        *
    1366              ;*                                                             *
    1367              ;* FUNCTION PROPERTIES                                         *
    1368              ;*                            0 Parameter,  0 Auto,  2 SOE     *
    1369              ;***************************************************************
    1370              
    1371              _MemCfg_lockConfig:
    1372              ;* AR6   assigned to $O$K7
    1373              ;* AR1   assigned to _memSections
    1374              $C$DW$55        .dwtag  DW_TAG_variable
    1375                      .dwattr $C$DW$55, DW_AT_name("memSections")
    1376                      .dwattr $C$DW$55, DW_AT_TI_symbol_name("_memSections")
    1377                      .dwattr $C$DW$55, DW_AT_type(*$C$DW$T$48)
    1378                      .dwattr $C$DW$55, DW_AT_location[DW_OP_reg6]
    1379              
    1380                      .dwcfi  cfa_offset, -2
    1381                      .dwcfi  save_reg_to_mem, 26, 0
    1382 00000000 B2BD          MOVL      *SP++,XAR1            ; [CPU_ALU] 
    1383                      .dwcfi  save_reg_to_mem, 7, 2
    1384                      .dwcfi  cfa_offset, -4
    1385 00000001 8BA9          MOVL      XAR1,ACC              ; [CPU_ALU] |51| 
    1386                      .dwpsn  file "../device/driverlib/memcfg.c",line 55,column 5,is_stmt,isa 0
    1387 00000002 9000          ANDB      AL,#0                 ; [CPU_ALU] |55| 
    1388 00000003 18A8          AND       AH,#65024             ; [CPU_ALU] |55| 
         00000004 FE00 
    1389 00000005 FF58          TEST      ACC                   ; [CPU_ALU] |55| 
    1390 00000006 6117          B         $C$L51,EQ             ; [CPU_ALU] |55| 
    1391                      ; branchcc occurs ; [] |55| 
    1392 00000007 B2A9          MOVL      ACC,XAR1              ; [CPU_ALU] |55| 
    1393 00000008 9000          ANDB      AL,#0                 ; [CPU_ALU] |55| 
    1394 00000009 18A8          AND       AH,#65280             ; [CPU_ALU] |55| 
         0000000a FF00 
    1395 0000000b 1EA6          MOVL      XAR6,ACC              ; [CPU_ALU] |55| 
    1396 0000000c FF2F          MOV       ACC,#1024 << 15       ; [CPU_ALU] |55| 
         0000000d 0400 
    1397 0000000e 0FA6          CMPL      ACC,XAR6              ; [CPU_ALU] |55| 
    1398 0000000f 610E          B         $C$L51,EQ             ; [CPU_ALU] |55| 
    1399                      ; branchcc occurs ; [] |55| 
    1400 00000010 FF2F          MOV       ACC,#1536 << 15       ; [CPU_ALU] |55| 
         00000011 0600 
    1401 00000012 0FA6          CMPL      ACC,XAR6              ; [CPU_ALU] |55| 
    1402 00000013 610A          B         $C$L51,EQ             ; [CPU_ALU] |55| 
    1403                      ; branchcc occurs ; [] |55| 
    1404 00000014 0200          MOVB      ACC,#0                ; [CPU_ALU] |55| 
    1405 00000015 1901          SUBB      ACC,#1                ; [CPU_ALU] |55| 
    1406 00000016 0FA1          CMPL      ACC,XAR1              ; [CPU_ALU] |55| 
    1407 00000017 6106          B         $C$L51,EQ             ; [CPU_ALU] |55| 
    1408                      ; branchcc occurs ; [] |55| 
    1409 00000018 8F00+         MOVL      XAR4,#$C$FSL1         ; [CPU_ARAU] |55| 
         00000019 0000 
TMS320C2000 Assembler PC v22.6.1 Wed May 21 09:51:57 2025

Copyright (c) 1996-2018 Texas Instruments Incorporated
C:\Users\Daniel\AppData\Local\Temp\{6611AAE7-1C01-4726-BC3D-E811A318ED3B} PAGE   29

    1410 0000001a 023B          MOVB      ACC,#59               ; [CPU_ALU] |55| 
    1411              $C$DW$56        .dwtag  DW_TAG_TI_branch
    1412                      .dwattr $C$DW$56, DW_AT_low_pc(0x00)
    1413                      .dwattr $C$DW$56, DW_AT_name("___error__")
    1414                      .dwattr $C$DW$56, DW_AT_TI_call
    1415              
    1416 0000001b 7640!         LCR       #___error__           ; [CPU_ALU] |55| 
         0000001c 0000 
    1417                      ; call occurs [#___error__] ; [] |55| 
    1418 0000001d       $C$L51:    
    1419                      .dwpsn  file "../device/driverlib/memcfg.c",line 64,column 5,is_stmt,isa 0
    1420 0000001d 7622          EALLOW    ; [CPU_ALU] |64| 
    1421                      .dwpsn  file "../device/driverlib/memcfg.c",line 66,column 5,is_stmt,isa 0
    1422 0000001e B2A9          MOVL      ACC,XAR1              ; [CPU_ALU] |66| 
    1423 0000001f 9000          ANDB      AL,#0                 ; [CPU_ALU] |66| 
    1424 00000020 18A8          AND       AH,#65280             ; [CPU_ALU] |66| 
         00000021 FF00 
    1425 00000022 1EA6          MOVL      XAR6,ACC              ; [CPU_ALU] |66| 
    1426 00000023 FF2F          MOV       ACC,#512 << 15        ; [CPU_ALU] |66| 
         00000024 0200 
    1427 00000025 0FA6          CMPL      ACC,XAR6              ; [CPU_ALU] |66| 
    1428 00000026 640B          B         $C$L52,LT             ; [CPU_ALU] |66| 
    1429                      ; branchcc occurs ; [] |66| 
    1430 00000027 0FA6          CMPL      ACC,XAR6              ; [CPU_ALU] |66| 
    1431 00000028 612B          B         $C$L56,EQ             ; [CPU_ALU] |66| 
    1432                      ; branchcc occurs ; [] |66| 
    1433 00000029 3B01          SETC      SXM                   ; [CPU_ALU] 
    1434 0000002a FF2F          MOV       ACC,#-512 << 15       ; [CPU_ALU] |66| 
         0000002b FE00 
    1435 0000002c 0FA6          CMPL      ACC,XAR6              ; [CPU_ALU] |66| 
    1436 0000002d 610D          B         $C$L53,EQ             ; [CPU_ALU] |66| 
    1437                      ; branchcc occurs ; [] |66| 
    1438 0000002e 06A6          MOVL      ACC,XAR6              ; [CPU_ALU] 
    1439 0000002f 6127          B         $C$L57,EQ             ; [CPU_ALU] |66| 
    1440                      ; branchcc occurs ; [] |66| 
    1441 00000030 6F2C          B         $C$L60,UNC            ; [CPU_ALU] |66| 
    1442                      ; branch occurs ; [] |66| 
    1443 00000031       $C$L52:    
    1444 00000031 FF2F          MOV       ACC,#1024 << 15       ; [CPU_ALU] |66| 
         00000032 0400 
    1445 00000033 0FA6          CMPL      ACC,XAR6              ; [CPU_ALU] |66| 
    1446 00000034 611C          B         $C$L55,EQ             ; [CPU_ALU] |66| 
    1447                      ; branchcc occurs ; [] |66| 
    1448 00000035 FF2F          MOV       ACC,#1536 << 15       ; [CPU_ALU] |66| 
         00000036 0600 
    1449 00000037 0FA6          CMPL      ACC,XAR6              ; [CPU_ALU] |66| 
    1450 00000038 6115          B         $C$L54,EQ             ; [CPU_ALU] |66| 
    1451                      ; branchcc occurs ; [] |66| 
    1452 00000039 6F23          B         $C$L60,UNC            ; [CPU_ALU] |66| 
    1453                      ; branch occurs ; [] |66| 
    1454 0000003a       $C$L53:    
    1455                      .dwpsn  file "../device/driverlib/memcfg.c",line 92,column 13,is_stmt,isa 0
    1456 0000003a 0203          MOVB      ACC,#3                ; [CPU_ALU] |92| 
    1457 0000003b 8F05          MOVL      XAR4,#390144          ; [CPU_ARAU] |92| 
         0000003c F400 
TMS320C2000 Assembler PC v22.6.1 Wed May 21 09:51:57 2025

Copyright (c) 1996-2018 Texas Instruments Incorporated
C:\Users\Daniel\AppData\Local\Temp\{6611AAE7-1C01-4726-BC3D-E811A318ED3B} PAGE   30

    1458 0000003d 98C4          OR        *+XAR4[0],AL          ; [CPU_ALU] |92| 
    1459 0000003e 99CC          OR        *+XAR4[1],AH          ; [CPU_ALU] |92| 
    1460                      .dwpsn  file "../device/driverlib/memcfg.c",line 94,column 13,is_stmt,isa 0
    1461 0000003f 02FF          MOVB      ACC,#255              ; [CPU_ALU] |94| 
    1462 00000040 8F05          MOVL      XAR4,#390176          ; [CPU_ARAU] |94| 
         00000041 F420 
    1463 00000042 98C4          OR        *+XAR4[0],AL          ; [CPU_ALU] |94| 
    1464 00000043 99CC          OR        *+XAR4[1],AH          ; [CPU_ALU] |94| 
    1465                      .dwpsn  file "../device/driverlib/memcfg.c",line 96,column 13,is_stmt,isa 0
    1466 00000044 020F          MOVB      ACC,#15               ; [CPU_ALU] |96| 
    1467 00000045 8F05          MOVL      XAR4,#390208          ; [CPU_ARAU] |96| 
         00000046 F440 
    1468 00000047 98C4          OR        *+XAR4[0],AL          ; [CPU_ALU] |96| 
    1469 00000048 99CC          OR        *+XAR4[1],AH          ; [CPU_ALU] |96| 
    1470                      .dwpsn  file "../device/driverlib/memcfg.c",line 98,column 13,is_stmt,isa 0
    1471 00000049 0206          MOVB      ACC,#6                ; [CPU_ALU] |98| 
    1472 0000004a 8F05          MOVL      XAR4,#390240          ; [CPU_ARAU] |98| 
         0000004b F460 
    1473                      .dwpsn  file "../device/driverlib/memcfg.c",line 100,column 13,is_stmt,isa 0
    1474 0000004c 6F0E          B         $C$L59,UNC            ; [CPU_ALU] |100| 
    1475                      ; branch occurs ; [] |100| 
    1476 0000004d       $C$L54:    
    1477                      .dwpsn  file "../device/driverlib/memcfg.c",line 84,column 13,is_stmt,isa 0
    1478 0000004d 8F05          MOVL      XAR4,#390240          ; [CPU_ARAU] |84| 
         0000004e F460 
    1479                      .dwpsn  file "../device/driverlib/memcfg.c",line 86,column 13,is_stmt,isa 0
    1480 0000004f 6F09          B         $C$L58,UNC            ; [CPU_ALU] |86| 
    1481                      ; branch occurs ; [] |86| 
    1482 00000050       $C$L55:    
    1483                      .dwpsn  file "../device/driverlib/memcfg.c",line 79,column 13,is_stmt,isa 0
    1484 00000050 8F05          MOVL      XAR4,#390208          ; [CPU_ARAU] |79| 
         00000051 F440 
    1485                      .dwpsn  file "../device/driverlib/memcfg.c",line 81,column 13,is_stmt,isa 0
    1486 00000052 6F06          B         $C$L58,UNC            ; [CPU_ALU] |81| 
    1487                      ; branch occurs ; [] |81| 
    1488 00000053       $C$L56:    
    1489                      .dwpsn  file "../device/driverlib/memcfg.c",line 74,column 13,is_stmt,isa 0
    1490 00000053 8F05          MOVL      XAR4,#390176          ; [CPU_ARAU] |74| 
         00000054 F420 
    1491                      .dwpsn  file "../device/driverlib/memcfg.c",line 76,column 13,is_stmt,isa 0
    1492 00000055 6F03          B         $C$L58,UNC            ; [CPU_ALU] |76| 
    1493                      ; branch occurs ; [] |76| 
    1494 00000056       $C$L57:    
    1495                      .dwpsn  file "../device/driverlib/memcfg.c",line 69,column 13,is_stmt,isa 0
    1496 00000056 8F05          MOVL      XAR4,#390144          ; [CPU_ARAU] |69| 
         00000057 F400 
    1497 00000058       $C$L58:    
    1498 00000058 B2A9          MOVL      ACC,XAR1              ; [CPU_ALU] |69| 
    1499 00000059 91FF          ANDB      AH,#255               ; [CPU_ALU] |69| 
    1500 0000005a       $C$L59:    
    1501 0000005a 98C4          OR        *+XAR4[0],AL          ; [CPU_ALU] |69| 
    1502 0000005b 99CC          OR        *+XAR4[1],AH          ; [CPU_ALU] |69| 
    1503 0000005c       $C$L60:    
    1504                      .dwpsn  file "../device/driverlib/memcfg.c",line 110,column 5,is_stmt,isa 0
    1505 0000005c 761A          EDIS      ; [CPU_ALU] |110| 
TMS320C2000 Assembler PC v22.6.1 Wed May 21 09:51:57 2025

Copyright (c) 1996-2018 Texas Instruments Incorporated
C:\Users\Daniel\AppData\Local\Temp\{6611AAE7-1C01-4726-BC3D-E811A318ED3B} PAGE   31

    1506 0000005d 8BBE          MOVL      XAR1,*--SP            ; [CPU_ALU] 
    1507                      .dwcfi  cfa_offset, -2
    1508                      .dwcfi  restore_reg, 7
    1509              $C$DW$57        .dwtag  DW_TAG_TI_branch
    1510                      .dwattr $C$DW$57, DW_AT_low_pc(0x00)
    1511                      .dwattr $C$DW$57, DW_AT_TI_return
    1512              
    1513 0000005e 0006          LRETR     ; [CPU_ALU] 
    1514                      ; return occurs ; [] 
    1515                      .dwattr $C$DW$53, DW_AT_TI_end_file("../device/driverlib/memcfg.c")
    1516                      .dwattr $C$DW$53, DW_AT_TI_end_line(0x6f)
    1517                      .dwattr $C$DW$53, DW_AT_TI_end_column(0x01)
    1518                      .dwendentry
    1519                      .dwendtag $C$DW$53
    1520              
    1521 00000000               .sect   ".text:_MemCfg_initSections"
    1522                      .clink
    1523                      .global _MemCfg_initSections
    1524              
    1525              $C$DW$58        .dwtag  DW_TAG_subprogram
    1526                      .dwattr $C$DW$58, DW_AT_name("MemCfg_initSections")
    1527                      .dwattr $C$DW$58, DW_AT_low_pc(_MemCfg_initSections)
    1528                      .dwattr $C$DW$58, DW_AT_high_pc(0x00)
    1529                      .dwattr $C$DW$58, DW_AT_TI_symbol_name("_MemCfg_initSections")
    1530                      .dwattr $C$DW$58, DW_AT_external
    1531                      .dwattr $C$DW$58, DW_AT_TI_begin_file("../device/driverlib/memcfg.c")
    1532                      .dwattr $C$DW$58, DW_AT_TI_begin_line(0x276)
    1533                      .dwattr $C$DW$58, DW_AT_TI_begin_column(0x01)
    1534                      .dwattr $C$DW$58, DW_AT_TI_max_frame_size(-4)
    1535                      .dwpsn  file "../device/driverlib/memcfg.c",line 631,column 1,is_stmt,address _MemCfg_initSections,is
    1536              
    1537                      .dwfde $C$DW$CIE, _MemCfg_initSections
    1538              $C$DW$59        .dwtag  DW_TAG_formal_parameter
    1539                      .dwattr $C$DW$59, DW_AT_name("ramSections")
    1540                      .dwattr $C$DW$59, DW_AT_TI_symbol_name("_ramSections")
    1541                      .dwattr $C$DW$59, DW_AT_type(*$C$DW$T$29)
    1542                      .dwattr $C$DW$59, DW_AT_location[DW_OP_reg0]
    1543              
    1544              
    1545              ;***************************************************************
    1546              ;* FNAME: _MemCfg_initSections          FR SIZE:   2           *
    1547              ;*                                                             *
    1548              ;* FUNCTION ENVIRONMENT                                        *
    1549              ;*                                                             *
    1550              ;* FUNCTION PROPERTIES                                         *
    1551              ;*                            0 Parameter,  0 Auto,  2 SOE     *
    1552              ;***************************************************************
    1553              
    1554              _MemCfg_initSections:
    1555              ;* AR6   assigned to $O$K7
    1556              ;* AR1   assigned to _ramSections
    1557              $C$DW$60        .dwtag  DW_TAG_variable
    1558                      .dwattr $C$DW$60, DW_AT_name("ramSections")
    1559                      .dwattr $C$DW$60, DW_AT_TI_symbol_name("_ramSections")
    1560                      .dwattr $C$DW$60, DW_AT_type(*$C$DW$T$48)
TMS320C2000 Assembler PC v22.6.1 Wed May 21 09:51:57 2025

Copyright (c) 1996-2018 Texas Instruments Incorporated
C:\Users\Daniel\AppData\Local\Temp\{6611AAE7-1C01-4726-BC3D-E811A318ED3B} PAGE   32

    1561                      .dwattr $C$DW$60, DW_AT_location[DW_OP_reg6]
    1562              
    1563                      .dwcfi  cfa_offset, -2
    1564                      .dwcfi  save_reg_to_mem, 26, 0
    1565 00000000 B2BD          MOVL      *SP++,XAR1            ; [CPU_ALU] 
    1566                      .dwcfi  save_reg_to_mem, 7, 2
    1567                      .dwcfi  cfa_offset, -4
    1568 00000001 8BA9          MOVL      XAR1,ACC              ; [CPU_ALU] |631| 
    1569                      .dwpsn  file "../device/driverlib/memcfg.c",line 635,column 5,is_stmt,isa 0
    1570 00000002 9000          ANDB      AL,#0                 ; [CPU_ALU] |635| 
    1571 00000003 18A8          AND       AH,#65024             ; [CPU_ALU] |635| 
         00000004 FE00 
    1572 00000005 FF58          TEST      ACC                   ; [CPU_ALU] |635| 
    1573 00000006 6118          B         $C$L61,EQ             ; [CPU_ALU] |635| 
    1574                      ; branchcc occurs ; [] |635| 
    1575 00000007 B2A9          MOVL      ACC,XAR1              ; [CPU_ALU] |635| 
    1576 00000008 9000          ANDB      AL,#0                 ; [CPU_ALU] |635| 
    1577 00000009 18A8          AND       AH,#65280             ; [CPU_ALU] |635| 
         0000000a FF00 
    1578 0000000b 1EA6          MOVL      XAR6,ACC              ; [CPU_ALU] |635| 
    1579 0000000c FF2F          MOV       ACC,#1024 << 15       ; [CPU_ALU] |635| 
         0000000d 0400 
    1580 0000000e 0FA6          CMPL      ACC,XAR6              ; [CPU_ALU] |635| 
    1581 0000000f 610F          B         $C$L61,EQ             ; [CPU_ALU] |635| 
    1582                      ; branchcc occurs ; [] |635| 
    1583 00000010 FF2F          MOV       ACC,#1536 << 15       ; [CPU_ALU] |635| 
         00000011 0600 
    1584 00000012 0FA6          CMPL      ACC,XAR6              ; [CPU_ALU] |635| 
    1585 00000013 610B          B         $C$L61,EQ             ; [CPU_ALU] |635| 
    1586                      ; branchcc occurs ; [] |635| 
    1587 00000014 0200          MOVB      ACC,#0                ; [CPU_ALU] |635| 
    1588 00000015 1901          SUBB      ACC,#1                ; [CPU_ALU] |635| 
    1589 00000016 0FA1          CMPL      ACC,XAR1              ; [CPU_ALU] |635| 
    1590 00000017 6107          B         $C$L61,EQ             ; [CPU_ALU] |635| 
    1591                      ; branchcc occurs ; [] |635| 
    1592 00000018 FF20          MOV       ACC,#639              ; [CPU_ALU] |635| 
         00000019 027F 
    1593 0000001a 8F00+         MOVL      XAR4,#$C$FSL1         ; [CPU_ARAU] |635| 
         0000001b 0000 
    1594              $C$DW$61        .dwtag  DW_TAG_TI_branch
    1595                      .dwattr $C$DW$61, DW_AT_low_pc(0x00)
    1596                      .dwattr $C$DW$61, DW_AT_name("___error__")
    1597                      .dwattr $C$DW$61, DW_AT_TI_call
    1598              
    1599 0000001c 7640!         LCR       #___error__           ; [CPU_ALU] |635| 
         0000001d 0000 
    1600                      ; call occurs [#___error__] ; [] |635| 
    1601 0000001e       $C$L61:    
    1602                      .dwpsn  file "../device/driverlib/memcfg.c",line 645,column 5,is_stmt,isa 0
    1603 0000001e 7622          EALLOW    ; [CPU_ALU] |645| 
    1604                      .dwpsn  file "../device/driverlib/memcfg.c",line 647,column 5,is_stmt,isa 0
    1605 0000001f B2A9          MOVL      ACC,XAR1              ; [CPU_ALU] |647| 
    1606 00000020 9000          ANDB      AL,#0                 ; [CPU_ALU] |647| 
    1607 00000021 18A8          AND       AH,#65280             ; [CPU_ALU] |647| 
         00000022 FF00 
TMS320C2000 Assembler PC v22.6.1 Wed May 21 09:51:57 2025

Copyright (c) 1996-2018 Texas Instruments Incorporated
C:\Users\Daniel\AppData\Local\Temp\{6611AAE7-1C01-4726-BC3D-E811A318ED3B} PAGE   33

    1608 00000023 1EA6          MOVL      XAR6,ACC              ; [CPU_ALU] |647| 
    1609 00000024 FF2F          MOV       ACC,#512 << 15        ; [CPU_ALU] |647| 
         00000025 0200 
    1610 00000026 0FA6          CMPL      ACC,XAR6              ; [CPU_ALU] |647| 
    1611 00000027 640B          B         $C$L62,LT             ; [CPU_ALU] |647| 
    1612                      ; branchcc occurs ; [] |647| 
    1613 00000028 0FA6          CMPL      ACC,XAR6              ; [CPU_ALU] |647| 
    1614 00000029 612B          B         $C$L66,EQ             ; [CPU_ALU] |647| 
    1615                      ; branchcc occurs ; [] |647| 
    1616 0000002a 3B01          SETC      SXM                   ; [CPU_ALU] 
    1617 0000002b FF2F          MOV       ACC,#-512 << 15       ; [CPU_ALU] |647| 
         0000002c FE00 
    1618 0000002d 0FA6          CMPL      ACC,XAR6              ; [CPU_ALU] |647| 
    1619 0000002e 610D          B         $C$L63,EQ             ; [CPU_ALU] |647| 
    1620                      ; branchcc occurs ; [] |647| 
    1621 0000002f 06A6          MOVL      ACC,XAR6              ; [CPU_ALU] 
    1622 00000030 6127          B         $C$L67,EQ             ; [CPU_ALU] |647| 
    1623                      ; branchcc occurs ; [] |647| 
    1624 00000031 6F2C          B         $C$L70,UNC            ; [CPU_ALU] |647| 
    1625                      ; branch occurs ; [] |647| 
    1626 00000032       $C$L62:    
    1627 00000032 FF2F          MOV       ACC,#1024 << 15       ; [CPU_ALU] |647| 
         00000033 0400 
    1628 00000034 0FA6          CMPL      ACC,XAR6              ; [CPU_ALU] |647| 
    1629 00000035 611C          B         $C$L65,EQ             ; [CPU_ALU] |647| 
    1630                      ; branchcc occurs ; [] |647| 
    1631 00000036 FF2F          MOV       ACC,#1536 << 15       ; [CPU_ALU] |647| 
         00000037 0600 
    1632 00000038 0FA6          CMPL      ACC,XAR6              ; [CPU_ALU] |647| 
    1633 00000039 6115          B         $C$L64,EQ             ; [CPU_ALU] |647| 
    1634                      ; branchcc occurs ; [] |647| 
    1635 0000003a 6F23          B         $C$L70,UNC            ; [CPU_ALU] |647| 
    1636                      ; branch occurs ; [] |647| 
    1637 0000003b       $C$L63:    
    1638                      .dwpsn  file "../device/driverlib/memcfg.c",line 673,column 13,is_stmt,isa 0
    1639 0000003b 0203          MOVB      ACC,#3                ; [CPU_ALU] |673| 
    1640 0000003c 8F05          MOVL      XAR4,#390162          ; [CPU_ARAU] |673| 
         0000003d F412 
    1641 0000003e 98C4          OR        *+XAR4[0],AL          ; [CPU_ALU] |673| 
    1642 0000003f 99CC          OR        *+XAR4[1],AH          ; [CPU_ALU] |673| 
    1643                      .dwpsn  file "../device/driverlib/memcfg.c",line 675,column 13,is_stmt,isa 0
    1644 00000040 02FF          MOVB      ACC,#255              ; [CPU_ALU] |675| 
    1645 00000041 8F05          MOVL      XAR4,#390194          ; [CPU_ARAU] |675| 
         00000042 F432 
    1646 00000043 98C4          OR        *+XAR4[0],AL          ; [CPU_ALU] |675| 
    1647 00000044 99CC          OR        *+XAR4[1],AH          ; [CPU_ALU] |675| 
    1648                      .dwpsn  file "../device/driverlib/memcfg.c",line 677,column 13,is_stmt,isa 0
    1649 00000045 020F          MOVB      ACC,#15               ; [CPU_ALU] |677| 
    1650 00000046 8F05          MOVL      XAR4,#390226          ; [CPU_ARAU] |677| 
         00000047 F452 
    1651 00000048 98C4          OR        *+XAR4[0],AL          ; [CPU_ALU] |677| 
    1652 00000049 99CC          OR        *+XAR4[1],AH          ; [CPU_ALU] |677| 
    1653                      .dwpsn  file "../device/driverlib/memcfg.c",line 679,column 13,is_stmt,isa 0
    1654 0000004a 0206          MOVB      ACC,#6                ; [CPU_ALU] |679| 
    1655 0000004b 8F05          MOVL      XAR4,#390258          ; [CPU_ARAU] |679| 
TMS320C2000 Assembler PC v22.6.1 Wed May 21 09:51:57 2025

Copyright (c) 1996-2018 Texas Instruments Incorporated
C:\Users\Daniel\AppData\Local\Temp\{6611AAE7-1C01-4726-BC3D-E811A318ED3B} PAGE   34

         0000004c F472 
    1656                      .dwpsn  file "../device/driverlib/memcfg.c",line 681,column 13,is_stmt,isa 0
    1657 0000004d 6F0E          B         $C$L69,UNC            ; [CPU_ALU] |681| 
    1658                      ; branch occurs ; [] |681| 
    1659 0000004e       $C$L64:    
    1660                      .dwpsn  file "../device/driverlib/memcfg.c",line 665,column 13,is_stmt,isa 0
    1661 0000004e 8F05          MOVL      XAR4,#390258          ; [CPU_ARAU] |665| 
         0000004f F472 
    1662                      .dwpsn  file "../device/driverlib/memcfg.c",line 667,column 13,is_stmt,isa 0
    1663 00000050 6F09          B         $C$L68,UNC            ; [CPU_ALU] |667| 
    1664                      ; branch occurs ; [] |667| 
    1665 00000051       $C$L65:    
    1666                      .dwpsn  file "../device/driverlib/memcfg.c",line 660,column 13,is_stmt,isa 0
    1667 00000051 8F05          MOVL      XAR4,#390226          ; [CPU_ARAU] |660| 
         00000052 F452 
    1668                      .dwpsn  file "../device/driverlib/memcfg.c",line 662,column 13,is_stmt,isa 0
    1669 00000053 6F06          B         $C$L68,UNC            ; [CPU_ALU] |662| 
    1670                      ; branch occurs ; [] |662| 
    1671 00000054       $C$L66:    
    1672                      .dwpsn  file "../device/driverlib/memcfg.c",line 655,column 13,is_stmt,isa 0
    1673 00000054 8F05          MOVL      XAR4,#390194          ; [CPU_ARAU] |655| 
         00000055 F432 
    1674                      .dwpsn  file "../device/driverlib/memcfg.c",line 657,column 13,is_stmt,isa 0
    1675 00000056 6F03          B         $C$L68,UNC            ; [CPU_ALU] |657| 
    1676                      ; branch occurs ; [] |657| 
    1677 00000057       $C$L67:    
    1678                      .dwpsn  file "../device/driverlib/memcfg.c",line 650,column 13,is_stmt,isa 0
    1679 00000057 8F05          MOVL      XAR4,#390162          ; [CPU_ARAU] |650| 
         00000058 F412 
    1680 00000059       $C$L68:    
    1681 00000059 B2A9          MOVL      ACC,XAR1              ; [CPU_ALU] |650| 
    1682 0000005a 91FF          ANDB      AH,#255               ; [CPU_ALU] |650| 
    1683 0000005b       $C$L69:    
    1684 0000005b 98C4          OR        *+XAR4[0],AL          ; [CPU_ALU] |650| 
    1685 0000005c 99CC          OR        *+XAR4[1],AH          ; [CPU_ALU] |650| 
    1686 0000005d       $C$L70:    
    1687                      .dwpsn  file "../device/driverlib/memcfg.c",line 691,column 5,is_stmt,isa 0
    1688 0000005d 761A          EDIS      ; [CPU_ALU] |691| 
    1689 0000005e 8BBE          MOVL      XAR1,*--SP            ; [CPU_ALU] 
    1690                      .dwcfi  cfa_offset, -2
    1691                      .dwcfi  restore_reg, 7
    1692              $C$DW$62        .dwtag  DW_TAG_TI_branch
    1693                      .dwattr $C$DW$62, DW_AT_low_pc(0x00)
    1694                      .dwattr $C$DW$62, DW_AT_TI_return
    1695              
    1696 0000005f 0006          LRETR     ; [CPU_ALU] 
    1697                      ; return occurs ; [] 
    1698                      .dwattr $C$DW$58, DW_AT_TI_end_file("../device/driverlib/memcfg.c")
    1699                      .dwattr $C$DW$58, DW_AT_TI_end_line(0x2b4)
    1700                      .dwattr $C$DW$58, DW_AT_TI_end_column(0x01)
    1701                      .dwendentry
    1702                      .dwendtag $C$DW$58
    1703              
    1704 00000000               .sect   ".text:_MemCfg_getViolationAddress"
    1705                      .clink
TMS320C2000 Assembler PC v22.6.1 Wed May 21 09:51:57 2025

Copyright (c) 1996-2018 Texas Instruments Incorporated
C:\Users\Daniel\AppData\Local\Temp\{6611AAE7-1C01-4726-BC3D-E811A318ED3B} PAGE   35

    1706                      .global _MemCfg_getViolationAddress
    1707              
    1708              $C$DW$63        .dwtag  DW_TAG_subprogram
    1709                      .dwattr $C$DW$63, DW_AT_name("MemCfg_getViolationAddress")
    1710                      .dwattr $C$DW$63, DW_AT_low_pc(_MemCfg_getViolationAddress)
    1711                      .dwattr $C$DW$63, DW_AT_high_pc(0x00)
    1712                      .dwattr $C$DW$63, DW_AT_TI_symbol_name("_MemCfg_getViolationAddress")
    1713                      .dwattr $C$DW$63, DW_AT_external
    1714                      .dwattr $C$DW$63, DW_AT_type(*$C$DW$T$29)
    1715                      .dwattr $C$DW$63, DW_AT_TI_begin_file("../device/driverlib/memcfg.c")
    1716                      .dwattr $C$DW$63, DW_AT_TI_begin_line(0x305)
    1717                      .dwattr $C$DW$63, DW_AT_TI_begin_column(0x01)
    1718                      .dwattr $C$DW$63, DW_AT_TI_max_frame_size(-2)
    1719                      .dwpsn  file "../device/driverlib/memcfg.c",line 774,column 1,is_stmt,address _MemCfg_getViolationAdd
    1720              
    1721                      .dwfde $C$DW$CIE, _MemCfg_getViolationAddress
    1722              $C$DW$64        .dwtag  DW_TAG_formal_parameter
    1723                      .dwattr $C$DW$64, DW_AT_name("intFlag")
    1724                      .dwattr $C$DW$64, DW_AT_TI_symbol_name("_intFlag")
    1725                      .dwattr $C$DW$64, DW_AT_type(*$C$DW$T$29)
    1726                      .dwattr $C$DW$64, DW_AT_location[DW_OP_reg0]
    1727              
    1728              
    1729              ;***************************************************************
    1730              ;* FNAME: _MemCfg_getViolationAddress   FR SIZE:   0           *
    1731              ;*                                                             *
    1732              ;* FUNCTION ENVIRONMENT                                        *
    1733              ;*                                                             *
    1734              ;* FUNCTION PROPERTIES                                         *
    1735              ;*                            0 Parameter,  0 Auto,  0 SOE     *
    1736              ;***************************************************************
    1737              
    1738              _MemCfg_getViolationAddress:
    1739              ;* AR6   assigned to _intFlag
    1740              $C$DW$65        .dwtag  DW_TAG_variable
    1741                      .dwattr $C$DW$65, DW_AT_name("intFlag")
    1742                      .dwattr $C$DW$65, DW_AT_TI_symbol_name("_intFlag")
    1743                      .dwattr $C$DW$65, DW_AT_type(*$C$DW$T$48)
    1744                      .dwattr $C$DW$65, DW_AT_location[DW_OP_reg16]
    1745              
    1746              ;* AR4   assigned to _address
    1747              $C$DW$66        .dwtag  DW_TAG_variable
    1748                      .dwattr $C$DW$66, DW_AT_name("address")
    1749                      .dwattr $C$DW$66, DW_AT_TI_symbol_name("_address")
    1750                      .dwattr $C$DW$66, DW_AT_type(*$C$DW$T$29)
    1751                      .dwattr $C$DW$66, DW_AT_location[DW_OP_reg12]
    1752              
    1753              ;* AR6   assigned to _stsNumber
    1754              $C$DW$67        .dwtag  DW_TAG_variable
    1755                      .dwattr $C$DW$67, DW_AT_name("stsNumber")
    1756                      .dwattr $C$DW$67, DW_AT_TI_symbol_name("_stsNumber")
    1757                      .dwattr $C$DW$67, DW_AT_type(*$C$DW$T$29)
    1758                      .dwattr $C$DW$67, DW_AT_location[DW_OP_reg16]
    1759              
    1760                      .dwcfi  cfa_offset, -2
TMS320C2000 Assembler PC v22.6.1 Wed May 21 09:51:57 2025

Copyright (c) 1996-2018 Texas Instruments Incorporated
C:\Users\Daniel\AppData\Local\Temp\{6611AAE7-1C01-4726-BC3D-E811A318ED3B} PAGE   36

    1761                      .dwcfi  save_reg_to_mem, 26, 0
    1762 00000000 1EA6          MOVL      XAR6,ACC              ; [CPU_ALU] |774| 
    1763                      .dwpsn  file "../device/driverlib/memcfg.c",line 781,column 5,is_stmt,isa 0
    1764 00000001 9000          ANDB      AL,#0                 ; [CPU_ALU] |781| 
    1765 00000002 910F          ANDB      AH,#15                ; [CPU_ALU] |781| 
    1766 00000003 FF58          TEST      ACC                   ; [CPU_ALU] |781| 
    1767 00000004 6004          B         $C$L71,NEQ            ; [CPU_ALU] |781| 
    1768                      ; branchcc occurs ; [] |781| 
    1769                      .dwpsn  file "../device/driverlib/memcfg.c",line 789,column 9,is_stmt,isa 0
    1770 00000005 8F05          MOVL      XAR4,#390408          ; [CPU_ARAU] |789| 
         00000006 F508 
    1771 00000007 6F06          B         $C$L72,UNC            ; [CPU_ALU] |789| 
    1772                      ; branch occurs ; [] |789| 
    1773 00000008       $C$L71:    
    1774                      .dwpsn  file "../device/driverlib/memcfg.c",line 783,column 9,is_stmt,isa 0
    1775 00000008 06A6          MOVL      ACC,XAR6              ; [CPU_ALU] |783| 
    1776 00000009 0EA8          MOVU      ACC,AH                ; [CPU_ALU] |783| 
    1777 0000000a 1EA6          MOVL      XAR6,ACC              ; [CPU_ALU] |783| 
    1778                      .dwpsn  file "../device/driverlib/memcfg.c",line 784,column 9,is_stmt,isa 0
    1779 0000000b 8F05          MOVL      XAR4,#390440          ; [CPU_ARAU] |784| 
         0000000c F528 
    1780 0000000d       $C$L72:    
    1781                      .dwpsn  file "../device/driverlib/memcfg.c",line 792,column 11,is_stmt,isa 0
    1782 0000000d 0201          MOVB      ACC,#1                ; [CPU_ALU] |792| 
    1783 0000000e 0FA6          CMPL      ACC,XAR6              ; [CPU_ALU] |792| 
    1784 0000000f 6709          B         $C$L74,HIS            ; [CPU_ALU] |792| 
    1785                      ; branchcc occurs ; [] |792| 
    1786 00000010 2901          CLRC      SXM                   ; [CPU_ALU] 
    1787 00000011       $C$L73:    
    1788 00000011 06A6          MOVL      ACC,XAR6              ; [CPU_ALU] 
    1789 00000012 FF40          SFR       ACC,1                 ; [CPU_ALU] |792| 
    1790 00000013 1EA6          MOVL      XAR6,ACC              ; [CPU_ALU] |792| 
    1791                      .dwpsn  file "../device/driverlib/memcfg.c",line 795,column 9,is_stmt,isa 0
    1792 00000014 DC02          ADDB      XAR4,#2               ; [CPU_ALU] |795| 
    1793                      .dwpsn  file "../device/driverlib/memcfg.c",line 792,column 11,is_stmt,isa 0
    1794 00000015 0201          MOVB      ACC,#1                ; [CPU_FPU] |792| 
    1795 00000016 0FA6          CMPL      ACC,XAR6              ; [CPU_ALU] |792| 
    1796 00000017 68FA          B         $C$L73,LO             ; [CPU_ALU] |792| 
    1797                      ; branchcc occurs ; [] |792| 
    1798 00000018       $C$L74:    
    1799                      .dwpsn  file "../device/driverlib/memcfg.c",line 801,column 5,is_stmt,isa 0
    1800 00000018 06C4          MOVL      ACC,*+XAR4[0]         ; [CPU_ALU] |801| 
    1801              $C$DW$68        .dwtag  DW_TAG_TI_branch
    1802                      .dwattr $C$DW$68, DW_AT_low_pc(0x00)
    1803                      .dwattr $C$DW$68, DW_AT_TI_return
    1804              
    1805 00000019 0006          LRETR     ; [CPU_ALU] 
    1806                      ; return occurs ; [] 
    1807                      .dwattr $C$DW$63, DW_AT_TI_end_file("../device/driverlib/memcfg.c")
    1808                      .dwattr $C$DW$63, DW_AT_TI_end_line(0x322)
    1809                      .dwattr $C$DW$63, DW_AT_TI_end_column(0x01)
    1810                      .dwendentry
    1811                      .dwendtag $C$DW$63
    1812              
    1813 00000000               .sect   ".text:_MemCfg_getUncorrErrorAddress"
TMS320C2000 Assembler PC v22.6.1 Wed May 21 09:51:57 2025

Copyright (c) 1996-2018 Texas Instruments Incorporated
C:\Users\Daniel\AppData\Local\Temp\{6611AAE7-1C01-4726-BC3D-E811A318ED3B} PAGE   37

    1814                      .clink
    1815                      .global _MemCfg_getUncorrErrorAddress
    1816              
    1817              $C$DW$69        .dwtag  DW_TAG_subprogram
    1818                      .dwattr $C$DW$69, DW_AT_name("MemCfg_getUncorrErrorAddress")
    1819                      .dwattr $C$DW$69, DW_AT_low_pc(_MemCfg_getUncorrErrorAddress)
    1820                      .dwattr $C$DW$69, DW_AT_high_pc(0x00)
    1821                      .dwattr $C$DW$69, DW_AT_TI_symbol_name("_MemCfg_getUncorrErrorAddress")
    1822                      .dwattr $C$DW$69, DW_AT_external
    1823                      .dwattr $C$DW$69, DW_AT_type(*$C$DW$T$29)
    1824                      .dwattr $C$DW$69, DW_AT_TI_begin_file("../device/driverlib/memcfg.c")
    1825                      .dwattr $C$DW$69, DW_AT_TI_begin_line(0x348)
    1826                      .dwattr $C$DW$69, DW_AT_TI_begin_column(0x01)
    1827                      .dwattr $C$DW$69, DW_AT_TI_max_frame_size(-2)
    1828                      .dwpsn  file "../device/driverlib/memcfg.c",line 841,column 1,is_stmt,address _MemCfg_getUncorrErrorA
    1829              
    1830                      .dwfde $C$DW$CIE, _MemCfg_getUncorrErrorAddress
    1831              $C$DW$70        .dwtag  DW_TAG_formal_parameter
    1832                      .dwattr $C$DW$70, DW_AT_name("stsFlag")
    1833                      .dwattr $C$DW$70, DW_AT_TI_symbol_name("_stsFlag")
    1834                      .dwattr $C$DW$70, DW_AT_type(*$C$DW$T$29)
    1835                      .dwattr $C$DW$70, DW_AT_location[DW_OP_reg0]
    1836              
    1837              
    1838              ;***************************************************************
    1839              ;* FNAME: _MemCfg_getUncorrErrorAddress FR SIZE:   0           *
    1840              ;*                                                             *
    1841              ;* FUNCTION ENVIRONMENT                                        *
    1842              ;*                                                             *
    1843              ;* FUNCTION PROPERTIES                                         *
    1844              ;*                            0 Parameter,  0 Auto,  0 SOE     *
    1845              ;***************************************************************
    1846              
    1847              _MemCfg_getUncorrErrorAddress:
    1848              ;* AR4   assigned to _address
    1849              $C$DW$71        .dwtag  DW_TAG_variable
    1850                      .dwattr $C$DW$71, DW_AT_name("address")
    1851                      .dwattr $C$DW$71, DW_AT_TI_symbol_name("_address")
    1852                      .dwattr $C$DW$71, DW_AT_type(*$C$DW$T$29)
    1853                      .dwattr $C$DW$71, DW_AT_location[DW_OP_reg12]
    1854              
    1855              ;* AR6   assigned to _temp
    1856              $C$DW$72        .dwtag  DW_TAG_variable
    1857                      .dwattr $C$DW$72, DW_AT_name("temp")
    1858                      .dwattr $C$DW$72, DW_AT_TI_symbol_name("_temp")
    1859                      .dwattr $C$DW$72, DW_AT_type(*$C$DW$T$29)
    1860                      .dwattr $C$DW$72, DW_AT_location[DW_OP_reg16]
    1861              
    1862                      .dwcfi  cfa_offset, -2
    1863                      .dwcfi  save_reg_to_mem, 26, 0
    1864                      .dwpsn  file "../device/driverlib/memcfg.c",line 850,column 5,is_stmt,isa 0
    1865 00000000 1EA6          MOVL      XAR6,ACC              ; [CPU_ALU] |850| 
    1866                      .dwpsn  file "../device/driverlib/memcfg.c",line 852,column 11,is_stmt,isa 0
    1867 00000001 0201          MOVB      ACC,#1                ; [CPU_ALU] |852| 
    1868                      .dwpsn  file "../device/driverlib/memcfg.c",line 848,column 5,is_stmt,isa 0
TMS320C2000 Assembler PC v22.6.1 Wed May 21 09:51:57 2025

Copyright (c) 1996-2018 Texas Instruments Incorporated
C:\Users\Daniel\AppData\Local\Temp\{6611AAE7-1C01-4726-BC3D-E811A318ED3B} PAGE   38

    1869 00000002 8F05          MOVL      XAR4,#390470          ; [CPU_ARAU] |848| 
         00000003 F546 
    1870                      .dwpsn  file "../device/driverlib/memcfg.c",line 852,column 11,is_stmt,isa 0
    1871 00000004 0FA6          CMPL      ACC,XAR6              ; [CPU_ALU] |852| 
    1872 00000005 6709          B         $C$L76,HIS            ; [CPU_ALU] |852| 
    1873                      ; branchcc occurs ; [] |852| 
    1874 00000006 2901          CLRC      SXM                   ; [CPU_ALU] 
    1875 00000007       $C$L75:    
    1876 00000007 06A6          MOVL      ACC,XAR6              ; [CPU_ALU] 
    1877 00000008 FF40          SFR       ACC,1                 ; [CPU_ALU] |852| 
    1878 00000009 1EA6          MOVL      XAR6,ACC              ; [CPU_ALU] |852| 
    1879                      .dwpsn  file "../device/driverlib/memcfg.c",line 855,column 9,is_stmt,isa 0
    1880 0000000a DC02          ADDB      XAR4,#2               ; [CPU_ALU] |855| 
    1881                      .dwpsn  file "../device/driverlib/memcfg.c",line 852,column 11,is_stmt,isa 0
    1882 0000000b 0201          MOVB      ACC,#1                ; [CPU_FPU] |852| 
    1883 0000000c 0FA6          CMPL      ACC,XAR6              ; [CPU_ALU] |852| 
    1884 0000000d 68FA          B         $C$L75,LO             ; [CPU_ALU] |852| 
    1885                      ; branchcc occurs ; [] |852| 
    1886 0000000e       $C$L76:    
    1887                      .dwpsn  file "../device/driverlib/memcfg.c",line 861,column 5,is_stmt,isa 0
    1888 0000000e 06C4          MOVL      ACC,*+XAR4[0]         ; [CPU_ALU] |861| 
    1889              $C$DW$73        .dwtag  DW_TAG_TI_branch
    1890                      .dwattr $C$DW$73, DW_AT_low_pc(0x00)
    1891                      .dwattr $C$DW$73, DW_AT_TI_return
    1892              
    1893 0000000f 0006          LRETR     ; [CPU_ALU] 
    1894                      ; return occurs ; [] 
    1895                      .dwattr $C$DW$69, DW_AT_TI_end_file("../device/driverlib/memcfg.c")
    1896                      .dwattr $C$DW$69, DW_AT_TI_end_line(0x35e)
    1897                      .dwattr $C$DW$69, DW_AT_TI_end_column(0x01)
    1898                      .dwendentry
    1899                      .dwendtag $C$DW$69
    1900              
    1901 00000000               .sect   ".text:_MemCfg_getInitStatus"
    1902                      .clink
    1903                      .global _MemCfg_getInitStatus
    1904              
    1905              $C$DW$74        .dwtag  DW_TAG_subprogram
    1906                      .dwattr $C$DW$74, DW_AT_name("MemCfg_getInitStatus")
    1907                      .dwattr $C$DW$74, DW_AT_low_pc(_MemCfg_getInitStatus)
    1908                      .dwattr $C$DW$74, DW_AT_high_pc(0x00)
    1909                      .dwattr $C$DW$74, DW_AT_TI_symbol_name("_MemCfg_getInitStatus")
    1910                      .dwattr $C$DW$74, DW_AT_external
    1911                      .dwattr $C$DW$74, DW_AT_type(*$C$DW$T$49)
    1912                      .dwattr $C$DW$74, DW_AT_TI_begin_file("../device/driverlib/memcfg.c")
    1913                      .dwattr $C$DW$74, DW_AT_TI_begin_line(0x2bc)
    1914                      .dwattr $C$DW$74, DW_AT_TI_begin_column(0x01)
    1915                      .dwattr $C$DW$74, DW_AT_TI_max_frame_size(-4)
    1916                      .dwpsn  file "../device/driverlib/memcfg.c",line 701,column 1,is_stmt,address _MemCfg_getInitStatus,i
    1917              
    1918                      .dwfde $C$DW$CIE, _MemCfg_getInitStatus
    1919              $C$DW$75        .dwtag  DW_TAG_formal_parameter
    1920                      .dwattr $C$DW$75, DW_AT_name("ramSections")
    1921                      .dwattr $C$DW$75, DW_AT_TI_symbol_name("_ramSections")
    1922                      .dwattr $C$DW$75, DW_AT_type(*$C$DW$T$29)
TMS320C2000 Assembler PC v22.6.1 Wed May 21 09:51:57 2025

Copyright (c) 1996-2018 Texas Instruments Incorporated
C:\Users\Daniel\AppData\Local\Temp\{6611AAE7-1C01-4726-BC3D-E811A318ED3B} PAGE   39

    1923                      .dwattr $C$DW$75, DW_AT_location[DW_OP_reg0]
    1924              
    1925              
    1926              ;***************************************************************
    1927              ;* FNAME: _MemCfg_getInitStatus         FR SIZE:   2           *
    1928              ;*                                                             *
    1929              ;* FUNCTION ENVIRONMENT                                        *
    1930              ;*                                                             *
    1931              ;* FUNCTION PROPERTIES                                         *
    1932              ;*                            0 Parameter,  0 Auto,  2 SOE     *
    1933              ;***************************************************************
    1934              
    1935              _MemCfg_getInitStatus:
    1936              ;* AR6   assigned to $O$K7
    1937              ;* AR1   assigned to _ramSections
    1938              $C$DW$76        .dwtag  DW_TAG_variable
    1939                      .dwattr $C$DW$76, DW_AT_name("ramSections")
    1940                      .dwattr $C$DW$76, DW_AT_TI_symbol_name("_ramSections")
    1941                      .dwattr $C$DW$76, DW_AT_type(*$C$DW$T$48)
    1942                      .dwattr $C$DW$76, DW_AT_location[DW_OP_reg6]
    1943              
    1944              ;* AL    assigned to _status
    1945              $C$DW$77        .dwtag  DW_TAG_variable
    1946                      .dwattr $C$DW$77, DW_AT_name("status")
    1947                      .dwattr $C$DW$77, DW_AT_TI_symbol_name("_status")
    1948                      .dwattr $C$DW$77, DW_AT_type(*$C$DW$T$29)
    1949                      .dwattr $C$DW$77, DW_AT_location[DW_OP_reg0]
    1950              
    1951                      .dwcfi  cfa_offset, -2
    1952                      .dwcfi  save_reg_to_mem, 26, 0
    1953 00000000 B2BD          MOVL      *SP++,XAR1            ; [CPU_ALU] 
    1954                      .dwcfi  save_reg_to_mem, 7, 2
    1955                      .dwcfi  cfa_offset, -4
    1956 00000001 8BA9          MOVL      XAR1,ACC              ; [CPU_ALU] |701| 
    1957                      .dwpsn  file "../device/driverlib/memcfg.c",line 707,column 5,is_stmt,isa 0
    1958 00000002 9000          ANDB      AL,#0                 ; [CPU_ALU] |707| 
    1959 00000003 18A8          AND       AH,#65024             ; [CPU_ALU] |707| 
         00000004 FE00 
    1960 00000005 FF58          TEST      ACC                   ; [CPU_ALU] |707| 
    1961 00000006 6118          B         $C$L77,EQ             ; [CPU_ALU] |707| 
    1962                      ; branchcc occurs ; [] |707| 
    1963 00000007 B2A9          MOVL      ACC,XAR1              ; [CPU_ALU] 
    1964 00000008 9000          ANDB      AL,#0                 ; [CPU_ALU] |707| 
    1965 00000009 18A8          AND       AH,#65280             ; [CPU_ALU] |707| 
         0000000a FF00 
    1966 0000000b 1EA6          MOVL      XAR6,ACC              ; [CPU_ALU] |707| 
    1967 0000000c FF2F          MOV       ACC,#1024 << 15       ; [CPU_ALU] |707| 
         0000000d 0400 
    1968 0000000e 0FA6          CMPL      ACC,XAR6              ; [CPU_ALU] |707| 
    1969 0000000f 610F          B         $C$L77,EQ             ; [CPU_ALU] |707| 
    1970                      ; branchcc occurs ; [] |707| 
    1971 00000010 FF2F          MOV       ACC,#1536 << 15       ; [CPU_ALU] |707| 
         00000011 0600 
    1972 00000012 0FA6          CMPL      ACC,XAR6              ; [CPU_ALU] |707| 
    1973 00000013 610B          B         $C$L77,EQ             ; [CPU_ALU] |707| 
TMS320C2000 Assembler PC v22.6.1 Wed May 21 09:51:57 2025

Copyright (c) 1996-2018 Texas Instruments Incorporated
C:\Users\Daniel\AppData\Local\Temp\{6611AAE7-1C01-4726-BC3D-E811A318ED3B} PAGE   40

    1974                      ; branchcc occurs ; [] |707| 
    1975 00000014 0200          MOVB      ACC,#0                ; [CPU_ALU] |707| 
    1976 00000015 1901          SUBB      ACC,#1                ; [CPU_ALU] |707| 
    1977 00000016 0FA1          CMPL      ACC,XAR1              ; [CPU_ALU] |707| 
    1978 00000017 6107          B         $C$L77,EQ             ; [CPU_ALU] |707| 
    1979                      ; branchcc occurs ; [] |707| 
    1980 00000018 FF20          MOV       ACC,#711              ; [CPU_ALU] |707| 
         00000019 02C7 
    1981 0000001a 8F00+         MOVL      XAR4,#$C$FSL1         ; [CPU_ARAU] |707| 
         0000001b 0000 
    1982              $C$DW$78        .dwtag  DW_TAG_TI_branch
    1983                      .dwattr $C$DW$78, DW_AT_low_pc(0x00)
    1984                      .dwattr $C$DW$78, DW_AT_name("___error__")
    1985                      .dwattr $C$DW$78, DW_AT_TI_call
    1986              
    1987 0000001c 7640!         LCR       #___error__           ; [CPU_ALU] |707| 
         0000001d 0000 
    1988                      ; call occurs [#___error__] ; [] |707| 
    1989 0000001e       $C$L77:    
    1990 0000001e B2A9          MOVL      ACC,XAR1              ; [CPU_ALU] 
    1991                      .dwpsn  file "../device/driverlib/memcfg.c",line 716,column 5,is_stmt,isa 0
    1992 0000001f 9000          ANDB      AL,#0                 ; [CPU_ALU] |716| 
    1993 00000020 18A8          AND       AH,#65280             ; [CPU_ALU] |716| 
         00000021 FF00 
    1994 00000022 1EA6          MOVL      XAR6,ACC              ; [CPU_ALU] |716| 
    1995 00000023 FF2F          MOV       ACC,#512 << 15        ; [CPU_ALU] |716| 
         00000024 0200 
    1996 00000025 0FA6          CMPL      ACC,XAR6              ; [CPU_ALU] |716| 
    1997 00000026 640B          B         $C$L78,LT             ; [CPU_ALU] |716| 
    1998                      ; branchcc occurs ; [] |716| 
    1999 00000027 0FA6          CMPL      ACC,XAR6              ; [CPU_ALU] |716| 
    2000 00000028 6138          B         $C$L83,EQ             ; [CPU_ALU] |716| 
    2001                      ; branchcc occurs ; [] |716| 
    2002 00000029 3B01          SETC      SXM                   ; [CPU_ALU] 
    2003 0000002a FF2F          MOV       ACC,#-512 << 15       ; [CPU_ALU] |716| 
         0000002b FE00 
    2004 0000002c 0FA6          CMPL      ACC,XAR6              ; [CPU_ALU] |716| 
    2005 0000002d 610D          B         $C$L79,EQ             ; [CPU_ALU] |716| 
    2006                      ; branchcc occurs ; [] |716| 
    2007 0000002e 06A6          MOVL      ACC,XAR6              ; [CPU_ALU] 
    2008 0000002f 6134          B         $C$L84,EQ             ; [CPU_ALU] |716| 
    2009                      ; branchcc occurs ; [] |716| 
    2010 00000030 6F28          B         $C$L80,UNC            ; [CPU_ALU] |716| 
    2011                      ; branch occurs ; [] |716| 
    2012 00000031       $C$L78:    
    2013 00000031 FF2F          MOV       ACC,#1024 << 15       ; [CPU_ALU] |716| 
         00000032 0400 
    2014 00000033 0FA6          CMPL      ACC,XAR6              ; [CPU_ALU] |716| 
    2015 00000034 6129          B         $C$L82,EQ             ; [CPU_ALU] |716| 
    2016                      ; branchcc occurs ; [] |716| 
    2017 00000035 FF2F          MOV       ACC,#1536 << 15       ; [CPU_ALU] |716| 
         00000036 0600 
    2018 00000037 0FA6          CMPL      ACC,XAR6              ; [CPU_ALU] |716| 
    2019 00000038 6122          B         $C$L81,EQ             ; [CPU_ALU] |716| 
    2020                      ; branchcc occurs ; [] |716| 
TMS320C2000 Assembler PC v22.6.1 Wed May 21 09:51:57 2025

Copyright (c) 1996-2018 Texas Instruments Incorporated
C:\Users\Daniel\AppData\Local\Temp\{6611AAE7-1C01-4726-BC3D-E811A318ED3B} PAGE   41

    2021 00000039 6F1F          B         $C$L80,UNC            ; [CPU_ALU] |716| 
    2022                      ; branch occurs ; [] |716| 
    2023 0000003a       $C$L79:    
    2024                      .dwpsn  file "../device/driverlib/memcfg.c",line 738,column 13,is_stmt,isa 0
    2025 0000003a 0203          MOVB      ACC,#3                ; [CPU_ALU] |738| 
    2026 0000003b 8F05          MOVL      XAR4,#390164          ; [CPU_ARAU] |738| 
         0000003c F414 
    2027 0000003d 0FC4          CMPL      ACC,*+XAR4[0]         ; [CPU_ALU] |738| 
    2028 0000003e 601A          B         $C$L80,NEQ            ; [CPU_ALU] |738| 
    2029                      ; branchcc occurs ; [] |738| 
    2030 0000003f 9AFF          MOV       AL,#255               ; [CPU_ALU] |738| 
    2031 00000040 28A8          MOV       AH,#256               ; [CPU_ALU] |738| 
         00000041 0100 
    2032 00000042 8F05          MOVL      XAR4,#390196          ; [CPU_ARAU] |738| 
         00000043 F434 
    2033 00000044 0FC4          CMPL      ACC,*+XAR4[0]         ; [CPU_ALU] |738| 
    2034 00000045 6013          B         $C$L80,NEQ            ; [CPU_ALU] |738| 
    2035                      ; branchcc occurs ; [] |738| 
    2036 00000046 9A0F          MOV       AL,#15                ; [CPU_ALU] |738| 
    2037 00000047 28A8          MOV       AH,#512               ; [CPU_ALU] |738| 
         00000048 0200 
    2038 00000049 8F05          MOVL      XAR4,#390228          ; [CPU_ARAU] |738| 
         0000004a F454 
    2039 0000004b 0FC4          CMPL      ACC,*+XAR4[0]         ; [CPU_ALU] |738| 
    2040 0000004c 600C          B         $C$L80,NEQ            ; [CPU_ALU] |738| 
    2041                      ; branchcc occurs ; [] |738| 
    2042 0000004d 9A06          MOV       AL,#6                 ; [CPU_ALU] |738| 
    2043 0000004e 28A8          MOV       AH,#768               ; [CPU_ALU] |738| 
         0000004f 0300 
    2044 00000050 8F05          MOVL      XAR4,#390260          ; [CPU_ARAU] |738| 
         00000051 F474 
    2045 00000052 0FC4          CMPL      ACC,*+XAR4[0]         ; [CPU_ALU] |738| 
    2046 00000053 6005          B         $C$L80,NEQ            ; [CPU_ALU] |738| 
    2047                      ; branchcc occurs ; [] |738| 
    2048                      .dwpsn  file "../device/driverlib/memcfg.c",line 747,column 17,is_stmt,isa 0
    2049 00000054 28A9          MOV       AL,#65535             ; [CPU_ALU] |747| 
         00000055 FFFF 
    2050 00000056 9BFF          MOV       AH,#255               ; [CPU_ALU] |747| 
    2051 00000057 6F0F          B         $C$L86,UNC            ; [CPU_ALU] 
    2052                      ; branch occurs ; [] 
    2053 00000058       $C$L80:    
    2054                      .dwpsn  file "../device/driverlib/memcfg.c",line 760,column 13,is_stmt,isa 0
    2055 00000058 0200          MOVB      ACC,#0                ; [CPU_ALU] |760| 
    2056                      .dwpsn  file "../device/driverlib/memcfg.c",line 761,column 13,is_stmt,isa 0
    2057 00000059 6F0D          B         $C$L86,UNC            ; [CPU_ALU] |761| 
    2058                      ; branch occurs ; [] |761| 
    2059 0000005a       $C$L81:    
    2060                      .dwpsn  file "../device/driverlib/memcfg.c",line 731,column 13,is_stmt,isa 0
    2061 0000005a 8F05          MOVL      XAR4,#390260          ; [CPU_ARAU] |731| 
         0000005b F474 
    2062                      .dwpsn  file "../device/driverlib/memcfg.c",line 732,column 13,is_stmt,isa 0
    2063 0000005c 6F09          B         $C$L85,UNC            ; [CPU_ALU] |732| 
    2064                      ; branch occurs ; [] |732| 
    2065 0000005d       $C$L82:    
    2066                      .dwpsn  file "../device/driverlib/memcfg.c",line 727,column 13,is_stmt,isa 0
TMS320C2000 Assembler PC v22.6.1 Wed May 21 09:51:57 2025

Copyright (c) 1996-2018 Texas Instruments Incorporated
C:\Users\Daniel\AppData\Local\Temp\{6611AAE7-1C01-4726-BC3D-E811A318ED3B} PAGE   42

    2067 0000005d 8F05          MOVL      XAR4,#390228          ; [CPU_ARAU] |727| 
         0000005e F454 
    2068                      .dwpsn  file "../device/driverlib/memcfg.c",line 728,column 13,is_stmt,isa 0
    2069 0000005f 6F06          B         $C$L85,UNC            ; [CPU_ALU] |728| 
    2070                      ; branch occurs ; [] |728| 
    2071 00000060       $C$L83:    
    2072                      .dwpsn  file "../device/driverlib/memcfg.c",line 723,column 13,is_stmt,isa 0
    2073 00000060 8F05          MOVL      XAR4,#390196          ; [CPU_ARAU] |723| 
         00000061 F434 
    2074                      .dwpsn  file "../device/driverlib/memcfg.c",line 724,column 13,is_stmt,isa 0
    2075 00000062 6F03          B         $C$L85,UNC            ; [CPU_ALU] |724| 
    2076                      ; branch occurs ; [] |724| 
    2077 00000063       $C$L84:    
    2078                      .dwpsn  file "../device/driverlib/memcfg.c",line 719,column 13,is_stmt,isa 0
    2079 00000063 8F05          MOVL      XAR4,#390164          ; [CPU_ARAU] |719| 
         00000064 F414 
    2080 00000065       $C$L85:    
    2081 00000065 06C4          MOVL      ACC,*+XAR4[0]         ; [CPU_ALU] |719| 
    2082 00000066       $C$L86:    
    2083                      .dwpsn  file "../device/driverlib/memcfg.c",line 764,column 5,is_stmt,isa 0
    2084 00000066 B2AB          MOVL      P,XAR1                ; [CPU_ALU] |764| 
    2085 00000067 CFAA          AND       AH,PH                 ; [CPU_ALU] |764| 
    2086 00000068 BE00          MOVB      XAR6,#0               ; [CPU_FPU] |764| 
    2087 00000069 CEAB          AND       AL,PL                 ; [CPU_ALU] |764| 
    2088 0000006a 18AA          AND       PH,#255               ; [CPU_ALU] |764| 
         0000006b 00FF 
    2089 0000006c 0FAB          CMPL      ACC,P                 ; [CPU_ALU] |764| 
    2090 0000006d 56B1          MOVB      XAR6,#1,EQ            ; [CPU_ALU] |764| 
         0000006e 01A6 
    2091 0000006f 8BBE          MOVL      XAR1,*--SP            ; [CPU_ALU] 
    2092                      .dwcfi  cfa_offset, -2
    2093                      .dwcfi  restore_reg, 7
    2094 00000070 92A6          MOV       AL,AR6                ; [CPU_ALU] |764| 
    2095              $C$DW$79        .dwtag  DW_TAG_TI_branch
    2096                      .dwattr $C$DW$79, DW_AT_low_pc(0x00)
    2097                      .dwattr $C$DW$79, DW_AT_TI_return
    2098              
    2099 00000071 0006          LRETR     ; [CPU_ALU] 
    2100                      ; return occurs ; [] 
    2101                      .dwattr $C$DW$74, DW_AT_TI_end_file("../device/driverlib/memcfg.c")
    2102                      .dwattr $C$DW$74, DW_AT_TI_end_line(0x2fd)
    2103                      .dwattr $C$DW$74, DW_AT_TI_end_column(0x01)
    2104                      .dwendentry
    2105                      .dwendtag $C$DW$74
    2106              
    2107 00000000               .sect   ".text:_MemCfg_getCorrErrorAddress"
    2108                      .clink
    2109                      .global _MemCfg_getCorrErrorAddress
    2110              
    2111              $C$DW$80        .dwtag  DW_TAG_subprogram
    2112                      .dwattr $C$DW$80, DW_AT_name("MemCfg_getCorrErrorAddress")
    2113                      .dwattr $C$DW$80, DW_AT_low_pc(_MemCfg_getCorrErrorAddress)
    2114                      .dwattr $C$DW$80, DW_AT_high_pc(0x00)
    2115                      .dwattr $C$DW$80, DW_AT_TI_symbol_name("_MemCfg_getCorrErrorAddress")
    2116                      .dwattr $C$DW$80, DW_AT_external
TMS320C2000 Assembler PC v22.6.1 Wed May 21 09:51:57 2025

Copyright (c) 1996-2018 Texas Instruments Incorporated
C:\Users\Daniel\AppData\Local\Temp\{6611AAE7-1C01-4726-BC3D-E811A318ED3B} PAGE   43

    2117                      .dwattr $C$DW$80, DW_AT_type(*$C$DW$T$29)
    2118                      .dwattr $C$DW$80, DW_AT_TI_begin_file("../device/driverlib/memcfg.c")
    2119                      .dwattr $C$DW$80, DW_AT_TI_begin_line(0x32a)
    2120                      .dwattr $C$DW$80, DW_AT_TI_begin_column(0x01)
    2121                      .dwattr $C$DW$80, DW_AT_TI_max_frame_size(-2)
    2122                      .dwpsn  file "../device/driverlib/memcfg.c",line 811,column 1,is_stmt,address _MemCfg_getCorrErrorAdd
    2123              
    2124                      .dwfde $C$DW$CIE, _MemCfg_getCorrErrorAddress
    2125              $C$DW$81        .dwtag  DW_TAG_formal_parameter
    2126                      .dwattr $C$DW$81, DW_AT_name("stsFlag")
    2127                      .dwattr $C$DW$81, DW_AT_TI_symbol_name("_stsFlag")
    2128                      .dwattr $C$DW$81, DW_AT_type(*$C$DW$T$29)
    2129                      .dwattr $C$DW$81, DW_AT_location[DW_OP_reg0]
    2130              
    2131              
    2132              ;***************************************************************
    2133              ;* FNAME: _MemCfg_getCorrErrorAddress   FR SIZE:   0           *
    2134              ;*                                                             *
    2135              ;* FUNCTION ENVIRONMENT                                        *
    2136              ;*                                                             *
    2137              ;* FUNCTION PROPERTIES                                         *
    2138              ;*                            0 Parameter,  0 Auto,  0 SOE     *
    2139              ;***************************************************************
    2140              
    2141              _MemCfg_getCorrErrorAddress:
    2142              ;* AR4   assigned to _address
    2143              $C$DW$82        .dwtag  DW_TAG_variable
    2144                      .dwattr $C$DW$82, DW_AT_name("address")
    2145                      .dwattr $C$DW$82, DW_AT_TI_symbol_name("_address")
    2146                      .dwattr $C$DW$82, DW_AT_type(*$C$DW$T$29)
    2147                      .dwattr $C$DW$82, DW_AT_location[DW_OP_reg12]
    2148              
    2149              ;* AR6   assigned to _temp
    2150              $C$DW$83        .dwtag  DW_TAG_variable
    2151                      .dwattr $C$DW$83, DW_AT_name("temp")
    2152                      .dwattr $C$DW$83, DW_AT_TI_symbol_name("_temp")
    2153                      .dwattr $C$DW$83, DW_AT_type(*$C$DW$T$29)
    2154                      .dwattr $C$DW$83, DW_AT_location[DW_OP_reg16]
    2155              
    2156                      .dwcfi  cfa_offset, -2
    2157                      .dwcfi  save_reg_to_mem, 26, 0
    2158                      .dwpsn  file "../device/driverlib/memcfg.c",line 819,column 5,is_stmt,isa 0
    2159 00000000 1EA6          MOVL      XAR6,ACC              ; [CPU_ALU] |819| 
    2160                      .dwpsn  file "../device/driverlib/memcfg.c",line 821,column 11,is_stmt,isa 0
    2161 00000001 0201          MOVB      ACC,#1                ; [CPU_ALU] |821| 
    2162                      .dwpsn  file "../device/driverlib/memcfg.c",line 817,column 5,is_stmt,isa 0
    2163 00000002 8F05          MOVL      XAR4,#390502          ; [CPU_ARAU] |817| 
         00000003 F566 
    2164                      .dwpsn  file "../device/driverlib/memcfg.c",line 821,column 11,is_stmt,isa 0
    2165 00000004 0FA6          CMPL      ACC,XAR6              ; [CPU_ALU] |821| 
    2166 00000005 6709          B         $C$L88,HIS            ; [CPU_ALU] |821| 
    2167                      ; branchcc occurs ; [] |821| 
    2168 00000006 2901          CLRC      SXM                   ; [CPU_ALU] 
    2169 00000007       $C$L87:    
    2170 00000007 06A6          MOVL      ACC,XAR6              ; [CPU_ALU] 
TMS320C2000 Assembler PC v22.6.1 Wed May 21 09:51:57 2025

Copyright (c) 1996-2018 Texas Instruments Incorporated
C:\Users\Daniel\AppData\Local\Temp\{6611AAE7-1C01-4726-BC3D-E811A318ED3B} PAGE   44

    2171 00000008 FF40          SFR       ACC,1                 ; [CPU_ALU] |821| 
    2172 00000009 1EA6          MOVL      XAR6,ACC              ; [CPU_ALU] |821| 
    2173                      .dwpsn  file "../device/driverlib/memcfg.c",line 824,column 9,is_stmt,isa 0
    2174 0000000a DC02          ADDB      XAR4,#2               ; [CPU_ALU] |824| 
    2175                      .dwpsn  file "../device/driverlib/memcfg.c",line 821,column 11,is_stmt,isa 0
    2176 0000000b 0201          MOVB      ACC,#1                ; [CPU_FPU] |821| 
    2177 0000000c 0FA6          CMPL      ACC,XAR6              ; [CPU_ALU] |821| 
    2178 0000000d 68FA          B         $C$L87,LO             ; [CPU_ALU] |821| 
    2179                      ; branchcc occurs ; [] |821| 
    2180 0000000e       $C$L88:    
    2181                      .dwpsn  file "../device/driverlib/memcfg.c",line 830,column 5,is_stmt,isa 0
    2182 0000000e 06C4          MOVL      ACC,*+XAR4[0]         ; [CPU_ALU] |830| 
    2183              $C$DW$84        .dwtag  DW_TAG_TI_branch
    2184                      .dwattr $C$DW$84, DW_AT_low_pc(0x00)
    2185                      .dwattr $C$DW$84, DW_AT_TI_return
    2186              
    2187 0000000f 0006          LRETR     ; [CPU_ALU] 
    2188                      ; return occurs ; [] 
    2189                      .dwattr $C$DW$80, DW_AT_TI_end_file("../device/driverlib/memcfg.c")
    2190                      .dwattr $C$DW$80, DW_AT_TI_end_line(0x340)
    2191                      .dwattr $C$DW$80, DW_AT_TI_end_column(0x01)
    2192                      .dwendentry
    2193                      .dwendtag $C$DW$80
    2194              
    2195 00000000               .sect   ".text:_MemCfg_forceMemError"
    2196                      .clink
    2197                      .global _MemCfg_forceMemError
    2198              
    2199              $C$DW$85        .dwtag  DW_TAG_subprogram
    2200                      .dwattr $C$DW$85, DW_AT_name("MemCfg_forceMemError")
    2201                      .dwattr $C$DW$85, DW_AT_low_pc(_MemCfg_forceMemError)
    2202                      .dwattr $C$DW$85, DW_AT_high_pc(0x00)
    2203                      .dwattr $C$DW$85, DW_AT_TI_symbol_name("_MemCfg_forceMemError")
    2204                      .dwattr $C$DW$85, DW_AT_external
    2205                      .dwattr $C$DW$85, DW_AT_TI_begin_file("../device/driverlib/memcfg.c")
    2206                      .dwattr $C$DW$85, DW_AT_TI_begin_line(0x366)
    2207                      .dwattr $C$DW$85, DW_AT_TI_begin_column(0x01)
    2208                      .dwattr $C$DW$85, DW_AT_TI_max_frame_size(-6)
    2209                      .dwpsn  file "../device/driverlib/memcfg.c",line 871,column 1,is_stmt,address _MemCfg_forceMemError,i
    2210              
    2211                      .dwfde $C$DW$CIE, _MemCfg_forceMemError
    2212              $C$DW$86        .dwtag  DW_TAG_formal_parameter
    2213                      .dwattr $C$DW$86, DW_AT_name("memSections")
    2214                      .dwattr $C$DW$86, DW_AT_TI_symbol_name("_memSections")
    2215                      .dwattr $C$DW$86, DW_AT_type(*$C$DW$T$29)
    2216                      .dwattr $C$DW$86, DW_AT_location[DW_OP_reg0]
    2217              
    2218              
    2219              ;***************************************************************
    2220              ;* FNAME: _MemCfg_forceMemError         FR SIZE:   4           *
    2221              ;*                                                             *
    2222              ;* FUNCTION ENVIRONMENT                                        *
    2223              ;*                                                             *
    2224              ;* FUNCTION PROPERTIES                                         *
    2225              ;*                            0 Parameter,  0 Auto,  4 SOE     *
TMS320C2000 Assembler PC v22.6.1 Wed May 21 09:51:57 2025

Copyright (c) 1996-2018 Texas Instruments Incorporated
C:\Users\Daniel\AppData\Local\Temp\{6611AAE7-1C01-4726-BC3D-E811A318ED3B} PAGE   45

    2226              ;***************************************************************
    2227              
    2228              _MemCfg_forceMemError:
    2229              ;* AR2   assigned to $O$K2
    2230              ;* AR1   assigned to _memSections
    2231              $C$DW$87        .dwtag  DW_TAG_variable
    2232                      .dwattr $C$DW$87, DW_AT_name("memSections")
    2233                      .dwattr $C$DW$87, DW_AT_TI_symbol_name("_memSections")
    2234                      .dwattr $C$DW$87, DW_AT_type(*$C$DW$T$48)
    2235                      .dwattr $C$DW$87, DW_AT_location[DW_OP_reg6]
    2236              
    2237                      .dwcfi  cfa_offset, -2
    2238                      .dwcfi  save_reg_to_mem, 26, 0
    2239 00000000 B2BD          MOVL      *SP++,XAR1            ; [CPU_ALU] 
    2240                      .dwcfi  save_reg_to_mem, 7, 2
    2241                      .dwcfi  cfa_offset, -4
    2242 00000001 8BA9          MOVL      XAR1,ACC              ; [CPU_ALU] |871| 
    2243                      .dwpsn  file "../device/driverlib/memcfg.c",line 875,column 5,is_stmt,isa 0
    2244 00000002 9000          ANDB      AL,#0                 ; [CPU_ALU] |875| 
    2245 00000003 18A8          AND       AH,#65280             ; [CPU_ALU] |875| 
         00000004 FF00 
    2246 00000005 AABD          MOVL      *SP++,XAR2            ; [CPU_FPU] 
    2247                      .dwcfi  save_reg_to_mem, 9, 4
    2248                      .dwcfi  cfa_offset, -6
    2249 00000006 86A9          MOVL      XAR2,ACC              ; [CPU_ALU] |875| 
    2250 00000007 FF2F          MOV       ACC,#2048 << 15       ; [CPU_ALU] |875| 
         00000008 0800 
    2251 00000009 0FA2          CMPL      ACC,XAR2              ; [CPU_ALU] |875| 
    2252 0000000a 610B          B         $C$L89,EQ             ; [CPU_ALU] |875| 
    2253                      ; branchcc occurs ; [] |875| 
    2254 0000000b 0200          MOVB      ACC,#0                ; [CPU_ALU] |875| 
    2255 0000000c 1901          SUBB      ACC,#1                ; [CPU_ALU] |875| 
    2256 0000000d 0FA1          CMPL      ACC,XAR1              ; [CPU_ALU] |875| 
    2257 0000000e 6107          B         $C$L89,EQ             ; [CPU_ALU] |875| 
    2258                      ; branchcc occurs ; [] |875| 
    2259 0000000f FF20          MOV       ACC,#876              ; [CPU_ALU] |875| 
         00000010 036C 
    2260 00000011 8F00+         MOVL      XAR4,#$C$FSL1         ; [CPU_ARAU] |875| 
         00000012 0000 
    2261              $C$DW$88        .dwtag  DW_TAG_TI_branch
    2262                      .dwattr $C$DW$88, DW_AT_low_pc(0x00)
    2263                      .dwattr $C$DW$88, DW_AT_name("___error__")
    2264                      .dwattr $C$DW$88, DW_AT_TI_call
    2265              
    2266 00000013 7640!         LCR       #___error__           ; [CPU_ALU] |875| 
         00000014 0000 
    2267                      ; call occurs [#___error__] ; [] |875| 
    2268 00000015       $C$L89:    
    2269 00000015 3B01          SETC      SXM                   ; [CPU_ALU] 
    2270                      .dwpsn  file "../device/driverlib/memcfg.c",line 881,column 5,is_stmt,isa 0
    2271 00000016 FF2F          MOV       ACC,#-512 << 15       ; [CPU_ALU] |881| 
         00000017 FE00 
    2272 00000018 0FA2          CMPL      ACC,XAR2              ; [CPU_ALU] |881| 
    2273 00000019 6105          B         $C$L90,EQ             ; [CPU_ALU] |881| 
    2274                      ; branchcc occurs ; [] |881| 
TMS320C2000 Assembler PC v22.6.1 Wed May 21 09:51:57 2025

Copyright (c) 1996-2018 Texas Instruments Incorporated
C:\Users\Daniel\AppData\Local\Temp\{6611AAE7-1C01-4726-BC3D-E811A318ED3B} PAGE   46

    2275 0000001a FF2F          MOV       ACC,#2048 << 15       ; [CPU_ALU] |881| 
         0000001b 0800 
    2276 0000001c 0FA2          CMPL      ACC,XAR2              ; [CPU_ALU] |881| 
    2277 0000001d 6007          B         $C$L91,NEQ            ; [CPU_ALU] |881| 
    2278                      ; branchcc occurs ; [] |881| 
    2279 0000001e       $C$L90:    
    2280                      .dwpsn  file "../device/driverlib/memcfg.c",line 884,column 13,is_stmt,isa 0
    2281 0000001e B2A9          MOVL      ACC,XAR1              ; [CPU_ALU] |884| 
    2282 0000001f 8F05          MOVL      XAR4,#390308          ; [CPU_ARAU] |884| 
         00000020 F4A4 
    2283 00000021 91FF          ANDB      AH,#255               ; [CPU_ALU] |884| 
    2284 00000022 98C4          OR        *+XAR4[0],AL          ; [CPU_FPU] |884| 
    2285 00000023 99CC          OR        *+XAR4[1],AH          ; [CPU_ALU] |884| 
    2286 00000024       $C$L91:    
    2287 00000024 86BE          MOVL      XAR2,*--SP            ; [CPU_ALU] 
    2288                      .dwcfi  cfa_offset, -4
    2289                      .dwcfi  restore_reg, 9
    2290 00000025 8BBE          MOVL      XAR1,*--SP            ; [CPU_ALU] 
    2291                      .dwcfi  cfa_offset, -2
    2292                      .dwcfi  restore_reg, 7
    2293              $C$DW$89        .dwtag  DW_TAG_TI_branch
    2294                      .dwattr $C$DW$89, DW_AT_low_pc(0x00)
    2295                      .dwattr $C$DW$89, DW_AT_TI_return
    2296              
    2297 00000026 0006          LRETR     ; [CPU_ALU] 
    2298                      ; return occurs ; [] 
    2299                      .dwattr $C$DW$85, DW_AT_TI_end_file("../device/driverlib/memcfg.c")
    2300                      .dwattr $C$DW$85, DW_AT_TI_end_line(0x383)
    2301                      .dwattr $C$DW$85, DW_AT_TI_end_column(0x01)
    2302                      .dwendentry
    2303                      .dwendtag $C$DW$85
    2304              
    2305 00000000               .sect   ".text:_MemCfg_commitConfig"
    2306                      .clink
    2307                      .global _MemCfg_commitConfig
    2308              
    2309              $C$DW$90        .dwtag  DW_TAG_subprogram
    2310                      .dwattr $C$DW$90, DW_AT_name("MemCfg_commitConfig")
    2311                      .dwattr $C$DW$90, DW_AT_low_pc(_MemCfg_commitConfig)
    2312                      .dwattr $C$DW$90, DW_AT_high_pc(0x00)
    2313                      .dwattr $C$DW$90, DW_AT_TI_symbol_name("_MemCfg_commitConfig")
    2314                      .dwattr $C$DW$90, DW_AT_external
    2315                      .dwattr $C$DW$90, DW_AT_TI_begin_file("../device/driverlib/memcfg.c")
    2316                      .dwattr $C$DW$90, DW_AT_TI_begin_line(0xbd)
    2317                      .dwattr $C$DW$90, DW_AT_TI_begin_column(0x01)
    2318                      .dwattr $C$DW$90, DW_AT_TI_max_frame_size(-4)
    2319                      .dwpsn  file "../device/driverlib/memcfg.c",line 190,column 1,is_stmt,address _MemCfg_commitConfig,is
    2320              
    2321                      .dwfde $C$DW$CIE, _MemCfg_commitConfig
    2322              $C$DW$91        .dwtag  DW_TAG_formal_parameter
    2323                      .dwattr $C$DW$91, DW_AT_name("memSections")
    2324                      .dwattr $C$DW$91, DW_AT_TI_symbol_name("_memSections")
    2325                      .dwattr $C$DW$91, DW_AT_type(*$C$DW$T$29)
    2326                      .dwattr $C$DW$91, DW_AT_location[DW_OP_reg0]
    2327              
TMS320C2000 Assembler PC v22.6.1 Wed May 21 09:51:57 2025

Copyright (c) 1996-2018 Texas Instruments Incorporated
C:\Users\Daniel\AppData\Local\Temp\{6611AAE7-1C01-4726-BC3D-E811A318ED3B} PAGE   47

    2328              
    2329              ;***************************************************************
    2330              ;* FNAME: _MemCfg_commitConfig          FR SIZE:   2           *
    2331              ;*                                                             *
    2332              ;* FUNCTION ENVIRONMENT                                        *
    2333              ;*                                                             *
    2334              ;* FUNCTION PROPERTIES                                         *
    2335              ;*                            0 Parameter,  0 Auto,  2 SOE     *
    2336              ;***************************************************************
    2337              
    2338              _MemCfg_commitConfig:
    2339              ;* AR6   assigned to $O$K7
    2340              ;* AR1   assigned to _memSections
    2341              $C$DW$92        .dwtag  DW_TAG_variable
    2342                      .dwattr $C$DW$92, DW_AT_name("memSections")
    2343                      .dwattr $C$DW$92, DW_AT_TI_symbol_name("_memSections")
    2344                      .dwattr $C$DW$92, DW_AT_type(*$C$DW$T$48)
    2345                      .dwattr $C$DW$92, DW_AT_location[DW_OP_reg6]
    2346              
    2347                      .dwcfi  cfa_offset, -2
    2348                      .dwcfi  save_reg_to_mem, 26, 0
    2349 00000000 B2BD          MOVL      *SP++,XAR1            ; [CPU_ALU] 
    2350                      .dwcfi  save_reg_to_mem, 7, 2
    2351                      .dwcfi  cfa_offset, -4
    2352 00000001 8BA9          MOVL      XAR1,ACC              ; [CPU_ALU] |190| 
    2353                      .dwpsn  file "../device/driverlib/memcfg.c",line 194,column 5,is_stmt,isa 0
    2354 00000002 9000          ANDB      AL,#0                 ; [CPU_ALU] |194| 
    2355 00000003 18A8          AND       AH,#65024             ; [CPU_ALU] |194| 
         00000004 FE00 
    2356 00000005 FF58          TEST      ACC                   ; [CPU_ALU] |194| 
    2357 00000006 6117          B         $C$L92,EQ             ; [CPU_ALU] |194| 
    2358                      ; branchcc occurs ; [] |194| 
    2359 00000007 B2A9          MOVL      ACC,XAR1              ; [CPU_ALU] |194| 
    2360 00000008 9000          ANDB      AL,#0                 ; [CPU_ALU] |194| 
    2361 00000009 18A8          AND       AH,#65280             ; [CPU_ALU] |194| 
         0000000a FF00 
    2362 0000000b 1EA6          MOVL      XAR6,ACC              ; [CPU_ALU] |194| 
    2363 0000000c FF2F          MOV       ACC,#1024 << 15       ; [CPU_ALU] |194| 
         0000000d 0400 
    2364 0000000e 0FA6          CMPL      ACC,XAR6              ; [CPU_ALU] |194| 
    2365 0000000f 610E          B         $C$L92,EQ             ; [CPU_ALU] |194| 
    2366                      ; branchcc occurs ; [] |194| 
    2367 00000010 FF2F          MOV       ACC,#1536 << 15       ; [CPU_ALU] |194| 
         00000011 0600 
    2368 00000012 0FA6          CMPL      ACC,XAR6              ; [CPU_ALU] |194| 
    2369 00000013 610A          B         $C$L92,EQ             ; [CPU_ALU] |194| 
    2370                      ; branchcc occurs ; [] |194| 
    2371 00000014 0200          MOVB      ACC,#0                ; [CPU_ALU] |194| 
    2372 00000015 1901          SUBB      ACC,#1                ; [CPU_ALU] |194| 
    2373 00000016 0FA1          CMPL      ACC,XAR1              ; [CPU_ALU] |194| 
    2374 00000017 6106          B         $C$L92,EQ             ; [CPU_ALU] |194| 
    2375                      ; branchcc occurs ; [] |194| 
    2376 00000018 8F00+         MOVL      XAR4,#$C$FSL1         ; [CPU_ARAU] |194| 
         00000019 0000 
    2377 0000001a 02C6          MOVB      ACC,#198              ; [CPU_ALU] |194| 
TMS320C2000 Assembler PC v22.6.1 Wed May 21 09:51:57 2025

Copyright (c) 1996-2018 Texas Instruments Incorporated
C:\Users\Daniel\AppData\Local\Temp\{6611AAE7-1C01-4726-BC3D-E811A318ED3B} PAGE   48

    2378              $C$DW$93        .dwtag  DW_TAG_TI_branch
    2379                      .dwattr $C$DW$93, DW_AT_low_pc(0x00)
    2380                      .dwattr $C$DW$93, DW_AT_name("___error__")
    2381                      .dwattr $C$DW$93, DW_AT_TI_call
    2382              
    2383 0000001b 7640!         LCR       #___error__           ; [CPU_ALU] |194| 
         0000001c 0000 
    2384                      ; call occurs [#___error__] ; [] |194| 
    2385 0000001d       $C$L92:    
    2386                      .dwpsn  file "../device/driverlib/memcfg.c",line 204,column 5,is_stmt,isa 0
    2387 0000001d 7622          EALLOW    ; [CPU_ALU] |204| 
    2388                      .dwpsn  file "../device/driverlib/memcfg.c",line 206,column 5,is_stmt,isa 0
    2389 0000001e B2A9          MOVL      ACC,XAR1              ; [CPU_ALU] |206| 
    2390 0000001f 9000          ANDB      AL,#0                 ; [CPU_ALU] |206| 
    2391 00000020 18A8          AND       AH,#65280             ; [CPU_ALU] |206| 
         00000021 FF00 
    2392 00000022 1EA6          MOVL      XAR6,ACC              ; [CPU_ALU] |206| 
    2393 00000023 FF2F          MOV       ACC,#512 << 15        ; [CPU_ALU] |206| 
         00000024 0200 
    2394 00000025 0FA6          CMPL      ACC,XAR6              ; [CPU_ALU] |206| 
    2395 00000026 640B          B         $C$L93,LT             ; [CPU_ALU] |206| 
    2396                      ; branchcc occurs ; [] |206| 
    2397 00000027 0FA6          CMPL      ACC,XAR6              ; [CPU_ALU] |206| 
    2398 00000028 612B          B         $C$L97,EQ             ; [CPU_ALU] |206| 
    2399                      ; branchcc occurs ; [] |206| 
    2400 00000029 3B01          SETC      SXM                   ; [CPU_ALU] 
    2401 0000002a FF2F          MOV       ACC,#-512 << 15       ; [CPU_ALU] |206| 
         0000002b FE00 
    2402 0000002c 0FA6          CMPL      ACC,XAR6              ; [CPU_ALU] |206| 
    2403 0000002d 610D          B         $C$L94,EQ             ; [CPU_ALU] |206| 
    2404                      ; branchcc occurs ; [] |206| 
    2405 0000002e 06A6          MOVL      ACC,XAR6              ; [CPU_ALU] 
    2406 0000002f 6127          B         $C$L98,EQ             ; [CPU_ALU] |206| 
    2407                      ; branchcc occurs ; [] |206| 
    2408 00000030 6F2C          B         $C$L101,UNC           ; [CPU_ALU] |206| 
    2409                      ; branch occurs ; [] |206| 
    2410 00000031       $C$L93:    
    2411 00000031 FF2F          MOV       ACC,#1024 << 15       ; [CPU_ALU] |206| 
         00000032 0400 
    2412 00000033 0FA6          CMPL      ACC,XAR6              ; [CPU_ALU] |206| 
    2413 00000034 611C          B         $C$L96,EQ             ; [CPU_ALU] |206| 
    2414                      ; branchcc occurs ; [] |206| 
    2415 00000035 FF2F          MOV       ACC,#1536 << 15       ; [CPU_ALU] |206| 
         00000036 0600 
    2416 00000037 0FA6          CMPL      ACC,XAR6              ; [CPU_ALU] |206| 
    2417 00000038 6115          B         $C$L95,EQ             ; [CPU_ALU] |206| 
    2418                      ; branchcc occurs ; [] |206| 
    2419 00000039 6F23          B         $C$L101,UNC           ; [CPU_ALU] |206| 
    2420                      ; branch occurs ; [] |206| 
    2421 0000003a       $C$L94:    
    2422                      .dwpsn  file "../device/driverlib/memcfg.c",line 232,column 13,is_stmt,isa 0
    2423 0000003a 0203          MOVB      ACC,#3                ; [CPU_ALU] |232| 
    2424 0000003b 8F05          MOVL      XAR4,#390146          ; [CPU_ARAU] |232| 
         0000003c F402 
    2425 0000003d 98C4          OR        *+XAR4[0],AL          ; [CPU_ALU] |232| 
TMS320C2000 Assembler PC v22.6.1 Wed May 21 09:51:57 2025

Copyright (c) 1996-2018 Texas Instruments Incorporated
C:\Users\Daniel\AppData\Local\Temp\{6611AAE7-1C01-4726-BC3D-E811A318ED3B} PAGE   49

    2426 0000003e 99CC          OR        *+XAR4[1],AH          ; [CPU_ALU] |232| 
    2427                      .dwpsn  file "../device/driverlib/memcfg.c",line 234,column 13,is_stmt,isa 0
    2428 0000003f 02FF          MOVB      ACC,#255              ; [CPU_ALU] |234| 
    2429 00000040 8F05          MOVL      XAR4,#390178          ; [CPU_ARAU] |234| 
         00000041 F422 
    2430 00000042 98C4          OR        *+XAR4[0],AL          ; [CPU_ALU] |234| 
    2431 00000043 99CC          OR        *+XAR4[1],AH          ; [CPU_ALU] |234| 
    2432                      .dwpsn  file "../device/driverlib/memcfg.c",line 236,column 13,is_stmt,isa 0
    2433 00000044 020F          MOVB      ACC,#15               ; [CPU_ALU] |236| 
    2434 00000045 8F05          MOVL      XAR4,#390210          ; [CPU_ARAU] |236| 
         00000046 F442 
    2435 00000047 98C4          OR        *+XAR4[0],AL          ; [CPU_ALU] |236| 
    2436 00000048 99CC          OR        *+XAR4[1],AH          ; [CPU_ALU] |236| 
    2437                      .dwpsn  file "../device/driverlib/memcfg.c",line 238,column 13,is_stmt,isa 0
    2438 00000049 0206          MOVB      ACC,#6                ; [CPU_ALU] |238| 
    2439 0000004a 8F05          MOVL      XAR4,#390242          ; [CPU_ARAU] |238| 
         0000004b F462 
    2440                      .dwpsn  file "../device/driverlib/memcfg.c",line 240,column 13,is_stmt,isa 0
    2441 0000004c 6F0E          B         $C$L100,UNC           ; [CPU_ALU] |240| 
    2442                      ; branch occurs ; [] |240| 
    2443 0000004d       $C$L95:    
    2444                      .dwpsn  file "../device/driverlib/memcfg.c",line 224,column 13,is_stmt,isa 0
    2445 0000004d 8F05          MOVL      XAR4,#390242          ; [CPU_ARAU] |224| 
         0000004e F462 
    2446                      .dwpsn  file "../device/driverlib/memcfg.c",line 226,column 13,is_stmt,isa 0
    2447 0000004f 6F09          B         $C$L99,UNC            ; [CPU_ALU] |226| 
    2448                      ; branch occurs ; [] |226| 
    2449 00000050       $C$L96:    
    2450                      .dwpsn  file "../device/driverlib/memcfg.c",line 219,column 13,is_stmt,isa 0
    2451 00000050 8F05          MOVL      XAR4,#390210          ; [CPU_ARAU] |219| 
         00000051 F442 
    2452                      .dwpsn  file "../device/driverlib/memcfg.c",line 221,column 13,is_stmt,isa 0
    2453 00000052 6F06          B         $C$L99,UNC            ; [CPU_ALU] |221| 
    2454                      ; branch occurs ; [] |221| 
    2455 00000053       $C$L97:    
    2456                      .dwpsn  file "../device/driverlib/memcfg.c",line 214,column 13,is_stmt,isa 0
    2457 00000053 8F05          MOVL      XAR4,#390178          ; [CPU_ARAU] |214| 
         00000054 F422 
    2458                      .dwpsn  file "../device/driverlib/memcfg.c",line 216,column 13,is_stmt,isa 0
    2459 00000055 6F03          B         $C$L99,UNC            ; [CPU_ALU] |216| 
    2460                      ; branch occurs ; [] |216| 
    2461 00000056       $C$L98:    
    2462                      .dwpsn  file "../device/driverlib/memcfg.c",line 209,column 13,is_stmt,isa 0
    2463 00000056 8F05          MOVL      XAR4,#390146          ; [CPU_ARAU] |209| 
         00000057 F402 
    2464 00000058       $C$L99:    
    2465 00000058 B2A9          MOVL      ACC,XAR1              ; [CPU_ALU] |209| 
    2466 00000059 91FF          ANDB      AH,#255               ; [CPU_ALU] |209| 
    2467 0000005a       $C$L100:    
    2468 0000005a 98C4          OR        *+XAR4[0],AL          ; [CPU_ALU] |209| 
    2469 0000005b 99CC          OR        *+XAR4[1],AH          ; [CPU_ALU] |209| 
    2470 0000005c       $C$L101:    
    2471                      .dwpsn  file "../device/driverlib/memcfg.c",line 250,column 5,is_stmt,isa 0
    2472 0000005c 761A          EDIS      ; [CPU_ALU] |250| 
    2473 0000005d 8BBE          MOVL      XAR1,*--SP            ; [CPU_ALU] 
TMS320C2000 Assembler PC v22.6.1 Wed May 21 09:51:57 2025

Copyright (c) 1996-2018 Texas Instruments Incorporated
C:\Users\Daniel\AppData\Local\Temp\{6611AAE7-1C01-4726-BC3D-E811A318ED3B} PAGE   50

    2474                      .dwcfi  cfa_offset, -2
    2475                      .dwcfi  restore_reg, 7
    2476              $C$DW$94        .dwtag  DW_TAG_TI_branch
    2477                      .dwattr $C$DW$94, DW_AT_low_pc(0x00)
    2478                      .dwattr $C$DW$94, DW_AT_TI_return
    2479              
    2480 0000005e 0006          LRETR     ; [CPU_ALU] 
    2481                      ; return occurs ; [] 
    2482                      .dwattr $C$DW$90, DW_AT_TI_end_file("../device/driverlib/memcfg.c")
    2483                      .dwattr $C$DW$90, DW_AT_TI_end_line(0xfb)
    2484                      .dwattr $C$DW$90, DW_AT_TI_end_column(0x01)
    2485                      .dwendentry
    2486                      .dwendtag $C$DW$90
    2487              
    2488              ;***************************************************************
    2489              ;* FAR STRINGS                                                 *
    2490              ;***************************************************************
    2491 00000000               .sect   ".econst:.string"
    2492                      .align  2
    2493 00000000 002E  $C$FSL1:        .string "../device/driverlib/memcfg.c",0
         00000001 002E 
         00000002 002F 
         00000003 0064 
         00000004 0065 
         00000005 0076 
         00000006 0069 
         00000007 0063 
         00000008 0065 
         00000009 002F 
         0000000a 0064 
         0000000b 0072 
         0000000c 0069 
         0000000d 0076 
         0000000e 0065 
         0000000f 0072 
         00000010 006C 
         00000011 0069 
         00000012 0062 
         00000013 002F 
         00000014 006D 
         00000015 0065 
         00000016 006D 
         00000017 0063 
         00000018 0066 
         00000019 0067 
         0000001a 002E 
         0000001b 0063 
         0000001c 0000 
    2494              ;**************************************************************
    2495              ;* UNDEFINED EXTERNAL REFERENCES                              *
    2496              ;**************************************************************
    2497                      .global ___error__
    2498              
    2499              ;***************************************************************
    2500              ;* TYPE INFORMATION                                            *
TMS320C2000 Assembler PC v22.6.1 Wed May 21 09:51:57 2025

Copyright (c) 1996-2018 Texas Instruments Incorporated
C:\Users\Daniel\AppData\Local\Temp\{6611AAE7-1C01-4726-BC3D-E811A318ED3B} PAGE   51

    2501              ;***************************************************************
    2502              
    2503              $C$DW$T$19      .dwtag  DW_TAG_enumeration_type
    2504                      .dwattr $C$DW$T$19, DW_AT_byte_size(0x01)
    2505              $C$DW$95        .dwtag  DW_TAG_enumerator
    2506                      .dwattr $C$DW$95, DW_AT_name("MEMCFG_LSRAMCONTROLLER_CPU_ONLY")
    2507                      .dwattr $C$DW$95, DW_AT_const_value(0x00)
    2508              
    2509              $C$DW$96        .dwtag  DW_TAG_enumerator
    2510                      .dwattr $C$DW$96, DW_AT_name("MEMCFG_LSRAMCONTROLLER_CPU_CLA1")
    2511                      .dwattr $C$DW$96, DW_AT_const_value(0x01)
    2512              
    2513                      .dwendtag $C$DW$T$19
    2514              
    2515              $C$DW$T$20      .dwtag  DW_TAG_typedef
    2516                      .dwattr $C$DW$T$20, DW_AT_name("MemCfg_LSRAMControllerSel")
    2517                      .dwattr $C$DW$T$20, DW_AT_type(*$C$DW$T$19)
    2518                      .dwattr $C$DW$T$20, DW_AT_language(DW_LANG_C)
    2519              
    2520              $C$DW$97        .dwtag  DW_TAG_TI_far_type
    2521                      .dwattr $C$DW$97, DW_AT_type(*$C$DW$T$20)
    2522              
    2523              $C$DW$T$21      .dwtag  DW_TAG_const_type
    2524                      .dwattr $C$DW$T$21, DW_AT_type(*$C$DW$97)
    2525              
    2526              
    2527              $C$DW$T$22      .dwtag  DW_TAG_enumeration_type
    2528                      .dwattr $C$DW$T$22, DW_AT_byte_size(0x01)
    2529              $C$DW$98        .dwtag  DW_TAG_enumerator
    2530                      .dwattr $C$DW$98, DW_AT_name("MEMCFG_TEST_FUNCTIONAL")
    2531                      .dwattr $C$DW$98, DW_AT_const_value(0x00)
    2532              
    2533              $C$DW$99        .dwtag  DW_TAG_enumerator
    2534                      .dwattr $C$DW$99, DW_AT_name("MEMCFG_TEST_WRITE_DATA")
    2535                      .dwattr $C$DW$99, DW_AT_const_value(0x01)
    2536              
    2537              $C$DW$100       .dwtag  DW_TAG_enumerator
    2538                      .dwattr $C$DW$100, DW_AT_name("MEMCFG_TEST_WRITE_ECC")
    2539                      .dwattr $C$DW$100, DW_AT_const_value(0x02)
    2540              
    2541              $C$DW$101       .dwtag  DW_TAG_enumerator
    2542                      .dwattr $C$DW$101, DW_AT_name("MEMCFG_TEST_WRITE_PARITY")
    2543                      .dwattr $C$DW$101, DW_AT_const_value(0x02)
    2544              
    2545              $C$DW$102       .dwtag  DW_TAG_enumerator
    2546                      .dwattr $C$DW$102, DW_AT_name("MEMCFG_TEST_FUNC_DIAG")
    2547                      .dwattr $C$DW$102, DW_AT_const_value(0x03)
    2548              
    2549                      .dwendtag $C$DW$T$22
    2550              
    2551              $C$DW$T$23      .dwtag  DW_TAG_typedef
    2552                      .dwattr $C$DW$T$23, DW_AT_name("MemCfg_TestMode")
    2553                      .dwattr $C$DW$T$23, DW_AT_type(*$C$DW$T$22)
    2554                      .dwattr $C$DW$T$23, DW_AT_language(DW_LANG_C)
    2555              
TMS320C2000 Assembler PC v22.6.1 Wed May 21 09:51:57 2025

Copyright (c) 1996-2018 Texas Instruments Incorporated
C:\Users\Daniel\AppData\Local\Temp\{6611AAE7-1C01-4726-BC3D-E811A318ED3B} PAGE   52

    2556              $C$DW$103       .dwtag  DW_TAG_TI_far_type
    2557                      .dwattr $C$DW$103, DW_AT_type(*$C$DW$T$23)
    2558              
    2559              $C$DW$T$24      .dwtag  DW_TAG_const_type
    2560                      .dwattr $C$DW$T$24, DW_AT_type(*$C$DW$103)
    2561              
    2562              $C$DW$T$2       .dwtag  DW_TAG_unspecified_type
    2563                      .dwattr $C$DW$T$2, DW_AT_name("void")
    2564              
    2565              $C$DW$T$4       .dwtag  DW_TAG_base_type
    2566                      .dwattr $C$DW$T$4, DW_AT_encoding(DW_ATE_boolean)
    2567                      .dwattr $C$DW$T$4, DW_AT_name("bool")
    2568                      .dwattr $C$DW$T$4, DW_AT_byte_size(0x01)
    2569              
    2570              $C$DW$T$5       .dwtag  DW_TAG_base_type
    2571                      .dwattr $C$DW$T$5, DW_AT_encoding(DW_ATE_signed_char)
    2572                      .dwattr $C$DW$T$5, DW_AT_name("signed char")
    2573                      .dwattr $C$DW$T$5, DW_AT_byte_size(0x01)
    2574              
    2575              $C$DW$T$6       .dwtag  DW_TAG_base_type
    2576                      .dwattr $C$DW$T$6, DW_AT_encoding(DW_ATE_unsigned_char)
    2577                      .dwattr $C$DW$T$6, DW_AT_name("unsigned char")
    2578                      .dwattr $C$DW$T$6, DW_AT_byte_size(0x01)
    2579              
    2580              $C$DW$T$7       .dwtag  DW_TAG_base_type
    2581                      .dwattr $C$DW$T$7, DW_AT_encoding(DW_ATE_signed_char)
    2582                      .dwattr $C$DW$T$7, DW_AT_name("wchar_t")
    2583                      .dwattr $C$DW$T$7, DW_AT_byte_size(0x01)
    2584              
    2585              $C$DW$T$8       .dwtag  DW_TAG_base_type
    2586                      .dwattr $C$DW$T$8, DW_AT_encoding(DW_ATE_signed)
    2587                      .dwattr $C$DW$T$8, DW_AT_name("short")
    2588                      .dwattr $C$DW$T$8, DW_AT_byte_size(0x01)
    2589              
    2590              $C$DW$T$9       .dwtag  DW_TAG_base_type
    2591                      .dwattr $C$DW$T$9, DW_AT_encoding(DW_ATE_unsigned)
    2592                      .dwattr $C$DW$T$9, DW_AT_name("unsigned short")
    2593                      .dwattr $C$DW$T$9, DW_AT_byte_size(0x01)
    2594              
    2595              $C$DW$T$10      .dwtag  DW_TAG_base_type
    2596                      .dwattr $C$DW$T$10, DW_AT_encoding(DW_ATE_signed)
    2597                      .dwattr $C$DW$T$10, DW_AT_name("int")
    2598                      .dwattr $C$DW$T$10, DW_AT_byte_size(0x01)
    2599              
    2600              $C$DW$T$11      .dwtag  DW_TAG_base_type
    2601                      .dwattr $C$DW$T$11, DW_AT_encoding(DW_ATE_unsigned)
    2602                      .dwattr $C$DW$T$11, DW_AT_name("unsigned int")
    2603                      .dwattr $C$DW$T$11, DW_AT_byte_size(0x01)
    2604              
    2605              $C$DW$T$12      .dwtag  DW_TAG_base_type
    2606                      .dwattr $C$DW$T$12, DW_AT_encoding(DW_ATE_signed)
    2607                      .dwattr $C$DW$T$12, DW_AT_name("long")
    2608                      .dwattr $C$DW$T$12, DW_AT_byte_size(0x02)
    2609              
    2610              $C$DW$T$13      .dwtag  DW_TAG_base_type
TMS320C2000 Assembler PC v22.6.1 Wed May 21 09:51:57 2025

Copyright (c) 1996-2018 Texas Instruments Incorporated
C:\Users\Daniel\AppData\Local\Temp\{6611AAE7-1C01-4726-BC3D-E811A318ED3B} PAGE   53

    2611                      .dwattr $C$DW$T$13, DW_AT_encoding(DW_ATE_unsigned)
    2612                      .dwattr $C$DW$T$13, DW_AT_name("unsigned long")
    2613                      .dwattr $C$DW$T$13, DW_AT_byte_size(0x02)
    2614              
    2615              $C$DW$T$28      .dwtag  DW_TAG_typedef
    2616                      .dwattr $C$DW$T$28, DW_AT_name("__uint32_t")
    2617                      .dwattr $C$DW$T$28, DW_AT_type(*$C$DW$T$13)
    2618                      .dwattr $C$DW$T$28, DW_AT_language(DW_LANG_C)
    2619              
    2620              $C$DW$T$29      .dwtag  DW_TAG_typedef
    2621                      .dwattr $C$DW$T$29, DW_AT_name("uint32_t")
    2622                      .dwattr $C$DW$T$29, DW_AT_type(*$C$DW$T$28)
    2623                      .dwattr $C$DW$T$29, DW_AT_language(DW_LANG_C)
    2624              
    2625              $C$DW$104       .dwtag  DW_TAG_TI_far_type
    2626                      .dwattr $C$DW$104, DW_AT_type(*$C$DW$T$29)
    2627              
    2628              $C$DW$T$48      .dwtag  DW_TAG_const_type
    2629                      .dwattr $C$DW$T$48, DW_AT_type(*$C$DW$104)
    2630              
    2631              $C$DW$T$14      .dwtag  DW_TAG_base_type
    2632                      .dwattr $C$DW$T$14, DW_AT_encoding(DW_ATE_signed)
    2633                      .dwattr $C$DW$T$14, DW_AT_name("long long")
    2634                      .dwattr $C$DW$T$14, DW_AT_byte_size(0x04)
    2635              
    2636              $C$DW$T$15      .dwtag  DW_TAG_base_type
    2637                      .dwattr $C$DW$T$15, DW_AT_encoding(DW_ATE_unsigned)
    2638                      .dwattr $C$DW$T$15, DW_AT_name("unsigned long long")
    2639                      .dwattr $C$DW$T$15, DW_AT_byte_size(0x04)
    2640              
    2641              $C$DW$T$16      .dwtag  DW_TAG_base_type
    2642                      .dwattr $C$DW$T$16, DW_AT_encoding(DW_ATE_float)
    2643                      .dwattr $C$DW$T$16, DW_AT_name("float")
    2644                      .dwattr $C$DW$T$16, DW_AT_byte_size(0x02)
    2645              
    2646              $C$DW$T$17      .dwtag  DW_TAG_base_type
    2647                      .dwattr $C$DW$T$17, DW_AT_encoding(DW_ATE_float)
    2648                      .dwattr $C$DW$T$17, DW_AT_name("double")
    2649                      .dwattr $C$DW$T$17, DW_AT_byte_size(0x02)
    2650              
    2651              $C$DW$T$18      .dwtag  DW_TAG_base_type
    2652                      .dwattr $C$DW$T$18, DW_AT_encoding(DW_ATE_float)
    2653                      .dwattr $C$DW$T$18, DW_AT_name("long double")
    2654                      .dwattr $C$DW$T$18, DW_AT_byte_size(0x04)
    2655              
    2656              $C$DW$105       .dwtag  DW_TAG_TI_far_type
    2657                      .dwattr $C$DW$105, DW_AT_type(*$C$DW$T$5)
    2658              
    2659              $C$DW$T$26      .dwtag  DW_TAG_const_type
    2660                      .dwattr $C$DW$T$26, DW_AT_type(*$C$DW$105)
    2661              
    2662              $C$DW$T$27      .dwtag  DW_TAG_pointer_type
    2663                      .dwattr $C$DW$T$27, DW_AT_type(*$C$DW$T$26)
    2664                      .dwattr $C$DW$T$27, DW_AT_address_class(0x20)
    2665              
TMS320C2000 Assembler PC v22.6.1 Wed May 21 09:51:57 2025

Copyright (c) 1996-2018 Texas Instruments Incorporated
C:\Users\Daniel\AppData\Local\Temp\{6611AAE7-1C01-4726-BC3D-E811A318ED3B} PAGE   54

    2666              $C$DW$T$49      .dwtag  DW_TAG_base_type
    2667                      .dwattr $C$DW$T$49, DW_AT_encoding(DW_ATE_unsigned_char)
    2668                      .dwattr $C$DW$T$49, DW_AT_name("unsigned char")
    2669                      .dwattr $C$DW$T$49, DW_AT_byte_size(0x01)
    2670              
    2671                      .dwattr $C$DW$CU, DW_AT_language(DW_LANG_C)
    2672              
    2673              ;***************************************************************
    2674              ;* DWARF CIE ENTRIES                                           *
    2675              ;***************************************************************
    2676              
    2677              $C$DW$CIE       .dwcie 26
    2678                      .dwcfi  cfa_register, 20
    2679                      .dwcfi  cfa_offset, 0
    2680                      .dwcfi  same_value, 28
    2681                      .dwcfi  same_value, 6
    2682                      .dwcfi  same_value, 7
    2683                      .dwcfi  same_value, 8
    2684                      .dwcfi  same_value, 9
    2685                      .dwcfi  same_value, 10
    2686                      .dwcfi  same_value, 11
    2687                      .dwcfi  same_value, 59
    2688                      .dwcfi  same_value, 63
    2689                      .dwcfi  same_value, 67
    2690                      .dwcfi  same_value, 71
    2691                      .dwendentry
    2692              
    2693              ;***************************************************************
    2694              ;* DWARF REGISTER MAP                                          *
    2695              ;***************************************************************
    2696              
    2697              $C$DW$106       .dwtag  DW_TAG_TI_assign_register
    2698                      .dwattr $C$DW$106, DW_AT_name("AL")
    2699                      .dwattr $C$DW$106, DW_AT_location[DW_OP_reg0]
    2700              
    2701              $C$DW$107       .dwtag  DW_TAG_TI_assign_register
    2702                      .dwattr $C$DW$107, DW_AT_name("AH")
    2703                      .dwattr $C$DW$107, DW_AT_location[DW_OP_reg1]
    2704              
    2705              $C$DW$108       .dwtag  DW_TAG_TI_assign_register
    2706                      .dwattr $C$DW$108, DW_AT_name("PL")
    2707                      .dwattr $C$DW$108, DW_AT_location[DW_OP_reg2]
    2708              
    2709              $C$DW$109       .dwtag  DW_TAG_TI_assign_register
    2710                      .dwattr $C$DW$109, DW_AT_name("PH")
    2711                      .dwattr $C$DW$109, DW_AT_location[DW_OP_reg3]
    2712              
    2713              $C$DW$110       .dwtag  DW_TAG_TI_assign_register
    2714                      .dwattr $C$DW$110, DW_AT_name("SP")
    2715                      .dwattr $C$DW$110, DW_AT_location[DW_OP_reg20]
    2716              
    2717              $C$DW$111       .dwtag  DW_TAG_TI_assign_register
    2718                      .dwattr $C$DW$111, DW_AT_name("XT")
    2719                      .dwattr $C$DW$111, DW_AT_location[DW_OP_reg21]
    2720              
TMS320C2000 Assembler PC v22.6.1 Wed May 21 09:51:57 2025

Copyright (c) 1996-2018 Texas Instruments Incorporated
C:\Users\Daniel\AppData\Local\Temp\{6611AAE7-1C01-4726-BC3D-E811A318ED3B} PAGE   55

    2721              $C$DW$112       .dwtag  DW_TAG_TI_assign_register
    2722                      .dwattr $C$DW$112, DW_AT_name("T")
    2723                      .dwattr $C$DW$112, DW_AT_location[DW_OP_reg22]
    2724              
    2725              $C$DW$113       .dwtag  DW_TAG_TI_assign_register
    2726                      .dwattr $C$DW$113, DW_AT_name("ST0")
    2727                      .dwattr $C$DW$113, DW_AT_location[DW_OP_reg23]
    2728              
    2729              $C$DW$114       .dwtag  DW_TAG_TI_assign_register
    2730                      .dwattr $C$DW$114, DW_AT_name("ST1")
    2731                      .dwattr $C$DW$114, DW_AT_location[DW_OP_reg24]
    2732              
    2733              $C$DW$115       .dwtag  DW_TAG_TI_assign_register
    2734                      .dwattr $C$DW$115, DW_AT_name("PC")
    2735                      .dwattr $C$DW$115, DW_AT_location[DW_OP_reg25]
    2736              
    2737              $C$DW$116       .dwtag  DW_TAG_TI_assign_register
    2738                      .dwattr $C$DW$116, DW_AT_name("RPC")
    2739                      .dwattr $C$DW$116, DW_AT_location[DW_OP_reg26]
    2740              
    2741              $C$DW$117       .dwtag  DW_TAG_TI_assign_register
    2742                      .dwattr $C$DW$117, DW_AT_name("FP")
    2743                      .dwattr $C$DW$117, DW_AT_location[DW_OP_reg28]
    2744              
    2745              $C$DW$118       .dwtag  DW_TAG_TI_assign_register
    2746                      .dwattr $C$DW$118, DW_AT_name("DP")
    2747                      .dwattr $C$DW$118, DW_AT_location[DW_OP_reg29]
    2748              
    2749              $C$DW$119       .dwtag  DW_TAG_TI_assign_register
    2750                      .dwattr $C$DW$119, DW_AT_name("SXM")
    2751                      .dwattr $C$DW$119, DW_AT_location[DW_OP_reg30]
    2752              
    2753              $C$DW$120       .dwtag  DW_TAG_TI_assign_register
    2754                      .dwattr $C$DW$120, DW_AT_name("PM")
    2755                      .dwattr $C$DW$120, DW_AT_location[DW_OP_reg31]
    2756              
    2757              $C$DW$121       .dwtag  DW_TAG_TI_assign_register
    2758                      .dwattr $C$DW$121, DW_AT_name("OVM")
    2759                      .dwattr $C$DW$121, DW_AT_location[DW_OP_regx 0x20]
    2760              
    2761              $C$DW$122       .dwtag  DW_TAG_TI_assign_register
    2762                      .dwattr $C$DW$122, DW_AT_name("PAGE0")
    2763                      .dwattr $C$DW$122, DW_AT_location[DW_OP_regx 0x21]
    2764              
    2765              $C$DW$123       .dwtag  DW_TAG_TI_assign_register
    2766                      .dwattr $C$DW$123, DW_AT_name("AMODE")
    2767                      .dwattr $C$DW$123, DW_AT_location[DW_OP_regx 0x22]
    2768              
    2769              $C$DW$124       .dwtag  DW_TAG_TI_assign_register
    2770                      .dwattr $C$DW$124, DW_AT_name("EALLOW")
    2771                      .dwattr $C$DW$124, DW_AT_location[DW_OP_regx 0x4e]
    2772              
    2773              $C$DW$125       .dwtag  DW_TAG_TI_assign_register
    2774                      .dwattr $C$DW$125, DW_AT_name("INTM")
    2775                      .dwattr $C$DW$125, DW_AT_location[DW_OP_regx 0x23]
TMS320C2000 Assembler PC v22.6.1 Wed May 21 09:51:57 2025

Copyright (c) 1996-2018 Texas Instruments Incorporated
C:\Users\Daniel\AppData\Local\Temp\{6611AAE7-1C01-4726-BC3D-E811A318ED3B} PAGE   56

    2776              
    2777              $C$DW$126       .dwtag  DW_TAG_TI_assign_register
    2778                      .dwattr $C$DW$126, DW_AT_name("IFR")
    2779                      .dwattr $C$DW$126, DW_AT_location[DW_OP_regx 0x24]
    2780              
    2781              $C$DW$127       .dwtag  DW_TAG_TI_assign_register
    2782                      .dwattr $C$DW$127, DW_AT_name("IER")
    2783                      .dwattr $C$DW$127, DW_AT_location[DW_OP_regx 0x25]
    2784              
    2785              $C$DW$128       .dwtag  DW_TAG_TI_assign_register
    2786                      .dwattr $C$DW$128, DW_AT_name("V")
    2787                      .dwattr $C$DW$128, DW_AT_location[DW_OP_regx 0x26]
    2788              
    2789              $C$DW$129       .dwtag  DW_TAG_TI_assign_register
    2790                      .dwattr $C$DW$129, DW_AT_name("PSEUDOH")
    2791                      .dwattr $C$DW$129, DW_AT_location[DW_OP_regx 0x4c]
    2792              
    2793              $C$DW$130       .dwtag  DW_TAG_TI_assign_register
    2794                      .dwattr $C$DW$130, DW_AT_name("VOL")
    2795                      .dwattr $C$DW$130, DW_AT_location[DW_OP_regx 0x4d]
    2796              
    2797              $C$DW$131       .dwtag  DW_TAG_TI_assign_register
    2798                      .dwattr $C$DW$131, DW_AT_name("AR0")
    2799                      .dwattr $C$DW$131, DW_AT_location[DW_OP_reg4]
    2800              
    2801              $C$DW$132       .dwtag  DW_TAG_TI_assign_register
    2802                      .dwattr $C$DW$132, DW_AT_name("XAR0")
    2803                      .dwattr $C$DW$132, DW_AT_location[DW_OP_reg5]
    2804              
    2805              $C$DW$133       .dwtag  DW_TAG_TI_assign_register
    2806                      .dwattr $C$DW$133, DW_AT_name("AR1")
    2807                      .dwattr $C$DW$133, DW_AT_location[DW_OP_reg6]
    2808              
    2809              $C$DW$134       .dwtag  DW_TAG_TI_assign_register
    2810                      .dwattr $C$DW$134, DW_AT_name("XAR1")
    2811                      .dwattr $C$DW$134, DW_AT_location[DW_OP_reg7]
    2812              
    2813              $C$DW$135       .dwtag  DW_TAG_TI_assign_register
    2814                      .dwattr $C$DW$135, DW_AT_name("AR2")
    2815                      .dwattr $C$DW$135, DW_AT_location[DW_OP_reg8]
    2816              
    2817              $C$DW$136       .dwtag  DW_TAG_TI_assign_register
    2818                      .dwattr $C$DW$136, DW_AT_name("XAR2")
    2819                      .dwattr $C$DW$136, DW_AT_location[DW_OP_reg9]
    2820              
    2821              $C$DW$137       .dwtag  DW_TAG_TI_assign_register
    2822                      .dwattr $C$DW$137, DW_AT_name("AR3")
    2823                      .dwattr $C$DW$137, DW_AT_location[DW_OP_reg10]
    2824              
    2825              $C$DW$138       .dwtag  DW_TAG_TI_assign_register
    2826                      .dwattr $C$DW$138, DW_AT_name("XAR3")
    2827                      .dwattr $C$DW$138, DW_AT_location[DW_OP_reg11]
    2828              
    2829              $C$DW$139       .dwtag  DW_TAG_TI_assign_register
    2830                      .dwattr $C$DW$139, DW_AT_name("AR4")
TMS320C2000 Assembler PC v22.6.1 Wed May 21 09:51:57 2025

Copyright (c) 1996-2018 Texas Instruments Incorporated
C:\Users\Daniel\AppData\Local\Temp\{6611AAE7-1C01-4726-BC3D-E811A318ED3B} PAGE   57

    2831                      .dwattr $C$DW$139, DW_AT_location[DW_OP_reg12]
    2832              
    2833              $C$DW$140       .dwtag  DW_TAG_TI_assign_register
    2834                      .dwattr $C$DW$140, DW_AT_name("XAR4")
    2835                      .dwattr $C$DW$140, DW_AT_location[DW_OP_reg13]
    2836              
    2837              $C$DW$141       .dwtag  DW_TAG_TI_assign_register
    2838                      .dwattr $C$DW$141, DW_AT_name("AR5")
    2839                      .dwattr $C$DW$141, DW_AT_location[DW_OP_reg14]
    2840              
    2841              $C$DW$142       .dwtag  DW_TAG_TI_assign_register
    2842                      .dwattr $C$DW$142, DW_AT_name("XAR5")
    2843                      .dwattr $C$DW$142, DW_AT_location[DW_OP_reg15]
    2844              
    2845              $C$DW$143       .dwtag  DW_TAG_TI_assign_register
    2846                      .dwattr $C$DW$143, DW_AT_name("AR6")
    2847                      .dwattr $C$DW$143, DW_AT_location[DW_OP_reg16]
    2848              
    2849              $C$DW$144       .dwtag  DW_TAG_TI_assign_register
    2850                      .dwattr $C$DW$144, DW_AT_name("XAR6")
    2851                      .dwattr $C$DW$144, DW_AT_location[DW_OP_reg17]
    2852              
    2853              $C$DW$145       .dwtag  DW_TAG_TI_assign_register
    2854                      .dwattr $C$DW$145, DW_AT_name("AR7")
    2855                      .dwattr $C$DW$145, DW_AT_location[DW_OP_reg18]
    2856              
    2857              $C$DW$146       .dwtag  DW_TAG_TI_assign_register
    2858                      .dwattr $C$DW$146, DW_AT_name("XAR7")
    2859                      .dwattr $C$DW$146, DW_AT_location[DW_OP_reg19]
    2860              
    2861              $C$DW$147       .dwtag  DW_TAG_TI_assign_register
    2862                      .dwattr $C$DW$147, DW_AT_name("R0H")
    2863                      .dwattr $C$DW$147, DW_AT_location[DW_OP_regx 0x2b]
    2864              
    2865              $C$DW$148       .dwtag  DW_TAG_TI_assign_register
    2866                      .dwattr $C$DW$148, DW_AT_name("R1H")
    2867                      .dwattr $C$DW$148, DW_AT_location[DW_OP_regx 0x2f]
    2868              
    2869              $C$DW$149       .dwtag  DW_TAG_TI_assign_register
    2870                      .dwattr $C$DW$149, DW_AT_name("R2H")
    2871                      .dwattr $C$DW$149, DW_AT_location[DW_OP_regx 0x33]
    2872              
    2873              $C$DW$150       .dwtag  DW_TAG_TI_assign_register
    2874                      .dwattr $C$DW$150, DW_AT_name("R3H")
    2875                      .dwattr $C$DW$150, DW_AT_location[DW_OP_regx 0x37]
    2876              
    2877              $C$DW$151       .dwtag  DW_TAG_TI_assign_register
    2878                      .dwattr $C$DW$151, DW_AT_name("R4H")
    2879                      .dwattr $C$DW$151, DW_AT_location[DW_OP_regx 0x3b]
    2880              
    2881              $C$DW$152       .dwtag  DW_TAG_TI_assign_register
    2882                      .dwattr $C$DW$152, DW_AT_name("R5H")
    2883                      .dwattr $C$DW$152, DW_AT_location[DW_OP_regx 0x3f]
    2884              
    2885              $C$DW$153       .dwtag  DW_TAG_TI_assign_register
TMS320C2000 Assembler PC v22.6.1 Wed May 21 09:51:57 2025

Copyright (c) 1996-2018 Texas Instruments Incorporated
C:\Users\Daniel\AppData\Local\Temp\{6611AAE7-1C01-4726-BC3D-E811A318ED3B} PAGE   58

    2886                      .dwattr $C$DW$153, DW_AT_name("R6H")
    2887                      .dwattr $C$DW$153, DW_AT_location[DW_OP_regx 0x43]
    2888              
    2889              $C$DW$154       .dwtag  DW_TAG_TI_assign_register
    2890                      .dwattr $C$DW$154, DW_AT_name("R7H")
    2891                      .dwattr $C$DW$154, DW_AT_location[DW_OP_regx 0x47]
    2892              
    2893              $C$DW$155       .dwtag  DW_TAG_TI_assign_register
    2894                      .dwattr $C$DW$155, DW_AT_name("RB")
    2895                      .dwattr $C$DW$155, DW_AT_location[DW_OP_regx 0x4a]
    2896              
    2897              $C$DW$156       .dwtag  DW_TAG_TI_assign_register
    2898                      .dwattr $C$DW$156, DW_AT_name("STF")
    2899                      .dwattr $C$DW$156, DW_AT_location[DW_OP_regx 0x28]
    2900              
    2901              $C$DW$157       .dwtag  DW_TAG_TI_assign_register
    2902                      .dwattr $C$DW$157, DW_AT_name("FPUHAZ")
    2903                      .dwattr $C$DW$157, DW_AT_location[DW_OP_reg27]
    2904              
    2905              $C$DW$158       .dwtag  DW_TAG_TI_assign_register
    2906                      .dwattr $C$DW$158, DW_AT_name("STF_HWDIV")
    2907                      .dwattr $C$DW$158, DW_AT_location[DW_OP_regx 0x4f]
    2908              
    2909              $C$DW$159       .dwtag  DW_TAG_TI_assign_register
    2910                      .dwattr $C$DW$159, DW_AT_name("VCRC")
    2911                      .dwattr $C$DW$159, DW_AT_location[DW_OP_regx 0x50]
    2912              
    2913              $C$DW$160       .dwtag  DW_TAG_TI_assign_register
    2914                      .dwattr $C$DW$160, DW_AT_name("VSTATUS")
    2915                      .dwattr $C$DW$160, DW_AT_location[DW_OP_regx 0x51]
    2916              
    2917              $C$DW$161       .dwtag  DW_TAG_TI_assign_register
    2918                      .dwattr $C$DW$161, DW_AT_name("VCRCPOLY")
    2919                      .dwattr $C$DW$161, DW_AT_location[DW_OP_regx 0x52]
    2920              
    2921              $C$DW$162       .dwtag  DW_TAG_TI_assign_register
    2922                      .dwattr $C$DW$162, DW_AT_name("VCRCSIZE")
    2923                      .dwattr $C$DW$162, DW_AT_location[DW_OP_regx 0x53]
    2924              
    2925                      .dwendtag $C$DW$CU
    2926              

No Assembly Errors, No Assembly Warnings
